; Listing generated by Microsoft (R) Optimizing Compiler Version 16.00.40219.01 

	TITLE	F:\codes\pecker_framework_git\pecker_src\pecker_framework\array_test.cpp
	.686P
	.XMM
	include listing.inc
	.model	flat

INCLUDELIB MSVCRTD
INCLUDELIB OLDNAMES

PUBLIC	??1?$pecker_array@HV?$pecker_simple_allocator@H@pecker_sdk@@@pecker_sdk@@UAE@XZ ; pecker_sdk::pecker_array<int,pecker_sdk::pecker_simple_allocator<int> >::~pecker_array<int,pecker_sdk::pecker_simple_allocator<int> >
PUBLIC	??1?$pecker_array_iterator@V?$pecker_array@HV?$pecker_simple_allocator@H@pecker_sdk@@@pecker_sdk@@@pecker_sdk@@UAE@XZ ; pecker_sdk::pecker_array_iterator<pecker_sdk::pecker_array<int,pecker_sdk::pecker_simple_allocator<int> > >::~pecker_array_iterator<pecker_sdk::pecker_array<int,pecker_sdk::pecker_simple_allocator<int> > >
PUBLIC	?clear@?$pecker_array@HV?$pecker_simple_allocator@H@pecker_sdk@@@pecker_sdk@@QAEJ_N@Z ; pecker_sdk::pecker_array<int,pecker_sdk::pecker_simple_allocator<int> >::clear
PUBLIC	??_C@_0O@MBCOGNKJ@array?5?5sorted?$AA@		; `string'
PUBLIC	??$quick_sort_increment@HU?$pecker_value_compare@H@pecker_sdk@@V?$pecker_array@HV?$pecker_simple_allocator@H@pecker_sdk@@@2@V?$pecker_array_iterator@V?$pecker_array@HV?$pecker_simple_allocator@H@pecker_sdk@@@pecker_sdk@@@2@@pecker_sdk@@YAJAAV?$pecker_array@HV?$pecker_simple_allocator@H@pecker_sdk@@@0@ABV?$pecker_array_iterator@V?$pecker_array@HV?$pecker_simple_allocator@H@pecker_sdk@@@pecker_sdk@@@0@1@Z ; pecker_sdk::quick_sort_increment<int,pecker_sdk::pecker_value_compare<int>,pecker_sdk::pecker_array<int,pecker_sdk::pecker_simple_allocator<int> >,pecker_sdk::pecker_array_iterator<pecker_sdk::pecker_array<int,pecker_sdk::pecker_simple_allocator<int> > > >
PUBLIC	??_C@_0BB@GBNGOMJI@array?5to?5be?5sort?$AA@	; `string'
PUBLIC	??_C@_0CB@ILKKIGKB@resize?0true?0get?5set?5begin?5to?5end@ ; `string'
PUBLIC	??_C@_0BE@GMDFIGCC@resize?0true?0get?5set?$AA@	; `string'
PUBLIC	??_C@_0BM@JOHNJOMH@resize?0get?5set?5begin?5to?5end?$AA@ ; `string'
PUBLIC	?get_at@?$pecker_array@HV?$pecker_simple_allocator@H@pecker_sdk@@@pecker_sdk@@QBEPBHH@Z ; pecker_sdk::pecker_array<int,pecker_sdk::pecker_simple_allocator<int> >::get_at
PUBLIC	?set_at@?$pecker_array@HV?$pecker_simple_allocator@H@pecker_sdk@@@pecker_sdk@@QAEJHABH@Z ; pecker_sdk::pecker_array<int,pecker_sdk::pecker_simple_allocator<int> >::set_at
PUBLIC	?resize@?$pecker_array@HV?$pecker_simple_allocator@H@pecker_sdk@@@pecker_sdk@@QAEJHH_N@Z ; pecker_sdk::pecker_array<int,pecker_sdk::pecker_simple_allocator<int> >::resize
PUBLIC	??_C@_0P@FNNMJEDO@resize?0get?5set?$AA@		; `string'
PUBLIC	??_C@_0BG@EGIIOBEI@push?5pop?5end?5to?5begin?$AA@ ; `string'
PUBLIC	??_C@_0BG@NGMJCOBM@push?5pop?5begin?5to?5end?$AA@ ; `string'
PUBLIC	?pop@?$pecker_array@HV?$pecker_simple_allocator@H@pecker_sdk@@@pecker_sdk@@QAEJXZ ; pecker_sdk::pecker_array<int,pecker_sdk::pecker_simple_allocator<int> >::pop
PUBLIC	??_C@_0N@OIDKLPEO@end?5to?5begin?$AA@		; `string'
PUBLIC	?decrement@?$pecker_array_iterator@V?$pecker_array@HV?$pecker_simple_allocator@H@pecker_sdk@@@pecker_sdk@@@pecker_sdk@@UAEJXZ ; pecker_sdk::pecker_array_iterator<pecker_sdk::pecker_array<int,pecker_sdk::pecker_simple_allocator<int> > >::decrement
PUBLIC	??_C@_0L@GPEFKELB@dec?4?4?4?4?4?4?4?$AA@	; `string'
PUBLIC	??_C@_02DKCKIIND@?$CFs?$AA@			; `string'
PUBLIC	??_C@_0N@HIHLHABK@begin?5to?5end?$AA@		; `string'
PUBLIC	?increment@?$pecker_array_iterator@V?$pecker_array@HV?$pecker_simple_allocator@H@pecker_sdk@@@pecker_sdk@@@pecker_sdk@@UAEJXZ ; pecker_sdk::pecker_array_iterator<pecker_sdk::pecker_array<int,pecker_sdk::pecker_simple_allocator<int> > >::increment
PUBLIC	??_C@_05IHCDMNLM@null?6?$AA@			; `string'
PUBLIC	?get_at@?$pecker_array@HV?$pecker_simple_allocator@H@pecker_sdk@@@pecker_sdk@@QBEPBHPBV?$pecker_array_iterator@V?$pecker_array@HV?$pecker_simple_allocator@H@pecker_sdk@@@pecker_sdk@@@2@@Z ; pecker_sdk::pecker_array<int,pecker_sdk::pecker_simple_allocator<int> >::get_at
PUBLIC	??_C@_0L@FMDBBCEB@inc?4?4?4?4?4?4?4?$AA@	; `string'
PUBLIC	??_C@_01EEMJAFIK@?6?$AA@			; `string'
PUBLIC	??_C@_0BA@NAEAIJEJ@array_test_main?$AA@		; `string'
PUBLIC	??_C@_09PALELKOJ@LOG_INFO?5?$AA@		; `string'
PUBLIC	?init@?$pecker_array_iterator@V?$pecker_array@HV?$pecker_simple_allocator@H@pecker_sdk@@@pecker_sdk@@@pecker_sdk@@UAEJW4enumLINEAR_INTERATOR_INIT_TYPE@@@Z ; pecker_sdk::pecker_array_iterator<pecker_sdk::pecker_array<int,pecker_sdk::pecker_simple_allocator<int> > >::init
PUBLIC	?get_iterator@?$pecker_array@HV?$pecker_simple_allocator@H@pecker_sdk@@@pecker_sdk@@QBEPAV?$pecker_array_iterator@V?$pecker_array@HV?$pecker_simple_allocator@H@pecker_sdk@@@pecker_sdk@@@2@PAV32@@Z ; pecker_sdk::pecker_array<int,pecker_sdk::pecker_simple_allocator<int> >::get_iterator
PUBLIC	??0?$pecker_array_iterator@V?$pecker_array@HV?$pecker_simple_allocator@H@pecker_sdk@@@pecker_sdk@@@pecker_sdk@@QAE@PBV?$pecker_array@HV?$pecker_simple_allocator@H@pecker_sdk@@@1@@Z ; pecker_sdk::pecker_array_iterator<pecker_sdk::pecker_array<int,pecker_sdk::pecker_simple_allocator<int> > >::pecker_array_iterator<pecker_sdk::pecker_array<int,pecker_sdk::pecker_simple_allocator<int> > >
PUBLIC	?push@?$pecker_array@HV?$pecker_simple_allocator@H@pecker_sdk@@@pecker_sdk@@QAEJABH@Z ; pecker_sdk::pecker_array<int,pecker_sdk::pecker_simple_allocator<int> >::push
PUBLIC	?init@?$pecker_array@HV?$pecker_simple_allocator@H@pecker_sdk@@@pecker_sdk@@QAEJHH@Z ; pecker_sdk::pecker_array<int,pecker_sdk::pecker_simple_allocator<int> >::init
PUBLIC	??0?$pecker_array@HV?$pecker_simple_allocator@H@pecker_sdk@@@pecker_sdk@@QAE@H@Z ; pecker_sdk::pecker_array<int,pecker_sdk::pecker_simple_allocator<int> >::pecker_array<int,pecker_sdk::pecker_simple_allocator<int> >
PUBLIC	?array_test_main@@YAXXZ				; array_test_main
EXTRN	??1pecker_write_stream_to_memery@pecker_sdk@@UAE@XZ:PROC ; pecker_sdk::pecker_write_stream_to_memery::~pecker_write_stream_to_memery
EXTRN	?write_chars@pecker_write_stream_to_memery@pecker_sdk@@UAEHPADH@Z:PROC ; pecker_sdk::pecker_write_stream_to_memery::write_chars
EXTRN	?write_char@pecker_write_stream_to_memery@pecker_sdk@@UAEJD@Z:PROC ; pecker_sdk::pecker_write_stream_to_memery::write_char
EXTRN	?write_integer@pecker_write_stream_to_memery@pecker_sdk@@UAEJH@Z:PROC ; pecker_sdk::pecker_write_stream_to_memery::write_integer
EXTRN	__imp__printf:PROC
EXTRN	?bind_write_buffer@pecker_write_stream_to_memery@pecker_sdk@@QAEJPADH@Z:PROC ; pecker_sdk::pecker_write_stream_to_memery::bind_write_buffer
EXTRN	??0pecker_write_stream_to_memery@pecker_sdk@@QAE@XZ:PROC ; pecker_sdk::pecker_write_stream_to_memery::pecker_write_stream_to_memery
EXTRN	___security_cookie:DWORD
EXTRN	___CxxFrameHandler3:PROC
EXTRN	@__security_check_cookie@4:PROC
EXTRN	@_RTC_CheckStackVars@8:PROC
EXTRN	__RTC_CheckEsp:PROC
EXTRN	__RTC_Shutdown:PROC
EXTRN	__RTC_InitBase:PROC
_BSS	SEGMENT
_gstr_log_info DB 01000H DUP (?)
_BSS	ENDS
;	COMDAT ??_C@_0O@MBCOGNKJ@array?5?5sorted?$AA@
; File f:\codes\pecker_framework_git\pecker_src\pecker_framework\array_test.cpp
CONST	SEGMENT
??_C@_0O@MBCOGNKJ@array?5?5sorted?$AA@ DB 'array  sorted', 00H ; `string'
CONST	ENDS
;	COMDAT ??_C@_0BB@GBNGOMJI@array?5to?5be?5sort?$AA@
CONST	SEGMENT
??_C@_0BB@GBNGOMJI@array?5to?5be?5sort?$AA@ DB 'array to be sort', 00H ; `string'
CONST	ENDS
;	COMDAT ??_C@_0CB@ILKKIGKB@resize?0true?0get?5set?5begin?5to?5end@
CONST	SEGMENT
??_C@_0CB@ILKKIGKB@resize?0true?0get?5set?5begin?5to?5end@ DB 'resize,tru'
	DB	'e,get set begin to end', 00H		; `string'
CONST	ENDS
;	COMDAT ??_C@_0BE@GMDFIGCC@resize?0true?0get?5set?$AA@
CONST	SEGMENT
??_C@_0BE@GMDFIGCC@resize?0true?0get?5set?$AA@ DB 'resize,true,get set', 00H ; `string'
CONST	ENDS
;	COMDAT ??_C@_0BM@JOHNJOMH@resize?0get?5set?5begin?5to?5end?$AA@
CONST	SEGMENT
??_C@_0BM@JOHNJOMH@resize?0get?5set?5begin?5to?5end?$AA@ DB 'resize,get s'
	DB	'et begin to end', 00H			; `string'
CONST	ENDS
;	COMDAT ??_C@_0P@FNNMJEDO@resize?0get?5set?$AA@
CONST	SEGMENT
??_C@_0P@FNNMJEDO@resize?0get?5set?$AA@ DB 'resize,get set', 00H ; `string'
CONST	ENDS
;	COMDAT ??_C@_0BG@EGIIOBEI@push?5pop?5end?5to?5begin?$AA@
CONST	SEGMENT
??_C@_0BG@EGIIOBEI@push?5pop?5end?5to?5begin?$AA@ DB 'push pop end to beg'
	DB	'in', 00H					; `string'
CONST	ENDS
;	COMDAT ??_C@_0BG@NGMJCOBM@push?5pop?5begin?5to?5end?$AA@
CONST	SEGMENT
??_C@_0BG@NGMJCOBM@push?5pop?5begin?5to?5end?$AA@ DB 'push pop begin to e'
	DB	'nd', 00H					; `string'
CONST	ENDS
;	COMDAT ??_C@_0N@OIDKLPEO@end?5to?5begin?$AA@
CONST	SEGMENT
??_C@_0N@OIDKLPEO@end?5to?5begin?$AA@ DB 'end to begin', 00H ; `string'
CONST	ENDS
;	COMDAT ??_C@_0L@GPEFKELB@dec?4?4?4?4?4?4?4?$AA@
CONST	SEGMENT
??_C@_0L@GPEFKELB@dec?4?4?4?4?4?4?4?$AA@ DB 'dec.......', 00H ; `string'
CONST	ENDS
;	COMDAT ??_C@_02DKCKIIND@?$CFs?$AA@
CONST	SEGMENT
??_C@_02DKCKIIND@?$CFs?$AA@ DB '%s', 00H		; `string'
CONST	ENDS
;	COMDAT ??_C@_0N@HIHLHABK@begin?5to?5end?$AA@
CONST	SEGMENT
??_C@_0N@HIHLHABK@begin?5to?5end?$AA@ DB 'begin to end', 00H ; `string'
CONST	ENDS
;	COMDAT ??_C@_05IHCDMNLM@null?6?$AA@
CONST	SEGMENT
??_C@_05IHCDMNLM@null?6?$AA@ DB 'null', 0aH, 00H	; `string'
CONST	ENDS
;	COMDAT ??_C@_0L@FMDBBCEB@inc?4?4?4?4?4?4?4?$AA@
CONST	SEGMENT
??_C@_0L@FMDBBCEB@inc?4?4?4?4?4?4?4?$AA@ DB 'inc.......', 00H ; `string'
CONST	ENDS
;	COMDAT ??_C@_01EEMJAFIK@?6?$AA@
CONST	SEGMENT
??_C@_01EEMJAFIK@?6?$AA@ DB 0aH, 00H			; `string'
CONST	ENDS
;	COMDAT ??_C@_0BA@NAEAIJEJ@array_test_main?$AA@
CONST	SEGMENT
??_C@_0BA@NAEAIJEJ@array_test_main?$AA@ DB 'array_test_main', 00H ; `string'
CONST	ENDS
;	COMDAT ??_C@_09PALELKOJ@LOG_INFO?5?$AA@
CONST	SEGMENT
??_C@_09PALELKOJ@LOG_INFO?5?$AA@ DB 'LOG_INFO ', 00H	; `string'
CONST	ENDS
;	COMDAT xdata$x
xdata$x	SEGMENT
__unwindtable$?array_test_main@@YAXXZ DD 0ffffffffH
	DD	FLAT:__unwindfunclet$?array_test_main@@YAXXZ$0
	DD	00H
	DD	FLAT:__unwindfunclet$?array_test_main@@YAXXZ$1
	DD	01H
	DD	FLAT:__unwindfunclet$?array_test_main@@YAXXZ$2
	DD	02H
	DD	FLAT:__unwindfunclet$?array_test_main@@YAXXZ$3
__ehfuncinfo$?array_test_main@@YAXXZ DD 019930522H
	DD	04H
	DD	FLAT:__unwindtable$?array_test_main@@YAXXZ
	DD	2 DUP(00H)
	DD	2 DUP(00H)
	DD	00H
	DD	01H
xdata$x	ENDS
;	COMDAT rtc$TMZ
rtc$TMZ	SEGMENT
__RTC_Shutdown.rtc$TMZ DD FLAT:__RTC_Shutdown
rtc$TMZ	ENDS
;	COMDAT rtc$IMZ
rtc$IMZ	SEGMENT
__RTC_InitBase.rtc$IMZ DD FLAT:__RTC_InitBase
; Function compile flags: /Odtp /RTCsu /ZI
rtc$IMZ	ENDS
;	COMDAT ?array_test_main@@YAXXZ
_TEXT	SEGMENT
$T69992 = -544						; size = 4
_pvalue$68369 = -340					; size = 4
_i$68365 = -328						; size = 4
_pvalue$68317 = -316					; size = 4
_i$68313 = -304						; size = 4
_isetval$ = -292					; size = 4
_array_iterator2$ = -280				; size = 12
_pvalue$68302 = -260					; size = 4
_i$68298 = -248						; size = 4
_i$68294 = -236						; size = 4
_pvalue$68289 = -224					; size = 4
_i$68285 = -212						; size = 4
_i$68280 = -200						; size = 4
_pvalue$68275 = -188					; size = 4
_pvalue$68268 = -176					; size = 4
_i$68261 = -164						; size = 4
_i$68257 = -152						; size = 4
_pvalue$68253 = -140					; size = 4
_pvalue$68243 = -128					; size = 4
_array_iterator1$ = -116				; size = 12
_i$68188 = -96						; size = 4
_array$ = -84						; size = 20
_output_stream$ = -56					; size = 40
__$EHRec$ = -12						; size = 12
?array_test_main@@YAXXZ PROC				; array_test_main, COMDAT

; 13   : {

	push	ebp
	mov	ebp, esp
	push	-1
	push	__ehhandler$?array_test_main@@YAXXZ
	mov	eax, DWORD PTR fs:0
	push	eax
	sub	esp, 536				; 00000218H
	push	ebx
	push	esi
	push	edi
	lea	edi, DWORD PTR [ebp-548]
	mov	ecx, 134				; 00000086H
	mov	eax, -858993460				; ccccccccH
	rep stosd
	mov	eax, DWORD PTR ___security_cookie
	xor	eax, ebp
	push	eax
	lea	eax, DWORD PTR __$EHRec$[ebp]
	mov	DWORD PTR fs:0, eax

; 14   : 	pecker_write_stream_to_memery output_stream;

	lea	ecx, DWORD PTR _output_stream$[ebp]
	call	??0pecker_write_stream_to_memery@pecker_sdk@@QAE@XZ ; pecker_sdk::pecker_write_stream_to_memery::pecker_write_stream_to_memery
	mov	DWORD PTR __$EHRec$[ebp+8], 0

; 15   : 	output_stream.bind_write_buffer(gstr_log_info,MAX_LOG_STRING_INFO);

	push	4096					; 00001000H
	push	OFFSET _gstr_log_info
	lea	ecx, DWORD PTR _output_stream$[ebp]
	call	?bind_write_buffer@pecker_write_stream_to_memery@pecker_sdk@@QAEJPADH@Z ; pecker_sdk::pecker_write_stream_to_memery::bind_write_buffer

; 16   : 	pecker_array<int> array;

	push	16					; 00000010H
	lea	ecx, DWORD PTR _array$[ebp]
	call	??0?$pecker_array@HV?$pecker_simple_allocator@H@pecker_sdk@@@pecker_sdk@@QAE@H@Z ; pecker_sdk::pecker_array<int,pecker_sdk::pecker_simple_allocator<int> >::pecker_array<int,pecker_sdk::pecker_simple_allocator<int> >
	mov	BYTE PTR __$EHRec$[ebp+8], 1

; 17   : 	array.init();

	push	-1
	push	1
	lea	ecx, DWORD PTR _array$[ebp]
	call	?init@?$pecker_array@HV?$pecker_simple_allocator@H@pecker_sdk@@@pecker_sdk@@QAEJHH@Z ; pecker_sdk::pecker_array<int,pecker_sdk::pecker_simple_allocator<int> >::init

; 18   : 	for (int i=0;i<20;++i)

	mov	DWORD PTR _i$68188[ebp], 0
	jmp	SHORT $LN51@array_test
$LN50@array_test:
	mov	eax, DWORD PTR _i$68188[ebp]
	add	eax, 1
	mov	DWORD PTR _i$68188[ebp], eax
$LN51@array_test:
	cmp	DWORD PTR _i$68188[ebp], 20		; 00000014H
	jge	SHORT $LN49@array_test

; 19   : 	{
; 20   : 		array.push(i);

	lea	eax, DWORD PTR _i$68188[ebp]
	push	eax
	lea	ecx, DWORD PTR _array$[ebp]
	call	?push@?$pecker_array@HV?$pecker_simple_allocator@H@pecker_sdk@@@pecker_sdk@@QAEJABH@Z ; pecker_sdk::pecker_array<int,pecker_sdk::pecker_simple_allocator<int> >::push

; 21   : 	}

	jmp	SHORT $LN50@array_test
$LN49@array_test:

; 22   : 	pecker_array_iterator< pecker_array<int> > array_iterator1;

	push	0
	lea	ecx, DWORD PTR _array_iterator1$[ebp]
	call	??0?$pecker_array_iterator@V?$pecker_array@HV?$pecker_simple_allocator@H@pecker_sdk@@@pecker_sdk@@@pecker_sdk@@QAE@PBV?$pecker_array@HV?$pecker_simple_allocator@H@pecker_sdk@@@1@@Z ; pecker_sdk::pecker_array_iterator<pecker_sdk::pecker_array<int,pecker_sdk::pecker_simple_allocator<int> > >::pecker_array_iterator<pecker_sdk::pecker_array<int,pecker_sdk::pecker_simple_allocator<int> > >
	mov	BYTE PTR __$EHRec$[ebp+8], 2

; 23   : 	array.get_iterator(&array_iterator1);

	lea	eax, DWORD PTR _array_iterator1$[ebp]
	push	eax
	lea	ecx, DWORD PTR _array$[ebp]
	call	?get_iterator@?$pecker_array@HV?$pecker_simple_allocator@H@pecker_sdk@@@pecker_sdk@@QBEPAV?$pecker_array_iterator@V?$pecker_array@HV?$pecker_simple_allocator@H@pecker_sdk@@@pecker_sdk@@@2@PAV32@@Z ; pecker_sdk::pecker_array<int,pecker_sdk::pecker_simple_allocator<int> >::get_iterator

; 24   : 	array_iterator1.init(ITERATOR_INIT_BEGIN_INDEX);

	push	0
	lea	ecx, DWORD PTR _array_iterator1$[ebp]
	call	?init@?$pecker_array_iterator@V?$pecker_array@HV?$pecker_simple_allocator@H@pecker_sdk@@@pecker_sdk@@@pecker_sdk@@UAEJW4enumLINEAR_INTERATOR_INIT_TYPE@@@Z ; pecker_sdk::pecker_array_iterator<pecker_sdk::pecker_array<int,pecker_sdk::pecker_simple_allocator<int> > >::init

; 25   : 	//std::cout << "inc ....." << std::endl;
; 26   : 	PECKER_LOG_INFO("array_test_main","inc.......");

	mov	esi, esp
	push	OFFSET ??_C@_09PALELKOJ@LOG_INFO?5?$AA@
	call	DWORD PTR __imp__printf
	add	esp, 4
	cmp	esi, esp
	call	__RTC_CheckEsp
	mov	esi, esp
	push	OFFSET ??_C@_0BA@NAEAIJEJ@array_test_main?$AA@
	call	DWORD PTR __imp__printf
	add	esp, 4
	cmp	esi, esp
	call	__RTC_CheckEsp
	mov	esi, esp
	push	OFFSET ??_C@_01EEMJAFIK@?6?$AA@
	call	DWORD PTR __imp__printf
	add	esp, 4
	cmp	esi, esp
	call	__RTC_CheckEsp
	mov	esi, esp
	push	OFFSET ??_C@_0L@FMDBBCEB@inc?4?4?4?4?4?4?4?$AA@
	call	DWORD PTR __imp__printf
	add	esp, 4
	cmp	esi, esp
	call	__RTC_CheckEsp
	mov	esi, esp
	push	OFFSET ??_C@_01EEMJAFIK@?6?$AA@
	call	DWORD PTR __imp__printf
	add	esp, 4
	cmp	esi, esp
	call	__RTC_CheckEsp
$LN48@array_test:

; 27   : 	while (1)

	mov	eax, 1
	test	eax, eax
	je	SHORT $LN47@array_test

; 28   : 	{
; 29   : 		const int* pvalue = array.get_at(&array_iterator1);

	lea	eax, DWORD PTR _array_iterator1$[ebp]
	push	eax
	lea	ecx, DWORD PTR _array$[ebp]
	call	?get_at@?$pecker_array@HV?$pecker_simple_allocator@H@pecker_sdk@@@pecker_sdk@@QBEPBHPBV?$pecker_array_iterator@V?$pecker_array@HV?$pecker_simple_allocator@H@pecker_sdk@@@pecker_sdk@@@2@@Z ; pecker_sdk::pecker_array<int,pecker_sdk::pecker_simple_allocator<int> >::get_at
	mov	DWORD PTR _pvalue$68243[ebp], eax

; 30   : 		if (pvalue)

	cmp	DWORD PTR _pvalue$68243[ebp], 0
	je	SHORT $LN46@array_test

; 31   : 		{
; 32   : 			output_stream.write_integer(*pvalue);

	mov	eax, DWORD PTR _pvalue$68243[ebp]
	mov	ecx, DWORD PTR [eax]
	push	ecx
	lea	ecx, DWORD PTR _output_stream$[ebp]
	call	?write_integer@pecker_write_stream_to_memery@pecker_sdk@@UAEJH@Z ; pecker_sdk::pecker_write_stream_to_memery::write_integer

; 33   : 			output_stream.write_char(',');

	push	44					; 0000002cH
	lea	ecx, DWORD PTR _output_stream$[ebp]
	call	?write_char@pecker_write_stream_to_memery@pecker_sdk@@UAEJD@Z ; pecker_sdk::pecker_write_stream_to_memery::write_char

; 34   : 			//PECKER_LOG_INFO("array_test_main","%d",*pvalue);
; 35   : 			//std::cout << *pvalue << ",";
; 36   : 		}
; 37   : 		else

	jmp	SHORT $LN45@array_test
$LN46@array_test:

; 38   : 		{
; 39   : 			output_stream.write_chars("null\n",6);

	push	6
	push	OFFSET ??_C@_05IHCDMNLM@null?6?$AA@
	lea	ecx, DWORD PTR _output_stream$[ebp]
	call	?write_chars@pecker_write_stream_to_memery@pecker_sdk@@UAEHPADH@Z ; pecker_sdk::pecker_write_stream_to_memery::write_chars

; 40   : 			//PECKER_LOG_ERR("array_test_main","%d(null)",pvalue);
; 41   : 			//std::cout << "null" << std::endl;
; 42   : 			break;

	jmp	SHORT $LN47@array_test
$LN45@array_test:

; 43   : 		}
; 44   : 		array_iterator1.increment();

	lea	ecx, DWORD PTR _array_iterator1$[ebp]
	call	?increment@?$pecker_array_iterator@V?$pecker_array@HV?$pecker_simple_allocator@H@pecker_sdk@@@pecker_sdk@@@pecker_sdk@@UAEJXZ ; pecker_sdk::pecker_array_iterator<pecker_sdk::pecker_array<int,pecker_sdk::pecker_simple_allocator<int> > >::increment

; 45   : 	}

	jmp	SHORT $LN48@array_test
$LN47@array_test:

; 46   : 
; 47   : 	//output_stream.write_char('\0');
; 48   : 	PECKER_LOG_INFO("begin to end","%s",gstr_log_info);

	mov	esi, esp
	push	OFFSET ??_C@_09PALELKOJ@LOG_INFO?5?$AA@
	call	DWORD PTR __imp__printf
	add	esp, 4
	cmp	esi, esp
	call	__RTC_CheckEsp
	mov	esi, esp
	push	OFFSET ??_C@_0N@HIHLHABK@begin?5to?5end?$AA@
	call	DWORD PTR __imp__printf
	add	esp, 4
	cmp	esi, esp
	call	__RTC_CheckEsp
	mov	esi, esp
	push	OFFSET ??_C@_01EEMJAFIK@?6?$AA@
	call	DWORD PTR __imp__printf
	add	esp, 4
	cmp	esi, esp
	call	__RTC_CheckEsp
	mov	esi, esp
	push	OFFSET _gstr_log_info
	push	OFFSET ??_C@_02DKCKIIND@?$CFs?$AA@
	call	DWORD PTR __imp__printf
	add	esp, 8
	cmp	esi, esp
	call	__RTC_CheckEsp
	mov	esi, esp
	push	OFFSET ??_C@_01EEMJAFIK@?6?$AA@
	call	DWORD PTR __imp__printf
	add	esp, 4
	cmp	esi, esp
	call	__RTC_CheckEsp

; 49   : 
; 50   : 
; 51   : 	output_stream.bind_write_buffer(gstr_log_info,MAX_LOG_STRING_INFO);

	push	4096					; 00001000H
	push	OFFSET _gstr_log_info
	lea	ecx, DWORD PTR _output_stream$[ebp]
	call	?bind_write_buffer@pecker_write_stream_to_memery@pecker_sdk@@QAEJPADH@Z ; pecker_sdk::pecker_write_stream_to_memery::bind_write_buffer

; 52   : 	//std::cout << "dec ....." << std::endl;
; 53   : 	PECKER_LOG_INFO("array_test_main","dec.......");

	mov	esi, esp
	push	OFFSET ??_C@_09PALELKOJ@LOG_INFO?5?$AA@
	call	DWORD PTR __imp__printf
	add	esp, 4
	cmp	esi, esp
	call	__RTC_CheckEsp
	mov	esi, esp
	push	OFFSET ??_C@_0BA@NAEAIJEJ@array_test_main?$AA@
	call	DWORD PTR __imp__printf
	add	esp, 4
	cmp	esi, esp
	call	__RTC_CheckEsp
	mov	esi, esp
	push	OFFSET ??_C@_01EEMJAFIK@?6?$AA@
	call	DWORD PTR __imp__printf
	add	esp, 4
	cmp	esi, esp
	call	__RTC_CheckEsp
	mov	esi, esp
	push	OFFSET ??_C@_0L@GPEFKELB@dec?4?4?4?4?4?4?4?$AA@
	call	DWORD PTR __imp__printf
	add	esp, 4
	cmp	esi, esp
	call	__RTC_CheckEsp
	mov	esi, esp
	push	OFFSET ??_C@_01EEMJAFIK@?6?$AA@
	call	DWORD PTR __imp__printf
	add	esp, 4
	cmp	esi, esp
	call	__RTC_CheckEsp

; 54   : 	array_iterator1.init(ITERATOR_INIT_END_INDEX);

	push	1
	lea	ecx, DWORD PTR _array_iterator1$[ebp]
	call	?init@?$pecker_array_iterator@V?$pecker_array@HV?$pecker_simple_allocator@H@pecker_sdk@@@pecker_sdk@@@pecker_sdk@@UAEJW4enumLINEAR_INTERATOR_INIT_TYPE@@@Z ; pecker_sdk::pecker_array_iterator<pecker_sdk::pecker_array<int,pecker_sdk::pecker_simple_allocator<int> > >::init
$LN44@array_test:

; 55   : 	while (1)

	mov	eax, 1
	test	eax, eax
	je	SHORT $LN43@array_test

; 56   : 	{
; 57   : 		const int* pvalue = array.get_at(&array_iterator1);

	lea	eax, DWORD PTR _array_iterator1$[ebp]
	push	eax
	lea	ecx, DWORD PTR _array$[ebp]
	call	?get_at@?$pecker_array@HV?$pecker_simple_allocator@H@pecker_sdk@@@pecker_sdk@@QBEPBHPBV?$pecker_array_iterator@V?$pecker_array@HV?$pecker_simple_allocator@H@pecker_sdk@@@pecker_sdk@@@2@@Z ; pecker_sdk::pecker_array<int,pecker_sdk::pecker_simple_allocator<int> >::get_at
	mov	DWORD PTR _pvalue$68253[ebp], eax

; 58   : 		if (pvalue)

	cmp	DWORD PTR _pvalue$68253[ebp], 0
	je	SHORT $LN42@array_test

; 59   : 		{
; 60   : 			//std::cout << *pvalue << ",";
; 61   : 			//PECKER_LOG_INFO("array_test_main","%d",*pvalue);
; 62   : 			output_stream.write_integer(*pvalue);

	mov	eax, DWORD PTR _pvalue$68253[ebp]
	mov	ecx, DWORD PTR [eax]
	push	ecx
	lea	ecx, DWORD PTR _output_stream$[ebp]
	call	?write_integer@pecker_write_stream_to_memery@pecker_sdk@@UAEJH@Z ; pecker_sdk::pecker_write_stream_to_memery::write_integer

; 63   : 			output_stream.write_char(',');

	push	44					; 0000002cH
	lea	ecx, DWORD PTR _output_stream$[ebp]
	call	?write_char@pecker_write_stream_to_memery@pecker_sdk@@UAEJD@Z ; pecker_sdk::pecker_write_stream_to_memery::write_char

; 64   : 		}
; 65   : 		else

	jmp	SHORT $LN41@array_test
$LN42@array_test:

; 66   : 		{
; 67   : 			//std::cout << "null" << std::endl;
; 68   : 			//PECKER_LOG_ERR("array_test_main","%d(null)",pvalue);
; 69   : 			output_stream.write_chars("null\n",6);

	push	6
	push	OFFSET ??_C@_05IHCDMNLM@null?6?$AA@
	lea	ecx, DWORD PTR _output_stream$[ebp]
	call	?write_chars@pecker_write_stream_to_memery@pecker_sdk@@UAEHPADH@Z ; pecker_sdk::pecker_write_stream_to_memery::write_chars

; 70   : 			break;

	jmp	SHORT $LN43@array_test
$LN41@array_test:

; 71   : 		}
; 72   : 		array_iterator1.decrement();

	lea	ecx, DWORD PTR _array_iterator1$[ebp]
	call	?decrement@?$pecker_array_iterator@V?$pecker_array@HV?$pecker_simple_allocator@H@pecker_sdk@@@pecker_sdk@@@pecker_sdk@@UAEJXZ ; pecker_sdk::pecker_array_iterator<pecker_sdk::pecker_array<int,pecker_sdk::pecker_simple_allocator<int> > >::decrement

; 73   : 	}

	jmp	SHORT $LN44@array_test
$LN43@array_test:

; 74   : 	//output_stream.write_char('\0');
; 75   : 	PECKER_LOG_INFO("end to begin","%s",gstr_log_info);

	mov	esi, esp
	push	OFFSET ??_C@_09PALELKOJ@LOG_INFO?5?$AA@
	call	DWORD PTR __imp__printf
	add	esp, 4
	cmp	esi, esp
	call	__RTC_CheckEsp
	mov	esi, esp
	push	OFFSET ??_C@_0N@OIDKLPEO@end?5to?5begin?$AA@
	call	DWORD PTR __imp__printf
	add	esp, 4
	cmp	esi, esp
	call	__RTC_CheckEsp
	mov	esi, esp
	push	OFFSET ??_C@_01EEMJAFIK@?6?$AA@
	call	DWORD PTR __imp__printf
	add	esp, 4
	cmp	esi, esp
	call	__RTC_CheckEsp
	mov	esi, esp
	push	OFFSET _gstr_log_info
	push	OFFSET ??_C@_02DKCKIIND@?$CFs?$AA@
	call	DWORD PTR __imp__printf
	add	esp, 8
	cmp	esi, esp
	call	__RTC_CheckEsp
	mov	esi, esp
	push	OFFSET ??_C@_01EEMJAFIK@?6?$AA@
	call	DWORD PTR __imp__printf
	add	esp, 4
	cmp	esi, esp
	call	__RTC_CheckEsp

; 76   : 
; 77   : 	for (int i=0;i<5;++i)

	mov	DWORD PTR _i$68257[ebp], 0
	jmp	SHORT $LN40@array_test
$LN39@array_test:
	mov	eax, DWORD PTR _i$68257[ebp]
	add	eax, 1
	mov	DWORD PTR _i$68257[ebp], eax
$LN40@array_test:
	cmp	DWORD PTR _i$68257[ebp], 5
	jge	SHORT $LN38@array_test

; 78   : 	{
; 79   : 		array.pop();

	lea	ecx, DWORD PTR _array$[ebp]
	call	?pop@?$pecker_array@HV?$pecker_simple_allocator@H@pecker_sdk@@@pecker_sdk@@QAEJXZ ; pecker_sdk::pecker_array<int,pecker_sdk::pecker_simple_allocator<int> >::pop

; 80   : 	}

	jmp	SHORT $LN39@array_test
$LN38@array_test:

; 81   : 
; 82   : 	for (int i=0;i<20;++i)

	mov	DWORD PTR _i$68261[ebp], 0
	jmp	SHORT $LN37@array_test
$LN36@array_test:
	mov	eax, DWORD PTR _i$68261[ebp]
	add	eax, 1
	mov	DWORD PTR _i$68261[ebp], eax
$LN37@array_test:
	cmp	DWORD PTR _i$68261[ebp], 20		; 00000014H
	jge	SHORT $LN35@array_test

; 83   : 	{
; 84   : 		array.push(i);

	lea	eax, DWORD PTR _i$68261[ebp]
	push	eax
	lea	ecx, DWORD PTR _array$[ebp]
	call	?push@?$pecker_array@HV?$pecker_simple_allocator@H@pecker_sdk@@@pecker_sdk@@QAEJABH@Z ; pecker_sdk::pecker_array<int,pecker_sdk::pecker_simple_allocator<int> >::push

; 85   : 	}

	jmp	SHORT $LN36@array_test
$LN35@array_test:

; 86   : 
; 87   : 	output_stream.bind_write_buffer(gstr_log_info,MAX_LOG_STRING_INFO);

	push	4096					; 00001000H
	push	OFFSET _gstr_log_info
	lea	ecx, DWORD PTR _output_stream$[ebp]
	call	?bind_write_buffer@pecker_write_stream_to_memery@pecker_sdk@@QAEJPADH@Z ; pecker_sdk::pecker_write_stream_to_memery::bind_write_buffer

; 88   : 
; 89   : 	array_iterator1.init(ITERATOR_INIT_BEGIN_INDEX);

	push	0
	lea	ecx, DWORD PTR _array_iterator1$[ebp]
	call	?init@?$pecker_array_iterator@V?$pecker_array@HV?$pecker_simple_allocator@H@pecker_sdk@@@pecker_sdk@@@pecker_sdk@@UAEJW4enumLINEAR_INTERATOR_INIT_TYPE@@@Z ; pecker_sdk::pecker_array_iterator<pecker_sdk::pecker_array<int,pecker_sdk::pecker_simple_allocator<int> > >::init

; 90   : 	//std::cout << "inc ....." << std::endl;
; 91   : 	PECKER_LOG_INFO("array_test_main","inc.......");

	mov	esi, esp
	push	OFFSET ??_C@_09PALELKOJ@LOG_INFO?5?$AA@
	call	DWORD PTR __imp__printf
	add	esp, 4
	cmp	esi, esp
	call	__RTC_CheckEsp
	mov	esi, esp
	push	OFFSET ??_C@_0BA@NAEAIJEJ@array_test_main?$AA@
	call	DWORD PTR __imp__printf
	add	esp, 4
	cmp	esi, esp
	call	__RTC_CheckEsp
	mov	esi, esp
	push	OFFSET ??_C@_01EEMJAFIK@?6?$AA@
	call	DWORD PTR __imp__printf
	add	esp, 4
	cmp	esi, esp
	call	__RTC_CheckEsp
	mov	esi, esp
	push	OFFSET ??_C@_0L@FMDBBCEB@inc?4?4?4?4?4?4?4?$AA@
	call	DWORD PTR __imp__printf
	add	esp, 4
	cmp	esi, esp
	call	__RTC_CheckEsp
	mov	esi, esp
	push	OFFSET ??_C@_01EEMJAFIK@?6?$AA@
	call	DWORD PTR __imp__printf
	add	esp, 4
	cmp	esi, esp
	call	__RTC_CheckEsp
$LN34@array_test:

; 92   : 	while (1)

	mov	eax, 1
	test	eax, eax
	je	SHORT $LN33@array_test

; 93   : 	{
; 94   : 		const int* pvalue = array.get_at(&array_iterator1);

	lea	eax, DWORD PTR _array_iterator1$[ebp]
	push	eax
	lea	ecx, DWORD PTR _array$[ebp]
	call	?get_at@?$pecker_array@HV?$pecker_simple_allocator@H@pecker_sdk@@@pecker_sdk@@QBEPBHPBV?$pecker_array_iterator@V?$pecker_array@HV?$pecker_simple_allocator@H@pecker_sdk@@@pecker_sdk@@@2@@Z ; pecker_sdk::pecker_array<int,pecker_sdk::pecker_simple_allocator<int> >::get_at
	mov	DWORD PTR _pvalue$68268[ebp], eax

; 95   : 		if (pvalue)

	cmp	DWORD PTR _pvalue$68268[ebp], 0
	je	SHORT $LN32@array_test

; 96   : 		{
; 97   : 			//std::cout << *pvalue << ",";
; 98   : 			output_stream.write_integer(*pvalue);

	mov	eax, DWORD PTR _pvalue$68268[ebp]
	mov	ecx, DWORD PTR [eax]
	push	ecx
	lea	ecx, DWORD PTR _output_stream$[ebp]
	call	?write_integer@pecker_write_stream_to_memery@pecker_sdk@@UAEJH@Z ; pecker_sdk::pecker_write_stream_to_memery::write_integer

; 99   : 			output_stream.write_char(',');

	push	44					; 0000002cH
	lea	ecx, DWORD PTR _output_stream$[ebp]
	call	?write_char@pecker_write_stream_to_memery@pecker_sdk@@UAEJD@Z ; pecker_sdk::pecker_write_stream_to_memery::write_char

; 100  : 			//PECKER_LOG_INFO("array_test_main","%d",*pvalue);
; 101  : 		}
; 102  : 		else

	jmp	SHORT $LN31@array_test
$LN32@array_test:

; 103  : 		{
; 104  : 			//std::cout << "null" << std::endl;
; 105  : 			//PECKER_LOG_ERR("array_test_main","%d(null)",pvalue);
; 106  : 			output_stream.write_chars("null\n",6);

	push	6
	push	OFFSET ??_C@_05IHCDMNLM@null?6?$AA@
	lea	ecx, DWORD PTR _output_stream$[ebp]
	call	?write_chars@pecker_write_stream_to_memery@pecker_sdk@@UAEHPADH@Z ; pecker_sdk::pecker_write_stream_to_memery::write_chars

; 107  : 			break;

	jmp	SHORT $LN33@array_test
$LN31@array_test:

; 108  : 		}
; 109  : 		array_iterator1.increment();

	lea	ecx, DWORD PTR _array_iterator1$[ebp]
	call	?increment@?$pecker_array_iterator@V?$pecker_array@HV?$pecker_simple_allocator@H@pecker_sdk@@@pecker_sdk@@@pecker_sdk@@UAEJXZ ; pecker_sdk::pecker_array_iterator<pecker_sdk::pecker_array<int,pecker_sdk::pecker_simple_allocator<int> > >::increment

; 110  : 	}

	jmp	SHORT $LN34@array_test
$LN33@array_test:

; 111  : 
; 112  : 	PECKER_LOG_INFO("push pop begin to end","%s",gstr_log_info);

	mov	esi, esp
	push	OFFSET ??_C@_09PALELKOJ@LOG_INFO?5?$AA@
	call	DWORD PTR __imp__printf
	add	esp, 4
	cmp	esi, esp
	call	__RTC_CheckEsp
	mov	esi, esp
	push	OFFSET ??_C@_0BG@NGMJCOBM@push?5pop?5begin?5to?5end?$AA@
	call	DWORD PTR __imp__printf
	add	esp, 4
	cmp	esi, esp
	call	__RTC_CheckEsp
	mov	esi, esp
	push	OFFSET ??_C@_01EEMJAFIK@?6?$AA@
	call	DWORD PTR __imp__printf
	add	esp, 4
	cmp	esi, esp
	call	__RTC_CheckEsp
	mov	esi, esp
	push	OFFSET _gstr_log_info
	push	OFFSET ??_C@_02DKCKIIND@?$CFs?$AA@
	call	DWORD PTR __imp__printf
	add	esp, 8
	cmp	esi, esp
	call	__RTC_CheckEsp
	mov	esi, esp
	push	OFFSET ??_C@_01EEMJAFIK@?6?$AA@
	call	DWORD PTR __imp__printf
	add	esp, 4
	cmp	esi, esp
	call	__RTC_CheckEsp

; 113  : 
; 114  : 	output_stream.bind_write_buffer(gstr_log_info,MAX_LOG_STRING_INFO);

	push	4096					; 00001000H
	push	OFFSET _gstr_log_info
	lea	ecx, DWORD PTR _output_stream$[ebp]
	call	?bind_write_buffer@pecker_write_stream_to_memery@pecker_sdk@@QAEJPADH@Z ; pecker_sdk::pecker_write_stream_to_memery::bind_write_buffer

; 115  : 	//std::cout << "dec ....." << std::endl;
; 116  : 	PECKER_LOG_INFO("array_test_main","dec.......");

	mov	esi, esp
	push	OFFSET ??_C@_09PALELKOJ@LOG_INFO?5?$AA@
	call	DWORD PTR __imp__printf
	add	esp, 4
	cmp	esi, esp
	call	__RTC_CheckEsp
	mov	esi, esp
	push	OFFSET ??_C@_0BA@NAEAIJEJ@array_test_main?$AA@
	call	DWORD PTR __imp__printf
	add	esp, 4
	cmp	esi, esp
	call	__RTC_CheckEsp
	mov	esi, esp
	push	OFFSET ??_C@_01EEMJAFIK@?6?$AA@
	call	DWORD PTR __imp__printf
	add	esp, 4
	cmp	esi, esp
	call	__RTC_CheckEsp
	mov	esi, esp
	push	OFFSET ??_C@_0L@GPEFKELB@dec?4?4?4?4?4?4?4?$AA@
	call	DWORD PTR __imp__printf
	add	esp, 4
	cmp	esi, esp
	call	__RTC_CheckEsp
	mov	esi, esp
	push	OFFSET ??_C@_01EEMJAFIK@?6?$AA@
	call	DWORD PTR __imp__printf
	add	esp, 4
	cmp	esi, esp
	call	__RTC_CheckEsp

; 117  : 	array_iterator1.init(ITERATOR_INIT_END_INDEX);

	push	1
	lea	ecx, DWORD PTR _array_iterator1$[ebp]
	call	?init@?$pecker_array_iterator@V?$pecker_array@HV?$pecker_simple_allocator@H@pecker_sdk@@@pecker_sdk@@@pecker_sdk@@UAEJW4enumLINEAR_INTERATOR_INIT_TYPE@@@Z ; pecker_sdk::pecker_array_iterator<pecker_sdk::pecker_array<int,pecker_sdk::pecker_simple_allocator<int> > >::init
$LN30@array_test:

; 118  : 	while (1)

	mov	eax, 1
	test	eax, eax
	je	SHORT $LN29@array_test

; 119  : 	{
; 120  : 		const int* pvalue = array.get_at(&array_iterator1);

	lea	eax, DWORD PTR _array_iterator1$[ebp]
	push	eax
	lea	ecx, DWORD PTR _array$[ebp]
	call	?get_at@?$pecker_array@HV?$pecker_simple_allocator@H@pecker_sdk@@@pecker_sdk@@QBEPBHPBV?$pecker_array_iterator@V?$pecker_array@HV?$pecker_simple_allocator@H@pecker_sdk@@@pecker_sdk@@@2@@Z ; pecker_sdk::pecker_array<int,pecker_sdk::pecker_simple_allocator<int> >::get_at
	mov	DWORD PTR _pvalue$68275[ebp], eax

; 121  : 		if (pvalue)

	cmp	DWORD PTR _pvalue$68275[ebp], 0
	je	SHORT $LN28@array_test

; 122  : 		{
; 123  : 			//std::cout << *pvalue << ",";
; 124  : 			//PECKER_LOG_INFO("array_test_main","%d",*pvalue);
; 125  : 			output_stream.write_integer(*pvalue);

	mov	eax, DWORD PTR _pvalue$68275[ebp]
	mov	ecx, DWORD PTR [eax]
	push	ecx
	lea	ecx, DWORD PTR _output_stream$[ebp]
	call	?write_integer@pecker_write_stream_to_memery@pecker_sdk@@UAEJH@Z ; pecker_sdk::pecker_write_stream_to_memery::write_integer

; 126  : 			output_stream.write_char(',');

	push	44					; 0000002cH
	lea	ecx, DWORD PTR _output_stream$[ebp]
	call	?write_char@pecker_write_stream_to_memery@pecker_sdk@@UAEJD@Z ; pecker_sdk::pecker_write_stream_to_memery::write_char

; 127  : 		}
; 128  : 		else

	jmp	SHORT $LN27@array_test
$LN28@array_test:

; 129  : 		{
; 130  : 			//std::cout << "null" << std::endl;
; 131  : 			//PECKER_LOG_ERR("array_test_main","%d(null)",pvalue);
; 132  : 			output_stream.write_chars("null\n",6);

	push	6
	push	OFFSET ??_C@_05IHCDMNLM@null?6?$AA@
	lea	ecx, DWORD PTR _output_stream$[ebp]
	call	?write_chars@pecker_write_stream_to_memery@pecker_sdk@@UAEHPADH@Z ; pecker_sdk::pecker_write_stream_to_memery::write_chars

; 133  : 			break;

	jmp	SHORT $LN29@array_test
$LN27@array_test:

; 134  : 		}
; 135  : 		array_iterator1.decrement();

	lea	ecx, DWORD PTR _array_iterator1$[ebp]
	call	?decrement@?$pecker_array_iterator@V?$pecker_array@HV?$pecker_simple_allocator@H@pecker_sdk@@@pecker_sdk@@@pecker_sdk@@UAEJXZ ; pecker_sdk::pecker_array_iterator<pecker_sdk::pecker_array<int,pecker_sdk::pecker_simple_allocator<int> > >::decrement

; 136  : 	}

	jmp	SHORT $LN30@array_test
$LN29@array_test:

; 137  : 	PECKER_LOG_INFO("push pop end to begin","%s",gstr_log_info);

	mov	esi, esp
	push	OFFSET ??_C@_09PALELKOJ@LOG_INFO?5?$AA@
	call	DWORD PTR __imp__printf
	add	esp, 4
	cmp	esi, esp
	call	__RTC_CheckEsp
	mov	esi, esp
	push	OFFSET ??_C@_0BG@EGIIOBEI@push?5pop?5end?5to?5begin?$AA@
	call	DWORD PTR __imp__printf
	add	esp, 4
	cmp	esi, esp
	call	__RTC_CheckEsp
	mov	esi, esp
	push	OFFSET ??_C@_01EEMJAFIK@?6?$AA@
	call	DWORD PTR __imp__printf
	add	esp, 4
	cmp	esi, esp
	call	__RTC_CheckEsp
	mov	esi, esp
	push	OFFSET _gstr_log_info
	push	OFFSET ??_C@_02DKCKIIND@?$CFs?$AA@
	call	DWORD PTR __imp__printf
	add	esp, 8
	cmp	esi, esp
	call	__RTC_CheckEsp
	mov	esi, esp
	push	OFFSET ??_C@_01EEMJAFIK@?6?$AA@
	call	DWORD PTR __imp__printf
	add	esp, 4
	cmp	esi, esp
	call	__RTC_CheckEsp

; 138  : 
; 139  : 	output_stream.bind_write_buffer(gstr_log_info,MAX_LOG_STRING_INFO);

	push	4096					; 00001000H
	push	OFFSET _gstr_log_info
	lea	ecx, DWORD PTR _output_stream$[ebp]
	call	?bind_write_buffer@pecker_write_stream_to_memery@pecker_sdk@@QAEJPADH@Z ; pecker_sdk::pecker_write_stream_to_memery::bind_write_buffer

; 140  : 	//std::cout << "resize,get set" << std::endl;
; 141  : 	PECKER_LOG_INFO("array_test_main","resize,get set");

	mov	esi, esp
	push	OFFSET ??_C@_09PALELKOJ@LOG_INFO?5?$AA@
	call	DWORD PTR __imp__printf
	add	esp, 4
	cmp	esi, esp
	call	__RTC_CheckEsp
	mov	esi, esp
	push	OFFSET ??_C@_0BA@NAEAIJEJ@array_test_main?$AA@
	call	DWORD PTR __imp__printf
	add	esp, 4
	cmp	esi, esp
	call	__RTC_CheckEsp
	mov	esi, esp
	push	OFFSET ??_C@_01EEMJAFIK@?6?$AA@
	call	DWORD PTR __imp__printf
	add	esp, 4
	cmp	esi, esp
	call	__RTC_CheckEsp
	mov	esi, esp
	push	OFFSET ??_C@_0P@FNNMJEDO@resize?0get?5set?$AA@
	call	DWORD PTR __imp__printf
	add	esp, 4
	cmp	esi, esp
	call	__RTC_CheckEsp
	mov	esi, esp
	push	OFFSET ??_C@_01EEMJAFIK@?6?$AA@
	call	DWORD PTR __imp__printf
	add	esp, 4
	cmp	esi, esp
	call	__RTC_CheckEsp

; 142  : 	array.resize(100,20);

	push	0
	push	20					; 00000014H
	push	100					; 00000064H
	lea	ecx, DWORD PTR _array$[ebp]
	call	?resize@?$pecker_array@HV?$pecker_simple_allocator@H@pecker_sdk@@@pecker_sdk@@QAEJHH_N@Z ; pecker_sdk::pecker_array<int,pecker_sdk::pecker_simple_allocator<int> >::resize

; 143  : 	for (int i=0;i<100;++i)

	mov	DWORD PTR _i$68280[ebp], 0
	jmp	SHORT $LN26@array_test
$LN25@array_test:
	mov	eax, DWORD PTR _i$68280[ebp]
	add	eax, 1
	mov	DWORD PTR _i$68280[ebp], eax
$LN26@array_test:
	cmp	DWORD PTR _i$68280[ebp], 100		; 00000064H
	jge	SHORT $LN24@array_test

; 144  : 	{
; 145  : 		array.set_at(i,100-i);

	mov	eax, 100				; 00000064H
	sub	eax, DWORD PTR _i$68280[ebp]
	mov	DWORD PTR $T69992[ebp], eax
	lea	ecx, DWORD PTR $T69992[ebp]
	push	ecx
	mov	edx, DWORD PTR _i$68280[ebp]
	push	edx
	lea	ecx, DWORD PTR _array$[ebp]
	call	?set_at@?$pecker_array@HV?$pecker_simple_allocator@H@pecker_sdk@@@pecker_sdk@@QAEJHABH@Z ; pecker_sdk::pecker_array<int,pecker_sdk::pecker_simple_allocator<int> >::set_at

; 146  : 	}

	jmp	SHORT $LN25@array_test
$LN24@array_test:

; 147  : 	for (int i=0;i<100;++i)

	mov	DWORD PTR _i$68285[ebp], 0
	jmp	SHORT $LN23@array_test
$LN22@array_test:
	mov	eax, DWORD PTR _i$68285[ebp]
	add	eax, 1
	mov	DWORD PTR _i$68285[ebp], eax
$LN23@array_test:
	cmp	DWORD PTR _i$68285[ebp], 100		; 00000064H
	jge	SHORT $LN21@array_test

; 148  : 	{
; 149  : 		const int* pvalue = array.get_at(i);

	mov	eax, DWORD PTR _i$68285[ebp]
	push	eax
	lea	ecx, DWORD PTR _array$[ebp]
	call	?get_at@?$pecker_array@HV?$pecker_simple_allocator@H@pecker_sdk@@@pecker_sdk@@QBEPBHH@Z ; pecker_sdk::pecker_array<int,pecker_sdk::pecker_simple_allocator<int> >::get_at
	mov	DWORD PTR _pvalue$68289[ebp], eax

; 150  : 		if (pvalue)

	cmp	DWORD PTR _pvalue$68289[ebp], 0
	je	SHORT $LN20@array_test

; 151  : 		{
; 152  : 			//std::cout << *pvalue << ",";
; 153  : 			//PECKER_LOG_INFO("array_test_main","%d",*pvalue);
; 154  : 			output_stream.write_integer(*pvalue);

	mov	eax, DWORD PTR _pvalue$68289[ebp]
	mov	ecx, DWORD PTR [eax]
	push	ecx
	lea	ecx, DWORD PTR _output_stream$[ebp]
	call	?write_integer@pecker_write_stream_to_memery@pecker_sdk@@UAEJH@Z ; pecker_sdk::pecker_write_stream_to_memery::write_integer

; 155  : 		}
; 156  : 		else

	jmp	SHORT $LN19@array_test
$LN20@array_test:

; 157  : 		{
; 158  : 			//std::cout << "null" << std::endl;
; 159  : 			//PECKER_LOG_ERR("array_test_main","%d(null)",pvalue);
; 160  : 			output_stream.write_chars("null\n",6);

	push	6
	push	OFFSET ??_C@_05IHCDMNLM@null?6?$AA@
	lea	ecx, DWORD PTR _output_stream$[ebp]
	call	?write_chars@pecker_write_stream_to_memery@pecker_sdk@@UAEHPADH@Z ; pecker_sdk::pecker_write_stream_to_memery::write_chars

; 161  : 			break;

	jmp	SHORT $LN21@array_test
$LN19@array_test:

; 162  : 		}
; 163  : 		output_stream.write_char(',');

	push	44					; 0000002cH
	lea	ecx, DWORD PTR _output_stream$[ebp]
	call	?write_char@pecker_write_stream_to_memery@pecker_sdk@@UAEJD@Z ; pecker_sdk::pecker_write_stream_to_memery::write_char

; 164  : 	}

	jmp	SHORT $LN22@array_test
$LN21@array_test:

; 165  : 	//std::cout << std::endl;
; 166  : 	PECKER_LOG_INFO("resize,get set begin to end","%s",gstr_log_info);

	mov	esi, esp
	push	OFFSET ??_C@_09PALELKOJ@LOG_INFO?5?$AA@
	call	DWORD PTR __imp__printf
	add	esp, 4
	cmp	esi, esp
	call	__RTC_CheckEsp
	mov	esi, esp
	push	OFFSET ??_C@_0BM@JOHNJOMH@resize?0get?5set?5begin?5to?5end?$AA@
	call	DWORD PTR __imp__printf
	add	esp, 4
	cmp	esi, esp
	call	__RTC_CheckEsp
	mov	esi, esp
	push	OFFSET ??_C@_01EEMJAFIK@?6?$AA@
	call	DWORD PTR __imp__printf
	add	esp, 4
	cmp	esi, esp
	call	__RTC_CheckEsp
	mov	esi, esp
	push	OFFSET _gstr_log_info
	push	OFFSET ??_C@_02DKCKIIND@?$CFs?$AA@
	call	DWORD PTR __imp__printf
	add	esp, 8
	cmp	esi, esp
	call	__RTC_CheckEsp
	mov	esi, esp
	push	OFFSET ??_C@_01EEMJAFIK@?6?$AA@
	call	DWORD PTR __imp__printf
	add	esp, 4
	cmp	esi, esp
	call	__RTC_CheckEsp

; 167  : 
; 168  : 	output_stream.bind_write_buffer(gstr_log_info,MAX_LOG_STRING_INFO);

	push	4096					; 00001000H
	push	OFFSET _gstr_log_info
	lea	ecx, DWORD PTR _output_stream$[ebp]
	call	?bind_write_buffer@pecker_write_stream_to_memery@pecker_sdk@@QAEJPADH@Z ; pecker_sdk::pecker_write_stream_to_memery::bind_write_buffer

; 169  : 
; 170  : 	//std::cout << "resize,true,get set" << std::endl;
; 171  : 	PECKER_LOG_INFO("array_test_main","resize,true,get set");

	mov	esi, esp
	push	OFFSET ??_C@_09PALELKOJ@LOG_INFO?5?$AA@
	call	DWORD PTR __imp__printf
	add	esp, 4
	cmp	esi, esp
	call	__RTC_CheckEsp
	mov	esi, esp
	push	OFFSET ??_C@_0BA@NAEAIJEJ@array_test_main?$AA@
	call	DWORD PTR __imp__printf
	add	esp, 4
	cmp	esi, esp
	call	__RTC_CheckEsp
	mov	esi, esp
	push	OFFSET ??_C@_01EEMJAFIK@?6?$AA@
	call	DWORD PTR __imp__printf
	add	esp, 4
	cmp	esi, esp
	call	__RTC_CheckEsp
	mov	esi, esp
	push	OFFSET ??_C@_0BE@GMDFIGCC@resize?0true?0get?5set?$AA@
	call	DWORD PTR __imp__printf
	add	esp, 4
	cmp	esi, esp
	call	__RTC_CheckEsp
	mov	esi, esp
	push	OFFSET ??_C@_01EEMJAFIK@?6?$AA@
	call	DWORD PTR __imp__printf
	add	esp, 4
	cmp	esi, esp
	call	__RTC_CheckEsp

; 172  : 	array.resize(50,20,true);

	push	1
	push	20					; 00000014H
	push	50					; 00000032H
	lea	ecx, DWORD PTR _array$[ebp]
	call	?resize@?$pecker_array@HV?$pecker_simple_allocator@H@pecker_sdk@@@pecker_sdk@@QAEJHH_N@Z ; pecker_sdk::pecker_array<int,pecker_sdk::pecker_simple_allocator<int> >::resize

; 173  : 	for (int i=0;i<50;++i)

	mov	DWORD PTR _i$68294[ebp], 0
	jmp	SHORT $LN18@array_test
$LN17@array_test:
	mov	eax, DWORD PTR _i$68294[ebp]
	add	eax, 1
	mov	DWORD PTR _i$68294[ebp], eax
$LN18@array_test:
	cmp	DWORD PTR _i$68294[ebp], 50		; 00000032H
	jge	SHORT $LN16@array_test

; 174  : 	{
; 175  : 		array.set_at(i,i);

	lea	eax, DWORD PTR _i$68294[ebp]
	push	eax
	mov	ecx, DWORD PTR _i$68294[ebp]
	push	ecx
	lea	ecx, DWORD PTR _array$[ebp]
	call	?set_at@?$pecker_array@HV?$pecker_simple_allocator@H@pecker_sdk@@@pecker_sdk@@QAEJHABH@Z ; pecker_sdk::pecker_array<int,pecker_sdk::pecker_simple_allocator<int> >::set_at

; 176  : 	}

	jmp	SHORT $LN17@array_test
$LN16@array_test:

; 177  : 	for (int i=0;i<50;++i)

	mov	DWORD PTR _i$68298[ebp], 0
	jmp	SHORT $LN15@array_test
$LN14@array_test:
	mov	eax, DWORD PTR _i$68298[ebp]
	add	eax, 1
	mov	DWORD PTR _i$68298[ebp], eax
$LN15@array_test:
	cmp	DWORD PTR _i$68298[ebp], 50		; 00000032H
	jge	SHORT $LN13@array_test

; 178  : 	{
; 179  : 		const int* pvalue = array.get_at(i);

	mov	eax, DWORD PTR _i$68298[ebp]
	push	eax
	lea	ecx, DWORD PTR _array$[ebp]
	call	?get_at@?$pecker_array@HV?$pecker_simple_allocator@H@pecker_sdk@@@pecker_sdk@@QBEPBHH@Z ; pecker_sdk::pecker_array<int,pecker_sdk::pecker_simple_allocator<int> >::get_at
	mov	DWORD PTR _pvalue$68302[ebp], eax

; 180  : 		if (pvalue)

	cmp	DWORD PTR _pvalue$68302[ebp], 0
	je	SHORT $LN12@array_test

; 181  : 		{
; 182  : 			//std::cout << *pvalue << ",";
; 183  : 			//PECKER_LOG_INFO("array_test_main","%d",*pvalue);
; 184  : 			output_stream.write_integer(*pvalue);

	mov	eax, DWORD PTR _pvalue$68302[ebp]
	mov	ecx, DWORD PTR [eax]
	push	ecx
	lea	ecx, DWORD PTR _output_stream$[ebp]
	call	?write_integer@pecker_write_stream_to_memery@pecker_sdk@@UAEJH@Z ; pecker_sdk::pecker_write_stream_to_memery::write_integer

; 185  : 		}
; 186  : 		else

	jmp	SHORT $LN11@array_test
$LN12@array_test:

; 187  : 		{
; 188  : 			//std::cout << "null" << std::endl;
; 189  : 			//PECKER_LOG_ERR("array_test_main","%d(null)",pvalue);
; 190  : 			output_stream.write_chars("null\n",6);

	push	6
	push	OFFSET ??_C@_05IHCDMNLM@null?6?$AA@
	lea	ecx, DWORD PTR _output_stream$[ebp]
	call	?write_chars@pecker_write_stream_to_memery@pecker_sdk@@UAEHPADH@Z ; pecker_sdk::pecker_write_stream_to_memery::write_chars

; 191  : 			break;

	jmp	SHORT $LN13@array_test
$LN11@array_test:

; 192  : 		}
; 193  : 		output_stream.write_char(',');

	push	44					; 0000002cH
	lea	ecx, DWORD PTR _output_stream$[ebp]
	call	?write_char@pecker_write_stream_to_memery@pecker_sdk@@UAEJD@Z ; pecker_sdk::pecker_write_stream_to_memery::write_char

; 194  : 	}

	jmp	SHORT $LN14@array_test
$LN13@array_test:

; 195  : 	//std::cout << std::endl;
; 196  : 	PECKER_LOG_INFO("resize,true,get set begin to end","%s",gstr_log_info);

	mov	esi, esp
	push	OFFSET ??_C@_09PALELKOJ@LOG_INFO?5?$AA@
	call	DWORD PTR __imp__printf
	add	esp, 4
	cmp	esi, esp
	call	__RTC_CheckEsp
	mov	esi, esp
	push	OFFSET ??_C@_0CB@ILKKIGKB@resize?0true?0get?5set?5begin?5to?5end@
	call	DWORD PTR __imp__printf
	add	esp, 4
	cmp	esi, esp
	call	__RTC_CheckEsp
	mov	esi, esp
	push	OFFSET ??_C@_01EEMJAFIK@?6?$AA@
	call	DWORD PTR __imp__printf
	add	esp, 4
	cmp	esi, esp
	call	__RTC_CheckEsp
	mov	esi, esp
	push	OFFSET _gstr_log_info
	push	OFFSET ??_C@_02DKCKIIND@?$CFs?$AA@
	call	DWORD PTR __imp__printf
	add	esp, 8
	cmp	esi, esp
	call	__RTC_CheckEsp
	mov	esi, esp
	push	OFFSET ??_C@_01EEMJAFIK@?6?$AA@
	call	DWORD PTR __imp__printf
	add	esp, 4
	cmp	esi, esp
	call	__RTC_CheckEsp

; 197  : 
; 198  : 	
; 199  : 
; 200  : 	array_iterator1.init(ITERATOR_INIT_BEGIN_INDEX);

	push	0
	lea	ecx, DWORD PTR _array_iterator1$[ebp]
	call	?init@?$pecker_array_iterator@V?$pecker_array@HV?$pecker_simple_allocator@H@pecker_sdk@@@pecker_sdk@@@pecker_sdk@@UAEJW4enumLINEAR_INTERATOR_INIT_TYPE@@@Z ; pecker_sdk::pecker_array_iterator<pecker_sdk::pecker_array<int,pecker_sdk::pecker_simple_allocator<int> > >::init

; 201  : 
; 202  : 	pecker_array_iterator< pecker_array<int> > array_iterator2;

	push	0
	lea	ecx, DWORD PTR _array_iterator2$[ebp]
	call	??0?$pecker_array_iterator@V?$pecker_array@HV?$pecker_simple_allocator@H@pecker_sdk@@@pecker_sdk@@@pecker_sdk@@QAE@PBV?$pecker_array@HV?$pecker_simple_allocator@H@pecker_sdk@@@1@@Z ; pecker_sdk::pecker_array_iterator<pecker_sdk::pecker_array<int,pecker_sdk::pecker_simple_allocator<int> > >::pecker_array_iterator<pecker_sdk::pecker_array<int,pecker_sdk::pecker_simple_allocator<int> > >
	mov	BYTE PTR __$EHRec$[ebp+8], 3

; 203  : 	array.get_iterator(&array_iterator2);

	lea	eax, DWORD PTR _array_iterator2$[ebp]
	push	eax
	lea	ecx, DWORD PTR _array$[ebp]
	call	?get_iterator@?$pecker_array@HV?$pecker_simple_allocator@H@pecker_sdk@@@pecker_sdk@@QBEPAV?$pecker_array_iterator@V?$pecker_array@HV?$pecker_simple_allocator@H@pecker_sdk@@@pecker_sdk@@@2@PAV32@@Z ; pecker_sdk::pecker_array<int,pecker_sdk::pecker_simple_allocator<int> >::get_iterator

; 204  : 	array_iterator2.init(ITERATOR_INIT_END_INDEX);

	push	1
	lea	ecx, DWORD PTR _array_iterator2$[ebp]
	call	?init@?$pecker_array_iterator@V?$pecker_array@HV?$pecker_simple_allocator@H@pecker_sdk@@@pecker_sdk@@@pecker_sdk@@UAEJW4enumLINEAR_INTERATOR_INIT_TYPE@@@Z ; pecker_sdk::pecker_array_iterator<pecker_sdk::pecker_array<int,pecker_sdk::pecker_simple_allocator<int> > >::init

; 205  : 
; 206  : 	int isetval = 100;

	mov	DWORD PTR _isetval$[ebp], 100		; 00000064H

; 207  : 	array.set_at(1,isetval);

	lea	eax, DWORD PTR _isetval$[ebp]
	push	eax
	push	1
	lea	ecx, DWORD PTR _array$[ebp]
	call	?set_at@?$pecker_array@HV?$pecker_simple_allocator@H@pecker_sdk@@@pecker_sdk@@QAEJHABH@Z ; pecker_sdk::pecker_array<int,pecker_sdk::pecker_simple_allocator<int> >::set_at

; 208  : 	array.set_at(6,isetval);

	lea	eax, DWORD PTR _isetval$[ebp]
	push	eax
	push	6
	lea	ecx, DWORD PTR _array$[ebp]
	call	?set_at@?$pecker_array@HV?$pecker_simple_allocator@H@pecker_sdk@@@pecker_sdk@@QAEJHABH@Z ; pecker_sdk::pecker_array<int,pecker_sdk::pecker_simple_allocator<int> >::set_at

; 209  : 	array.set_at(11,isetval);

	lea	eax, DWORD PTR _isetval$[ebp]
	push	eax
	push	11					; 0000000bH
	lea	ecx, DWORD PTR _array$[ebp]
	call	?set_at@?$pecker_array@HV?$pecker_simple_allocator@H@pecker_sdk@@@pecker_sdk@@QAEJHABH@Z ; pecker_sdk::pecker_array<int,pecker_sdk::pecker_simple_allocator<int> >::set_at

; 210  : 	array.set_at(16,isetval);

	lea	eax, DWORD PTR _isetval$[ebp]
	push	eax
	push	16					; 00000010H
	lea	ecx, DWORD PTR _array$[ebp]
	call	?set_at@?$pecker_array@HV?$pecker_simple_allocator@H@pecker_sdk@@@pecker_sdk@@QAEJHABH@Z ; pecker_sdk::pecker_array<int,pecker_sdk::pecker_simple_allocator<int> >::set_at

; 211  : 	array.set_at(21,isetval);

	lea	eax, DWORD PTR _isetval$[ebp]
	push	eax
	push	21					; 00000015H
	lea	ecx, DWORD PTR _array$[ebp]
	call	?set_at@?$pecker_array@HV?$pecker_simple_allocator@H@pecker_sdk@@@pecker_sdk@@QAEJHABH@Z ; pecker_sdk::pecker_array<int,pecker_sdk::pecker_simple_allocator<int> >::set_at

; 212  : 	array.set_at(26,isetval);

	lea	eax, DWORD PTR _isetval$[ebp]
	push	eax
	push	26					; 0000001aH
	lea	ecx, DWORD PTR _array$[ebp]
	call	?set_at@?$pecker_array@HV?$pecker_simple_allocator@H@pecker_sdk@@@pecker_sdk@@QAEJHABH@Z ; pecker_sdk::pecker_array<int,pecker_sdk::pecker_simple_allocator<int> >::set_at

; 213  : 	array.set_at(31,isetval);

	lea	eax, DWORD PTR _isetval$[ebp]
	push	eax
	push	31					; 0000001fH
	lea	ecx, DWORD PTR _array$[ebp]
	call	?set_at@?$pecker_array@HV?$pecker_simple_allocator@H@pecker_sdk@@@pecker_sdk@@QAEJHABH@Z ; pecker_sdk::pecker_array<int,pecker_sdk::pecker_simple_allocator<int> >::set_at

; 214  : 	array.set_at(36,isetval);

	lea	eax, DWORD PTR _isetval$[ebp]
	push	eax
	push	36					; 00000024H
	lea	ecx, DWORD PTR _array$[ebp]
	call	?set_at@?$pecker_array@HV?$pecker_simple_allocator@H@pecker_sdk@@@pecker_sdk@@QAEJHABH@Z ; pecker_sdk::pecker_array<int,pecker_sdk::pecker_simple_allocator<int> >::set_at

; 215  : 	array.set_at(41,isetval);

	lea	eax, DWORD PTR _isetval$[ebp]
	push	eax
	push	41					; 00000029H
	lea	ecx, DWORD PTR _array$[ebp]
	call	?set_at@?$pecker_array@HV?$pecker_simple_allocator@H@pecker_sdk@@@pecker_sdk@@QAEJHABH@Z ; pecker_sdk::pecker_array<int,pecker_sdk::pecker_simple_allocator<int> >::set_at

; 216  : 	array.set_at(46,isetval);

	lea	eax, DWORD PTR _isetval$[ebp]
	push	eax
	push	46					; 0000002eH
	lea	ecx, DWORD PTR _array$[ebp]
	call	?set_at@?$pecker_array@HV?$pecker_simple_allocator@H@pecker_sdk@@@pecker_sdk@@QAEJHABH@Z ; pecker_sdk::pecker_array<int,pecker_sdk::pecker_simple_allocator<int> >::set_at

; 217  : 
; 218  : 	output_stream.bind_write_buffer(gstr_log_info,MAX_LOG_STRING_INFO);

	push	4096					; 00001000H
	push	OFFSET _gstr_log_info
	lea	ecx, DWORD PTR _output_stream$[ebp]
	call	?bind_write_buffer@pecker_write_stream_to_memery@pecker_sdk@@QAEJPADH@Z ; pecker_sdk::pecker_write_stream_to_memery::bind_write_buffer

; 219  : 	for (int i=0;i<50;++i)

	mov	DWORD PTR _i$68313[ebp], 0
	jmp	SHORT $LN10@array_test
$LN9@array_test:
	mov	eax, DWORD PTR _i$68313[ebp]
	add	eax, 1
	mov	DWORD PTR _i$68313[ebp], eax
$LN10@array_test:
	cmp	DWORD PTR _i$68313[ebp], 50		; 00000032H
	jge	SHORT $LN8@array_test

; 220  : 	{
; 221  : 		const int* pvalue = array.get_at(i);

	mov	eax, DWORD PTR _i$68313[ebp]
	push	eax
	lea	ecx, DWORD PTR _array$[ebp]
	call	?get_at@?$pecker_array@HV?$pecker_simple_allocator@H@pecker_sdk@@@pecker_sdk@@QBEPBHH@Z ; pecker_sdk::pecker_array<int,pecker_sdk::pecker_simple_allocator<int> >::get_at
	mov	DWORD PTR _pvalue$68317[ebp], eax

; 222  : 		if (pvalue)

	cmp	DWORD PTR _pvalue$68317[ebp], 0
	je	SHORT $LN7@array_test

; 223  : 		{
; 224  : 			output_stream.write_integer(*pvalue);

	mov	eax, DWORD PTR _pvalue$68317[ebp]
	mov	ecx, DWORD PTR [eax]
	push	ecx
	lea	ecx, DWORD PTR _output_stream$[ebp]
	call	?write_integer@pecker_write_stream_to_memery@pecker_sdk@@UAEJH@Z ; pecker_sdk::pecker_write_stream_to_memery::write_integer

; 225  : 		}
; 226  : 		else

	jmp	SHORT $LN6@array_test
$LN7@array_test:

; 227  : 		{
; 228  : 			output_stream.write_chars("null\n",6);

	push	6
	push	OFFSET ??_C@_05IHCDMNLM@null?6?$AA@
	lea	ecx, DWORD PTR _output_stream$[ebp]
	call	?write_chars@pecker_write_stream_to_memery@pecker_sdk@@UAEHPADH@Z ; pecker_sdk::pecker_write_stream_to_memery::write_chars

; 229  : 			break;

	jmp	SHORT $LN8@array_test
$LN6@array_test:

; 230  : 		}
; 231  : 		output_stream.write_char(',');

	push	44					; 0000002cH
	lea	ecx, DWORD PTR _output_stream$[ebp]
	call	?write_char@pecker_write_stream_to_memery@pecker_sdk@@UAEJD@Z ; pecker_sdk::pecker_write_stream_to_memery::write_char

; 232  : 	}

	jmp	SHORT $LN9@array_test
$LN8@array_test:

; 233  : 	PECKER_LOG_INFO("array to be sort","%s",gstr_log_info);

	mov	esi, esp
	push	OFFSET ??_C@_09PALELKOJ@LOG_INFO?5?$AA@
	call	DWORD PTR __imp__printf
	add	esp, 4
	cmp	esi, esp
	call	__RTC_CheckEsp
	mov	esi, esp
	push	OFFSET ??_C@_0BB@GBNGOMJI@array?5to?5be?5sort?$AA@
	call	DWORD PTR __imp__printf
	add	esp, 4
	cmp	esi, esp
	call	__RTC_CheckEsp
	mov	esi, esp
	push	OFFSET ??_C@_01EEMJAFIK@?6?$AA@
	call	DWORD PTR __imp__printf
	add	esp, 4
	cmp	esi, esp
	call	__RTC_CheckEsp
	mov	esi, esp
	push	OFFSET _gstr_log_info
	push	OFFSET ??_C@_02DKCKIIND@?$CFs?$AA@
	call	DWORD PTR __imp__printf
	add	esp, 8
	cmp	esi, esp
	call	__RTC_CheckEsp
	mov	esi, esp
	push	OFFSET ??_C@_01EEMJAFIK@?6?$AA@
	call	DWORD PTR __imp__printf
	add	esp, 4
	cmp	esi, esp
	call	__RTC_CheckEsp

; 234  : 	output_stream.bind_write_buffer(gstr_log_info,MAX_LOG_STRING_INFO);

	push	4096					; 00001000H
	push	OFFSET _gstr_log_info
	lea	ecx, DWORD PTR _output_stream$[ebp]
	call	?bind_write_buffer@pecker_write_stream_to_memery@pecker_sdk@@QAEJPADH@Z ; pecker_sdk::pecker_write_stream_to_memery::bind_write_buffer

; 235  : 	
; 236  : 	quick_sort_increment< int,pecker_value_compare<int>,pecker_array<int>,pecker_array_iterator< pecker_array<int> > >
; 237  : 		(array,array_iterator1,array_iterator2);

	lea	eax, DWORD PTR _array_iterator2$[ebp]
	push	eax
	lea	ecx, DWORD PTR _array_iterator1$[ebp]
	push	ecx
	lea	edx, DWORD PTR _array$[ebp]
	push	edx
	call	??$quick_sort_increment@HU?$pecker_value_compare@H@pecker_sdk@@V?$pecker_array@HV?$pecker_simple_allocator@H@pecker_sdk@@@2@V?$pecker_array_iterator@V?$pecker_array@HV?$pecker_simple_allocator@H@pecker_sdk@@@pecker_sdk@@@2@@pecker_sdk@@YAJAAV?$pecker_array@HV?$pecker_simple_allocator@H@pecker_sdk@@@0@ABV?$pecker_array_iterator@V?$pecker_array@HV?$pecker_simple_allocator@H@pecker_sdk@@@pecker_sdk@@@0@1@Z ; pecker_sdk::quick_sort_increment<int,pecker_sdk::pecker_value_compare<int>,pecker_sdk::pecker_array<int,pecker_sdk::pecker_simple_allocator<int> >,pecker_sdk::pecker_array_iterator<pecker_sdk::pecker_array<int,pecker_sdk::pecker_simple_allocator<int> > > >
	add	esp, 12					; 0000000cH

; 238  : 
; 239  : 	output_stream.bind_write_buffer(gstr_log_info,MAX_LOG_STRING_INFO);

	push	4096					; 00001000H
	push	OFFSET _gstr_log_info
	lea	ecx, DWORD PTR _output_stream$[ebp]
	call	?bind_write_buffer@pecker_write_stream_to_memery@pecker_sdk@@QAEJPADH@Z ; pecker_sdk::pecker_write_stream_to_memery::bind_write_buffer

; 240  : 	for (int i=0;i<50;++i)

	mov	DWORD PTR _i$68365[ebp], 0
	jmp	SHORT $LN5@array_test
$LN4@array_test:
	mov	eax, DWORD PTR _i$68365[ebp]
	add	eax, 1
	mov	DWORD PTR _i$68365[ebp], eax
$LN5@array_test:
	cmp	DWORD PTR _i$68365[ebp], 50		; 00000032H
	jge	SHORT $LN3@array_test

; 241  : 	{
; 242  : 		const int* pvalue = array.get_at(i);

	mov	eax, DWORD PTR _i$68365[ebp]
	push	eax
	lea	ecx, DWORD PTR _array$[ebp]
	call	?get_at@?$pecker_array@HV?$pecker_simple_allocator@H@pecker_sdk@@@pecker_sdk@@QBEPBHH@Z ; pecker_sdk::pecker_array<int,pecker_sdk::pecker_simple_allocator<int> >::get_at
	mov	DWORD PTR _pvalue$68369[ebp], eax

; 243  : 		if (pvalue)

	cmp	DWORD PTR _pvalue$68369[ebp], 0
	je	SHORT $LN2@array_test

; 244  : 		{
; 245  : 			output_stream.write_integer(*pvalue);

	mov	eax, DWORD PTR _pvalue$68369[ebp]
	mov	ecx, DWORD PTR [eax]
	push	ecx
	lea	ecx, DWORD PTR _output_stream$[ebp]
	call	?write_integer@pecker_write_stream_to_memery@pecker_sdk@@UAEJH@Z ; pecker_sdk::pecker_write_stream_to_memery::write_integer

; 246  : 		}
; 247  : 		else

	jmp	SHORT $LN1@array_test
$LN2@array_test:

; 248  : 		{
; 249  : 			output_stream.write_chars("null\n",6);

	push	6
	push	OFFSET ??_C@_05IHCDMNLM@null?6?$AA@
	lea	ecx, DWORD PTR _output_stream$[ebp]
	call	?write_chars@pecker_write_stream_to_memery@pecker_sdk@@UAEHPADH@Z ; pecker_sdk::pecker_write_stream_to_memery::write_chars

; 250  : 			break;

	jmp	SHORT $LN3@array_test
$LN1@array_test:

; 251  : 		}
; 252  : 		output_stream.write_char(',');

	push	44					; 0000002cH
	lea	ecx, DWORD PTR _output_stream$[ebp]
	call	?write_char@pecker_write_stream_to_memery@pecker_sdk@@UAEJD@Z ; pecker_sdk::pecker_write_stream_to_memery::write_char

; 253  : 	}

	jmp	SHORT $LN4@array_test
$LN3@array_test:

; 254  : 	PECKER_LOG_INFO("array  sorted","%s",gstr_log_info);

	mov	esi, esp
	push	OFFSET ??_C@_09PALELKOJ@LOG_INFO?5?$AA@
	call	DWORD PTR __imp__printf
	add	esp, 4
	cmp	esi, esp
	call	__RTC_CheckEsp
	mov	esi, esp
	push	OFFSET ??_C@_0O@MBCOGNKJ@array?5?5sorted?$AA@
	call	DWORD PTR __imp__printf
	add	esp, 4
	cmp	esi, esp
	call	__RTC_CheckEsp
	mov	esi, esp
	push	OFFSET ??_C@_01EEMJAFIK@?6?$AA@
	call	DWORD PTR __imp__printf
	add	esp, 4
	cmp	esi, esp
	call	__RTC_CheckEsp
	mov	esi, esp
	push	OFFSET _gstr_log_info
	push	OFFSET ??_C@_02DKCKIIND@?$CFs?$AA@
	call	DWORD PTR __imp__printf
	add	esp, 8
	cmp	esi, esp
	call	__RTC_CheckEsp
	mov	esi, esp
	push	OFFSET ??_C@_01EEMJAFIK@?6?$AA@
	call	DWORD PTR __imp__printf
	add	esp, 4
	cmp	esi, esp
	call	__RTC_CheckEsp

; 255  : 	
; 256  : 
; 257  : 	array.clear(true);

	push	1
	lea	ecx, DWORD PTR _array$[ebp]
	call	?clear@?$pecker_array@HV?$pecker_simple_allocator@H@pecker_sdk@@@pecker_sdk@@QAEJ_N@Z ; pecker_sdk::pecker_array<int,pecker_sdk::pecker_simple_allocator<int> >::clear

; 258  : 
; 259  : 	//int ibreak;
; 260  : 	//std::cin >> ibreak;
; 261  : 
; 262  : }

	mov	BYTE PTR __$EHRec$[ebp+8], 2
	lea	ecx, DWORD PTR _array_iterator2$[ebp]
	call	??1?$pecker_array_iterator@V?$pecker_array@HV?$pecker_simple_allocator@H@pecker_sdk@@@pecker_sdk@@@pecker_sdk@@UAE@XZ ; pecker_sdk::pecker_array_iterator<pecker_sdk::pecker_array<int,pecker_sdk::pecker_simple_allocator<int> > >::~pecker_array_iterator<pecker_sdk::pecker_array<int,pecker_sdk::pecker_simple_allocator<int> > >
	mov	BYTE PTR __$EHRec$[ebp+8], 1
	lea	ecx, DWORD PTR _array_iterator1$[ebp]
	call	??1?$pecker_array_iterator@V?$pecker_array@HV?$pecker_simple_allocator@H@pecker_sdk@@@pecker_sdk@@@pecker_sdk@@UAE@XZ ; pecker_sdk::pecker_array_iterator<pecker_sdk::pecker_array<int,pecker_sdk::pecker_simple_allocator<int> > >::~pecker_array_iterator<pecker_sdk::pecker_array<int,pecker_sdk::pecker_simple_allocator<int> > >
	mov	BYTE PTR __$EHRec$[ebp+8], 0
	lea	ecx, DWORD PTR _array$[ebp]
	call	??1?$pecker_array@HV?$pecker_simple_allocator@H@pecker_sdk@@@pecker_sdk@@UAE@XZ ; pecker_sdk::pecker_array<int,pecker_sdk::pecker_simple_allocator<int> >::~pecker_array<int,pecker_sdk::pecker_simple_allocator<int> >
	mov	DWORD PTR __$EHRec$[ebp+8], -1
	lea	ecx, DWORD PTR _output_stream$[ebp]
	call	??1pecker_write_stream_to_memery@pecker_sdk@@UAE@XZ ; pecker_sdk::pecker_write_stream_to_memery::~pecker_write_stream_to_memery
	push	edx
	mov	ecx, ebp
	push	eax
	lea	edx, DWORD PTR $LN68@array_test
	call	@_RTC_CheckStackVars@8
	pop	eax
	pop	edx
	mov	ecx, DWORD PTR __$EHRec$[ebp]
	mov	DWORD PTR fs:0, ecx
	pop	ecx
	pop	edi
	pop	esi
	pop	ebx
	add	esp, 548				; 00000224H
	cmp	ebp, esp
	call	__RTC_CheckEsp
	mov	esp, ebp
	pop	ebp
	ret	0
	npad	1
$LN68@array_test:
	DD	8
	DD	$LN67@array_test
$LN67@array_test:
	DD	-56					; ffffffc8H
	DD	40					; 00000028H
	DD	$LN58@array_test
	DD	-84					; ffffffacH
	DD	20					; 00000014H
	DD	$LN59@array_test
	DD	-96					; ffffffa0H
	DD	4
	DD	$LN60@array_test
	DD	-116					; ffffff8cH
	DD	12					; 0000000cH
	DD	$LN61@array_test
	DD	-164					; ffffff5cH
	DD	4
	DD	$LN62@array_test
	DD	-236					; ffffff14H
	DD	4
	DD	$LN63@array_test
	DD	-280					; fffffee8H
	DD	12					; 0000000cH
	DD	$LN64@array_test
	DD	-292					; fffffedcH
	DD	4
	DD	$LN65@array_test
$LN65@array_test:
	DB	105					; 00000069H
	DB	115					; 00000073H
	DB	101					; 00000065H
	DB	116					; 00000074H
	DB	118					; 00000076H
	DB	97					; 00000061H
	DB	108					; 0000006cH
	DB	0
$LN64@array_test:
	DB	97					; 00000061H
	DB	114					; 00000072H
	DB	114					; 00000072H
	DB	97					; 00000061H
	DB	121					; 00000079H
	DB	95					; 0000005fH
	DB	105					; 00000069H
	DB	116					; 00000074H
	DB	101					; 00000065H
	DB	114					; 00000072H
	DB	97					; 00000061H
	DB	116					; 00000074H
	DB	111					; 0000006fH
	DB	114					; 00000072H
	DB	50					; 00000032H
	DB	0
$LN63@array_test:
	DB	105					; 00000069H
	DB	0
$LN62@array_test:
	DB	105					; 00000069H
	DB	0
$LN61@array_test:
	DB	97					; 00000061H
	DB	114					; 00000072H
	DB	114					; 00000072H
	DB	97					; 00000061H
	DB	121					; 00000079H
	DB	95					; 0000005fH
	DB	105					; 00000069H
	DB	116					; 00000074H
	DB	101					; 00000065H
	DB	114					; 00000072H
	DB	97					; 00000061H
	DB	116					; 00000074H
	DB	111					; 0000006fH
	DB	114					; 00000072H
	DB	49					; 00000031H
	DB	0
$LN60@array_test:
	DB	105					; 00000069H
	DB	0
$LN59@array_test:
	DB	97					; 00000061H
	DB	114					; 00000072H
	DB	114					; 00000072H
	DB	97					; 00000061H
	DB	121					; 00000079H
	DB	0
$LN58@array_test:
	DB	111					; 0000006fH
	DB	117					; 00000075H
	DB	116					; 00000074H
	DB	112					; 00000070H
	DB	117					; 00000075H
	DB	116					; 00000074H
	DB	95					; 0000005fH
	DB	115					; 00000073H
	DB	116					; 00000074H
	DB	114					; 00000072H
	DB	101					; 00000065H
	DB	97					; 00000061H
	DB	109					; 0000006dH
	DB	0
_TEXT	ENDS
;	COMDAT text$x
text$x	SEGMENT
__unwindfunclet$?array_test_main@@YAXXZ$0:
	lea	ecx, DWORD PTR _output_stream$[ebp]
	jmp	??1pecker_write_stream_to_memery@pecker_sdk@@UAE@XZ ; pecker_sdk::pecker_write_stream_to_memery::~pecker_write_stream_to_memery
__unwindfunclet$?array_test_main@@YAXXZ$1:
	lea	ecx, DWORD PTR _array$[ebp]
	jmp	??1?$pecker_array@HV?$pecker_simple_allocator@H@pecker_sdk@@@pecker_sdk@@UAE@XZ ; pecker_sdk::pecker_array<int,pecker_sdk::pecker_simple_allocator<int> >::~pecker_array<int,pecker_sdk::pecker_simple_allocator<int> >
__unwindfunclet$?array_test_main@@YAXXZ$2:
	lea	ecx, DWORD PTR _array_iterator1$[ebp]
	jmp	??1?$pecker_array_iterator@V?$pecker_array@HV?$pecker_simple_allocator@H@pecker_sdk@@@pecker_sdk@@@pecker_sdk@@UAE@XZ ; pecker_sdk::pecker_array_iterator<pecker_sdk::pecker_array<int,pecker_sdk::pecker_simple_allocator<int> > >::~pecker_array_iterator<pecker_sdk::pecker_array<int,pecker_sdk::pecker_simple_allocator<int> > >
__unwindfunclet$?array_test_main@@YAXXZ$3:
	lea	ecx, DWORD PTR _array_iterator2$[ebp]
	jmp	??1?$pecker_array_iterator@V?$pecker_array@HV?$pecker_simple_allocator@H@pecker_sdk@@@pecker_sdk@@@pecker_sdk@@UAE@XZ ; pecker_sdk::pecker_array_iterator<pecker_sdk::pecker_array<int,pecker_sdk::pecker_simple_allocator<int> > >::~pecker_array_iterator<pecker_sdk::pecker_array<int,pecker_sdk::pecker_simple_allocator<int> > >
__ehhandler$?array_test_main@@YAXXZ:
	mov	edx, DWORD PTR [esp+8]
	lea	eax, DWORD PTR [edx+12]
	mov	ecx, DWORD PTR [edx-552]
	xor	ecx, eax
	call	@__security_check_cookie@4
	mov	eax, OFFSET __ehfuncinfo$?array_test_main@@YAXXZ
	jmp	___CxxFrameHandler3
text$x	ENDS
?array_test_main@@YAXXZ ENDP				; array_test_main
PUBLIC	??1?$pecker_pool_array@HV?$pecker_simple_allocator@H@pecker_sdk@@V?$pecker_simple_allocator@PAH@2@@pecker_sdk@@UAE@XZ ; pecker_sdk::pecker_pool_array<int,pecker_sdk::pecker_simple_allocator<int>,pecker_sdk::pecker_simple_allocator<int *> >::~pecker_pool_array<int,pecker_sdk::pecker_simple_allocator<int>,pecker_sdk::pecker_simple_allocator<int *> >
PUBLIC	??1?$pecker_array_iterator@V?$pecker_pool_array@HV?$pecker_simple_allocator@H@pecker_sdk@@V?$pecker_simple_allocator@PAH@2@@pecker_sdk@@@pecker_sdk@@UAE@XZ ; pecker_sdk::pecker_array_iterator<pecker_sdk::pecker_pool_array<int,pecker_sdk::pecker_simple_allocator<int>,pecker_sdk::pecker_simple_allocator<int *> > >::~pecker_array_iterator<pecker_sdk::pecker_pool_array<int,pecker_sdk::pecker_simple_allocator<int>,pecker_sdk::pecker_simple_allocator<int *> > >
PUBLIC	?clear@?$pecker_pool_array@HV?$pecker_simple_allocator@H@pecker_sdk@@V?$pecker_simple_allocator@PAH@2@@pecker_sdk@@QAEJ_N@Z ; pecker_sdk::pecker_pool_array<int,pecker_sdk::pecker_simple_allocator<int>,pecker_sdk::pecker_simple_allocator<int *> >::clear
PUBLIC	??$quick_sort_increment@HU?$pecker_value_compare@H@pecker_sdk@@V?$pecker_pool_array@HV?$pecker_simple_allocator@H@pecker_sdk@@V?$pecker_simple_allocator@PAH@2@@2@V?$pecker_array_iterator@V?$pecker_pool_array@HV?$pecker_simple_allocator@H@pecker_sdk@@V?$pecker_simple_allocator@PAH@2@@pecker_sdk@@@2@@pecker_sdk@@YAJAAV?$pecker_pool_array@HV?$pecker_simple_allocator@H@pecker_sdk@@V?$pecker_simple_allocator@PAH@2@@0@ABV?$pecker_array_iterator@V?$pecker_pool_array@HV?$pecker_simple_allocator@H@pecker_sdk@@V?$pecker_simple_allocator@PAH@2@@pecker_sdk@@@0@1@Z ; pecker_sdk::quick_sort_increment<int,pecker_sdk::pecker_value_compare<int>,pecker_sdk::pecker_pool_array<int,pecker_sdk::pecker_simple_allocator<int>,pecker_sdk::pecker_simple_allocator<int *> >,pecker_sdk::pecker_array_iterator<pecker_sdk::pecker_pool_array<int,pecker_sdk::pecker_simple_allocator<int>,pecker_sdk::pecker_simple_allocator<int *> > > >
PUBLIC	?get_at@?$pecker_pool_array@HV?$pecker_simple_allocator@H@pecker_sdk@@V?$pecker_simple_allocator@PAH@2@@pecker_sdk@@QBEPBHH@Z ; pecker_sdk::pecker_pool_array<int,pecker_sdk::pecker_simple_allocator<int>,pecker_sdk::pecker_simple_allocator<int *> >::get_at
PUBLIC	?set_at@?$pecker_pool_array@HV?$pecker_simple_allocator@H@pecker_sdk@@V?$pecker_simple_allocator@PAH@2@@pecker_sdk@@QAEJHABH@Z ; pecker_sdk::pecker_pool_array<int,pecker_sdk::pecker_simple_allocator<int>,pecker_sdk::pecker_simple_allocator<int *> >::set_at
PUBLIC	?resize@?$pecker_pool_array@HV?$pecker_simple_allocator@H@pecker_sdk@@V?$pecker_simple_allocator@PAH@2@@pecker_sdk@@QAEJHHH_N@Z ; pecker_sdk::pecker_pool_array<int,pecker_sdk::pecker_simple_allocator<int>,pecker_sdk::pecker_simple_allocator<int *> >::resize
PUBLIC	?pop@?$pecker_pool_array@HV?$pecker_simple_allocator@H@pecker_sdk@@V?$pecker_simple_allocator@PAH@2@@pecker_sdk@@QAEJXZ ; pecker_sdk::pecker_pool_array<int,pecker_sdk::pecker_simple_allocator<int>,pecker_sdk::pecker_simple_allocator<int *> >::pop
PUBLIC	?decrement@?$pecker_array_iterator@V?$pecker_pool_array@HV?$pecker_simple_allocator@H@pecker_sdk@@V?$pecker_simple_allocator@PAH@2@@pecker_sdk@@@pecker_sdk@@UAEJXZ ; pecker_sdk::pecker_array_iterator<pecker_sdk::pecker_pool_array<int,pecker_sdk::pecker_simple_allocator<int>,pecker_sdk::pecker_simple_allocator<int *> > >::decrement
PUBLIC	?increment@?$pecker_array_iterator@V?$pecker_pool_array@HV?$pecker_simple_allocator@H@pecker_sdk@@V?$pecker_simple_allocator@PAH@2@@pecker_sdk@@@pecker_sdk@@UAEJXZ ; pecker_sdk::pecker_array_iterator<pecker_sdk::pecker_pool_array<int,pecker_sdk::pecker_simple_allocator<int>,pecker_sdk::pecker_simple_allocator<int *> > >::increment
PUBLIC	?get_at@?$pecker_pool_array@HV?$pecker_simple_allocator@H@pecker_sdk@@V?$pecker_simple_allocator@PAH@2@@pecker_sdk@@QBEPBHPBV?$pecker_array_iterator@V?$pecker_pool_array@HV?$pecker_simple_allocator@H@pecker_sdk@@V?$pecker_simple_allocator@PAH@2@@pecker_sdk@@@2@@Z ; pecker_sdk::pecker_pool_array<int,pecker_sdk::pecker_simple_allocator<int>,pecker_sdk::pecker_simple_allocator<int *> >::get_at
PUBLIC	??_C@_0BF@EDOIIKPO@array_pool_test_main?$AA@	; `string'
PUBLIC	?init@?$pecker_array_iterator@V?$pecker_pool_array@HV?$pecker_simple_allocator@H@pecker_sdk@@V?$pecker_simple_allocator@PAH@2@@pecker_sdk@@@pecker_sdk@@UAEJW4enumLINEAR_INTERATOR_INIT_TYPE@@@Z ; pecker_sdk::pecker_array_iterator<pecker_sdk::pecker_pool_array<int,pecker_sdk::pecker_simple_allocator<int>,pecker_sdk::pecker_simple_allocator<int *> > >::init
PUBLIC	?get_iterator@?$pecker_pool_array@HV?$pecker_simple_allocator@H@pecker_sdk@@V?$pecker_simple_allocator@PAH@2@@pecker_sdk@@QBEPAV?$pecker_array_iterator@V?$pecker_pool_array@HV?$pecker_simple_allocator@H@pecker_sdk@@V?$pecker_simple_allocator@PAH@2@@pecker_sdk@@@2@PAV32@@Z ; pecker_sdk::pecker_pool_array<int,pecker_sdk::pecker_simple_allocator<int>,pecker_sdk::pecker_simple_allocator<int *> >::get_iterator
PUBLIC	??0?$pecker_array_iterator@V?$pecker_pool_array@HV?$pecker_simple_allocator@H@pecker_sdk@@V?$pecker_simple_allocator@PAH@2@@pecker_sdk@@@pecker_sdk@@QAE@PBV?$pecker_pool_array@HV?$pecker_simple_allocator@H@pecker_sdk@@V?$pecker_simple_allocator@PAH@2@@1@@Z ; pecker_sdk::pecker_array_iterator<pecker_sdk::pecker_pool_array<int,pecker_sdk::pecker_simple_allocator<int>,pecker_sdk::pecker_simple_allocator<int *> > >::pecker_array_iterator<pecker_sdk::pecker_pool_array<int,pecker_sdk::pecker_simple_allocator<int>,pecker_sdk::pecker_simple_allocator<int *> > >
PUBLIC	?push@?$pecker_pool_array@HV?$pecker_simple_allocator@H@pecker_sdk@@V?$pecker_simple_allocator@PAH@2@@pecker_sdk@@QAEJABH@Z ; pecker_sdk::pecker_pool_array<int,pecker_sdk::pecker_simple_allocator<int>,pecker_sdk::pecker_simple_allocator<int *> >::push
PUBLIC	?init@?$pecker_pool_array@HV?$pecker_simple_allocator@H@pecker_sdk@@V?$pecker_simple_allocator@PAH@2@@pecker_sdk@@QAEJHHH@Z ; pecker_sdk::pecker_pool_array<int,pecker_sdk::pecker_simple_allocator<int>,pecker_sdk::pecker_simple_allocator<int *> >::init
PUBLIC	??0?$pecker_pool_array@HV?$pecker_simple_allocator@H@pecker_sdk@@V?$pecker_simple_allocator@PAH@2@@pecker_sdk@@QAE@HH@Z ; pecker_sdk::pecker_pool_array<int,pecker_sdk::pecker_simple_allocator<int>,pecker_sdk::pecker_simple_allocator<int *> >::pecker_pool_array<int,pecker_sdk::pecker_simple_allocator<int>,pecker_sdk::pecker_simple_allocator<int *> >
PUBLIC	?array_pool_test_main@@YAXXZ			; array_pool_test_main
;	COMDAT ??_C@_0BF@EDOIIKPO@array_pool_test_main?$AA@
CONST	SEGMENT
??_C@_0BF@EDOIIKPO@array_pool_test_main?$AA@ DB 'array_pool_test_main', 00H ; `string'
CONST	ENDS
;	COMDAT xdata$x
xdata$x	SEGMENT
__unwindtable$?array_pool_test_main@@YAXXZ DD 0ffffffffH
	DD	FLAT:__unwindfunclet$?array_pool_test_main@@YAXXZ$0
	DD	00H
	DD	FLAT:__unwindfunclet$?array_pool_test_main@@YAXXZ$1
	DD	01H
	DD	FLAT:__unwindfunclet$?array_pool_test_main@@YAXXZ$2
	DD	02H
	DD	FLAT:__unwindfunclet$?array_pool_test_main@@YAXXZ$3
__ehfuncinfo$?array_pool_test_main@@YAXXZ DD 019930522H
	DD	04H
	DD	FLAT:__unwindtable$?array_pool_test_main@@YAXXZ
	DD	2 DUP(00H)
	DD	2 DUP(00H)
	DD	00H
	DD	01H
; Function compile flags: /Odtp /RTCsu /ZI
xdata$x	ENDS
;	COMDAT ?array_pool_test_main@@YAXXZ
_TEXT	SEGMENT
$T70030 = -552						; size = 4
_pvalue$68654 = -348					; size = 4
_i$68650 = -336						; size = 4
_pvalue$68595 = -324					; size = 4
_i$68591 = -312						; size = 4
_isetval$ = -300					; size = 4
_array_iterator2$ = -288				; size = 12
_pvalue$68577 = -268					; size = 4
_i$68573 = -256						; size = 4
_i$68569 = -244						; size = 4
_pvalue$68566 = -232					; size = 4
_i$68562 = -220						; size = 4
_i$68557 = -208						; size = 4
_pvalue$68554 = -196					; size = 4
_pvalue$68548 = -184					; size = 4
_i$68541 = -172						; size = 4
_i$68537 = -160						; size = 4
_pvalue$68534 = -148					; size = 4
_pvalue$68528 = -136					; size = 4
_array_iterator1$ = -124				; size = 12
_i$68472 = -104						; size = 4
_array$ = -92						; size = 28
_output_stream$ = -56					; size = 40
__$EHRec$ = -12						; size = 12
?array_pool_test_main@@YAXXZ PROC			; array_pool_test_main, COMDAT

; 265  : {

	push	ebp
	mov	ebp, esp
	push	-1
	push	__ehhandler$?array_pool_test_main@@YAXXZ
	mov	eax, DWORD PTR fs:0
	push	eax
	sub	esp, 544				; 00000220H
	push	ebx
	push	esi
	push	edi
	lea	edi, DWORD PTR [ebp-556]
	mov	ecx, 136				; 00000088H
	mov	eax, -858993460				; ccccccccH
	rep stosd
	mov	eax, DWORD PTR ___security_cookie
	xor	eax, ebp
	push	eax
	lea	eax, DWORD PTR __$EHRec$[ebp]
	mov	DWORD PTR fs:0, eax

; 266  : 	pecker_write_stream_to_memery output_stream;

	lea	ecx, DWORD PTR _output_stream$[ebp]
	call	??0pecker_write_stream_to_memery@pecker_sdk@@QAE@XZ ; pecker_sdk::pecker_write_stream_to_memery::pecker_write_stream_to_memery
	mov	DWORD PTR __$EHRec$[ebp+8], 0

; 267  : 	output_stream.bind_write_buffer(gstr_log_info,MAX_LOG_STRING_INFO);

	push	4096					; 00001000H
	push	OFFSET _gstr_log_info
	lea	ecx, DWORD PTR _output_stream$[ebp]
	call	?bind_write_buffer@pecker_write_stream_to_memery@pecker_sdk@@QAEJPADH@Z ; pecker_sdk::pecker_write_stream_to_memery::bind_write_buffer

; 268  : 
; 269  : 	pecker_pool_array<int> array;

	push	16					; 00000010H
	push	16					; 00000010H
	lea	ecx, DWORD PTR _array$[ebp]
	call	??0?$pecker_pool_array@HV?$pecker_simple_allocator@H@pecker_sdk@@V?$pecker_simple_allocator@PAH@2@@pecker_sdk@@QAE@HH@Z ; pecker_sdk::pecker_pool_array<int,pecker_sdk::pecker_simple_allocator<int>,pecker_sdk::pecker_simple_allocator<int *> >::pecker_pool_array<int,pecker_sdk::pecker_simple_allocator<int>,pecker_sdk::pecker_simple_allocator<int *> >
	mov	BYTE PTR __$EHRec$[ebp+8], 1

; 270  : 	array.init();

	push	-1
	push	-1
	push	1
	lea	ecx, DWORD PTR _array$[ebp]
	call	?init@?$pecker_pool_array@HV?$pecker_simple_allocator@H@pecker_sdk@@V?$pecker_simple_allocator@PAH@2@@pecker_sdk@@QAEJHHH@Z ; pecker_sdk::pecker_pool_array<int,pecker_sdk::pecker_simple_allocator<int>,pecker_sdk::pecker_simple_allocator<int *> >::init

; 271  : 	for (int i=0;i<20;++i)

	mov	DWORD PTR _i$68472[ebp], 0
	jmp	SHORT $LN51@array_pool
$LN50@array_pool:
	mov	eax, DWORD PTR _i$68472[ebp]
	add	eax, 1
	mov	DWORD PTR _i$68472[ebp], eax
$LN51@array_pool:
	cmp	DWORD PTR _i$68472[ebp], 20		; 00000014H
	jge	SHORT $LN49@array_pool

; 272  : 	{
; 273  : 		array.push(i);

	lea	eax, DWORD PTR _i$68472[ebp]
	push	eax
	lea	ecx, DWORD PTR _array$[ebp]
	call	?push@?$pecker_pool_array@HV?$pecker_simple_allocator@H@pecker_sdk@@V?$pecker_simple_allocator@PAH@2@@pecker_sdk@@QAEJABH@Z ; pecker_sdk::pecker_pool_array<int,pecker_sdk::pecker_simple_allocator<int>,pecker_sdk::pecker_simple_allocator<int *> >::push

; 274  : 	}

	jmp	SHORT $LN50@array_pool
$LN49@array_pool:

; 275  : 	pecker_array_iterator< pecker_pool_array<int> > array_iterator1;

	push	0
	lea	ecx, DWORD PTR _array_iterator1$[ebp]
	call	??0?$pecker_array_iterator@V?$pecker_pool_array@HV?$pecker_simple_allocator@H@pecker_sdk@@V?$pecker_simple_allocator@PAH@2@@pecker_sdk@@@pecker_sdk@@QAE@PBV?$pecker_pool_array@HV?$pecker_simple_allocator@H@pecker_sdk@@V?$pecker_simple_allocator@PAH@2@@1@@Z ; pecker_sdk::pecker_array_iterator<pecker_sdk::pecker_pool_array<int,pecker_sdk::pecker_simple_allocator<int>,pecker_sdk::pecker_simple_allocator<int *> > >::pecker_array_iterator<pecker_sdk::pecker_pool_array<int,pecker_sdk::pecker_simple_allocator<int>,pecker_sdk::pecker_simple_allocator<int *> > >
	mov	BYTE PTR __$EHRec$[ebp+8], 2

; 276  : 
; 277  : 	array.get_iterator(&array_iterator1);

	lea	eax, DWORD PTR _array_iterator1$[ebp]
	push	eax
	lea	ecx, DWORD PTR _array$[ebp]
	call	?get_iterator@?$pecker_pool_array@HV?$pecker_simple_allocator@H@pecker_sdk@@V?$pecker_simple_allocator@PAH@2@@pecker_sdk@@QBEPAV?$pecker_array_iterator@V?$pecker_pool_array@HV?$pecker_simple_allocator@H@pecker_sdk@@V?$pecker_simple_allocator@PAH@2@@pecker_sdk@@@2@PAV32@@Z ; pecker_sdk::pecker_pool_array<int,pecker_sdk::pecker_simple_allocator<int>,pecker_sdk::pecker_simple_allocator<int *> >::get_iterator

; 278  : 	array_iterator1.init(ITERATOR_INIT_BEGIN_INDEX);

	push	0
	lea	ecx, DWORD PTR _array_iterator1$[ebp]
	call	?init@?$pecker_array_iterator@V?$pecker_pool_array@HV?$pecker_simple_allocator@H@pecker_sdk@@V?$pecker_simple_allocator@PAH@2@@pecker_sdk@@@pecker_sdk@@UAEJW4enumLINEAR_INTERATOR_INIT_TYPE@@@Z ; pecker_sdk::pecker_array_iterator<pecker_sdk::pecker_pool_array<int,pecker_sdk::pecker_simple_allocator<int>,pecker_sdk::pecker_simple_allocator<int *> > >::init

; 279  : 	//std::cout << "inc ....." << std::endl;
; 280  : 	PECKER_LOG_INFO("array_pool_test_main","inc.......");

	mov	esi, esp
	push	OFFSET ??_C@_09PALELKOJ@LOG_INFO?5?$AA@
	call	DWORD PTR __imp__printf
	add	esp, 4
	cmp	esi, esp
	call	__RTC_CheckEsp
	mov	esi, esp
	push	OFFSET ??_C@_0BF@EDOIIKPO@array_pool_test_main?$AA@
	call	DWORD PTR __imp__printf
	add	esp, 4
	cmp	esi, esp
	call	__RTC_CheckEsp
	mov	esi, esp
	push	OFFSET ??_C@_01EEMJAFIK@?6?$AA@
	call	DWORD PTR __imp__printf
	add	esp, 4
	cmp	esi, esp
	call	__RTC_CheckEsp
	mov	esi, esp
	push	OFFSET ??_C@_0L@FMDBBCEB@inc?4?4?4?4?4?4?4?$AA@
	call	DWORD PTR __imp__printf
	add	esp, 4
	cmp	esi, esp
	call	__RTC_CheckEsp
	mov	esi, esp
	push	OFFSET ??_C@_01EEMJAFIK@?6?$AA@
	call	DWORD PTR __imp__printf
	add	esp, 4
	cmp	esi, esp
	call	__RTC_CheckEsp
$LN48@array_pool:

; 281  : 	while (1)

	mov	eax, 1
	test	eax, eax
	je	SHORT $LN47@array_pool

; 282  : 	{
; 283  : 		const int* pvalue = array.get_at(&array_iterator1);

	lea	eax, DWORD PTR _array_iterator1$[ebp]
	push	eax
	lea	ecx, DWORD PTR _array$[ebp]
	call	?get_at@?$pecker_pool_array@HV?$pecker_simple_allocator@H@pecker_sdk@@V?$pecker_simple_allocator@PAH@2@@pecker_sdk@@QBEPBHPBV?$pecker_array_iterator@V?$pecker_pool_array@HV?$pecker_simple_allocator@H@pecker_sdk@@V?$pecker_simple_allocator@PAH@2@@pecker_sdk@@@2@@Z ; pecker_sdk::pecker_pool_array<int,pecker_sdk::pecker_simple_allocator<int>,pecker_sdk::pecker_simple_allocator<int *> >::get_at
	mov	DWORD PTR _pvalue$68528[ebp], eax

; 284  : 		if (pvalue)

	cmp	DWORD PTR _pvalue$68528[ebp], 0
	je	SHORT $LN46@array_pool

; 285  : 		{
; 286  : 			output_stream.write_integer(*pvalue);

	mov	eax, DWORD PTR _pvalue$68528[ebp]
	mov	ecx, DWORD PTR [eax]
	push	ecx
	lea	ecx, DWORD PTR _output_stream$[ebp]
	call	?write_integer@pecker_write_stream_to_memery@pecker_sdk@@UAEJH@Z ; pecker_sdk::pecker_write_stream_to_memery::write_integer

; 287  : 			output_stream.write_char(',');

	push	44					; 0000002cH
	lea	ecx, DWORD PTR _output_stream$[ebp]
	call	?write_char@pecker_write_stream_to_memery@pecker_sdk@@UAEJD@Z ; pecker_sdk::pecker_write_stream_to_memery::write_char

; 288  : 			//PECKER_LOG_INFO("array_test_main","%d",*pvalue);
; 289  : 			//std::cout << *pvalue << ",";
; 290  : 		}
; 291  : 		else

	jmp	SHORT $LN45@array_pool
$LN46@array_pool:

; 292  : 		{
; 293  : 			output_stream.write_chars("null\n",6);

	push	6
	push	OFFSET ??_C@_05IHCDMNLM@null?6?$AA@
	lea	ecx, DWORD PTR _output_stream$[ebp]
	call	?write_chars@pecker_write_stream_to_memery@pecker_sdk@@UAEHPADH@Z ; pecker_sdk::pecker_write_stream_to_memery::write_chars

; 294  : 			//PECKER_LOG_ERR("array_test_main","%d(null)",pvalue);
; 295  : 			//std::cout << "null" << std::endl;
; 296  : 			break;

	jmp	SHORT $LN47@array_pool
$LN45@array_pool:

; 297  : 		}
; 298  : 		array_iterator1.increment();

	lea	ecx, DWORD PTR _array_iterator1$[ebp]
	call	?increment@?$pecker_array_iterator@V?$pecker_pool_array@HV?$pecker_simple_allocator@H@pecker_sdk@@V?$pecker_simple_allocator@PAH@2@@pecker_sdk@@@pecker_sdk@@UAEJXZ ; pecker_sdk::pecker_array_iterator<pecker_sdk::pecker_pool_array<int,pecker_sdk::pecker_simple_allocator<int>,pecker_sdk::pecker_simple_allocator<int *> > >::increment

; 299  : 	}

	jmp	SHORT $LN48@array_pool
$LN47@array_pool:

; 300  : 
; 301  : 	//output_stream.write_char('\0');
; 302  : 	PECKER_LOG_INFO("begin to end","%s",gstr_log_info);

	mov	esi, esp
	push	OFFSET ??_C@_09PALELKOJ@LOG_INFO?5?$AA@
	call	DWORD PTR __imp__printf
	add	esp, 4
	cmp	esi, esp
	call	__RTC_CheckEsp
	mov	esi, esp
	push	OFFSET ??_C@_0N@HIHLHABK@begin?5to?5end?$AA@
	call	DWORD PTR __imp__printf
	add	esp, 4
	cmp	esi, esp
	call	__RTC_CheckEsp
	mov	esi, esp
	push	OFFSET ??_C@_01EEMJAFIK@?6?$AA@
	call	DWORD PTR __imp__printf
	add	esp, 4
	cmp	esi, esp
	call	__RTC_CheckEsp
	mov	esi, esp
	push	OFFSET _gstr_log_info
	push	OFFSET ??_C@_02DKCKIIND@?$CFs?$AA@
	call	DWORD PTR __imp__printf
	add	esp, 8
	cmp	esi, esp
	call	__RTC_CheckEsp
	mov	esi, esp
	push	OFFSET ??_C@_01EEMJAFIK@?6?$AA@
	call	DWORD PTR __imp__printf
	add	esp, 4
	cmp	esi, esp
	call	__RTC_CheckEsp

; 303  : 
; 304  : 
; 305  : 	output_stream.bind_write_buffer(gstr_log_info,MAX_LOG_STRING_INFO);

	push	4096					; 00001000H
	push	OFFSET _gstr_log_info
	lea	ecx, DWORD PTR _output_stream$[ebp]
	call	?bind_write_buffer@pecker_write_stream_to_memery@pecker_sdk@@QAEJPADH@Z ; pecker_sdk::pecker_write_stream_to_memery::bind_write_buffer

; 306  : 	//std::cout << "dec ....." << std::endl;
; 307  : 	PECKER_LOG_INFO("array_test_main","dec.......");

	mov	esi, esp
	push	OFFSET ??_C@_09PALELKOJ@LOG_INFO?5?$AA@
	call	DWORD PTR __imp__printf
	add	esp, 4
	cmp	esi, esp
	call	__RTC_CheckEsp
	mov	esi, esp
	push	OFFSET ??_C@_0BA@NAEAIJEJ@array_test_main?$AA@
	call	DWORD PTR __imp__printf
	add	esp, 4
	cmp	esi, esp
	call	__RTC_CheckEsp
	mov	esi, esp
	push	OFFSET ??_C@_01EEMJAFIK@?6?$AA@
	call	DWORD PTR __imp__printf
	add	esp, 4
	cmp	esi, esp
	call	__RTC_CheckEsp
	mov	esi, esp
	push	OFFSET ??_C@_0L@GPEFKELB@dec?4?4?4?4?4?4?4?$AA@
	call	DWORD PTR __imp__printf
	add	esp, 4
	cmp	esi, esp
	call	__RTC_CheckEsp
	mov	esi, esp
	push	OFFSET ??_C@_01EEMJAFIK@?6?$AA@
	call	DWORD PTR __imp__printf
	add	esp, 4
	cmp	esi, esp
	call	__RTC_CheckEsp

; 308  : 	array_iterator1.init(ITERATOR_INIT_END_INDEX);

	push	1
	lea	ecx, DWORD PTR _array_iterator1$[ebp]
	call	?init@?$pecker_array_iterator@V?$pecker_pool_array@HV?$pecker_simple_allocator@H@pecker_sdk@@V?$pecker_simple_allocator@PAH@2@@pecker_sdk@@@pecker_sdk@@UAEJW4enumLINEAR_INTERATOR_INIT_TYPE@@@Z ; pecker_sdk::pecker_array_iterator<pecker_sdk::pecker_pool_array<int,pecker_sdk::pecker_simple_allocator<int>,pecker_sdk::pecker_simple_allocator<int *> > >::init
$LN44@array_pool:

; 309  : 	while (1)

	mov	eax, 1
	test	eax, eax
	je	SHORT $LN43@array_pool

; 310  : 	{
; 311  : 		const int* pvalue = array.get_at(&array_iterator1);

	lea	eax, DWORD PTR _array_iterator1$[ebp]
	push	eax
	lea	ecx, DWORD PTR _array$[ebp]
	call	?get_at@?$pecker_pool_array@HV?$pecker_simple_allocator@H@pecker_sdk@@V?$pecker_simple_allocator@PAH@2@@pecker_sdk@@QBEPBHPBV?$pecker_array_iterator@V?$pecker_pool_array@HV?$pecker_simple_allocator@H@pecker_sdk@@V?$pecker_simple_allocator@PAH@2@@pecker_sdk@@@2@@Z ; pecker_sdk::pecker_pool_array<int,pecker_sdk::pecker_simple_allocator<int>,pecker_sdk::pecker_simple_allocator<int *> >::get_at
	mov	DWORD PTR _pvalue$68534[ebp], eax

; 312  : 		if (pvalue)

	cmp	DWORD PTR _pvalue$68534[ebp], 0
	je	SHORT $LN42@array_pool

; 313  : 		{
; 314  : 			//std::cout << *pvalue << ",";
; 315  : 			//PECKER_LOG_INFO("array_test_main","%d",*pvalue);
; 316  : 			output_stream.write_integer(*pvalue);

	mov	eax, DWORD PTR _pvalue$68534[ebp]
	mov	ecx, DWORD PTR [eax]
	push	ecx
	lea	ecx, DWORD PTR _output_stream$[ebp]
	call	?write_integer@pecker_write_stream_to_memery@pecker_sdk@@UAEJH@Z ; pecker_sdk::pecker_write_stream_to_memery::write_integer

; 317  : 			output_stream.write_char(',');

	push	44					; 0000002cH
	lea	ecx, DWORD PTR _output_stream$[ebp]
	call	?write_char@pecker_write_stream_to_memery@pecker_sdk@@UAEJD@Z ; pecker_sdk::pecker_write_stream_to_memery::write_char

; 318  : 		}
; 319  : 		else

	jmp	SHORT $LN41@array_pool
$LN42@array_pool:

; 320  : 		{
; 321  : 			//std::cout << "null" << std::endl;
; 322  : 			//PECKER_LOG_ERR("array_test_main","%d(null)",pvalue);
; 323  : 			output_stream.write_chars("null\n",6);

	push	6
	push	OFFSET ??_C@_05IHCDMNLM@null?6?$AA@
	lea	ecx, DWORD PTR _output_stream$[ebp]
	call	?write_chars@pecker_write_stream_to_memery@pecker_sdk@@UAEHPADH@Z ; pecker_sdk::pecker_write_stream_to_memery::write_chars

; 324  : 			break;

	jmp	SHORT $LN43@array_pool
$LN41@array_pool:

; 325  : 		}
; 326  : 		array_iterator1.decrement();

	lea	ecx, DWORD PTR _array_iterator1$[ebp]
	call	?decrement@?$pecker_array_iterator@V?$pecker_pool_array@HV?$pecker_simple_allocator@H@pecker_sdk@@V?$pecker_simple_allocator@PAH@2@@pecker_sdk@@@pecker_sdk@@UAEJXZ ; pecker_sdk::pecker_array_iterator<pecker_sdk::pecker_pool_array<int,pecker_sdk::pecker_simple_allocator<int>,pecker_sdk::pecker_simple_allocator<int *> > >::decrement

; 327  : 	}

	jmp	SHORT $LN44@array_pool
$LN43@array_pool:

; 328  : 	//output_stream.write_char('\0');
; 329  : 	PECKER_LOG_INFO("end to begin","%s",gstr_log_info);

	mov	esi, esp
	push	OFFSET ??_C@_09PALELKOJ@LOG_INFO?5?$AA@
	call	DWORD PTR __imp__printf
	add	esp, 4
	cmp	esi, esp
	call	__RTC_CheckEsp
	mov	esi, esp
	push	OFFSET ??_C@_0N@OIDKLPEO@end?5to?5begin?$AA@
	call	DWORD PTR __imp__printf
	add	esp, 4
	cmp	esi, esp
	call	__RTC_CheckEsp
	mov	esi, esp
	push	OFFSET ??_C@_01EEMJAFIK@?6?$AA@
	call	DWORD PTR __imp__printf
	add	esp, 4
	cmp	esi, esp
	call	__RTC_CheckEsp
	mov	esi, esp
	push	OFFSET _gstr_log_info
	push	OFFSET ??_C@_02DKCKIIND@?$CFs?$AA@
	call	DWORD PTR __imp__printf
	add	esp, 8
	cmp	esi, esp
	call	__RTC_CheckEsp
	mov	esi, esp
	push	OFFSET ??_C@_01EEMJAFIK@?6?$AA@
	call	DWORD PTR __imp__printf
	add	esp, 4
	cmp	esi, esp
	call	__RTC_CheckEsp

; 330  : 
; 331  : 	for (int i=0;i<5;++i)

	mov	DWORD PTR _i$68537[ebp], 0
	jmp	SHORT $LN40@array_pool
$LN39@array_pool:
	mov	eax, DWORD PTR _i$68537[ebp]
	add	eax, 1
	mov	DWORD PTR _i$68537[ebp], eax
$LN40@array_pool:
	cmp	DWORD PTR _i$68537[ebp], 5
	jge	SHORT $LN38@array_pool

; 332  : 	{
; 333  : 		array.pop();

	lea	ecx, DWORD PTR _array$[ebp]
	call	?pop@?$pecker_pool_array@HV?$pecker_simple_allocator@H@pecker_sdk@@V?$pecker_simple_allocator@PAH@2@@pecker_sdk@@QAEJXZ ; pecker_sdk::pecker_pool_array<int,pecker_sdk::pecker_simple_allocator<int>,pecker_sdk::pecker_simple_allocator<int *> >::pop

; 334  : 	}

	jmp	SHORT $LN39@array_pool
$LN38@array_pool:

; 335  : 
; 336  : 	for (int i=0;i<20;++i)

	mov	DWORD PTR _i$68541[ebp], 0
	jmp	SHORT $LN37@array_pool
$LN36@array_pool:
	mov	eax, DWORD PTR _i$68541[ebp]
	add	eax, 1
	mov	DWORD PTR _i$68541[ebp], eax
$LN37@array_pool:
	cmp	DWORD PTR _i$68541[ebp], 20		; 00000014H
	jge	SHORT $LN35@array_pool

; 337  : 	{
; 338  : 		array.push(i);

	lea	eax, DWORD PTR _i$68541[ebp]
	push	eax
	lea	ecx, DWORD PTR _array$[ebp]
	call	?push@?$pecker_pool_array@HV?$pecker_simple_allocator@H@pecker_sdk@@V?$pecker_simple_allocator@PAH@2@@pecker_sdk@@QAEJABH@Z ; pecker_sdk::pecker_pool_array<int,pecker_sdk::pecker_simple_allocator<int>,pecker_sdk::pecker_simple_allocator<int *> >::push

; 339  : 	}

	jmp	SHORT $LN36@array_pool
$LN35@array_pool:

; 340  : 
; 341  : 	output_stream.bind_write_buffer(gstr_log_info,MAX_LOG_STRING_INFO);

	push	4096					; 00001000H
	push	OFFSET _gstr_log_info
	lea	ecx, DWORD PTR _output_stream$[ebp]
	call	?bind_write_buffer@pecker_write_stream_to_memery@pecker_sdk@@QAEJPADH@Z ; pecker_sdk::pecker_write_stream_to_memery::bind_write_buffer

; 342  : 
; 343  : 	array_iterator1.init(ITERATOR_INIT_BEGIN_INDEX);

	push	0
	lea	ecx, DWORD PTR _array_iterator1$[ebp]
	call	?init@?$pecker_array_iterator@V?$pecker_pool_array@HV?$pecker_simple_allocator@H@pecker_sdk@@V?$pecker_simple_allocator@PAH@2@@pecker_sdk@@@pecker_sdk@@UAEJW4enumLINEAR_INTERATOR_INIT_TYPE@@@Z ; pecker_sdk::pecker_array_iterator<pecker_sdk::pecker_pool_array<int,pecker_sdk::pecker_simple_allocator<int>,pecker_sdk::pecker_simple_allocator<int *> > >::init

; 344  : 	//std::cout << "inc ....." << std::endl;
; 345  : 	PECKER_LOG_INFO("array_pool_test_main","inc.......");

	mov	esi, esp
	push	OFFSET ??_C@_09PALELKOJ@LOG_INFO?5?$AA@
	call	DWORD PTR __imp__printf
	add	esp, 4
	cmp	esi, esp
	call	__RTC_CheckEsp
	mov	esi, esp
	push	OFFSET ??_C@_0BF@EDOIIKPO@array_pool_test_main?$AA@
	call	DWORD PTR __imp__printf
	add	esp, 4
	cmp	esi, esp
	call	__RTC_CheckEsp
	mov	esi, esp
	push	OFFSET ??_C@_01EEMJAFIK@?6?$AA@
	call	DWORD PTR __imp__printf
	add	esp, 4
	cmp	esi, esp
	call	__RTC_CheckEsp
	mov	esi, esp
	push	OFFSET ??_C@_0L@FMDBBCEB@inc?4?4?4?4?4?4?4?$AA@
	call	DWORD PTR __imp__printf
	add	esp, 4
	cmp	esi, esp
	call	__RTC_CheckEsp
	mov	esi, esp
	push	OFFSET ??_C@_01EEMJAFIK@?6?$AA@
	call	DWORD PTR __imp__printf
	add	esp, 4
	cmp	esi, esp
	call	__RTC_CheckEsp
$LN34@array_pool:

; 346  : 	while (1)

	mov	eax, 1
	test	eax, eax
	je	SHORT $LN33@array_pool

; 347  : 	{
; 348  : 		const int* pvalue = array.get_at(&array_iterator1);

	lea	eax, DWORD PTR _array_iterator1$[ebp]
	push	eax
	lea	ecx, DWORD PTR _array$[ebp]
	call	?get_at@?$pecker_pool_array@HV?$pecker_simple_allocator@H@pecker_sdk@@V?$pecker_simple_allocator@PAH@2@@pecker_sdk@@QBEPBHPBV?$pecker_array_iterator@V?$pecker_pool_array@HV?$pecker_simple_allocator@H@pecker_sdk@@V?$pecker_simple_allocator@PAH@2@@pecker_sdk@@@2@@Z ; pecker_sdk::pecker_pool_array<int,pecker_sdk::pecker_simple_allocator<int>,pecker_sdk::pecker_simple_allocator<int *> >::get_at
	mov	DWORD PTR _pvalue$68548[ebp], eax

; 349  : 		if (pvalue)

	cmp	DWORD PTR _pvalue$68548[ebp], 0
	je	SHORT $LN32@array_pool

; 350  : 		{
; 351  : 			//std::cout << *pvalue << ",";
; 352  : 			output_stream.write_integer(*pvalue);

	mov	eax, DWORD PTR _pvalue$68548[ebp]
	mov	ecx, DWORD PTR [eax]
	push	ecx
	lea	ecx, DWORD PTR _output_stream$[ebp]
	call	?write_integer@pecker_write_stream_to_memery@pecker_sdk@@UAEJH@Z ; pecker_sdk::pecker_write_stream_to_memery::write_integer

; 353  : 			output_stream.write_char(',');

	push	44					; 0000002cH
	lea	ecx, DWORD PTR _output_stream$[ebp]
	call	?write_char@pecker_write_stream_to_memery@pecker_sdk@@UAEJD@Z ; pecker_sdk::pecker_write_stream_to_memery::write_char

; 354  : 			//PECKER_LOG_INFO("array_pool_test_main","%d",*pvalue);
; 355  : 		}
; 356  : 		else

	jmp	SHORT $LN31@array_pool
$LN32@array_pool:

; 357  : 		{
; 358  : 			//std::cout << "null" << std::endl;
; 359  : 			//PECKER_LOG_ERR("array_pool_test_main","%d(null)",pvalue);
; 360  : 			output_stream.write_chars("null\n",6);

	push	6
	push	OFFSET ??_C@_05IHCDMNLM@null?6?$AA@
	lea	ecx, DWORD PTR _output_stream$[ebp]
	call	?write_chars@pecker_write_stream_to_memery@pecker_sdk@@UAEHPADH@Z ; pecker_sdk::pecker_write_stream_to_memery::write_chars

; 361  : 			break;

	jmp	SHORT $LN33@array_pool
$LN31@array_pool:

; 362  : 		}
; 363  : 		array_iterator1.increment();

	lea	ecx, DWORD PTR _array_iterator1$[ebp]
	call	?increment@?$pecker_array_iterator@V?$pecker_pool_array@HV?$pecker_simple_allocator@H@pecker_sdk@@V?$pecker_simple_allocator@PAH@2@@pecker_sdk@@@pecker_sdk@@UAEJXZ ; pecker_sdk::pecker_array_iterator<pecker_sdk::pecker_pool_array<int,pecker_sdk::pecker_simple_allocator<int>,pecker_sdk::pecker_simple_allocator<int *> > >::increment

; 364  : 	}

	jmp	SHORT $LN34@array_pool
$LN33@array_pool:

; 365  : 
; 366  : 	PECKER_LOG_INFO("push pop begin to end","%s",gstr_log_info);

	mov	esi, esp
	push	OFFSET ??_C@_09PALELKOJ@LOG_INFO?5?$AA@
	call	DWORD PTR __imp__printf
	add	esp, 4
	cmp	esi, esp
	call	__RTC_CheckEsp
	mov	esi, esp
	push	OFFSET ??_C@_0BG@NGMJCOBM@push?5pop?5begin?5to?5end?$AA@
	call	DWORD PTR __imp__printf
	add	esp, 4
	cmp	esi, esp
	call	__RTC_CheckEsp
	mov	esi, esp
	push	OFFSET ??_C@_01EEMJAFIK@?6?$AA@
	call	DWORD PTR __imp__printf
	add	esp, 4
	cmp	esi, esp
	call	__RTC_CheckEsp
	mov	esi, esp
	push	OFFSET _gstr_log_info
	push	OFFSET ??_C@_02DKCKIIND@?$CFs?$AA@
	call	DWORD PTR __imp__printf
	add	esp, 8
	cmp	esi, esp
	call	__RTC_CheckEsp
	mov	esi, esp
	push	OFFSET ??_C@_01EEMJAFIK@?6?$AA@
	call	DWORD PTR __imp__printf
	add	esp, 4
	cmp	esi, esp
	call	__RTC_CheckEsp

; 367  : 
; 368  : 	output_stream.bind_write_buffer(gstr_log_info,MAX_LOG_STRING_INFO);

	push	4096					; 00001000H
	push	OFFSET _gstr_log_info
	lea	ecx, DWORD PTR _output_stream$[ebp]
	call	?bind_write_buffer@pecker_write_stream_to_memery@pecker_sdk@@QAEJPADH@Z ; pecker_sdk::pecker_write_stream_to_memery::bind_write_buffer

; 369  : 	//std::cout << "dec ....." << std::endl;
; 370  : 	PECKER_LOG_INFO("array_pool_test_main","dec.......");

	mov	esi, esp
	push	OFFSET ??_C@_09PALELKOJ@LOG_INFO?5?$AA@
	call	DWORD PTR __imp__printf
	add	esp, 4
	cmp	esi, esp
	call	__RTC_CheckEsp
	mov	esi, esp
	push	OFFSET ??_C@_0BF@EDOIIKPO@array_pool_test_main?$AA@
	call	DWORD PTR __imp__printf
	add	esp, 4
	cmp	esi, esp
	call	__RTC_CheckEsp
	mov	esi, esp
	push	OFFSET ??_C@_01EEMJAFIK@?6?$AA@
	call	DWORD PTR __imp__printf
	add	esp, 4
	cmp	esi, esp
	call	__RTC_CheckEsp
	mov	esi, esp
	push	OFFSET ??_C@_0L@GPEFKELB@dec?4?4?4?4?4?4?4?$AA@
	call	DWORD PTR __imp__printf
	add	esp, 4
	cmp	esi, esp
	call	__RTC_CheckEsp
	mov	esi, esp
	push	OFFSET ??_C@_01EEMJAFIK@?6?$AA@
	call	DWORD PTR __imp__printf
	add	esp, 4
	cmp	esi, esp
	call	__RTC_CheckEsp

; 371  : 	array_iterator1.init(ITERATOR_INIT_END_INDEX);

	push	1
	lea	ecx, DWORD PTR _array_iterator1$[ebp]
	call	?init@?$pecker_array_iterator@V?$pecker_pool_array@HV?$pecker_simple_allocator@H@pecker_sdk@@V?$pecker_simple_allocator@PAH@2@@pecker_sdk@@@pecker_sdk@@UAEJW4enumLINEAR_INTERATOR_INIT_TYPE@@@Z ; pecker_sdk::pecker_array_iterator<pecker_sdk::pecker_pool_array<int,pecker_sdk::pecker_simple_allocator<int>,pecker_sdk::pecker_simple_allocator<int *> > >::init
$LN30@array_pool:

; 372  : 	while (1)

	mov	eax, 1
	test	eax, eax
	je	SHORT $LN29@array_pool

; 373  : 	{
; 374  : 		const int* pvalue = array.get_at(&array_iterator1);

	lea	eax, DWORD PTR _array_iterator1$[ebp]
	push	eax
	lea	ecx, DWORD PTR _array$[ebp]
	call	?get_at@?$pecker_pool_array@HV?$pecker_simple_allocator@H@pecker_sdk@@V?$pecker_simple_allocator@PAH@2@@pecker_sdk@@QBEPBHPBV?$pecker_array_iterator@V?$pecker_pool_array@HV?$pecker_simple_allocator@H@pecker_sdk@@V?$pecker_simple_allocator@PAH@2@@pecker_sdk@@@2@@Z ; pecker_sdk::pecker_pool_array<int,pecker_sdk::pecker_simple_allocator<int>,pecker_sdk::pecker_simple_allocator<int *> >::get_at
	mov	DWORD PTR _pvalue$68554[ebp], eax

; 375  : 		if (pvalue)

	cmp	DWORD PTR _pvalue$68554[ebp], 0
	je	SHORT $LN28@array_pool

; 376  : 		{
; 377  : 			//std::cout << *pvalue << ",";
; 378  : 			//PECKER_LOG_INFO("array_pool_test_main","%d",*pvalue);
; 379  : 			output_stream.write_integer(*pvalue);

	mov	eax, DWORD PTR _pvalue$68554[ebp]
	mov	ecx, DWORD PTR [eax]
	push	ecx
	lea	ecx, DWORD PTR _output_stream$[ebp]
	call	?write_integer@pecker_write_stream_to_memery@pecker_sdk@@UAEJH@Z ; pecker_sdk::pecker_write_stream_to_memery::write_integer

; 380  : 			output_stream.write_char(',');

	push	44					; 0000002cH
	lea	ecx, DWORD PTR _output_stream$[ebp]
	call	?write_char@pecker_write_stream_to_memery@pecker_sdk@@UAEJD@Z ; pecker_sdk::pecker_write_stream_to_memery::write_char

; 381  : 		}
; 382  : 		else

	jmp	SHORT $LN27@array_pool
$LN28@array_pool:

; 383  : 		{
; 384  : 			//std::cout << "null" << std::endl;
; 385  : 			//PECKER_LOG_ERR("array_pool_test_main","%d(null)",pvalue);
; 386  : 			output_stream.write_chars("null\n",6);

	push	6
	push	OFFSET ??_C@_05IHCDMNLM@null?6?$AA@
	lea	ecx, DWORD PTR _output_stream$[ebp]
	call	?write_chars@pecker_write_stream_to_memery@pecker_sdk@@UAEHPADH@Z ; pecker_sdk::pecker_write_stream_to_memery::write_chars

; 387  : 			break;

	jmp	SHORT $LN29@array_pool
$LN27@array_pool:

; 388  : 		}
; 389  : 		array_iterator1.decrement();

	lea	ecx, DWORD PTR _array_iterator1$[ebp]
	call	?decrement@?$pecker_array_iterator@V?$pecker_pool_array@HV?$pecker_simple_allocator@H@pecker_sdk@@V?$pecker_simple_allocator@PAH@2@@pecker_sdk@@@pecker_sdk@@UAEJXZ ; pecker_sdk::pecker_array_iterator<pecker_sdk::pecker_pool_array<int,pecker_sdk::pecker_simple_allocator<int>,pecker_sdk::pecker_simple_allocator<int *> > >::decrement

; 390  : 	}

	jmp	SHORT $LN30@array_pool
$LN29@array_pool:

; 391  : 	PECKER_LOG_INFO("push pop end to begin","%s",gstr_log_info);

	mov	esi, esp
	push	OFFSET ??_C@_09PALELKOJ@LOG_INFO?5?$AA@
	call	DWORD PTR __imp__printf
	add	esp, 4
	cmp	esi, esp
	call	__RTC_CheckEsp
	mov	esi, esp
	push	OFFSET ??_C@_0BG@EGIIOBEI@push?5pop?5end?5to?5begin?$AA@
	call	DWORD PTR __imp__printf
	add	esp, 4
	cmp	esi, esp
	call	__RTC_CheckEsp
	mov	esi, esp
	push	OFFSET ??_C@_01EEMJAFIK@?6?$AA@
	call	DWORD PTR __imp__printf
	add	esp, 4
	cmp	esi, esp
	call	__RTC_CheckEsp
	mov	esi, esp
	push	OFFSET _gstr_log_info
	push	OFFSET ??_C@_02DKCKIIND@?$CFs?$AA@
	call	DWORD PTR __imp__printf
	add	esp, 8
	cmp	esi, esp
	call	__RTC_CheckEsp
	mov	esi, esp
	push	OFFSET ??_C@_01EEMJAFIK@?6?$AA@
	call	DWORD PTR __imp__printf
	add	esp, 4
	cmp	esi, esp
	call	__RTC_CheckEsp

; 392  : 
; 393  : 	output_stream.bind_write_buffer(gstr_log_info,MAX_LOG_STRING_INFO);

	push	4096					; 00001000H
	push	OFFSET _gstr_log_info
	lea	ecx, DWORD PTR _output_stream$[ebp]
	call	?bind_write_buffer@pecker_write_stream_to_memery@pecker_sdk@@QAEJPADH@Z ; pecker_sdk::pecker_write_stream_to_memery::bind_write_buffer

; 394  : 	//std::cout << "resize,get set" << std::endl;
; 395  : 	PECKER_LOG_INFO("array_pool_test_main","resize,get set");

	mov	esi, esp
	push	OFFSET ??_C@_09PALELKOJ@LOG_INFO?5?$AA@
	call	DWORD PTR __imp__printf
	add	esp, 4
	cmp	esi, esp
	call	__RTC_CheckEsp
	mov	esi, esp
	push	OFFSET ??_C@_0BF@EDOIIKPO@array_pool_test_main?$AA@
	call	DWORD PTR __imp__printf
	add	esp, 4
	cmp	esi, esp
	call	__RTC_CheckEsp
	mov	esi, esp
	push	OFFSET ??_C@_01EEMJAFIK@?6?$AA@
	call	DWORD PTR __imp__printf
	add	esp, 4
	cmp	esi, esp
	call	__RTC_CheckEsp
	mov	esi, esp
	push	OFFSET ??_C@_0P@FNNMJEDO@resize?0get?5set?$AA@
	call	DWORD PTR __imp__printf
	add	esp, 4
	cmp	esi, esp
	call	__RTC_CheckEsp
	mov	esi, esp
	push	OFFSET ??_C@_01EEMJAFIK@?6?$AA@
	call	DWORD PTR __imp__printf
	add	esp, 4
	cmp	esi, esp
	call	__RTC_CheckEsp

; 396  : 	array.resize(100,20);

	push	0
	push	-1
	push	20					; 00000014H
	push	100					; 00000064H
	lea	ecx, DWORD PTR _array$[ebp]
	call	?resize@?$pecker_pool_array@HV?$pecker_simple_allocator@H@pecker_sdk@@V?$pecker_simple_allocator@PAH@2@@pecker_sdk@@QAEJHHH_N@Z ; pecker_sdk::pecker_pool_array<int,pecker_sdk::pecker_simple_allocator<int>,pecker_sdk::pecker_simple_allocator<int *> >::resize

; 397  : 	for (int i=0;i<100;++i)

	mov	DWORD PTR _i$68557[ebp], 0
	jmp	SHORT $LN26@array_pool
$LN25@array_pool:
	mov	eax, DWORD PTR _i$68557[ebp]
	add	eax, 1
	mov	DWORD PTR _i$68557[ebp], eax
$LN26@array_pool:
	cmp	DWORD PTR _i$68557[ebp], 100		; 00000064H
	jge	SHORT $LN24@array_pool

; 398  : 	{
; 399  : 		array.set_at(i,100-i);

	mov	eax, 100				; 00000064H
	sub	eax, DWORD PTR _i$68557[ebp]
	mov	DWORD PTR $T70030[ebp], eax
	lea	ecx, DWORD PTR $T70030[ebp]
	push	ecx
	mov	edx, DWORD PTR _i$68557[ebp]
	push	edx
	lea	ecx, DWORD PTR _array$[ebp]
	call	?set_at@?$pecker_pool_array@HV?$pecker_simple_allocator@H@pecker_sdk@@V?$pecker_simple_allocator@PAH@2@@pecker_sdk@@QAEJHABH@Z ; pecker_sdk::pecker_pool_array<int,pecker_sdk::pecker_simple_allocator<int>,pecker_sdk::pecker_simple_allocator<int *> >::set_at

; 400  : 	}

	jmp	SHORT $LN25@array_pool
$LN24@array_pool:

; 401  : 	for (int i=0;i<100;++i)

	mov	DWORD PTR _i$68562[ebp], 0
	jmp	SHORT $LN23@array_pool
$LN22@array_pool:
	mov	eax, DWORD PTR _i$68562[ebp]
	add	eax, 1
	mov	DWORD PTR _i$68562[ebp], eax
$LN23@array_pool:
	cmp	DWORD PTR _i$68562[ebp], 100		; 00000064H
	jge	SHORT $LN21@array_pool

; 402  : 	{
; 403  : 		const int* pvalue = array.get_at(i);

	mov	eax, DWORD PTR _i$68562[ebp]
	push	eax
	lea	ecx, DWORD PTR _array$[ebp]
	call	?get_at@?$pecker_pool_array@HV?$pecker_simple_allocator@H@pecker_sdk@@V?$pecker_simple_allocator@PAH@2@@pecker_sdk@@QBEPBHH@Z ; pecker_sdk::pecker_pool_array<int,pecker_sdk::pecker_simple_allocator<int>,pecker_sdk::pecker_simple_allocator<int *> >::get_at
	mov	DWORD PTR _pvalue$68566[ebp], eax

; 404  : 		if (pvalue)

	cmp	DWORD PTR _pvalue$68566[ebp], 0
	je	SHORT $LN20@array_pool

; 405  : 		{
; 406  : 			//std::cout << *pvalue << ",";
; 407  : 			//PECKER_LOG_INFO("array_pool_test_main","%d",*pvalue);
; 408  : 			output_stream.write_integer(*pvalue);

	mov	eax, DWORD PTR _pvalue$68566[ebp]
	mov	ecx, DWORD PTR [eax]
	push	ecx
	lea	ecx, DWORD PTR _output_stream$[ebp]
	call	?write_integer@pecker_write_stream_to_memery@pecker_sdk@@UAEJH@Z ; pecker_sdk::pecker_write_stream_to_memery::write_integer

; 409  : 		}
; 410  : 		else

	jmp	SHORT $LN19@array_pool
$LN20@array_pool:

; 411  : 		{
; 412  : 			//std::cout << "null" << std::endl;
; 413  : 			//PECKER_LOG_ERR("array_pool_test_main","%d(null)",pvalue);
; 414  : 			output_stream.write_chars("null\n",6);

	push	6
	push	OFFSET ??_C@_05IHCDMNLM@null?6?$AA@
	lea	ecx, DWORD PTR _output_stream$[ebp]
	call	?write_chars@pecker_write_stream_to_memery@pecker_sdk@@UAEHPADH@Z ; pecker_sdk::pecker_write_stream_to_memery::write_chars

; 415  : 			break;

	jmp	SHORT $LN21@array_pool
$LN19@array_pool:

; 416  : 		}
; 417  : 		output_stream.write_char(',');

	push	44					; 0000002cH
	lea	ecx, DWORD PTR _output_stream$[ebp]
	call	?write_char@pecker_write_stream_to_memery@pecker_sdk@@UAEJD@Z ; pecker_sdk::pecker_write_stream_to_memery::write_char

; 418  : 	}

	jmp	SHORT $LN22@array_pool
$LN21@array_pool:

; 419  : 	//std::cout << std::endl;
; 420  : 	PECKER_LOG_INFO("resize,get set begin to end","%s",gstr_log_info);

	mov	esi, esp
	push	OFFSET ??_C@_09PALELKOJ@LOG_INFO?5?$AA@
	call	DWORD PTR __imp__printf
	add	esp, 4
	cmp	esi, esp
	call	__RTC_CheckEsp
	mov	esi, esp
	push	OFFSET ??_C@_0BM@JOHNJOMH@resize?0get?5set?5begin?5to?5end?$AA@
	call	DWORD PTR __imp__printf
	add	esp, 4
	cmp	esi, esp
	call	__RTC_CheckEsp
	mov	esi, esp
	push	OFFSET ??_C@_01EEMJAFIK@?6?$AA@
	call	DWORD PTR __imp__printf
	add	esp, 4
	cmp	esi, esp
	call	__RTC_CheckEsp
	mov	esi, esp
	push	OFFSET _gstr_log_info
	push	OFFSET ??_C@_02DKCKIIND@?$CFs?$AA@
	call	DWORD PTR __imp__printf
	add	esp, 8
	cmp	esi, esp
	call	__RTC_CheckEsp
	mov	esi, esp
	push	OFFSET ??_C@_01EEMJAFIK@?6?$AA@
	call	DWORD PTR __imp__printf
	add	esp, 4
	cmp	esi, esp
	call	__RTC_CheckEsp

; 421  : 
; 422  : 	output_stream.bind_write_buffer(gstr_log_info,MAX_LOG_STRING_INFO);

	push	4096					; 00001000H
	push	OFFSET _gstr_log_info
	lea	ecx, DWORD PTR _output_stream$[ebp]
	call	?bind_write_buffer@pecker_write_stream_to_memery@pecker_sdk@@QAEJPADH@Z ; pecker_sdk::pecker_write_stream_to_memery::bind_write_buffer

; 423  : 
; 424  : 	//std::cout << "resize,true,get set" << std::endl;
; 425  : 	PECKER_LOG_INFO("array_pool_test_main","resize,true,get set");

	mov	esi, esp
	push	OFFSET ??_C@_09PALELKOJ@LOG_INFO?5?$AA@
	call	DWORD PTR __imp__printf
	add	esp, 4
	cmp	esi, esp
	call	__RTC_CheckEsp
	mov	esi, esp
	push	OFFSET ??_C@_0BF@EDOIIKPO@array_pool_test_main?$AA@
	call	DWORD PTR __imp__printf
	add	esp, 4
	cmp	esi, esp
	call	__RTC_CheckEsp
	mov	esi, esp
	push	OFFSET ??_C@_01EEMJAFIK@?6?$AA@
	call	DWORD PTR __imp__printf
	add	esp, 4
	cmp	esi, esp
	call	__RTC_CheckEsp
	mov	esi, esp
	push	OFFSET ??_C@_0BE@GMDFIGCC@resize?0true?0get?5set?$AA@
	call	DWORD PTR __imp__printf
	add	esp, 4
	cmp	esi, esp
	call	__RTC_CheckEsp
	mov	esi, esp
	push	OFFSET ??_C@_01EEMJAFIK@?6?$AA@
	call	DWORD PTR __imp__printf
	add	esp, 4
	cmp	esi, esp
	call	__RTC_CheckEsp

; 426  : 	array.resize(50,20,true);

	push	0
	push	1
	push	20					; 00000014H
	push	50					; 00000032H
	lea	ecx, DWORD PTR _array$[ebp]
	call	?resize@?$pecker_pool_array@HV?$pecker_simple_allocator@H@pecker_sdk@@V?$pecker_simple_allocator@PAH@2@@pecker_sdk@@QAEJHHH_N@Z ; pecker_sdk::pecker_pool_array<int,pecker_sdk::pecker_simple_allocator<int>,pecker_sdk::pecker_simple_allocator<int *> >::resize

; 427  : 	for (int i=0;i<50;++i)

	mov	DWORD PTR _i$68569[ebp], 0
	jmp	SHORT $LN18@array_pool
$LN17@array_pool:
	mov	eax, DWORD PTR _i$68569[ebp]
	add	eax, 1
	mov	DWORD PTR _i$68569[ebp], eax
$LN18@array_pool:
	cmp	DWORD PTR _i$68569[ebp], 50		; 00000032H
	jge	SHORT $LN16@array_pool

; 428  : 	{
; 429  : 		array.set_at(i,i);

	lea	eax, DWORD PTR _i$68569[ebp]
	push	eax
	mov	ecx, DWORD PTR _i$68569[ebp]
	push	ecx
	lea	ecx, DWORD PTR _array$[ebp]
	call	?set_at@?$pecker_pool_array@HV?$pecker_simple_allocator@H@pecker_sdk@@V?$pecker_simple_allocator@PAH@2@@pecker_sdk@@QAEJHABH@Z ; pecker_sdk::pecker_pool_array<int,pecker_sdk::pecker_simple_allocator<int>,pecker_sdk::pecker_simple_allocator<int *> >::set_at

; 430  : 	}

	jmp	SHORT $LN17@array_pool
$LN16@array_pool:

; 431  : 	for (int i=0;i<50;++i)

	mov	DWORD PTR _i$68573[ebp], 0
	jmp	SHORT $LN15@array_pool
$LN14@array_pool:
	mov	eax, DWORD PTR _i$68573[ebp]
	add	eax, 1
	mov	DWORD PTR _i$68573[ebp], eax
$LN15@array_pool:
	cmp	DWORD PTR _i$68573[ebp], 50		; 00000032H
	jge	SHORT $LN13@array_pool

; 432  : 	{
; 433  : 		const int* pvalue = array.get_at(i);

	mov	eax, DWORD PTR _i$68573[ebp]
	push	eax
	lea	ecx, DWORD PTR _array$[ebp]
	call	?get_at@?$pecker_pool_array@HV?$pecker_simple_allocator@H@pecker_sdk@@V?$pecker_simple_allocator@PAH@2@@pecker_sdk@@QBEPBHH@Z ; pecker_sdk::pecker_pool_array<int,pecker_sdk::pecker_simple_allocator<int>,pecker_sdk::pecker_simple_allocator<int *> >::get_at
	mov	DWORD PTR _pvalue$68577[ebp], eax

; 434  : 		if (pvalue)

	cmp	DWORD PTR _pvalue$68577[ebp], 0
	je	SHORT $LN12@array_pool

; 435  : 		{
; 436  : 			//std::cout << *pvalue << ",";
; 437  : 			//PECKER_LOG_INFO("array_pool_test_main","%d",*pvalue);
; 438  : 			output_stream.write_integer(*pvalue);

	mov	eax, DWORD PTR _pvalue$68577[ebp]
	mov	ecx, DWORD PTR [eax]
	push	ecx
	lea	ecx, DWORD PTR _output_stream$[ebp]
	call	?write_integer@pecker_write_stream_to_memery@pecker_sdk@@UAEJH@Z ; pecker_sdk::pecker_write_stream_to_memery::write_integer

; 439  : 		}
; 440  : 		else

	jmp	SHORT $LN11@array_pool
$LN12@array_pool:

; 441  : 		{
; 442  : 			//std::cout << "null" << std::endl;
; 443  : 			//PECKER_LOG_ERR("array_pool_test_main","%d(null)",pvalue);
; 444  : 			output_stream.write_chars("null\n",6);

	push	6
	push	OFFSET ??_C@_05IHCDMNLM@null?6?$AA@
	lea	ecx, DWORD PTR _output_stream$[ebp]
	call	?write_chars@pecker_write_stream_to_memery@pecker_sdk@@UAEHPADH@Z ; pecker_sdk::pecker_write_stream_to_memery::write_chars

; 445  : 			break;

	jmp	SHORT $LN13@array_pool
$LN11@array_pool:

; 446  : 		}
; 447  : 		output_stream.write_char(',');

	push	44					; 0000002cH
	lea	ecx, DWORD PTR _output_stream$[ebp]
	call	?write_char@pecker_write_stream_to_memery@pecker_sdk@@UAEJD@Z ; pecker_sdk::pecker_write_stream_to_memery::write_char

; 448  : 	}

	jmp	SHORT $LN14@array_pool
$LN13@array_pool:

; 449  : 	//std::cout << std::endl;
; 450  : 	PECKER_LOG_INFO("resize,true,get set begin to end","%s",gstr_log_info);

	mov	esi, esp
	push	OFFSET ??_C@_09PALELKOJ@LOG_INFO?5?$AA@
	call	DWORD PTR __imp__printf
	add	esp, 4
	cmp	esi, esp
	call	__RTC_CheckEsp
	mov	esi, esp
	push	OFFSET ??_C@_0CB@ILKKIGKB@resize?0true?0get?5set?5begin?5to?5end@
	call	DWORD PTR __imp__printf
	add	esp, 4
	cmp	esi, esp
	call	__RTC_CheckEsp
	mov	esi, esp
	push	OFFSET ??_C@_01EEMJAFIK@?6?$AA@
	call	DWORD PTR __imp__printf
	add	esp, 4
	cmp	esi, esp
	call	__RTC_CheckEsp
	mov	esi, esp
	push	OFFSET _gstr_log_info
	push	OFFSET ??_C@_02DKCKIIND@?$CFs?$AA@
	call	DWORD PTR __imp__printf
	add	esp, 8
	cmp	esi, esp
	call	__RTC_CheckEsp
	mov	esi, esp
	push	OFFSET ??_C@_01EEMJAFIK@?6?$AA@
	call	DWORD PTR __imp__printf
	add	esp, 4
	cmp	esi, esp
	call	__RTC_CheckEsp

; 451  : 
; 452  : 
; 453  : 
; 454  : 	array_iterator1.init(ITERATOR_INIT_BEGIN_INDEX);

	push	0
	lea	ecx, DWORD PTR _array_iterator1$[ebp]
	call	?init@?$pecker_array_iterator@V?$pecker_pool_array@HV?$pecker_simple_allocator@H@pecker_sdk@@V?$pecker_simple_allocator@PAH@2@@pecker_sdk@@@pecker_sdk@@UAEJW4enumLINEAR_INTERATOR_INIT_TYPE@@@Z ; pecker_sdk::pecker_array_iterator<pecker_sdk::pecker_pool_array<int,pecker_sdk::pecker_simple_allocator<int>,pecker_sdk::pecker_simple_allocator<int *> > >::init

; 455  : 
; 456  : 	pecker_array_iterator< pecker_pool_array<int> > array_iterator2;

	push	0
	lea	ecx, DWORD PTR _array_iterator2$[ebp]
	call	??0?$pecker_array_iterator@V?$pecker_pool_array@HV?$pecker_simple_allocator@H@pecker_sdk@@V?$pecker_simple_allocator@PAH@2@@pecker_sdk@@@pecker_sdk@@QAE@PBV?$pecker_pool_array@HV?$pecker_simple_allocator@H@pecker_sdk@@V?$pecker_simple_allocator@PAH@2@@1@@Z ; pecker_sdk::pecker_array_iterator<pecker_sdk::pecker_pool_array<int,pecker_sdk::pecker_simple_allocator<int>,pecker_sdk::pecker_simple_allocator<int *> > >::pecker_array_iterator<pecker_sdk::pecker_pool_array<int,pecker_sdk::pecker_simple_allocator<int>,pecker_sdk::pecker_simple_allocator<int *> > >
	mov	BYTE PTR __$EHRec$[ebp+8], 3

; 457  : 	array.get_iterator(&array_iterator2);

	lea	eax, DWORD PTR _array_iterator2$[ebp]
	push	eax
	lea	ecx, DWORD PTR _array$[ebp]
	call	?get_iterator@?$pecker_pool_array@HV?$pecker_simple_allocator@H@pecker_sdk@@V?$pecker_simple_allocator@PAH@2@@pecker_sdk@@QBEPAV?$pecker_array_iterator@V?$pecker_pool_array@HV?$pecker_simple_allocator@H@pecker_sdk@@V?$pecker_simple_allocator@PAH@2@@pecker_sdk@@@2@PAV32@@Z ; pecker_sdk::pecker_pool_array<int,pecker_sdk::pecker_simple_allocator<int>,pecker_sdk::pecker_simple_allocator<int *> >::get_iterator

; 458  : 	array_iterator2.init(ITERATOR_INIT_END_INDEX);

	push	1
	lea	ecx, DWORD PTR _array_iterator2$[ebp]
	call	?init@?$pecker_array_iterator@V?$pecker_pool_array@HV?$pecker_simple_allocator@H@pecker_sdk@@V?$pecker_simple_allocator@PAH@2@@pecker_sdk@@@pecker_sdk@@UAEJW4enumLINEAR_INTERATOR_INIT_TYPE@@@Z ; pecker_sdk::pecker_array_iterator<pecker_sdk::pecker_pool_array<int,pecker_sdk::pecker_simple_allocator<int>,pecker_sdk::pecker_simple_allocator<int *> > >::init

; 459  : 
; 460  : 	int isetval = 100;

	mov	DWORD PTR _isetval$[ebp], 100		; 00000064H

; 461  : 	array.set_at(1,isetval);

	lea	eax, DWORD PTR _isetval$[ebp]
	push	eax
	push	1
	lea	ecx, DWORD PTR _array$[ebp]
	call	?set_at@?$pecker_pool_array@HV?$pecker_simple_allocator@H@pecker_sdk@@V?$pecker_simple_allocator@PAH@2@@pecker_sdk@@QAEJHABH@Z ; pecker_sdk::pecker_pool_array<int,pecker_sdk::pecker_simple_allocator<int>,pecker_sdk::pecker_simple_allocator<int *> >::set_at

; 462  : 	array.set_at(6,isetval);

	lea	eax, DWORD PTR _isetval$[ebp]
	push	eax
	push	6
	lea	ecx, DWORD PTR _array$[ebp]
	call	?set_at@?$pecker_pool_array@HV?$pecker_simple_allocator@H@pecker_sdk@@V?$pecker_simple_allocator@PAH@2@@pecker_sdk@@QAEJHABH@Z ; pecker_sdk::pecker_pool_array<int,pecker_sdk::pecker_simple_allocator<int>,pecker_sdk::pecker_simple_allocator<int *> >::set_at

; 463  : 	array.set_at(11,isetval);

	lea	eax, DWORD PTR _isetval$[ebp]
	push	eax
	push	11					; 0000000bH
	lea	ecx, DWORD PTR _array$[ebp]
	call	?set_at@?$pecker_pool_array@HV?$pecker_simple_allocator@H@pecker_sdk@@V?$pecker_simple_allocator@PAH@2@@pecker_sdk@@QAEJHABH@Z ; pecker_sdk::pecker_pool_array<int,pecker_sdk::pecker_simple_allocator<int>,pecker_sdk::pecker_simple_allocator<int *> >::set_at

; 464  : 	array.set_at(16,isetval);

	lea	eax, DWORD PTR _isetval$[ebp]
	push	eax
	push	16					; 00000010H
	lea	ecx, DWORD PTR _array$[ebp]
	call	?set_at@?$pecker_pool_array@HV?$pecker_simple_allocator@H@pecker_sdk@@V?$pecker_simple_allocator@PAH@2@@pecker_sdk@@QAEJHABH@Z ; pecker_sdk::pecker_pool_array<int,pecker_sdk::pecker_simple_allocator<int>,pecker_sdk::pecker_simple_allocator<int *> >::set_at

; 465  : 	array.set_at(21,isetval);

	lea	eax, DWORD PTR _isetval$[ebp]
	push	eax
	push	21					; 00000015H
	lea	ecx, DWORD PTR _array$[ebp]
	call	?set_at@?$pecker_pool_array@HV?$pecker_simple_allocator@H@pecker_sdk@@V?$pecker_simple_allocator@PAH@2@@pecker_sdk@@QAEJHABH@Z ; pecker_sdk::pecker_pool_array<int,pecker_sdk::pecker_simple_allocator<int>,pecker_sdk::pecker_simple_allocator<int *> >::set_at

; 466  : 	array.set_at(26,isetval);

	lea	eax, DWORD PTR _isetval$[ebp]
	push	eax
	push	26					; 0000001aH
	lea	ecx, DWORD PTR _array$[ebp]
	call	?set_at@?$pecker_pool_array@HV?$pecker_simple_allocator@H@pecker_sdk@@V?$pecker_simple_allocator@PAH@2@@pecker_sdk@@QAEJHABH@Z ; pecker_sdk::pecker_pool_array<int,pecker_sdk::pecker_simple_allocator<int>,pecker_sdk::pecker_simple_allocator<int *> >::set_at

; 467  : 	array.set_at(31,isetval);

	lea	eax, DWORD PTR _isetval$[ebp]
	push	eax
	push	31					; 0000001fH
	lea	ecx, DWORD PTR _array$[ebp]
	call	?set_at@?$pecker_pool_array@HV?$pecker_simple_allocator@H@pecker_sdk@@V?$pecker_simple_allocator@PAH@2@@pecker_sdk@@QAEJHABH@Z ; pecker_sdk::pecker_pool_array<int,pecker_sdk::pecker_simple_allocator<int>,pecker_sdk::pecker_simple_allocator<int *> >::set_at

; 468  : 	array.set_at(36,isetval);

	lea	eax, DWORD PTR _isetval$[ebp]
	push	eax
	push	36					; 00000024H
	lea	ecx, DWORD PTR _array$[ebp]
	call	?set_at@?$pecker_pool_array@HV?$pecker_simple_allocator@H@pecker_sdk@@V?$pecker_simple_allocator@PAH@2@@pecker_sdk@@QAEJHABH@Z ; pecker_sdk::pecker_pool_array<int,pecker_sdk::pecker_simple_allocator<int>,pecker_sdk::pecker_simple_allocator<int *> >::set_at

; 469  : 	array.set_at(41,isetval);

	lea	eax, DWORD PTR _isetval$[ebp]
	push	eax
	push	41					; 00000029H
	lea	ecx, DWORD PTR _array$[ebp]
	call	?set_at@?$pecker_pool_array@HV?$pecker_simple_allocator@H@pecker_sdk@@V?$pecker_simple_allocator@PAH@2@@pecker_sdk@@QAEJHABH@Z ; pecker_sdk::pecker_pool_array<int,pecker_sdk::pecker_simple_allocator<int>,pecker_sdk::pecker_simple_allocator<int *> >::set_at

; 470  : 	array.set_at(46,isetval);

	lea	eax, DWORD PTR _isetval$[ebp]
	push	eax
	push	46					; 0000002eH
	lea	ecx, DWORD PTR _array$[ebp]
	call	?set_at@?$pecker_pool_array@HV?$pecker_simple_allocator@H@pecker_sdk@@V?$pecker_simple_allocator@PAH@2@@pecker_sdk@@QAEJHABH@Z ; pecker_sdk::pecker_pool_array<int,pecker_sdk::pecker_simple_allocator<int>,pecker_sdk::pecker_simple_allocator<int *> >::set_at

; 471  : 
; 472  : 	output_stream.bind_write_buffer(gstr_log_info,MAX_LOG_STRING_INFO);

	push	4096					; 00001000H
	push	OFFSET _gstr_log_info
	lea	ecx, DWORD PTR _output_stream$[ebp]
	call	?bind_write_buffer@pecker_write_stream_to_memery@pecker_sdk@@QAEJPADH@Z ; pecker_sdk::pecker_write_stream_to_memery::bind_write_buffer

; 473  : 	for (int i=0;i<50;++i)

	mov	DWORD PTR _i$68591[ebp], 0
	jmp	SHORT $LN10@array_pool
$LN9@array_pool:
	mov	eax, DWORD PTR _i$68591[ebp]
	add	eax, 1
	mov	DWORD PTR _i$68591[ebp], eax
$LN10@array_pool:
	cmp	DWORD PTR _i$68591[ebp], 50		; 00000032H
	jge	SHORT $LN8@array_pool

; 474  : 	{
; 475  : 		const int* pvalue = array.get_at(i);

	mov	eax, DWORD PTR _i$68591[ebp]
	push	eax
	lea	ecx, DWORD PTR _array$[ebp]
	call	?get_at@?$pecker_pool_array@HV?$pecker_simple_allocator@H@pecker_sdk@@V?$pecker_simple_allocator@PAH@2@@pecker_sdk@@QBEPBHH@Z ; pecker_sdk::pecker_pool_array<int,pecker_sdk::pecker_simple_allocator<int>,pecker_sdk::pecker_simple_allocator<int *> >::get_at
	mov	DWORD PTR _pvalue$68595[ebp], eax

; 476  : 		if (pvalue)

	cmp	DWORD PTR _pvalue$68595[ebp], 0
	je	SHORT $LN7@array_pool

; 477  : 		{
; 478  : 			output_stream.write_integer(*pvalue);

	mov	eax, DWORD PTR _pvalue$68595[ebp]
	mov	ecx, DWORD PTR [eax]
	push	ecx
	lea	ecx, DWORD PTR _output_stream$[ebp]
	call	?write_integer@pecker_write_stream_to_memery@pecker_sdk@@UAEJH@Z ; pecker_sdk::pecker_write_stream_to_memery::write_integer

; 479  : 		}
; 480  : 		else

	jmp	SHORT $LN6@array_pool
$LN7@array_pool:

; 481  : 		{
; 482  : 			output_stream.write_chars("null\n",6);

	push	6
	push	OFFSET ??_C@_05IHCDMNLM@null?6?$AA@
	lea	ecx, DWORD PTR _output_stream$[ebp]
	call	?write_chars@pecker_write_stream_to_memery@pecker_sdk@@UAEHPADH@Z ; pecker_sdk::pecker_write_stream_to_memery::write_chars

; 483  : 			break;

	jmp	SHORT $LN8@array_pool
$LN6@array_pool:

; 484  : 		}
; 485  : 		output_stream.write_char(',');

	push	44					; 0000002cH
	lea	ecx, DWORD PTR _output_stream$[ebp]
	call	?write_char@pecker_write_stream_to_memery@pecker_sdk@@UAEJD@Z ; pecker_sdk::pecker_write_stream_to_memery::write_char

; 486  : 	}

	jmp	SHORT $LN9@array_pool
$LN8@array_pool:

; 487  : 	PECKER_LOG_INFO("array to be sort","%s",gstr_log_info);

	mov	esi, esp
	push	OFFSET ??_C@_09PALELKOJ@LOG_INFO?5?$AA@
	call	DWORD PTR __imp__printf
	add	esp, 4
	cmp	esi, esp
	call	__RTC_CheckEsp
	mov	esi, esp
	push	OFFSET ??_C@_0BB@GBNGOMJI@array?5to?5be?5sort?$AA@
	call	DWORD PTR __imp__printf
	add	esp, 4
	cmp	esi, esp
	call	__RTC_CheckEsp
	mov	esi, esp
	push	OFFSET ??_C@_01EEMJAFIK@?6?$AA@
	call	DWORD PTR __imp__printf
	add	esp, 4
	cmp	esi, esp
	call	__RTC_CheckEsp
	mov	esi, esp
	push	OFFSET _gstr_log_info
	push	OFFSET ??_C@_02DKCKIIND@?$CFs?$AA@
	call	DWORD PTR __imp__printf
	add	esp, 8
	cmp	esi, esp
	call	__RTC_CheckEsp
	mov	esi, esp
	push	OFFSET ??_C@_01EEMJAFIK@?6?$AA@
	call	DWORD PTR __imp__printf
	add	esp, 4
	cmp	esi, esp
	call	__RTC_CheckEsp

; 488  : 	output_stream.bind_write_buffer(gstr_log_info,MAX_LOG_STRING_INFO);

	push	4096					; 00001000H
	push	OFFSET _gstr_log_info
	lea	ecx, DWORD PTR _output_stream$[ebp]
	call	?bind_write_buffer@pecker_write_stream_to_memery@pecker_sdk@@QAEJPADH@Z ; pecker_sdk::pecker_write_stream_to_memery::bind_write_buffer

; 489  : 
; 490  : 	quick_sort_increment< int,pecker_value_compare<int>,pecker_pool_array<int>,pecker_array_iterator< pecker_pool_array<int> > >
; 491  : 		(array,array_iterator1,array_iterator2);

	lea	eax, DWORD PTR _array_iterator2$[ebp]
	push	eax
	lea	ecx, DWORD PTR _array_iterator1$[ebp]
	push	ecx
	lea	edx, DWORD PTR _array$[ebp]
	push	edx
	call	??$quick_sort_increment@HU?$pecker_value_compare@H@pecker_sdk@@V?$pecker_pool_array@HV?$pecker_simple_allocator@H@pecker_sdk@@V?$pecker_simple_allocator@PAH@2@@2@V?$pecker_array_iterator@V?$pecker_pool_array@HV?$pecker_simple_allocator@H@pecker_sdk@@V?$pecker_simple_allocator@PAH@2@@pecker_sdk@@@2@@pecker_sdk@@YAJAAV?$pecker_pool_array@HV?$pecker_simple_allocator@H@pecker_sdk@@V?$pecker_simple_allocator@PAH@2@@0@ABV?$pecker_array_iterator@V?$pecker_pool_array@HV?$pecker_simple_allocator@H@pecker_sdk@@V?$pecker_simple_allocator@PAH@2@@pecker_sdk@@@0@1@Z ; pecker_sdk::quick_sort_increment<int,pecker_sdk::pecker_value_compare<int>,pecker_sdk::pecker_pool_array<int,pecker_sdk::pecker_simple_allocator<int>,pecker_sdk::pecker_simple_allocator<int *> >,pecker_sdk::pecker_array_iterator<pecker_sdk::pecker_pool_array<int,pecker_sdk::pecker_simple_allocator<int>,pecker_sdk::pecker_simple_allocator<int *> > > >
	add	esp, 12					; 0000000cH

; 492  : 
; 493  : 	output_stream.bind_write_buffer(gstr_log_info,MAX_LOG_STRING_INFO);

	push	4096					; 00001000H
	push	OFFSET _gstr_log_info
	lea	ecx, DWORD PTR _output_stream$[ebp]
	call	?bind_write_buffer@pecker_write_stream_to_memery@pecker_sdk@@QAEJPADH@Z ; pecker_sdk::pecker_write_stream_to_memery::bind_write_buffer

; 494  : 	for (int i=0;i<50;++i)

	mov	DWORD PTR _i$68650[ebp], 0
	jmp	SHORT $LN5@array_pool
$LN4@array_pool:
	mov	eax, DWORD PTR _i$68650[ebp]
	add	eax, 1
	mov	DWORD PTR _i$68650[ebp], eax
$LN5@array_pool:
	cmp	DWORD PTR _i$68650[ebp], 50		; 00000032H
	jge	SHORT $LN3@array_pool

; 495  : 	{
; 496  : 		const int* pvalue = array.get_at(i);

	mov	eax, DWORD PTR _i$68650[ebp]
	push	eax
	lea	ecx, DWORD PTR _array$[ebp]
	call	?get_at@?$pecker_pool_array@HV?$pecker_simple_allocator@H@pecker_sdk@@V?$pecker_simple_allocator@PAH@2@@pecker_sdk@@QBEPBHH@Z ; pecker_sdk::pecker_pool_array<int,pecker_sdk::pecker_simple_allocator<int>,pecker_sdk::pecker_simple_allocator<int *> >::get_at
	mov	DWORD PTR _pvalue$68654[ebp], eax

; 497  : 		if (pvalue)

	cmp	DWORD PTR _pvalue$68654[ebp], 0
	je	SHORT $LN2@array_pool

; 498  : 		{
; 499  : 			output_stream.write_integer(*pvalue);

	mov	eax, DWORD PTR _pvalue$68654[ebp]
	mov	ecx, DWORD PTR [eax]
	push	ecx
	lea	ecx, DWORD PTR _output_stream$[ebp]
	call	?write_integer@pecker_write_stream_to_memery@pecker_sdk@@UAEJH@Z ; pecker_sdk::pecker_write_stream_to_memery::write_integer

; 500  : 		}
; 501  : 		else

	jmp	SHORT $LN1@array_pool
$LN2@array_pool:

; 502  : 		{
; 503  : 			output_stream.write_chars("null\n",6);

	push	6
	push	OFFSET ??_C@_05IHCDMNLM@null?6?$AA@
	lea	ecx, DWORD PTR _output_stream$[ebp]
	call	?write_chars@pecker_write_stream_to_memery@pecker_sdk@@UAEHPADH@Z ; pecker_sdk::pecker_write_stream_to_memery::write_chars

; 504  : 			break;

	jmp	SHORT $LN3@array_pool
$LN1@array_pool:

; 505  : 		}
; 506  : 		output_stream.write_char(',');

	push	44					; 0000002cH
	lea	ecx, DWORD PTR _output_stream$[ebp]
	call	?write_char@pecker_write_stream_to_memery@pecker_sdk@@UAEJD@Z ; pecker_sdk::pecker_write_stream_to_memery::write_char

; 507  : 	}

	jmp	SHORT $LN4@array_pool
$LN3@array_pool:

; 508  : 	PECKER_LOG_INFO("array  sorted","%s",gstr_log_info);

	mov	esi, esp
	push	OFFSET ??_C@_09PALELKOJ@LOG_INFO?5?$AA@
	call	DWORD PTR __imp__printf
	add	esp, 4
	cmp	esi, esp
	call	__RTC_CheckEsp
	mov	esi, esp
	push	OFFSET ??_C@_0O@MBCOGNKJ@array?5?5sorted?$AA@
	call	DWORD PTR __imp__printf
	add	esp, 4
	cmp	esi, esp
	call	__RTC_CheckEsp
	mov	esi, esp
	push	OFFSET ??_C@_01EEMJAFIK@?6?$AA@
	call	DWORD PTR __imp__printf
	add	esp, 4
	cmp	esi, esp
	call	__RTC_CheckEsp
	mov	esi, esp
	push	OFFSET _gstr_log_info
	push	OFFSET ??_C@_02DKCKIIND@?$CFs?$AA@
	call	DWORD PTR __imp__printf
	add	esp, 8
	cmp	esi, esp
	call	__RTC_CheckEsp
	mov	esi, esp
	push	OFFSET ??_C@_01EEMJAFIK@?6?$AA@
	call	DWORD PTR __imp__printf
	add	esp, 4
	cmp	esi, esp
	call	__RTC_CheckEsp

; 509  : 
; 510  : 
; 511  : 	array.clear(true);

	push	1
	lea	ecx, DWORD PTR _array$[ebp]
	call	?clear@?$pecker_pool_array@HV?$pecker_simple_allocator@H@pecker_sdk@@V?$pecker_simple_allocator@PAH@2@@pecker_sdk@@QAEJ_N@Z ; pecker_sdk::pecker_pool_array<int,pecker_sdk::pecker_simple_allocator<int>,pecker_sdk::pecker_simple_allocator<int *> >::clear

; 512  : 
; 513  : 	//int ibreak;
; 514  : 	//std::cin >> ibreak;
; 515  : 
; 516  : }

	mov	BYTE PTR __$EHRec$[ebp+8], 2
	lea	ecx, DWORD PTR _array_iterator2$[ebp]
	call	??1?$pecker_array_iterator@V?$pecker_pool_array@HV?$pecker_simple_allocator@H@pecker_sdk@@V?$pecker_simple_allocator@PAH@2@@pecker_sdk@@@pecker_sdk@@UAE@XZ ; pecker_sdk::pecker_array_iterator<pecker_sdk::pecker_pool_array<int,pecker_sdk::pecker_simple_allocator<int>,pecker_sdk::pecker_simple_allocator<int *> > >::~pecker_array_iterator<pecker_sdk::pecker_pool_array<int,pecker_sdk::pecker_simple_allocator<int>,pecker_sdk::pecker_simple_allocator<int *> > >
	mov	BYTE PTR __$EHRec$[ebp+8], 1
	lea	ecx, DWORD PTR _array_iterator1$[ebp]
	call	??1?$pecker_array_iterator@V?$pecker_pool_array@HV?$pecker_simple_allocator@H@pecker_sdk@@V?$pecker_simple_allocator@PAH@2@@pecker_sdk@@@pecker_sdk@@UAE@XZ ; pecker_sdk::pecker_array_iterator<pecker_sdk::pecker_pool_array<int,pecker_sdk::pecker_simple_allocator<int>,pecker_sdk::pecker_simple_allocator<int *> > >::~pecker_array_iterator<pecker_sdk::pecker_pool_array<int,pecker_sdk::pecker_simple_allocator<int>,pecker_sdk::pecker_simple_allocator<int *> > >
	mov	BYTE PTR __$EHRec$[ebp+8], 0
	lea	ecx, DWORD PTR _array$[ebp]
	call	??1?$pecker_pool_array@HV?$pecker_simple_allocator@H@pecker_sdk@@V?$pecker_simple_allocator@PAH@2@@pecker_sdk@@UAE@XZ ; pecker_sdk::pecker_pool_array<int,pecker_sdk::pecker_simple_allocator<int>,pecker_sdk::pecker_simple_allocator<int *> >::~pecker_pool_array<int,pecker_sdk::pecker_simple_allocator<int>,pecker_sdk::pecker_simple_allocator<int *> >
	mov	DWORD PTR __$EHRec$[ebp+8], -1
	lea	ecx, DWORD PTR _output_stream$[ebp]
	call	??1pecker_write_stream_to_memery@pecker_sdk@@UAE@XZ ; pecker_sdk::pecker_write_stream_to_memery::~pecker_write_stream_to_memery
	push	edx
	mov	ecx, ebp
	push	eax
	lea	edx, DWORD PTR $LN68@array_pool
	call	@_RTC_CheckStackVars@8
	pop	eax
	pop	edx
	mov	ecx, DWORD PTR __$EHRec$[ebp]
	mov	DWORD PTR fs:0, ecx
	pop	ecx
	pop	edi
	pop	esi
	pop	ebx
	add	esp, 556				; 0000022cH
	cmp	ebp, esp
	call	__RTC_CheckEsp
	mov	esp, ebp
	pop	ebp
	ret	0
$LN68@array_pool:
	DD	8
	DD	$LN67@array_pool
$LN67@array_pool:
	DD	-56					; ffffffc8H
	DD	40					; 00000028H
	DD	$LN58@array_pool
	DD	-92					; ffffffa4H
	DD	28					; 0000001cH
	DD	$LN59@array_pool
	DD	-104					; ffffff98H
	DD	4
	DD	$LN60@array_pool
	DD	-124					; ffffff84H
	DD	12					; 0000000cH
	DD	$LN61@array_pool
	DD	-172					; ffffff54H
	DD	4
	DD	$LN62@array_pool
	DD	-244					; ffffff0cH
	DD	4
	DD	$LN63@array_pool
	DD	-288					; fffffee0H
	DD	12					; 0000000cH
	DD	$LN64@array_pool
	DD	-300					; fffffed4H
	DD	4
	DD	$LN65@array_pool
$LN65@array_pool:
	DB	105					; 00000069H
	DB	115					; 00000073H
	DB	101					; 00000065H
	DB	116					; 00000074H
	DB	118					; 00000076H
	DB	97					; 00000061H
	DB	108					; 0000006cH
	DB	0
$LN64@array_pool:
	DB	97					; 00000061H
	DB	114					; 00000072H
	DB	114					; 00000072H
	DB	97					; 00000061H
	DB	121					; 00000079H
	DB	95					; 0000005fH
	DB	105					; 00000069H
	DB	116					; 00000074H
	DB	101					; 00000065H
	DB	114					; 00000072H
	DB	97					; 00000061H
	DB	116					; 00000074H
	DB	111					; 0000006fH
	DB	114					; 00000072H
	DB	50					; 00000032H
	DB	0
$LN63@array_pool:
	DB	105					; 00000069H
	DB	0
$LN62@array_pool:
	DB	105					; 00000069H
	DB	0
$LN61@array_pool:
	DB	97					; 00000061H
	DB	114					; 00000072H
	DB	114					; 00000072H
	DB	97					; 00000061H
	DB	121					; 00000079H
	DB	95					; 0000005fH
	DB	105					; 00000069H
	DB	116					; 00000074H
	DB	101					; 00000065H
	DB	114					; 00000072H
	DB	97					; 00000061H
	DB	116					; 00000074H
	DB	111					; 0000006fH
	DB	114					; 00000072H
	DB	49					; 00000031H
	DB	0
$LN60@array_pool:
	DB	105					; 00000069H
	DB	0
$LN59@array_pool:
	DB	97					; 00000061H
	DB	114					; 00000072H
	DB	114					; 00000072H
	DB	97					; 00000061H
	DB	121					; 00000079H
	DB	0
$LN58@array_pool:
	DB	111					; 0000006fH
	DB	117					; 00000075H
	DB	116					; 00000074H
	DB	112					; 00000070H
	DB	117					; 00000075H
	DB	116					; 00000074H
	DB	95					; 0000005fH
	DB	115					; 00000073H
	DB	116					; 00000074H
	DB	114					; 00000072H
	DB	101					; 00000065H
	DB	97					; 00000061H
	DB	109					; 0000006dH
	DB	0
_TEXT	ENDS
;	COMDAT text$x
text$x	SEGMENT
__unwindfunclet$?array_pool_test_main@@YAXXZ$0:
	lea	ecx, DWORD PTR _output_stream$[ebp]
	jmp	??1pecker_write_stream_to_memery@pecker_sdk@@UAE@XZ ; pecker_sdk::pecker_write_stream_to_memery::~pecker_write_stream_to_memery
__unwindfunclet$?array_pool_test_main@@YAXXZ$1:
	lea	ecx, DWORD PTR _array$[ebp]
	jmp	??1?$pecker_pool_array@HV?$pecker_simple_allocator@H@pecker_sdk@@V?$pecker_simple_allocator@PAH@2@@pecker_sdk@@UAE@XZ ; pecker_sdk::pecker_pool_array<int,pecker_sdk::pecker_simple_allocator<int>,pecker_sdk::pecker_simple_allocator<int *> >::~pecker_pool_array<int,pecker_sdk::pecker_simple_allocator<int>,pecker_sdk::pecker_simple_allocator<int *> >
__unwindfunclet$?array_pool_test_main@@YAXXZ$2:
	lea	ecx, DWORD PTR _array_iterator1$[ebp]
	jmp	??1?$pecker_array_iterator@V?$pecker_pool_array@HV?$pecker_simple_allocator@H@pecker_sdk@@V?$pecker_simple_allocator@PAH@2@@pecker_sdk@@@pecker_sdk@@UAE@XZ ; pecker_sdk::pecker_array_iterator<pecker_sdk::pecker_pool_array<int,pecker_sdk::pecker_simple_allocator<int>,pecker_sdk::pecker_simple_allocator<int *> > >::~pecker_array_iterator<pecker_sdk::pecker_pool_array<int,pecker_sdk::pecker_simple_allocator<int>,pecker_sdk::pecker_simple_allocator<int *> > >
__unwindfunclet$?array_pool_test_main@@YAXXZ$3:
	lea	ecx, DWORD PTR _array_iterator2$[ebp]
	jmp	??1?$pecker_array_iterator@V?$pecker_pool_array@HV?$pecker_simple_allocator@H@pecker_sdk@@V?$pecker_simple_allocator@PAH@2@@pecker_sdk@@@pecker_sdk@@UAE@XZ ; pecker_sdk::pecker_array_iterator<pecker_sdk::pecker_pool_array<int,pecker_sdk::pecker_simple_allocator<int>,pecker_sdk::pecker_simple_allocator<int *> > >::~pecker_array_iterator<pecker_sdk::pecker_pool_array<int,pecker_sdk::pecker_simple_allocator<int>,pecker_sdk::pecker_simple_allocator<int *> > >
__ehhandler$?array_pool_test_main@@YAXXZ:
	mov	edx, DWORD PTR [esp+8]
	lea	eax, DWORD PTR [edx+12]
	mov	ecx, DWORD PTR [edx-560]
	xor	ecx, eax
	call	@__security_check_cookie@4
	mov	eax, OFFSET __ehfuncinfo$?array_pool_test_main@@YAXXZ
	jmp	___CxxFrameHandler3
text$x	ENDS
?array_pool_test_main@@YAXXZ ENDP			; array_pool_test_main
PUBLIC	??1?$pecker_stack_pool_array@HV?$pecker_simple_allocator@H@pecker_sdk@@V?$pecker_simple_allocator@PAH@2@$0CAA@@pecker_sdk@@QAE@XZ ; pecker_sdk::pecker_stack_pool_array<int,pecker_sdk::pecker_simple_allocator<int>,pecker_sdk::pecker_simple_allocator<int *>,512>::~pecker_stack_pool_array<int,pecker_sdk::pecker_simple_allocator<int>,pecker_sdk::pecker_simple_allocator<int *>,512>
PUBLIC	??1?$pecker_array_iterator@V?$pecker_stack_pool_array@HV?$pecker_simple_allocator@H@pecker_sdk@@V?$pecker_simple_allocator@PAH@2@$0CAA@@pecker_sdk@@@pecker_sdk@@UAE@XZ ; pecker_sdk::pecker_array_iterator<pecker_sdk::pecker_stack_pool_array<int,pecker_sdk::pecker_simple_allocator<int>,pecker_sdk::pecker_simple_allocator<int *>,512> >::~pecker_array_iterator<pecker_sdk::pecker_stack_pool_array<int,pecker_sdk::pecker_simple_allocator<int>,pecker_sdk::pecker_simple_allocator<int *>,512> >
PUBLIC	?clear@?$pecker_stack_pool_array@HV?$pecker_simple_allocator@H@pecker_sdk@@V?$pecker_simple_allocator@PAH@2@$0CAA@@pecker_sdk@@QAEJ_N@Z ; pecker_sdk::pecker_stack_pool_array<int,pecker_sdk::pecker_simple_allocator<int>,pecker_sdk::pecker_simple_allocator<int *>,512>::clear
PUBLIC	??$quick_sort_increment@HU?$pecker_value_compare@H@pecker_sdk@@V?$pecker_stack_pool_array@HV?$pecker_simple_allocator@H@pecker_sdk@@V?$pecker_simple_allocator@PAH@2@$0CAA@@2@V?$pecker_array_iterator@V?$pecker_stack_pool_array@HV?$pecker_simple_allocator@H@pecker_sdk@@V?$pecker_simple_allocator@PAH@2@$0CAA@@pecker_sdk@@@2@@pecker_sdk@@YAJAAV?$pecker_stack_pool_array@HV?$pecker_simple_allocator@H@pecker_sdk@@V?$pecker_simple_allocator@PAH@2@$0CAA@@0@ABV?$pecker_array_iterator@V?$pecker_stack_pool_array@HV?$pecker_simple_allocator@H@pecker_sdk@@V?$pecker_simple_allocator@PAH@2@$0CAA@@pecker_sdk@@@0@1@Z ; pecker_sdk::quick_sort_increment<int,pecker_sdk::pecker_value_compare<int>,pecker_sdk::pecker_stack_pool_array<int,pecker_sdk::pecker_simple_allocator<int>,pecker_sdk::pecker_simple_allocator<int *>,512>,pecker_sdk::pecker_array_iterator<pecker_sdk::pecker_stack_pool_array<int,pecker_sdk::pecker_simple_allocator<int>,pecker_sdk::pecker_simple_allocator<int *>,512> > >
PUBLIC	?get_at@?$pecker_stack_pool_array@HV?$pecker_simple_allocator@H@pecker_sdk@@V?$pecker_simple_allocator@PAH@2@$0CAA@@pecker_sdk@@QBEPBHH@Z ; pecker_sdk::pecker_stack_pool_array<int,pecker_sdk::pecker_simple_allocator<int>,pecker_sdk::pecker_simple_allocator<int *>,512>::get_at
PUBLIC	?set_at@?$pecker_stack_pool_array@HV?$pecker_simple_allocator@H@pecker_sdk@@V?$pecker_simple_allocator@PAH@2@$0CAA@@pecker_sdk@@QAEJHABH@Z ; pecker_sdk::pecker_stack_pool_array<int,pecker_sdk::pecker_simple_allocator<int>,pecker_sdk::pecker_simple_allocator<int *>,512>::set_at
PUBLIC	?resize@?$pecker_stack_pool_array@HV?$pecker_simple_allocator@H@pecker_sdk@@V?$pecker_simple_allocator@PAH@2@$0CAA@@pecker_sdk@@QAEJHHH_N@Z ; pecker_sdk::pecker_stack_pool_array<int,pecker_sdk::pecker_simple_allocator<int>,pecker_sdk::pecker_simple_allocator<int *>,512>::resize
PUBLIC	?pop@?$pecker_stack_pool_array@HV?$pecker_simple_allocator@H@pecker_sdk@@V?$pecker_simple_allocator@PAH@2@$0CAA@@pecker_sdk@@QAEJXZ ; pecker_sdk::pecker_stack_pool_array<int,pecker_sdk::pecker_simple_allocator<int>,pecker_sdk::pecker_simple_allocator<int *>,512>::pop
PUBLIC	?decrement@?$pecker_array_iterator@V?$pecker_stack_pool_array@HV?$pecker_simple_allocator@H@pecker_sdk@@V?$pecker_simple_allocator@PAH@2@$0CAA@@pecker_sdk@@@pecker_sdk@@UAEJXZ ; pecker_sdk::pecker_array_iterator<pecker_sdk::pecker_stack_pool_array<int,pecker_sdk::pecker_simple_allocator<int>,pecker_sdk::pecker_simple_allocator<int *>,512> >::decrement
PUBLIC	?increment@?$pecker_array_iterator@V?$pecker_stack_pool_array@HV?$pecker_simple_allocator@H@pecker_sdk@@V?$pecker_simple_allocator@PAH@2@$0CAA@@pecker_sdk@@@pecker_sdk@@UAEJXZ ; pecker_sdk::pecker_array_iterator<pecker_sdk::pecker_stack_pool_array<int,pecker_sdk::pecker_simple_allocator<int>,pecker_sdk::pecker_simple_allocator<int *>,512> >::increment
PUBLIC	?get_at@?$pecker_stack_pool_array@HV?$pecker_simple_allocator@H@pecker_sdk@@V?$pecker_simple_allocator@PAH@2@$0CAA@@pecker_sdk@@QBEPBHPBV?$pecker_array_iterator@V?$pecker_stack_pool_array@HV?$pecker_simple_allocator@H@pecker_sdk@@V?$pecker_simple_allocator@PAH@2@$0CAA@@pecker_sdk@@@2@@Z ; pecker_sdk::pecker_stack_pool_array<int,pecker_sdk::pecker_simple_allocator<int>,pecker_sdk::pecker_simple_allocator<int *>,512>::get_at
PUBLIC	??_C@_0BL@HJAAJDEN@array_stack_pool_test_main?$AA@ ; `string'
PUBLIC	?init@?$pecker_array_iterator@V?$pecker_stack_pool_array@HV?$pecker_simple_allocator@H@pecker_sdk@@V?$pecker_simple_allocator@PAH@2@$0CAA@@pecker_sdk@@@pecker_sdk@@UAEJW4enumLINEAR_INTERATOR_INIT_TYPE@@@Z ; pecker_sdk::pecker_array_iterator<pecker_sdk::pecker_stack_pool_array<int,pecker_sdk::pecker_simple_allocator<int>,pecker_sdk::pecker_simple_allocator<int *>,512> >::init
PUBLIC	?get_iterator@?$pecker_stack_pool_array@HV?$pecker_simple_allocator@H@pecker_sdk@@V?$pecker_simple_allocator@PAH@2@$0CAA@@pecker_sdk@@QBEPAV?$pecker_array_iterator@V?$pecker_stack_pool_array@HV?$pecker_simple_allocator@H@pecker_sdk@@V?$pecker_simple_allocator@PAH@2@$0CAA@@pecker_sdk@@@2@PAV32@@Z ; pecker_sdk::pecker_stack_pool_array<int,pecker_sdk::pecker_simple_allocator<int>,pecker_sdk::pecker_simple_allocator<int *>,512>::get_iterator
PUBLIC	??0?$pecker_array_iterator@V?$pecker_stack_pool_array@HV?$pecker_simple_allocator@H@pecker_sdk@@V?$pecker_simple_allocator@PAH@2@$0CAA@@pecker_sdk@@@pecker_sdk@@QAE@PBV?$pecker_stack_pool_array@HV?$pecker_simple_allocator@H@pecker_sdk@@V?$pecker_simple_allocator@PAH@2@$0CAA@@1@@Z ; pecker_sdk::pecker_array_iterator<pecker_sdk::pecker_stack_pool_array<int,pecker_sdk::pecker_simple_allocator<int>,pecker_sdk::pecker_simple_allocator<int *>,512> >::pecker_array_iterator<pecker_sdk::pecker_stack_pool_array<int,pecker_sdk::pecker_simple_allocator<int>,pecker_sdk::pecker_simple_allocator<int *>,512> >
PUBLIC	?push@?$pecker_stack_pool_array@HV?$pecker_simple_allocator@H@pecker_sdk@@V?$pecker_simple_allocator@PAH@2@$0CAA@@pecker_sdk@@QAEJABH@Z ; pecker_sdk::pecker_stack_pool_array<int,pecker_sdk::pecker_simple_allocator<int>,pecker_sdk::pecker_simple_allocator<int *>,512>::push
PUBLIC	?init@?$pecker_stack_pool_array@HV?$pecker_simple_allocator@H@pecker_sdk@@V?$pecker_simple_allocator@PAH@2@$0CAA@@pecker_sdk@@QAEJHHH@Z ; pecker_sdk::pecker_stack_pool_array<int,pecker_sdk::pecker_simple_allocator<int>,pecker_sdk::pecker_simple_allocator<int *>,512>::init
PUBLIC	??0?$pecker_stack_pool_array@HV?$pecker_simple_allocator@H@pecker_sdk@@V?$pecker_simple_allocator@PAH@2@$0CAA@@pecker_sdk@@QAE@XZ ; pecker_sdk::pecker_stack_pool_array<int,pecker_sdk::pecker_simple_allocator<int>,pecker_sdk::pecker_simple_allocator<int *>,512>::pecker_stack_pool_array<int,pecker_sdk::pecker_simple_allocator<int>,pecker_sdk::pecker_simple_allocator<int *>,512>
PUBLIC	__$ArrayPad$
PUBLIC	?array_stack_pool_test_main@@YAXXZ		; array_stack_pool_test_main
;	COMDAT ??_C@_0BL@HJAAJDEN@array_stack_pool_test_main?$AA@
CONST	SEGMENT
??_C@_0BL@HJAAJDEN@array_stack_pool_test_main?$AA@ DB 'array_stack_pool_t'
	DB	'est_main', 00H				; `string'
CONST	ENDS
;	COMDAT xdata$x
xdata$x	SEGMENT
__unwindtable$?array_stack_pool_test_main@@YAXXZ DD 0ffffffffH
	DD	FLAT:__unwindfunclet$?array_stack_pool_test_main@@YAXXZ$0
	DD	00H
	DD	FLAT:__unwindfunclet$?array_stack_pool_test_main@@YAXXZ$1
	DD	01H
	DD	FLAT:__unwindfunclet$?array_stack_pool_test_main@@YAXXZ$2
	DD	02H
	DD	FLAT:__unwindfunclet$?array_stack_pool_test_main@@YAXXZ$3
__ehfuncinfo$?array_stack_pool_test_main@@YAXXZ DD 019930522H
	DD	04H
	DD	FLAT:__unwindtable$?array_stack_pool_test_main@@YAXXZ
	DD	2 DUP(00H)
	DD	2 DUP(00H)
	DD	00H
	DD	01H
; Function compile flags: /Odtp /RTCsu /ZI
xdata$x	ENDS
;	COMDAT ?array_stack_pool_test_main@@YAXXZ
_TEXT	SEGMENT
$T70054 = -1048						; size = 4
_pvalue$68932 = -844					; size = 4
_i$68928 = -832						; size = 4
_pvalue$68894 = -820					; size = 4
_i$68890 = -808						; size = 4
_isetval$ = -796					; size = 4
_array_iterator2$ = -784				; size = 12
_pvalue$68876 = -764					; size = 4
_i$68872 = -752						; size = 4
_i$68868 = -740						; size = 4
_pvalue$68865 = -728					; size = 4
_i$68861 = -716						; size = 4
_i$68856 = -704						; size = 4
_pvalue$68853 = -692					; size = 4
_pvalue$68847 = -680					; size = 4
_i$68840 = -668						; size = 4
_i$68836 = -656						; size = 4
_pvalue$68833 = -644					; size = 4
_pvalue$68827 = -632					; size = 4
_array_iterator1$ = -620				; size = 12
_i$68771 = -600						; size = 4
_array$ = -588						; size = 520
_output_stream$ = -60					; size = 40
__$ArrayPad$ = -16					; size = 4
__$EHRec$ = -12						; size = 12
?array_stack_pool_test_main@@YAXXZ PROC			; array_stack_pool_test_main, COMDAT

; 519  : {

	push	ebp
	mov	ebp, esp
	push	-1
	push	__ehhandler$?array_stack_pool_test_main@@YAXXZ
	mov	eax, DWORD PTR fs:0
	push	eax
	sub	esp, 1040				; 00000410H
	push	ebx
	push	esi
	push	edi
	lea	edi, DWORD PTR [ebp-1052]
	mov	ecx, 260				; 00000104H
	mov	eax, -858993460				; ccccccccH
	rep stosd
	mov	eax, DWORD PTR ___security_cookie
	xor	eax, ebp
	mov	DWORD PTR __$ArrayPad$[ebp], eax
	push	eax
	lea	eax, DWORD PTR __$EHRec$[ebp]
	mov	DWORD PTR fs:0, eax

; 520  : 	pecker_write_stream_to_memery output_stream;

	lea	ecx, DWORD PTR _output_stream$[ebp]
	call	??0pecker_write_stream_to_memery@pecker_sdk@@QAE@XZ ; pecker_sdk::pecker_write_stream_to_memery::pecker_write_stream_to_memery
	mov	DWORD PTR __$EHRec$[ebp+8], 0

; 521  : 	output_stream.bind_write_buffer(gstr_log_info,MAX_LOG_STRING_INFO);

	push	4096					; 00001000H
	push	OFFSET _gstr_log_info
	lea	ecx, DWORD PTR _output_stream$[ebp]
	call	?bind_write_buffer@pecker_write_stream_to_memery@pecker_sdk@@QAEJPADH@Z ; pecker_sdk::pecker_write_stream_to_memery::bind_write_buffer

; 522  : 
; 523  : 	pecker_stack_pool_array<int> array;

	lea	ecx, DWORD PTR _array$[ebp]
	call	??0?$pecker_stack_pool_array@HV?$pecker_simple_allocator@H@pecker_sdk@@V?$pecker_simple_allocator@PAH@2@$0CAA@@pecker_sdk@@QAE@XZ ; pecker_sdk::pecker_stack_pool_array<int,pecker_sdk::pecker_simple_allocator<int>,pecker_sdk::pecker_simple_allocator<int *>,512>::pecker_stack_pool_array<int,pecker_sdk::pecker_simple_allocator<int>,pecker_sdk::pecker_simple_allocator<int *>,512>
	mov	BYTE PTR __$EHRec$[ebp+8], 1

; 524  : 	array.init();

	push	-1
	push	-1
	push	-1
	lea	ecx, DWORD PTR _array$[ebp]
	call	?init@?$pecker_stack_pool_array@HV?$pecker_simple_allocator@H@pecker_sdk@@V?$pecker_simple_allocator@PAH@2@$0CAA@@pecker_sdk@@QAEJHHH@Z ; pecker_sdk::pecker_stack_pool_array<int,pecker_sdk::pecker_simple_allocator<int>,pecker_sdk::pecker_simple_allocator<int *>,512>::init

; 525  : 	for (int i=0;i<20;++i)

	mov	DWORD PTR _i$68771[ebp], 0
	jmp	SHORT $LN51@array_stac
$LN50@array_stac:
	mov	eax, DWORD PTR _i$68771[ebp]
	add	eax, 1
	mov	DWORD PTR _i$68771[ebp], eax
$LN51@array_stac:
	cmp	DWORD PTR _i$68771[ebp], 20		; 00000014H
	jge	SHORT $LN49@array_stac

; 526  : 	{
; 527  : 		array.push(i);

	lea	eax, DWORD PTR _i$68771[ebp]
	push	eax
	lea	ecx, DWORD PTR _array$[ebp]
	call	?push@?$pecker_stack_pool_array@HV?$pecker_simple_allocator@H@pecker_sdk@@V?$pecker_simple_allocator@PAH@2@$0CAA@@pecker_sdk@@QAEJABH@Z ; pecker_sdk::pecker_stack_pool_array<int,pecker_sdk::pecker_simple_allocator<int>,pecker_sdk::pecker_simple_allocator<int *>,512>::push

; 528  : 	}

	jmp	SHORT $LN50@array_stac
$LN49@array_stac:

; 529  : 	pecker_array_iterator< pecker_stack_pool_array<int> > array_iterator1;

	push	0
	lea	ecx, DWORD PTR _array_iterator1$[ebp]
	call	??0?$pecker_array_iterator@V?$pecker_stack_pool_array@HV?$pecker_simple_allocator@H@pecker_sdk@@V?$pecker_simple_allocator@PAH@2@$0CAA@@pecker_sdk@@@pecker_sdk@@QAE@PBV?$pecker_stack_pool_array@HV?$pecker_simple_allocator@H@pecker_sdk@@V?$pecker_simple_allocator@PAH@2@$0CAA@@1@@Z ; pecker_sdk::pecker_array_iterator<pecker_sdk::pecker_stack_pool_array<int,pecker_sdk::pecker_simple_allocator<int>,pecker_sdk::pecker_simple_allocator<int *>,512> >::pecker_array_iterator<pecker_sdk::pecker_stack_pool_array<int,pecker_sdk::pecker_simple_allocator<int>,pecker_sdk::pecker_simple_allocator<int *>,512> >
	mov	BYTE PTR __$EHRec$[ebp+8], 2

; 530  : 
; 531  : 	array.get_iterator(&array_iterator1);

	lea	eax, DWORD PTR _array_iterator1$[ebp]
	push	eax
	lea	ecx, DWORD PTR _array$[ebp]
	call	?get_iterator@?$pecker_stack_pool_array@HV?$pecker_simple_allocator@H@pecker_sdk@@V?$pecker_simple_allocator@PAH@2@$0CAA@@pecker_sdk@@QBEPAV?$pecker_array_iterator@V?$pecker_stack_pool_array@HV?$pecker_simple_allocator@H@pecker_sdk@@V?$pecker_simple_allocator@PAH@2@$0CAA@@pecker_sdk@@@2@PAV32@@Z ; pecker_sdk::pecker_stack_pool_array<int,pecker_sdk::pecker_simple_allocator<int>,pecker_sdk::pecker_simple_allocator<int *>,512>::get_iterator

; 532  : 	array_iterator1.init(ITERATOR_INIT_BEGIN_INDEX);

	push	0
	lea	ecx, DWORD PTR _array_iterator1$[ebp]
	call	?init@?$pecker_array_iterator@V?$pecker_stack_pool_array@HV?$pecker_simple_allocator@H@pecker_sdk@@V?$pecker_simple_allocator@PAH@2@$0CAA@@pecker_sdk@@@pecker_sdk@@UAEJW4enumLINEAR_INTERATOR_INIT_TYPE@@@Z ; pecker_sdk::pecker_array_iterator<pecker_sdk::pecker_stack_pool_array<int,pecker_sdk::pecker_simple_allocator<int>,pecker_sdk::pecker_simple_allocator<int *>,512> >::init

; 533  : 	//std::cout << "inc ....." << std::endl;
; 534  : 	PECKER_LOG_INFO("array_stack_pool_test_main","inc.......");

	mov	esi, esp
	push	OFFSET ??_C@_09PALELKOJ@LOG_INFO?5?$AA@
	call	DWORD PTR __imp__printf
	add	esp, 4
	cmp	esi, esp
	call	__RTC_CheckEsp
	mov	esi, esp
	push	OFFSET ??_C@_0BL@HJAAJDEN@array_stack_pool_test_main?$AA@
	call	DWORD PTR __imp__printf
	add	esp, 4
	cmp	esi, esp
	call	__RTC_CheckEsp
	mov	esi, esp
	push	OFFSET ??_C@_01EEMJAFIK@?6?$AA@
	call	DWORD PTR __imp__printf
	add	esp, 4
	cmp	esi, esp
	call	__RTC_CheckEsp
	mov	esi, esp
	push	OFFSET ??_C@_0L@FMDBBCEB@inc?4?4?4?4?4?4?4?$AA@
	call	DWORD PTR __imp__printf
	add	esp, 4
	cmp	esi, esp
	call	__RTC_CheckEsp
	mov	esi, esp
	push	OFFSET ??_C@_01EEMJAFIK@?6?$AA@
	call	DWORD PTR __imp__printf
	add	esp, 4
	cmp	esi, esp
	call	__RTC_CheckEsp
$LN48@array_stac:

; 535  : 	while (1)

	mov	eax, 1
	test	eax, eax
	je	SHORT $LN47@array_stac

; 536  : 	{
; 537  : 		const int* pvalue = array.get_at(&array_iterator1);

	lea	eax, DWORD PTR _array_iterator1$[ebp]
	push	eax
	lea	ecx, DWORD PTR _array$[ebp]
	call	?get_at@?$pecker_stack_pool_array@HV?$pecker_simple_allocator@H@pecker_sdk@@V?$pecker_simple_allocator@PAH@2@$0CAA@@pecker_sdk@@QBEPBHPBV?$pecker_array_iterator@V?$pecker_stack_pool_array@HV?$pecker_simple_allocator@H@pecker_sdk@@V?$pecker_simple_allocator@PAH@2@$0CAA@@pecker_sdk@@@2@@Z ; pecker_sdk::pecker_stack_pool_array<int,pecker_sdk::pecker_simple_allocator<int>,pecker_sdk::pecker_simple_allocator<int *>,512>::get_at
	mov	DWORD PTR _pvalue$68827[ebp], eax

; 538  : 		if (pvalue)

	cmp	DWORD PTR _pvalue$68827[ebp], 0
	je	SHORT $LN46@array_stac

; 539  : 		{
; 540  : 			output_stream.write_integer(*pvalue);

	mov	eax, DWORD PTR _pvalue$68827[ebp]
	mov	ecx, DWORD PTR [eax]
	push	ecx
	lea	ecx, DWORD PTR _output_stream$[ebp]
	call	?write_integer@pecker_write_stream_to_memery@pecker_sdk@@UAEJH@Z ; pecker_sdk::pecker_write_stream_to_memery::write_integer

; 541  : 			output_stream.write_char(',');

	push	44					; 0000002cH
	lea	ecx, DWORD PTR _output_stream$[ebp]
	call	?write_char@pecker_write_stream_to_memery@pecker_sdk@@UAEJD@Z ; pecker_sdk::pecker_write_stream_to_memery::write_char

; 542  : 			//PECKER_LOG_INFO("array_test_main","%d",*pvalue);
; 543  : 			//std::cout << *pvalue << ",";
; 544  : 		}
; 545  : 		else

	jmp	SHORT $LN45@array_stac
$LN46@array_stac:

; 546  : 		{
; 547  : 			output_stream.write_chars("null\n",6);

	push	6
	push	OFFSET ??_C@_05IHCDMNLM@null?6?$AA@
	lea	ecx, DWORD PTR _output_stream$[ebp]
	call	?write_chars@pecker_write_stream_to_memery@pecker_sdk@@UAEHPADH@Z ; pecker_sdk::pecker_write_stream_to_memery::write_chars

; 548  : 			//PECKER_LOG_ERR("array_test_main","%d(null)",pvalue);
; 549  : 			//std::cout << "null" << std::endl;
; 550  : 			break;

	jmp	SHORT $LN47@array_stac
$LN45@array_stac:

; 551  : 		}
; 552  : 		array_iterator1.increment();

	lea	ecx, DWORD PTR _array_iterator1$[ebp]
	call	?increment@?$pecker_array_iterator@V?$pecker_stack_pool_array@HV?$pecker_simple_allocator@H@pecker_sdk@@V?$pecker_simple_allocator@PAH@2@$0CAA@@pecker_sdk@@@pecker_sdk@@UAEJXZ ; pecker_sdk::pecker_array_iterator<pecker_sdk::pecker_stack_pool_array<int,pecker_sdk::pecker_simple_allocator<int>,pecker_sdk::pecker_simple_allocator<int *>,512> >::increment

; 553  : 	}

	jmp	SHORT $LN48@array_stac
$LN47@array_stac:

; 554  : 
; 555  : 	//output_stream.write_char('\0');
; 556  : 	PECKER_LOG_INFO("begin to end","%s",gstr_log_info);

	mov	esi, esp
	push	OFFSET ??_C@_09PALELKOJ@LOG_INFO?5?$AA@
	call	DWORD PTR __imp__printf
	add	esp, 4
	cmp	esi, esp
	call	__RTC_CheckEsp
	mov	esi, esp
	push	OFFSET ??_C@_0N@HIHLHABK@begin?5to?5end?$AA@
	call	DWORD PTR __imp__printf
	add	esp, 4
	cmp	esi, esp
	call	__RTC_CheckEsp
	mov	esi, esp
	push	OFFSET ??_C@_01EEMJAFIK@?6?$AA@
	call	DWORD PTR __imp__printf
	add	esp, 4
	cmp	esi, esp
	call	__RTC_CheckEsp
	mov	esi, esp
	push	OFFSET _gstr_log_info
	push	OFFSET ??_C@_02DKCKIIND@?$CFs?$AA@
	call	DWORD PTR __imp__printf
	add	esp, 8
	cmp	esi, esp
	call	__RTC_CheckEsp
	mov	esi, esp
	push	OFFSET ??_C@_01EEMJAFIK@?6?$AA@
	call	DWORD PTR __imp__printf
	add	esp, 4
	cmp	esi, esp
	call	__RTC_CheckEsp

; 557  : 
; 558  : 
; 559  : 	output_stream.bind_write_buffer(gstr_log_info,MAX_LOG_STRING_INFO);

	push	4096					; 00001000H
	push	OFFSET _gstr_log_info
	lea	ecx, DWORD PTR _output_stream$[ebp]
	call	?bind_write_buffer@pecker_write_stream_to_memery@pecker_sdk@@QAEJPADH@Z ; pecker_sdk::pecker_write_stream_to_memery::bind_write_buffer

; 560  : 	//std::cout << "dec ....." << std::endl;
; 561  : 	PECKER_LOG_INFO("array_test_main","dec.......");

	mov	esi, esp
	push	OFFSET ??_C@_09PALELKOJ@LOG_INFO?5?$AA@
	call	DWORD PTR __imp__printf
	add	esp, 4
	cmp	esi, esp
	call	__RTC_CheckEsp
	mov	esi, esp
	push	OFFSET ??_C@_0BA@NAEAIJEJ@array_test_main?$AA@
	call	DWORD PTR __imp__printf
	add	esp, 4
	cmp	esi, esp
	call	__RTC_CheckEsp
	mov	esi, esp
	push	OFFSET ??_C@_01EEMJAFIK@?6?$AA@
	call	DWORD PTR __imp__printf
	add	esp, 4
	cmp	esi, esp
	call	__RTC_CheckEsp
	mov	esi, esp
	push	OFFSET ??_C@_0L@GPEFKELB@dec?4?4?4?4?4?4?4?$AA@
	call	DWORD PTR __imp__printf
	add	esp, 4
	cmp	esi, esp
	call	__RTC_CheckEsp
	mov	esi, esp
	push	OFFSET ??_C@_01EEMJAFIK@?6?$AA@
	call	DWORD PTR __imp__printf
	add	esp, 4
	cmp	esi, esp
	call	__RTC_CheckEsp

; 562  : 	array_iterator1.init(ITERATOR_INIT_END_INDEX);

	push	1
	lea	ecx, DWORD PTR _array_iterator1$[ebp]
	call	?init@?$pecker_array_iterator@V?$pecker_stack_pool_array@HV?$pecker_simple_allocator@H@pecker_sdk@@V?$pecker_simple_allocator@PAH@2@$0CAA@@pecker_sdk@@@pecker_sdk@@UAEJW4enumLINEAR_INTERATOR_INIT_TYPE@@@Z ; pecker_sdk::pecker_array_iterator<pecker_sdk::pecker_stack_pool_array<int,pecker_sdk::pecker_simple_allocator<int>,pecker_sdk::pecker_simple_allocator<int *>,512> >::init
$LN44@array_stac:

; 563  : 	while (1)

	mov	eax, 1
	test	eax, eax
	je	SHORT $LN43@array_stac

; 564  : 	{
; 565  : 		const int* pvalue = array.get_at(&array_iterator1);

	lea	eax, DWORD PTR _array_iterator1$[ebp]
	push	eax
	lea	ecx, DWORD PTR _array$[ebp]
	call	?get_at@?$pecker_stack_pool_array@HV?$pecker_simple_allocator@H@pecker_sdk@@V?$pecker_simple_allocator@PAH@2@$0CAA@@pecker_sdk@@QBEPBHPBV?$pecker_array_iterator@V?$pecker_stack_pool_array@HV?$pecker_simple_allocator@H@pecker_sdk@@V?$pecker_simple_allocator@PAH@2@$0CAA@@pecker_sdk@@@2@@Z ; pecker_sdk::pecker_stack_pool_array<int,pecker_sdk::pecker_simple_allocator<int>,pecker_sdk::pecker_simple_allocator<int *>,512>::get_at
	mov	DWORD PTR _pvalue$68833[ebp], eax

; 566  : 		if (pvalue)

	cmp	DWORD PTR _pvalue$68833[ebp], 0
	je	SHORT $LN42@array_stac

; 567  : 		{
; 568  : 			//std::cout << *pvalue << ",";
; 569  : 			//PECKER_LOG_INFO("array_test_main","%d",*pvalue);
; 570  : 			output_stream.write_integer(*pvalue);

	mov	eax, DWORD PTR _pvalue$68833[ebp]
	mov	ecx, DWORD PTR [eax]
	push	ecx
	lea	ecx, DWORD PTR _output_stream$[ebp]
	call	?write_integer@pecker_write_stream_to_memery@pecker_sdk@@UAEJH@Z ; pecker_sdk::pecker_write_stream_to_memery::write_integer

; 571  : 			output_stream.write_char(',');

	push	44					; 0000002cH
	lea	ecx, DWORD PTR _output_stream$[ebp]
	call	?write_char@pecker_write_stream_to_memery@pecker_sdk@@UAEJD@Z ; pecker_sdk::pecker_write_stream_to_memery::write_char

; 572  : 		}
; 573  : 		else

	jmp	SHORT $LN41@array_stac
$LN42@array_stac:

; 574  : 		{
; 575  : 			//std::cout << "null" << std::endl;
; 576  : 			//PECKER_LOG_ERR("array_test_main","%d(null)",pvalue);
; 577  : 			output_stream.write_chars("null\n",6);

	push	6
	push	OFFSET ??_C@_05IHCDMNLM@null?6?$AA@
	lea	ecx, DWORD PTR _output_stream$[ebp]
	call	?write_chars@pecker_write_stream_to_memery@pecker_sdk@@UAEHPADH@Z ; pecker_sdk::pecker_write_stream_to_memery::write_chars

; 578  : 			break;

	jmp	SHORT $LN43@array_stac
$LN41@array_stac:

; 579  : 		}
; 580  : 		array_iterator1.decrement();

	lea	ecx, DWORD PTR _array_iterator1$[ebp]
	call	?decrement@?$pecker_array_iterator@V?$pecker_stack_pool_array@HV?$pecker_simple_allocator@H@pecker_sdk@@V?$pecker_simple_allocator@PAH@2@$0CAA@@pecker_sdk@@@pecker_sdk@@UAEJXZ ; pecker_sdk::pecker_array_iterator<pecker_sdk::pecker_stack_pool_array<int,pecker_sdk::pecker_simple_allocator<int>,pecker_sdk::pecker_simple_allocator<int *>,512> >::decrement

; 581  : 	}

	jmp	SHORT $LN44@array_stac
$LN43@array_stac:

; 582  : 	//output_stream.write_char('\0');
; 583  : 	PECKER_LOG_INFO("end to begin","%s",gstr_log_info);

	mov	esi, esp
	push	OFFSET ??_C@_09PALELKOJ@LOG_INFO?5?$AA@
	call	DWORD PTR __imp__printf
	add	esp, 4
	cmp	esi, esp
	call	__RTC_CheckEsp
	mov	esi, esp
	push	OFFSET ??_C@_0N@OIDKLPEO@end?5to?5begin?$AA@
	call	DWORD PTR __imp__printf
	add	esp, 4
	cmp	esi, esp
	call	__RTC_CheckEsp
	mov	esi, esp
	push	OFFSET ??_C@_01EEMJAFIK@?6?$AA@
	call	DWORD PTR __imp__printf
	add	esp, 4
	cmp	esi, esp
	call	__RTC_CheckEsp
	mov	esi, esp
	push	OFFSET _gstr_log_info
	push	OFFSET ??_C@_02DKCKIIND@?$CFs?$AA@
	call	DWORD PTR __imp__printf
	add	esp, 8
	cmp	esi, esp
	call	__RTC_CheckEsp
	mov	esi, esp
	push	OFFSET ??_C@_01EEMJAFIK@?6?$AA@
	call	DWORD PTR __imp__printf
	add	esp, 4
	cmp	esi, esp
	call	__RTC_CheckEsp

; 584  : 
; 585  : 	for (int i=0;i<5;++i)

	mov	DWORD PTR _i$68836[ebp], 0
	jmp	SHORT $LN40@array_stac
$LN39@array_stac:
	mov	eax, DWORD PTR _i$68836[ebp]
	add	eax, 1
	mov	DWORD PTR _i$68836[ebp], eax
$LN40@array_stac:
	cmp	DWORD PTR _i$68836[ebp], 5
	jge	SHORT $LN38@array_stac

; 586  : 	{
; 587  : 		array.pop();

	lea	ecx, DWORD PTR _array$[ebp]
	call	?pop@?$pecker_stack_pool_array@HV?$pecker_simple_allocator@H@pecker_sdk@@V?$pecker_simple_allocator@PAH@2@$0CAA@@pecker_sdk@@QAEJXZ ; pecker_sdk::pecker_stack_pool_array<int,pecker_sdk::pecker_simple_allocator<int>,pecker_sdk::pecker_simple_allocator<int *>,512>::pop

; 588  : 	}

	jmp	SHORT $LN39@array_stac
$LN38@array_stac:

; 589  : 
; 590  : 	for (int i=0;i<20;++i)

	mov	DWORD PTR _i$68840[ebp], 0
	jmp	SHORT $LN37@array_stac
$LN36@array_stac:
	mov	eax, DWORD PTR _i$68840[ebp]
	add	eax, 1
	mov	DWORD PTR _i$68840[ebp], eax
$LN37@array_stac:
	cmp	DWORD PTR _i$68840[ebp], 20		; 00000014H
	jge	SHORT $LN35@array_stac

; 591  : 	{
; 592  : 		array.push(i);

	lea	eax, DWORD PTR _i$68840[ebp]
	push	eax
	lea	ecx, DWORD PTR _array$[ebp]
	call	?push@?$pecker_stack_pool_array@HV?$pecker_simple_allocator@H@pecker_sdk@@V?$pecker_simple_allocator@PAH@2@$0CAA@@pecker_sdk@@QAEJABH@Z ; pecker_sdk::pecker_stack_pool_array<int,pecker_sdk::pecker_simple_allocator<int>,pecker_sdk::pecker_simple_allocator<int *>,512>::push

; 593  : 	}

	jmp	SHORT $LN36@array_stac
$LN35@array_stac:

; 594  : 
; 595  : 	output_stream.bind_write_buffer(gstr_log_info,MAX_LOG_STRING_INFO);

	push	4096					; 00001000H
	push	OFFSET _gstr_log_info
	lea	ecx, DWORD PTR _output_stream$[ebp]
	call	?bind_write_buffer@pecker_write_stream_to_memery@pecker_sdk@@QAEJPADH@Z ; pecker_sdk::pecker_write_stream_to_memery::bind_write_buffer

; 596  : 
; 597  : 	array_iterator1.init(ITERATOR_INIT_BEGIN_INDEX);

	push	0
	lea	ecx, DWORD PTR _array_iterator1$[ebp]
	call	?init@?$pecker_array_iterator@V?$pecker_stack_pool_array@HV?$pecker_simple_allocator@H@pecker_sdk@@V?$pecker_simple_allocator@PAH@2@$0CAA@@pecker_sdk@@@pecker_sdk@@UAEJW4enumLINEAR_INTERATOR_INIT_TYPE@@@Z ; pecker_sdk::pecker_array_iterator<pecker_sdk::pecker_stack_pool_array<int,pecker_sdk::pecker_simple_allocator<int>,pecker_sdk::pecker_simple_allocator<int *>,512> >::init

; 598  : 	//std::cout << "inc ....." << std::endl;
; 599  : 	PECKER_LOG_INFO("array_stack_pool_test_main","inc.......");

	mov	esi, esp
	push	OFFSET ??_C@_09PALELKOJ@LOG_INFO?5?$AA@
	call	DWORD PTR __imp__printf
	add	esp, 4
	cmp	esi, esp
	call	__RTC_CheckEsp
	mov	esi, esp
	push	OFFSET ??_C@_0BL@HJAAJDEN@array_stack_pool_test_main?$AA@
	call	DWORD PTR __imp__printf
	add	esp, 4
	cmp	esi, esp
	call	__RTC_CheckEsp
	mov	esi, esp
	push	OFFSET ??_C@_01EEMJAFIK@?6?$AA@
	call	DWORD PTR __imp__printf
	add	esp, 4
	cmp	esi, esp
	call	__RTC_CheckEsp
	mov	esi, esp
	push	OFFSET ??_C@_0L@FMDBBCEB@inc?4?4?4?4?4?4?4?$AA@
	call	DWORD PTR __imp__printf
	add	esp, 4
	cmp	esi, esp
	call	__RTC_CheckEsp
	mov	esi, esp
	push	OFFSET ??_C@_01EEMJAFIK@?6?$AA@
	call	DWORD PTR __imp__printf
	add	esp, 4
	cmp	esi, esp
	call	__RTC_CheckEsp
$LN34@array_stac:

; 600  : 	while (1)

	mov	eax, 1
	test	eax, eax
	je	SHORT $LN33@array_stac

; 601  : 	{
; 602  : 		const int* pvalue = array.get_at(&array_iterator1);

	lea	eax, DWORD PTR _array_iterator1$[ebp]
	push	eax
	lea	ecx, DWORD PTR _array$[ebp]
	call	?get_at@?$pecker_stack_pool_array@HV?$pecker_simple_allocator@H@pecker_sdk@@V?$pecker_simple_allocator@PAH@2@$0CAA@@pecker_sdk@@QBEPBHPBV?$pecker_array_iterator@V?$pecker_stack_pool_array@HV?$pecker_simple_allocator@H@pecker_sdk@@V?$pecker_simple_allocator@PAH@2@$0CAA@@pecker_sdk@@@2@@Z ; pecker_sdk::pecker_stack_pool_array<int,pecker_sdk::pecker_simple_allocator<int>,pecker_sdk::pecker_simple_allocator<int *>,512>::get_at
	mov	DWORD PTR _pvalue$68847[ebp], eax

; 603  : 		if (pvalue)

	cmp	DWORD PTR _pvalue$68847[ebp], 0
	je	SHORT $LN32@array_stac

; 604  : 		{
; 605  : 			//std::cout << *pvalue << ",";
; 606  : 			output_stream.write_integer(*pvalue);

	mov	eax, DWORD PTR _pvalue$68847[ebp]
	mov	ecx, DWORD PTR [eax]
	push	ecx
	lea	ecx, DWORD PTR _output_stream$[ebp]
	call	?write_integer@pecker_write_stream_to_memery@pecker_sdk@@UAEJH@Z ; pecker_sdk::pecker_write_stream_to_memery::write_integer

; 607  : 			output_stream.write_char(',');

	push	44					; 0000002cH
	lea	ecx, DWORD PTR _output_stream$[ebp]
	call	?write_char@pecker_write_stream_to_memery@pecker_sdk@@UAEJD@Z ; pecker_sdk::pecker_write_stream_to_memery::write_char

; 608  : 			//PECKER_LOG_INFO("array_stack_pool_test_main","%d",*pvalue);
; 609  : 		}
; 610  : 		else

	jmp	SHORT $LN31@array_stac
$LN32@array_stac:

; 611  : 		{
; 612  : 			//std::cout << "null" << std::endl;
; 613  : 			//PECKER_LOG_ERR("array_stack_pool_test_main","%d(null)",pvalue);
; 614  : 			output_stream.write_chars("null\n",6);

	push	6
	push	OFFSET ??_C@_05IHCDMNLM@null?6?$AA@
	lea	ecx, DWORD PTR _output_stream$[ebp]
	call	?write_chars@pecker_write_stream_to_memery@pecker_sdk@@UAEHPADH@Z ; pecker_sdk::pecker_write_stream_to_memery::write_chars

; 615  : 			break;

	jmp	SHORT $LN33@array_stac
$LN31@array_stac:

; 616  : 		}
; 617  : 		array_iterator1.increment();

	lea	ecx, DWORD PTR _array_iterator1$[ebp]
	call	?increment@?$pecker_array_iterator@V?$pecker_stack_pool_array@HV?$pecker_simple_allocator@H@pecker_sdk@@V?$pecker_simple_allocator@PAH@2@$0CAA@@pecker_sdk@@@pecker_sdk@@UAEJXZ ; pecker_sdk::pecker_array_iterator<pecker_sdk::pecker_stack_pool_array<int,pecker_sdk::pecker_simple_allocator<int>,pecker_sdk::pecker_simple_allocator<int *>,512> >::increment

; 618  : 	}

	jmp	SHORT $LN34@array_stac
$LN33@array_stac:

; 619  : 
; 620  : 	PECKER_LOG_INFO("push pop begin to end","%s",gstr_log_info);

	mov	esi, esp
	push	OFFSET ??_C@_09PALELKOJ@LOG_INFO?5?$AA@
	call	DWORD PTR __imp__printf
	add	esp, 4
	cmp	esi, esp
	call	__RTC_CheckEsp
	mov	esi, esp
	push	OFFSET ??_C@_0BG@NGMJCOBM@push?5pop?5begin?5to?5end?$AA@
	call	DWORD PTR __imp__printf
	add	esp, 4
	cmp	esi, esp
	call	__RTC_CheckEsp
	mov	esi, esp
	push	OFFSET ??_C@_01EEMJAFIK@?6?$AA@
	call	DWORD PTR __imp__printf
	add	esp, 4
	cmp	esi, esp
	call	__RTC_CheckEsp
	mov	esi, esp
	push	OFFSET _gstr_log_info
	push	OFFSET ??_C@_02DKCKIIND@?$CFs?$AA@
	call	DWORD PTR __imp__printf
	add	esp, 8
	cmp	esi, esp
	call	__RTC_CheckEsp
	mov	esi, esp
	push	OFFSET ??_C@_01EEMJAFIK@?6?$AA@
	call	DWORD PTR __imp__printf
	add	esp, 4
	cmp	esi, esp
	call	__RTC_CheckEsp

; 621  : 
; 622  : 	output_stream.bind_write_buffer(gstr_log_info,MAX_LOG_STRING_INFO);

	push	4096					; 00001000H
	push	OFFSET _gstr_log_info
	lea	ecx, DWORD PTR _output_stream$[ebp]
	call	?bind_write_buffer@pecker_write_stream_to_memery@pecker_sdk@@QAEJPADH@Z ; pecker_sdk::pecker_write_stream_to_memery::bind_write_buffer

; 623  : 	//std::cout << "dec ....." << std::endl;
; 624  : 	PECKER_LOG_INFO("array_stack_pool_test_main","dec.......");

	mov	esi, esp
	push	OFFSET ??_C@_09PALELKOJ@LOG_INFO?5?$AA@
	call	DWORD PTR __imp__printf
	add	esp, 4
	cmp	esi, esp
	call	__RTC_CheckEsp
	mov	esi, esp
	push	OFFSET ??_C@_0BL@HJAAJDEN@array_stack_pool_test_main?$AA@
	call	DWORD PTR __imp__printf
	add	esp, 4
	cmp	esi, esp
	call	__RTC_CheckEsp
	mov	esi, esp
	push	OFFSET ??_C@_01EEMJAFIK@?6?$AA@
	call	DWORD PTR __imp__printf
	add	esp, 4
	cmp	esi, esp
	call	__RTC_CheckEsp
	mov	esi, esp
	push	OFFSET ??_C@_0L@GPEFKELB@dec?4?4?4?4?4?4?4?$AA@
	call	DWORD PTR __imp__printf
	add	esp, 4
	cmp	esi, esp
	call	__RTC_CheckEsp
	mov	esi, esp
	push	OFFSET ??_C@_01EEMJAFIK@?6?$AA@
	call	DWORD PTR __imp__printf
	add	esp, 4
	cmp	esi, esp
	call	__RTC_CheckEsp

; 625  : 	array_iterator1.init(ITERATOR_INIT_END_INDEX);

	push	1
	lea	ecx, DWORD PTR _array_iterator1$[ebp]
	call	?init@?$pecker_array_iterator@V?$pecker_stack_pool_array@HV?$pecker_simple_allocator@H@pecker_sdk@@V?$pecker_simple_allocator@PAH@2@$0CAA@@pecker_sdk@@@pecker_sdk@@UAEJW4enumLINEAR_INTERATOR_INIT_TYPE@@@Z ; pecker_sdk::pecker_array_iterator<pecker_sdk::pecker_stack_pool_array<int,pecker_sdk::pecker_simple_allocator<int>,pecker_sdk::pecker_simple_allocator<int *>,512> >::init
$LN30@array_stac:

; 626  : 	while (1)

	mov	eax, 1
	test	eax, eax
	je	SHORT $LN29@array_stac

; 627  : 	{
; 628  : 		const int* pvalue = array.get_at(&array_iterator1);

	lea	eax, DWORD PTR _array_iterator1$[ebp]
	push	eax
	lea	ecx, DWORD PTR _array$[ebp]
	call	?get_at@?$pecker_stack_pool_array@HV?$pecker_simple_allocator@H@pecker_sdk@@V?$pecker_simple_allocator@PAH@2@$0CAA@@pecker_sdk@@QBEPBHPBV?$pecker_array_iterator@V?$pecker_stack_pool_array@HV?$pecker_simple_allocator@H@pecker_sdk@@V?$pecker_simple_allocator@PAH@2@$0CAA@@pecker_sdk@@@2@@Z ; pecker_sdk::pecker_stack_pool_array<int,pecker_sdk::pecker_simple_allocator<int>,pecker_sdk::pecker_simple_allocator<int *>,512>::get_at
	mov	DWORD PTR _pvalue$68853[ebp], eax

; 629  : 		if (pvalue)

	cmp	DWORD PTR _pvalue$68853[ebp], 0
	je	SHORT $LN28@array_stac

; 630  : 		{
; 631  : 			//std::cout << *pvalue << ",";
; 632  : 			//PECKER_LOG_INFO("array_stack_pool_test_main","%d",*pvalue);
; 633  : 			output_stream.write_integer(*pvalue);

	mov	eax, DWORD PTR _pvalue$68853[ebp]
	mov	ecx, DWORD PTR [eax]
	push	ecx
	lea	ecx, DWORD PTR _output_stream$[ebp]
	call	?write_integer@pecker_write_stream_to_memery@pecker_sdk@@UAEJH@Z ; pecker_sdk::pecker_write_stream_to_memery::write_integer

; 634  : 			output_stream.write_char(',');

	push	44					; 0000002cH
	lea	ecx, DWORD PTR _output_stream$[ebp]
	call	?write_char@pecker_write_stream_to_memery@pecker_sdk@@UAEJD@Z ; pecker_sdk::pecker_write_stream_to_memery::write_char

; 635  : 		}
; 636  : 		else

	jmp	SHORT $LN27@array_stac
$LN28@array_stac:

; 637  : 		{
; 638  : 			//std::cout << "null" << std::endl;
; 639  : 			//PECKER_LOG_ERR("array_stack_pool_test_main","%d(null)",pvalue);
; 640  : 			output_stream.write_chars("null\n",6);

	push	6
	push	OFFSET ??_C@_05IHCDMNLM@null?6?$AA@
	lea	ecx, DWORD PTR _output_stream$[ebp]
	call	?write_chars@pecker_write_stream_to_memery@pecker_sdk@@UAEHPADH@Z ; pecker_sdk::pecker_write_stream_to_memery::write_chars

; 641  : 			break;

	jmp	SHORT $LN29@array_stac
$LN27@array_stac:

; 642  : 		}
; 643  : 		array_iterator1.decrement();

	lea	ecx, DWORD PTR _array_iterator1$[ebp]
	call	?decrement@?$pecker_array_iterator@V?$pecker_stack_pool_array@HV?$pecker_simple_allocator@H@pecker_sdk@@V?$pecker_simple_allocator@PAH@2@$0CAA@@pecker_sdk@@@pecker_sdk@@UAEJXZ ; pecker_sdk::pecker_array_iterator<pecker_sdk::pecker_stack_pool_array<int,pecker_sdk::pecker_simple_allocator<int>,pecker_sdk::pecker_simple_allocator<int *>,512> >::decrement

; 644  : 	}

	jmp	SHORT $LN30@array_stac
$LN29@array_stac:

; 645  : 	PECKER_LOG_INFO("push pop end to begin","%s",gstr_log_info);

	mov	esi, esp
	push	OFFSET ??_C@_09PALELKOJ@LOG_INFO?5?$AA@
	call	DWORD PTR __imp__printf
	add	esp, 4
	cmp	esi, esp
	call	__RTC_CheckEsp
	mov	esi, esp
	push	OFFSET ??_C@_0BG@EGIIOBEI@push?5pop?5end?5to?5begin?$AA@
	call	DWORD PTR __imp__printf
	add	esp, 4
	cmp	esi, esp
	call	__RTC_CheckEsp
	mov	esi, esp
	push	OFFSET ??_C@_01EEMJAFIK@?6?$AA@
	call	DWORD PTR __imp__printf
	add	esp, 4
	cmp	esi, esp
	call	__RTC_CheckEsp
	mov	esi, esp
	push	OFFSET _gstr_log_info
	push	OFFSET ??_C@_02DKCKIIND@?$CFs?$AA@
	call	DWORD PTR __imp__printf
	add	esp, 8
	cmp	esi, esp
	call	__RTC_CheckEsp
	mov	esi, esp
	push	OFFSET ??_C@_01EEMJAFIK@?6?$AA@
	call	DWORD PTR __imp__printf
	add	esp, 4
	cmp	esi, esp
	call	__RTC_CheckEsp

; 646  : 
; 647  : 	output_stream.bind_write_buffer(gstr_log_info,MAX_LOG_STRING_INFO);

	push	4096					; 00001000H
	push	OFFSET _gstr_log_info
	lea	ecx, DWORD PTR _output_stream$[ebp]
	call	?bind_write_buffer@pecker_write_stream_to_memery@pecker_sdk@@QAEJPADH@Z ; pecker_sdk::pecker_write_stream_to_memery::bind_write_buffer

; 648  : 	//std::cout << "resize,get set" << std::endl;
; 649  : 	PECKER_LOG_INFO("array_stack_pool_test_main","resize,get set");

	mov	esi, esp
	push	OFFSET ??_C@_09PALELKOJ@LOG_INFO?5?$AA@
	call	DWORD PTR __imp__printf
	add	esp, 4
	cmp	esi, esp
	call	__RTC_CheckEsp
	mov	esi, esp
	push	OFFSET ??_C@_0BL@HJAAJDEN@array_stack_pool_test_main?$AA@
	call	DWORD PTR __imp__printf
	add	esp, 4
	cmp	esi, esp
	call	__RTC_CheckEsp
	mov	esi, esp
	push	OFFSET ??_C@_01EEMJAFIK@?6?$AA@
	call	DWORD PTR __imp__printf
	add	esp, 4
	cmp	esi, esp
	call	__RTC_CheckEsp
	mov	esi, esp
	push	OFFSET ??_C@_0P@FNNMJEDO@resize?0get?5set?$AA@
	call	DWORD PTR __imp__printf
	add	esp, 4
	cmp	esi, esp
	call	__RTC_CheckEsp
	mov	esi, esp
	push	OFFSET ??_C@_01EEMJAFIK@?6?$AA@
	call	DWORD PTR __imp__printf
	add	esp, 4
	cmp	esi, esp
	call	__RTC_CheckEsp

; 650  : 	array.resize(100,20);

	push	0
	push	-1
	push	20					; 00000014H
	push	100					; 00000064H
	lea	ecx, DWORD PTR _array$[ebp]
	call	?resize@?$pecker_stack_pool_array@HV?$pecker_simple_allocator@H@pecker_sdk@@V?$pecker_simple_allocator@PAH@2@$0CAA@@pecker_sdk@@QAEJHHH_N@Z ; pecker_sdk::pecker_stack_pool_array<int,pecker_sdk::pecker_simple_allocator<int>,pecker_sdk::pecker_simple_allocator<int *>,512>::resize

; 651  : 	for (int i=0;i<100;++i)

	mov	DWORD PTR _i$68856[ebp], 0
	jmp	SHORT $LN26@array_stac
$LN25@array_stac:
	mov	eax, DWORD PTR _i$68856[ebp]
	add	eax, 1
	mov	DWORD PTR _i$68856[ebp], eax
$LN26@array_stac:
	cmp	DWORD PTR _i$68856[ebp], 100		; 00000064H
	jge	SHORT $LN24@array_stac

; 652  : 	{
; 653  : 		array.set_at(i,100-i);

	mov	eax, 100				; 00000064H
	sub	eax, DWORD PTR _i$68856[ebp]
	mov	DWORD PTR $T70054[ebp], eax
	lea	ecx, DWORD PTR $T70054[ebp]
	push	ecx
	mov	edx, DWORD PTR _i$68856[ebp]
	push	edx
	lea	ecx, DWORD PTR _array$[ebp]
	call	?set_at@?$pecker_stack_pool_array@HV?$pecker_simple_allocator@H@pecker_sdk@@V?$pecker_simple_allocator@PAH@2@$0CAA@@pecker_sdk@@QAEJHABH@Z ; pecker_sdk::pecker_stack_pool_array<int,pecker_sdk::pecker_simple_allocator<int>,pecker_sdk::pecker_simple_allocator<int *>,512>::set_at

; 654  : 	}

	jmp	SHORT $LN25@array_stac
$LN24@array_stac:

; 655  : 	for (int i=0;i<100;++i)

	mov	DWORD PTR _i$68861[ebp], 0
	jmp	SHORT $LN23@array_stac
$LN22@array_stac:
	mov	eax, DWORD PTR _i$68861[ebp]
	add	eax, 1
	mov	DWORD PTR _i$68861[ebp], eax
$LN23@array_stac:
	cmp	DWORD PTR _i$68861[ebp], 100		; 00000064H
	jge	SHORT $LN21@array_stac

; 656  : 	{
; 657  : 		const int* pvalue = array.get_at(i);

	mov	eax, DWORD PTR _i$68861[ebp]
	push	eax
	lea	ecx, DWORD PTR _array$[ebp]
	call	?get_at@?$pecker_stack_pool_array@HV?$pecker_simple_allocator@H@pecker_sdk@@V?$pecker_simple_allocator@PAH@2@$0CAA@@pecker_sdk@@QBEPBHH@Z ; pecker_sdk::pecker_stack_pool_array<int,pecker_sdk::pecker_simple_allocator<int>,pecker_sdk::pecker_simple_allocator<int *>,512>::get_at
	mov	DWORD PTR _pvalue$68865[ebp], eax

; 658  : 		if (pvalue)

	cmp	DWORD PTR _pvalue$68865[ebp], 0
	je	SHORT $LN20@array_stac

; 659  : 		{
; 660  : 			//std::cout << *pvalue << ",";
; 661  : 			//PECKER_LOG_INFO("array_stack_pool_test_main","%d",*pvalue);
; 662  : 			output_stream.write_integer(*pvalue);

	mov	eax, DWORD PTR _pvalue$68865[ebp]
	mov	ecx, DWORD PTR [eax]
	push	ecx
	lea	ecx, DWORD PTR _output_stream$[ebp]
	call	?write_integer@pecker_write_stream_to_memery@pecker_sdk@@UAEJH@Z ; pecker_sdk::pecker_write_stream_to_memery::write_integer

; 663  : 		}
; 664  : 		else

	jmp	SHORT $LN19@array_stac
$LN20@array_stac:

; 665  : 		{
; 666  : 			//std::cout << "null" << std::endl;
; 667  : 			//PECKER_LOG_ERR("array_stack_pool_test_main","%d(null)",pvalue);
; 668  : 			output_stream.write_chars("null\n",6);

	push	6
	push	OFFSET ??_C@_05IHCDMNLM@null?6?$AA@
	lea	ecx, DWORD PTR _output_stream$[ebp]
	call	?write_chars@pecker_write_stream_to_memery@pecker_sdk@@UAEHPADH@Z ; pecker_sdk::pecker_write_stream_to_memery::write_chars

; 669  : 			break;

	jmp	SHORT $LN21@array_stac
$LN19@array_stac:

; 670  : 		}
; 671  : 		output_stream.write_char(',');

	push	44					; 0000002cH
	lea	ecx, DWORD PTR _output_stream$[ebp]
	call	?write_char@pecker_write_stream_to_memery@pecker_sdk@@UAEJD@Z ; pecker_sdk::pecker_write_stream_to_memery::write_char

; 672  : 	}

	jmp	SHORT $LN22@array_stac
$LN21@array_stac:

; 673  : 	//std::cout << std::endl;
; 674  : 	PECKER_LOG_INFO("resize,get set begin to end","%s",gstr_log_info);

	mov	esi, esp
	push	OFFSET ??_C@_09PALELKOJ@LOG_INFO?5?$AA@
	call	DWORD PTR __imp__printf
	add	esp, 4
	cmp	esi, esp
	call	__RTC_CheckEsp
	mov	esi, esp
	push	OFFSET ??_C@_0BM@JOHNJOMH@resize?0get?5set?5begin?5to?5end?$AA@
	call	DWORD PTR __imp__printf
	add	esp, 4
	cmp	esi, esp
	call	__RTC_CheckEsp
	mov	esi, esp
	push	OFFSET ??_C@_01EEMJAFIK@?6?$AA@
	call	DWORD PTR __imp__printf
	add	esp, 4
	cmp	esi, esp
	call	__RTC_CheckEsp
	mov	esi, esp
	push	OFFSET _gstr_log_info
	push	OFFSET ??_C@_02DKCKIIND@?$CFs?$AA@
	call	DWORD PTR __imp__printf
	add	esp, 8
	cmp	esi, esp
	call	__RTC_CheckEsp
	mov	esi, esp
	push	OFFSET ??_C@_01EEMJAFIK@?6?$AA@
	call	DWORD PTR __imp__printf
	add	esp, 4
	cmp	esi, esp
	call	__RTC_CheckEsp

; 675  : 
; 676  : 	output_stream.bind_write_buffer(gstr_log_info,MAX_LOG_STRING_INFO);

	push	4096					; 00001000H
	push	OFFSET _gstr_log_info
	lea	ecx, DWORD PTR _output_stream$[ebp]
	call	?bind_write_buffer@pecker_write_stream_to_memery@pecker_sdk@@QAEJPADH@Z ; pecker_sdk::pecker_write_stream_to_memery::bind_write_buffer

; 677  : 
; 678  : 	//std::cout << "resize,true,get set" << std::endl;
; 679  : 	PECKER_LOG_INFO("array_stack_pool_test_main","resize,true,get set");

	mov	esi, esp
	push	OFFSET ??_C@_09PALELKOJ@LOG_INFO?5?$AA@
	call	DWORD PTR __imp__printf
	add	esp, 4
	cmp	esi, esp
	call	__RTC_CheckEsp
	mov	esi, esp
	push	OFFSET ??_C@_0BL@HJAAJDEN@array_stack_pool_test_main?$AA@
	call	DWORD PTR __imp__printf
	add	esp, 4
	cmp	esi, esp
	call	__RTC_CheckEsp
	mov	esi, esp
	push	OFFSET ??_C@_01EEMJAFIK@?6?$AA@
	call	DWORD PTR __imp__printf
	add	esp, 4
	cmp	esi, esp
	call	__RTC_CheckEsp
	mov	esi, esp
	push	OFFSET ??_C@_0BE@GMDFIGCC@resize?0true?0get?5set?$AA@
	call	DWORD PTR __imp__printf
	add	esp, 4
	cmp	esi, esp
	call	__RTC_CheckEsp
	mov	esi, esp
	push	OFFSET ??_C@_01EEMJAFIK@?6?$AA@
	call	DWORD PTR __imp__printf
	add	esp, 4
	cmp	esi, esp
	call	__RTC_CheckEsp

; 680  : 	array.resize(50,20,true);

	push	0
	push	1
	push	20					; 00000014H
	push	50					; 00000032H
	lea	ecx, DWORD PTR _array$[ebp]
	call	?resize@?$pecker_stack_pool_array@HV?$pecker_simple_allocator@H@pecker_sdk@@V?$pecker_simple_allocator@PAH@2@$0CAA@@pecker_sdk@@QAEJHHH_N@Z ; pecker_sdk::pecker_stack_pool_array<int,pecker_sdk::pecker_simple_allocator<int>,pecker_sdk::pecker_simple_allocator<int *>,512>::resize

; 681  : 	for (int i=0;i<50;++i)

	mov	DWORD PTR _i$68868[ebp], 0
	jmp	SHORT $LN18@array_stac
$LN17@array_stac:
	mov	eax, DWORD PTR _i$68868[ebp]
	add	eax, 1
	mov	DWORD PTR _i$68868[ebp], eax
$LN18@array_stac:
	cmp	DWORD PTR _i$68868[ebp], 50		; 00000032H
	jge	SHORT $LN16@array_stac

; 682  : 	{
; 683  : 		array.set_at(i,i);

	lea	eax, DWORD PTR _i$68868[ebp]
	push	eax
	mov	ecx, DWORD PTR _i$68868[ebp]
	push	ecx
	lea	ecx, DWORD PTR _array$[ebp]
	call	?set_at@?$pecker_stack_pool_array@HV?$pecker_simple_allocator@H@pecker_sdk@@V?$pecker_simple_allocator@PAH@2@$0CAA@@pecker_sdk@@QAEJHABH@Z ; pecker_sdk::pecker_stack_pool_array<int,pecker_sdk::pecker_simple_allocator<int>,pecker_sdk::pecker_simple_allocator<int *>,512>::set_at

; 684  : 	}

	jmp	SHORT $LN17@array_stac
$LN16@array_stac:

; 685  : 	for (int i=0;i<50;++i)

	mov	DWORD PTR _i$68872[ebp], 0
	jmp	SHORT $LN15@array_stac
$LN14@array_stac:
	mov	eax, DWORD PTR _i$68872[ebp]
	add	eax, 1
	mov	DWORD PTR _i$68872[ebp], eax
$LN15@array_stac:
	cmp	DWORD PTR _i$68872[ebp], 50		; 00000032H
	jge	SHORT $LN13@array_stac

; 686  : 	{
; 687  : 		const int* pvalue = array.get_at(i);

	mov	eax, DWORD PTR _i$68872[ebp]
	push	eax
	lea	ecx, DWORD PTR _array$[ebp]
	call	?get_at@?$pecker_stack_pool_array@HV?$pecker_simple_allocator@H@pecker_sdk@@V?$pecker_simple_allocator@PAH@2@$0CAA@@pecker_sdk@@QBEPBHH@Z ; pecker_sdk::pecker_stack_pool_array<int,pecker_sdk::pecker_simple_allocator<int>,pecker_sdk::pecker_simple_allocator<int *>,512>::get_at
	mov	DWORD PTR _pvalue$68876[ebp], eax

; 688  : 		if (pvalue)

	cmp	DWORD PTR _pvalue$68876[ebp], 0
	je	SHORT $LN12@array_stac

; 689  : 		{
; 690  : 			//std::cout << *pvalue << ",";
; 691  : 			//PECKER_LOG_INFO("array_stack_pool_test_main","%d",*pvalue);
; 692  : 			output_stream.write_integer(*pvalue);

	mov	eax, DWORD PTR _pvalue$68876[ebp]
	mov	ecx, DWORD PTR [eax]
	push	ecx
	lea	ecx, DWORD PTR _output_stream$[ebp]
	call	?write_integer@pecker_write_stream_to_memery@pecker_sdk@@UAEJH@Z ; pecker_sdk::pecker_write_stream_to_memery::write_integer

; 693  : 		}
; 694  : 		else

	jmp	SHORT $LN11@array_stac
$LN12@array_stac:

; 695  : 		{
; 696  : 			//std::cout << "null" << std::endl;
; 697  : 			//PECKER_LOG_ERR("array_stack_pool_test_main","%d(null)",pvalue);
; 698  : 			output_stream.write_chars("null\n",6);

	push	6
	push	OFFSET ??_C@_05IHCDMNLM@null?6?$AA@
	lea	ecx, DWORD PTR _output_stream$[ebp]
	call	?write_chars@pecker_write_stream_to_memery@pecker_sdk@@UAEHPADH@Z ; pecker_sdk::pecker_write_stream_to_memery::write_chars

; 699  : 			break;

	jmp	SHORT $LN13@array_stac
$LN11@array_stac:

; 700  : 		}
; 701  : 		output_stream.write_char(',');

	push	44					; 0000002cH
	lea	ecx, DWORD PTR _output_stream$[ebp]
	call	?write_char@pecker_write_stream_to_memery@pecker_sdk@@UAEJD@Z ; pecker_sdk::pecker_write_stream_to_memery::write_char

; 702  : 	}

	jmp	SHORT $LN14@array_stac
$LN13@array_stac:

; 703  : 	//std::cout << std::endl;
; 704  : 	PECKER_LOG_INFO("resize,true,get set begin to end","%s",gstr_log_info);

	mov	esi, esp
	push	OFFSET ??_C@_09PALELKOJ@LOG_INFO?5?$AA@
	call	DWORD PTR __imp__printf
	add	esp, 4
	cmp	esi, esp
	call	__RTC_CheckEsp
	mov	esi, esp
	push	OFFSET ??_C@_0CB@ILKKIGKB@resize?0true?0get?5set?5begin?5to?5end@
	call	DWORD PTR __imp__printf
	add	esp, 4
	cmp	esi, esp
	call	__RTC_CheckEsp
	mov	esi, esp
	push	OFFSET ??_C@_01EEMJAFIK@?6?$AA@
	call	DWORD PTR __imp__printf
	add	esp, 4
	cmp	esi, esp
	call	__RTC_CheckEsp
	mov	esi, esp
	push	OFFSET _gstr_log_info
	push	OFFSET ??_C@_02DKCKIIND@?$CFs?$AA@
	call	DWORD PTR __imp__printf
	add	esp, 8
	cmp	esi, esp
	call	__RTC_CheckEsp
	mov	esi, esp
	push	OFFSET ??_C@_01EEMJAFIK@?6?$AA@
	call	DWORD PTR __imp__printf
	add	esp, 4
	cmp	esi, esp
	call	__RTC_CheckEsp

; 705  : 
; 706  : 
; 707  : 
; 708  : 	array_iterator1.init(ITERATOR_INIT_BEGIN_INDEX);

	push	0
	lea	ecx, DWORD PTR _array_iterator1$[ebp]
	call	?init@?$pecker_array_iterator@V?$pecker_stack_pool_array@HV?$pecker_simple_allocator@H@pecker_sdk@@V?$pecker_simple_allocator@PAH@2@$0CAA@@pecker_sdk@@@pecker_sdk@@UAEJW4enumLINEAR_INTERATOR_INIT_TYPE@@@Z ; pecker_sdk::pecker_array_iterator<pecker_sdk::pecker_stack_pool_array<int,pecker_sdk::pecker_simple_allocator<int>,pecker_sdk::pecker_simple_allocator<int *>,512> >::init

; 709  : 
; 710  : 	pecker_array_iterator< pecker_stack_pool_array<int> > array_iterator2;

	push	0
	lea	ecx, DWORD PTR _array_iterator2$[ebp]
	call	??0?$pecker_array_iterator@V?$pecker_stack_pool_array@HV?$pecker_simple_allocator@H@pecker_sdk@@V?$pecker_simple_allocator@PAH@2@$0CAA@@pecker_sdk@@@pecker_sdk@@QAE@PBV?$pecker_stack_pool_array@HV?$pecker_simple_allocator@H@pecker_sdk@@V?$pecker_simple_allocator@PAH@2@$0CAA@@1@@Z ; pecker_sdk::pecker_array_iterator<pecker_sdk::pecker_stack_pool_array<int,pecker_sdk::pecker_simple_allocator<int>,pecker_sdk::pecker_simple_allocator<int *>,512> >::pecker_array_iterator<pecker_sdk::pecker_stack_pool_array<int,pecker_sdk::pecker_simple_allocator<int>,pecker_sdk::pecker_simple_allocator<int *>,512> >
	mov	BYTE PTR __$EHRec$[ebp+8], 3

; 711  : 	array.get_iterator(&array_iterator2);

	lea	eax, DWORD PTR _array_iterator2$[ebp]
	push	eax
	lea	ecx, DWORD PTR _array$[ebp]
	call	?get_iterator@?$pecker_stack_pool_array@HV?$pecker_simple_allocator@H@pecker_sdk@@V?$pecker_simple_allocator@PAH@2@$0CAA@@pecker_sdk@@QBEPAV?$pecker_array_iterator@V?$pecker_stack_pool_array@HV?$pecker_simple_allocator@H@pecker_sdk@@V?$pecker_simple_allocator@PAH@2@$0CAA@@pecker_sdk@@@2@PAV32@@Z ; pecker_sdk::pecker_stack_pool_array<int,pecker_sdk::pecker_simple_allocator<int>,pecker_sdk::pecker_simple_allocator<int *>,512>::get_iterator

; 712  : 	array_iterator2.init(ITERATOR_INIT_END_INDEX);

	push	1
	lea	ecx, DWORD PTR _array_iterator2$[ebp]
	call	?init@?$pecker_array_iterator@V?$pecker_stack_pool_array@HV?$pecker_simple_allocator@H@pecker_sdk@@V?$pecker_simple_allocator@PAH@2@$0CAA@@pecker_sdk@@@pecker_sdk@@UAEJW4enumLINEAR_INTERATOR_INIT_TYPE@@@Z ; pecker_sdk::pecker_array_iterator<pecker_sdk::pecker_stack_pool_array<int,pecker_sdk::pecker_simple_allocator<int>,pecker_sdk::pecker_simple_allocator<int *>,512> >::init

; 713  : 
; 714  : 	int isetval = 100;

	mov	DWORD PTR _isetval$[ebp], 100		; 00000064H

; 715  : 	array.set_at(1,isetval);

	lea	eax, DWORD PTR _isetval$[ebp]
	push	eax
	push	1
	lea	ecx, DWORD PTR _array$[ebp]
	call	?set_at@?$pecker_stack_pool_array@HV?$pecker_simple_allocator@H@pecker_sdk@@V?$pecker_simple_allocator@PAH@2@$0CAA@@pecker_sdk@@QAEJHABH@Z ; pecker_sdk::pecker_stack_pool_array<int,pecker_sdk::pecker_simple_allocator<int>,pecker_sdk::pecker_simple_allocator<int *>,512>::set_at

; 716  : 	array.set_at(6,isetval);

	lea	eax, DWORD PTR _isetval$[ebp]
	push	eax
	push	6
	lea	ecx, DWORD PTR _array$[ebp]
	call	?set_at@?$pecker_stack_pool_array@HV?$pecker_simple_allocator@H@pecker_sdk@@V?$pecker_simple_allocator@PAH@2@$0CAA@@pecker_sdk@@QAEJHABH@Z ; pecker_sdk::pecker_stack_pool_array<int,pecker_sdk::pecker_simple_allocator<int>,pecker_sdk::pecker_simple_allocator<int *>,512>::set_at

; 717  : 	array.set_at(11,isetval);

	lea	eax, DWORD PTR _isetval$[ebp]
	push	eax
	push	11					; 0000000bH
	lea	ecx, DWORD PTR _array$[ebp]
	call	?set_at@?$pecker_stack_pool_array@HV?$pecker_simple_allocator@H@pecker_sdk@@V?$pecker_simple_allocator@PAH@2@$0CAA@@pecker_sdk@@QAEJHABH@Z ; pecker_sdk::pecker_stack_pool_array<int,pecker_sdk::pecker_simple_allocator<int>,pecker_sdk::pecker_simple_allocator<int *>,512>::set_at

; 718  : 	array.set_at(16,isetval);

	lea	eax, DWORD PTR _isetval$[ebp]
	push	eax
	push	16					; 00000010H
	lea	ecx, DWORD PTR _array$[ebp]
	call	?set_at@?$pecker_stack_pool_array@HV?$pecker_simple_allocator@H@pecker_sdk@@V?$pecker_simple_allocator@PAH@2@$0CAA@@pecker_sdk@@QAEJHABH@Z ; pecker_sdk::pecker_stack_pool_array<int,pecker_sdk::pecker_simple_allocator<int>,pecker_sdk::pecker_simple_allocator<int *>,512>::set_at

; 719  : 	array.set_at(21,isetval);

	lea	eax, DWORD PTR _isetval$[ebp]
	push	eax
	push	21					; 00000015H
	lea	ecx, DWORD PTR _array$[ebp]
	call	?set_at@?$pecker_stack_pool_array@HV?$pecker_simple_allocator@H@pecker_sdk@@V?$pecker_simple_allocator@PAH@2@$0CAA@@pecker_sdk@@QAEJHABH@Z ; pecker_sdk::pecker_stack_pool_array<int,pecker_sdk::pecker_simple_allocator<int>,pecker_sdk::pecker_simple_allocator<int *>,512>::set_at

; 720  : 	array.set_at(26,isetval);

	lea	eax, DWORD PTR _isetval$[ebp]
	push	eax
	push	26					; 0000001aH
	lea	ecx, DWORD PTR _array$[ebp]
	call	?set_at@?$pecker_stack_pool_array@HV?$pecker_simple_allocator@H@pecker_sdk@@V?$pecker_simple_allocator@PAH@2@$0CAA@@pecker_sdk@@QAEJHABH@Z ; pecker_sdk::pecker_stack_pool_array<int,pecker_sdk::pecker_simple_allocator<int>,pecker_sdk::pecker_simple_allocator<int *>,512>::set_at

; 721  : 	array.set_at(31,isetval);

	lea	eax, DWORD PTR _isetval$[ebp]
	push	eax
	push	31					; 0000001fH
	lea	ecx, DWORD PTR _array$[ebp]
	call	?set_at@?$pecker_stack_pool_array@HV?$pecker_simple_allocator@H@pecker_sdk@@V?$pecker_simple_allocator@PAH@2@$0CAA@@pecker_sdk@@QAEJHABH@Z ; pecker_sdk::pecker_stack_pool_array<int,pecker_sdk::pecker_simple_allocator<int>,pecker_sdk::pecker_simple_allocator<int *>,512>::set_at

; 722  : 	array.set_at(36,isetval);

	lea	eax, DWORD PTR _isetval$[ebp]
	push	eax
	push	36					; 00000024H
	lea	ecx, DWORD PTR _array$[ebp]
	call	?set_at@?$pecker_stack_pool_array@HV?$pecker_simple_allocator@H@pecker_sdk@@V?$pecker_simple_allocator@PAH@2@$0CAA@@pecker_sdk@@QAEJHABH@Z ; pecker_sdk::pecker_stack_pool_array<int,pecker_sdk::pecker_simple_allocator<int>,pecker_sdk::pecker_simple_allocator<int *>,512>::set_at

; 723  : 	array.set_at(41,isetval);

	lea	eax, DWORD PTR _isetval$[ebp]
	push	eax
	push	41					; 00000029H
	lea	ecx, DWORD PTR _array$[ebp]
	call	?set_at@?$pecker_stack_pool_array@HV?$pecker_simple_allocator@H@pecker_sdk@@V?$pecker_simple_allocator@PAH@2@$0CAA@@pecker_sdk@@QAEJHABH@Z ; pecker_sdk::pecker_stack_pool_array<int,pecker_sdk::pecker_simple_allocator<int>,pecker_sdk::pecker_simple_allocator<int *>,512>::set_at

; 724  : 	array.set_at(46,isetval);

	lea	eax, DWORD PTR _isetval$[ebp]
	push	eax
	push	46					; 0000002eH
	lea	ecx, DWORD PTR _array$[ebp]
	call	?set_at@?$pecker_stack_pool_array@HV?$pecker_simple_allocator@H@pecker_sdk@@V?$pecker_simple_allocator@PAH@2@$0CAA@@pecker_sdk@@QAEJHABH@Z ; pecker_sdk::pecker_stack_pool_array<int,pecker_sdk::pecker_simple_allocator<int>,pecker_sdk::pecker_simple_allocator<int *>,512>::set_at

; 725  : 
; 726  : 	output_stream.bind_write_buffer(gstr_log_info,MAX_LOG_STRING_INFO);

	push	4096					; 00001000H
	push	OFFSET _gstr_log_info
	lea	ecx, DWORD PTR _output_stream$[ebp]
	call	?bind_write_buffer@pecker_write_stream_to_memery@pecker_sdk@@QAEJPADH@Z ; pecker_sdk::pecker_write_stream_to_memery::bind_write_buffer

; 727  : 	for (int i=0;i<50;++i)

	mov	DWORD PTR _i$68890[ebp], 0
	jmp	SHORT $LN10@array_stac
$LN9@array_stac:
	mov	eax, DWORD PTR _i$68890[ebp]
	add	eax, 1
	mov	DWORD PTR _i$68890[ebp], eax
$LN10@array_stac:
	cmp	DWORD PTR _i$68890[ebp], 50		; 00000032H
	jge	SHORT $LN8@array_stac

; 728  : 	{
; 729  : 		const int* pvalue = array.get_at(i);

	mov	eax, DWORD PTR _i$68890[ebp]
	push	eax
	lea	ecx, DWORD PTR _array$[ebp]
	call	?get_at@?$pecker_stack_pool_array@HV?$pecker_simple_allocator@H@pecker_sdk@@V?$pecker_simple_allocator@PAH@2@$0CAA@@pecker_sdk@@QBEPBHH@Z ; pecker_sdk::pecker_stack_pool_array<int,pecker_sdk::pecker_simple_allocator<int>,pecker_sdk::pecker_simple_allocator<int *>,512>::get_at
	mov	DWORD PTR _pvalue$68894[ebp], eax

; 730  : 		if (pvalue)

	cmp	DWORD PTR _pvalue$68894[ebp], 0
	je	SHORT $LN7@array_stac

; 731  : 		{
; 732  : 			output_stream.write_integer(*pvalue);

	mov	eax, DWORD PTR _pvalue$68894[ebp]
	mov	ecx, DWORD PTR [eax]
	push	ecx
	lea	ecx, DWORD PTR _output_stream$[ebp]
	call	?write_integer@pecker_write_stream_to_memery@pecker_sdk@@UAEJH@Z ; pecker_sdk::pecker_write_stream_to_memery::write_integer

; 733  : 		}
; 734  : 		else

	jmp	SHORT $LN6@array_stac
$LN7@array_stac:

; 735  : 		{
; 736  : 			output_stream.write_chars("null\n",6);

	push	6
	push	OFFSET ??_C@_05IHCDMNLM@null?6?$AA@
	lea	ecx, DWORD PTR _output_stream$[ebp]
	call	?write_chars@pecker_write_stream_to_memery@pecker_sdk@@UAEHPADH@Z ; pecker_sdk::pecker_write_stream_to_memery::write_chars

; 737  : 			break;

	jmp	SHORT $LN8@array_stac
$LN6@array_stac:

; 738  : 		}
; 739  : 		output_stream.write_char(',');

	push	44					; 0000002cH
	lea	ecx, DWORD PTR _output_stream$[ebp]
	call	?write_char@pecker_write_stream_to_memery@pecker_sdk@@UAEJD@Z ; pecker_sdk::pecker_write_stream_to_memery::write_char

; 740  : 	}

	jmp	SHORT $LN9@array_stac
$LN8@array_stac:

; 741  : 	PECKER_LOG_INFO("array to be sort","%s",gstr_log_info);

	mov	esi, esp
	push	OFFSET ??_C@_09PALELKOJ@LOG_INFO?5?$AA@
	call	DWORD PTR __imp__printf
	add	esp, 4
	cmp	esi, esp
	call	__RTC_CheckEsp
	mov	esi, esp
	push	OFFSET ??_C@_0BB@GBNGOMJI@array?5to?5be?5sort?$AA@
	call	DWORD PTR __imp__printf
	add	esp, 4
	cmp	esi, esp
	call	__RTC_CheckEsp
	mov	esi, esp
	push	OFFSET ??_C@_01EEMJAFIK@?6?$AA@
	call	DWORD PTR __imp__printf
	add	esp, 4
	cmp	esi, esp
	call	__RTC_CheckEsp
	mov	esi, esp
	push	OFFSET _gstr_log_info
	push	OFFSET ??_C@_02DKCKIIND@?$CFs?$AA@
	call	DWORD PTR __imp__printf
	add	esp, 8
	cmp	esi, esp
	call	__RTC_CheckEsp
	mov	esi, esp
	push	OFFSET ??_C@_01EEMJAFIK@?6?$AA@
	call	DWORD PTR __imp__printf
	add	esp, 4
	cmp	esi, esp
	call	__RTC_CheckEsp

; 742  : 	output_stream.bind_write_buffer(gstr_log_info,MAX_LOG_STRING_INFO);

	push	4096					; 00001000H
	push	OFFSET _gstr_log_info
	lea	ecx, DWORD PTR _output_stream$[ebp]
	call	?bind_write_buffer@pecker_write_stream_to_memery@pecker_sdk@@QAEJPADH@Z ; pecker_sdk::pecker_write_stream_to_memery::bind_write_buffer

; 743  : 
; 744  : 	quick_sort_increment< int,pecker_value_compare<int>,pecker_stack_pool_array<int>,pecker_array_iterator< pecker_stack_pool_array<int> > >
; 745  : 		(array,array_iterator1,array_iterator2);

	lea	eax, DWORD PTR _array_iterator2$[ebp]
	push	eax
	lea	ecx, DWORD PTR _array_iterator1$[ebp]
	push	ecx
	lea	edx, DWORD PTR _array$[ebp]
	push	edx
	call	??$quick_sort_increment@HU?$pecker_value_compare@H@pecker_sdk@@V?$pecker_stack_pool_array@HV?$pecker_simple_allocator@H@pecker_sdk@@V?$pecker_simple_allocator@PAH@2@$0CAA@@2@V?$pecker_array_iterator@V?$pecker_stack_pool_array@HV?$pecker_simple_allocator@H@pecker_sdk@@V?$pecker_simple_allocator@PAH@2@$0CAA@@pecker_sdk@@@2@@pecker_sdk@@YAJAAV?$pecker_stack_pool_array@HV?$pecker_simple_allocator@H@pecker_sdk@@V?$pecker_simple_allocator@PAH@2@$0CAA@@0@ABV?$pecker_array_iterator@V?$pecker_stack_pool_array@HV?$pecker_simple_allocator@H@pecker_sdk@@V?$pecker_simple_allocator@PAH@2@$0CAA@@pecker_sdk@@@0@1@Z ; pecker_sdk::quick_sort_increment<int,pecker_sdk::pecker_value_compare<int>,pecker_sdk::pecker_stack_pool_array<int,pecker_sdk::pecker_simple_allocator<int>,pecker_sdk::pecker_simple_allocator<int *>,512>,pecker_sdk::pecker_array_iterator<pecker_sdk::pecker_stack_pool_array<int,pecker_sdk::pecker_simple_allocator<int>,pecker_sdk::pecker_simple_allocator<int *>,512> > >
	add	esp, 12					; 0000000cH

; 746  : 
; 747  : 	output_stream.bind_write_buffer(gstr_log_info,MAX_LOG_STRING_INFO);

	push	4096					; 00001000H
	push	OFFSET _gstr_log_info
	lea	ecx, DWORD PTR _output_stream$[ebp]
	call	?bind_write_buffer@pecker_write_stream_to_memery@pecker_sdk@@QAEJPADH@Z ; pecker_sdk::pecker_write_stream_to_memery::bind_write_buffer

; 748  : 	for (int i=0;i<50;++i)

	mov	DWORD PTR _i$68928[ebp], 0
	jmp	SHORT $LN5@array_stac
$LN4@array_stac:
	mov	eax, DWORD PTR _i$68928[ebp]
	add	eax, 1
	mov	DWORD PTR _i$68928[ebp], eax
$LN5@array_stac:
	cmp	DWORD PTR _i$68928[ebp], 50		; 00000032H
	jge	SHORT $LN3@array_stac

; 749  : 	{
; 750  : 		const int* pvalue = array.get_at(i);

	mov	eax, DWORD PTR _i$68928[ebp]
	push	eax
	lea	ecx, DWORD PTR _array$[ebp]
	call	?get_at@?$pecker_stack_pool_array@HV?$pecker_simple_allocator@H@pecker_sdk@@V?$pecker_simple_allocator@PAH@2@$0CAA@@pecker_sdk@@QBEPBHH@Z ; pecker_sdk::pecker_stack_pool_array<int,pecker_sdk::pecker_simple_allocator<int>,pecker_sdk::pecker_simple_allocator<int *>,512>::get_at
	mov	DWORD PTR _pvalue$68932[ebp], eax

; 751  : 		if (pvalue)

	cmp	DWORD PTR _pvalue$68932[ebp], 0
	je	SHORT $LN2@array_stac

; 752  : 		{
; 753  : 			output_stream.write_integer(*pvalue);

	mov	eax, DWORD PTR _pvalue$68932[ebp]
	mov	ecx, DWORD PTR [eax]
	push	ecx
	lea	ecx, DWORD PTR _output_stream$[ebp]
	call	?write_integer@pecker_write_stream_to_memery@pecker_sdk@@UAEJH@Z ; pecker_sdk::pecker_write_stream_to_memery::write_integer

; 754  : 		}
; 755  : 		else

	jmp	SHORT $LN1@array_stac
$LN2@array_stac:

; 756  : 		{
; 757  : 			output_stream.write_chars("null\n",6);

	push	6
	push	OFFSET ??_C@_05IHCDMNLM@null?6?$AA@
	lea	ecx, DWORD PTR _output_stream$[ebp]
	call	?write_chars@pecker_write_stream_to_memery@pecker_sdk@@UAEHPADH@Z ; pecker_sdk::pecker_write_stream_to_memery::write_chars

; 758  : 			break;

	jmp	SHORT $LN3@array_stac
$LN1@array_stac:

; 759  : 		}
; 760  : 		output_stream.write_char(',');

	push	44					; 0000002cH
	lea	ecx, DWORD PTR _output_stream$[ebp]
	call	?write_char@pecker_write_stream_to_memery@pecker_sdk@@UAEJD@Z ; pecker_sdk::pecker_write_stream_to_memery::write_char

; 761  : 	}

	jmp	SHORT $LN4@array_stac
$LN3@array_stac:

; 762  : 	PECKER_LOG_INFO("array  sorted","%s",gstr_log_info);

	mov	esi, esp
	push	OFFSET ??_C@_09PALELKOJ@LOG_INFO?5?$AA@
	call	DWORD PTR __imp__printf
	add	esp, 4
	cmp	esi, esp
	call	__RTC_CheckEsp
	mov	esi, esp
	push	OFFSET ??_C@_0O@MBCOGNKJ@array?5?5sorted?$AA@
	call	DWORD PTR __imp__printf
	add	esp, 4
	cmp	esi, esp
	call	__RTC_CheckEsp
	mov	esi, esp
	push	OFFSET ??_C@_01EEMJAFIK@?6?$AA@
	call	DWORD PTR __imp__printf
	add	esp, 4
	cmp	esi, esp
	call	__RTC_CheckEsp
	mov	esi, esp
	push	OFFSET _gstr_log_info
	push	OFFSET ??_C@_02DKCKIIND@?$CFs?$AA@
	call	DWORD PTR __imp__printf
	add	esp, 8
	cmp	esi, esp
	call	__RTC_CheckEsp
	mov	esi, esp
	push	OFFSET ??_C@_01EEMJAFIK@?6?$AA@
	call	DWORD PTR __imp__printf
	add	esp, 4
	cmp	esi, esp
	call	__RTC_CheckEsp

; 763  : 
; 764  : 
; 765  : 	array.clear(true);

	push	1
	lea	ecx, DWORD PTR _array$[ebp]
	call	?clear@?$pecker_stack_pool_array@HV?$pecker_simple_allocator@H@pecker_sdk@@V?$pecker_simple_allocator@PAH@2@$0CAA@@pecker_sdk@@QAEJ_N@Z ; pecker_sdk::pecker_stack_pool_array<int,pecker_sdk::pecker_simple_allocator<int>,pecker_sdk::pecker_simple_allocator<int *>,512>::clear

; 766  : 
; 767  : 	//int ibreak;
; 768  : 	//std::cin >> ibreak;
; 769  : 
; 770  : }

	mov	BYTE PTR __$EHRec$[ebp+8], 2
	lea	ecx, DWORD PTR _array_iterator2$[ebp]
	call	??1?$pecker_array_iterator@V?$pecker_stack_pool_array@HV?$pecker_simple_allocator@H@pecker_sdk@@V?$pecker_simple_allocator@PAH@2@$0CAA@@pecker_sdk@@@pecker_sdk@@UAE@XZ ; pecker_sdk::pecker_array_iterator<pecker_sdk::pecker_stack_pool_array<int,pecker_sdk::pecker_simple_allocator<int>,pecker_sdk::pecker_simple_allocator<int *>,512> >::~pecker_array_iterator<pecker_sdk::pecker_stack_pool_array<int,pecker_sdk::pecker_simple_allocator<int>,pecker_sdk::pecker_simple_allocator<int *>,512> >
	mov	BYTE PTR __$EHRec$[ebp+8], 1
	lea	ecx, DWORD PTR _array_iterator1$[ebp]
	call	??1?$pecker_array_iterator@V?$pecker_stack_pool_array@HV?$pecker_simple_allocator@H@pecker_sdk@@V?$pecker_simple_allocator@PAH@2@$0CAA@@pecker_sdk@@@pecker_sdk@@UAE@XZ ; pecker_sdk::pecker_array_iterator<pecker_sdk::pecker_stack_pool_array<int,pecker_sdk::pecker_simple_allocator<int>,pecker_sdk::pecker_simple_allocator<int *>,512> >::~pecker_array_iterator<pecker_sdk::pecker_stack_pool_array<int,pecker_sdk::pecker_simple_allocator<int>,pecker_sdk::pecker_simple_allocator<int *>,512> >
	mov	BYTE PTR __$EHRec$[ebp+8], 0
	lea	ecx, DWORD PTR _array$[ebp]
	call	??1?$pecker_stack_pool_array@HV?$pecker_simple_allocator@H@pecker_sdk@@V?$pecker_simple_allocator@PAH@2@$0CAA@@pecker_sdk@@QAE@XZ ; pecker_sdk::pecker_stack_pool_array<int,pecker_sdk::pecker_simple_allocator<int>,pecker_sdk::pecker_simple_allocator<int *>,512>::~pecker_stack_pool_array<int,pecker_sdk::pecker_simple_allocator<int>,pecker_sdk::pecker_simple_allocator<int *>,512>
	mov	DWORD PTR __$EHRec$[ebp+8], -1
	lea	ecx, DWORD PTR _output_stream$[ebp]
	call	??1pecker_write_stream_to_memery@pecker_sdk@@UAE@XZ ; pecker_sdk::pecker_write_stream_to_memery::~pecker_write_stream_to_memery
	push	edx
	mov	ecx, ebp
	push	eax
	lea	edx, DWORD PTR $LN68@array_stac
	call	@_RTC_CheckStackVars@8
	pop	eax
	pop	edx
	mov	ecx, DWORD PTR __$EHRec$[ebp]
	mov	DWORD PTR fs:0, ecx
	pop	ecx
	pop	edi
	pop	esi
	pop	ebx
	mov	ecx, DWORD PTR __$ArrayPad$[ebp]
	xor	ecx, ebp
	call	@__security_check_cookie@4
	add	esp, 1052				; 0000041cH
	cmp	ebp, esp
	call	__RTC_CheckEsp
	mov	esp, ebp
	pop	ebp
	ret	0
	npad	1
$LN68@array_stac:
	DD	8
	DD	$LN67@array_stac
$LN67@array_stac:
	DD	-60					; ffffffc4H
	DD	40					; 00000028H
	DD	$LN58@array_stac
	DD	-588					; fffffdb4H
	DD	520					; 00000208H
	DD	$LN59@array_stac
	DD	-600					; fffffda8H
	DD	4
	DD	$LN60@array_stac
	DD	-620					; fffffd94H
	DD	12					; 0000000cH
	DD	$LN61@array_stac
	DD	-668					; fffffd64H
	DD	4
	DD	$LN62@array_stac
	DD	-740					; fffffd1cH
	DD	4
	DD	$LN63@array_stac
	DD	-784					; fffffcf0H
	DD	12					; 0000000cH
	DD	$LN64@array_stac
	DD	-796					; fffffce4H
	DD	4
	DD	$LN65@array_stac
$LN65@array_stac:
	DB	105					; 00000069H
	DB	115					; 00000073H
	DB	101					; 00000065H
	DB	116					; 00000074H
	DB	118					; 00000076H
	DB	97					; 00000061H
	DB	108					; 0000006cH
	DB	0
$LN64@array_stac:
	DB	97					; 00000061H
	DB	114					; 00000072H
	DB	114					; 00000072H
	DB	97					; 00000061H
	DB	121					; 00000079H
	DB	95					; 0000005fH
	DB	105					; 00000069H
	DB	116					; 00000074H
	DB	101					; 00000065H
	DB	114					; 00000072H
	DB	97					; 00000061H
	DB	116					; 00000074H
	DB	111					; 0000006fH
	DB	114					; 00000072H
	DB	50					; 00000032H
	DB	0
$LN63@array_stac:
	DB	105					; 00000069H
	DB	0
$LN62@array_stac:
	DB	105					; 00000069H
	DB	0
$LN61@array_stac:
	DB	97					; 00000061H
	DB	114					; 00000072H
	DB	114					; 00000072H
	DB	97					; 00000061H
	DB	121					; 00000079H
	DB	95					; 0000005fH
	DB	105					; 00000069H
	DB	116					; 00000074H
	DB	101					; 00000065H
	DB	114					; 00000072H
	DB	97					; 00000061H
	DB	116					; 00000074H
	DB	111					; 0000006fH
	DB	114					; 00000072H
	DB	49					; 00000031H
	DB	0
$LN60@array_stac:
	DB	105					; 00000069H
	DB	0
$LN59@array_stac:
	DB	97					; 00000061H
	DB	114					; 00000072H
	DB	114					; 00000072H
	DB	97					; 00000061H
	DB	121					; 00000079H
	DB	0
$LN58@array_stac:
	DB	111					; 0000006fH
	DB	117					; 00000075H
	DB	116					; 00000074H
	DB	112					; 00000070H
	DB	117					; 00000075H
	DB	116					; 00000074H
	DB	95					; 0000005fH
	DB	115					; 00000073H
	DB	116					; 00000074H
	DB	114					; 00000072H
	DB	101					; 00000065H
	DB	97					; 00000061H
	DB	109					; 0000006dH
	DB	0
_TEXT	ENDS
;	COMDAT text$x
text$x	SEGMENT
__unwindfunclet$?array_stack_pool_test_main@@YAXXZ$0:
	lea	ecx, DWORD PTR _output_stream$[ebp]
	jmp	??1pecker_write_stream_to_memery@pecker_sdk@@UAE@XZ ; pecker_sdk::pecker_write_stream_to_memery::~pecker_write_stream_to_memery
__unwindfunclet$?array_stack_pool_test_main@@YAXXZ$1:
	lea	ecx, DWORD PTR _array$[ebp]
	jmp	??1?$pecker_stack_pool_array@HV?$pecker_simple_allocator@H@pecker_sdk@@V?$pecker_simple_allocator@PAH@2@$0CAA@@pecker_sdk@@QAE@XZ ; pecker_sdk::pecker_stack_pool_array<int,pecker_sdk::pecker_simple_allocator<int>,pecker_sdk::pecker_simple_allocator<int *>,512>::~pecker_stack_pool_array<int,pecker_sdk::pecker_simple_allocator<int>,pecker_sdk::pecker_simple_allocator<int *>,512>
__unwindfunclet$?array_stack_pool_test_main@@YAXXZ$2:
	lea	ecx, DWORD PTR _array_iterator1$[ebp]
	jmp	??1?$pecker_array_iterator@V?$pecker_stack_pool_array@HV?$pecker_simple_allocator@H@pecker_sdk@@V?$pecker_simple_allocator@PAH@2@$0CAA@@pecker_sdk@@@pecker_sdk@@UAE@XZ ; pecker_sdk::pecker_array_iterator<pecker_sdk::pecker_stack_pool_array<int,pecker_sdk::pecker_simple_allocator<int>,pecker_sdk::pecker_simple_allocator<int *>,512> >::~pecker_array_iterator<pecker_sdk::pecker_stack_pool_array<int,pecker_sdk::pecker_simple_allocator<int>,pecker_sdk::pecker_simple_allocator<int *>,512> >
__unwindfunclet$?array_stack_pool_test_main@@YAXXZ$3:
	lea	ecx, DWORD PTR _array_iterator2$[ebp]
	jmp	??1?$pecker_array_iterator@V?$pecker_stack_pool_array@HV?$pecker_simple_allocator@H@pecker_sdk@@V?$pecker_simple_allocator@PAH@2@$0CAA@@pecker_sdk@@@pecker_sdk@@UAE@XZ ; pecker_sdk::pecker_array_iterator<pecker_sdk::pecker_stack_pool_array<int,pecker_sdk::pecker_simple_allocator<int>,pecker_sdk::pecker_simple_allocator<int *>,512> >::~pecker_array_iterator<pecker_sdk::pecker_stack_pool_array<int,pecker_sdk::pecker_simple_allocator<int>,pecker_sdk::pecker_simple_allocator<int *>,512> >
__ehhandler$?array_stack_pool_test_main@@YAXXZ:
	mov	edx, DWORD PTR [esp+8]
	lea	eax, DWORD PTR [edx+12]
	mov	ecx, DWORD PTR [edx-1056]
	xor	ecx, eax
	call	@__security_check_cookie@4
	mov	ecx, DWORD PTR [edx-4]
	xor	ecx, eax
	call	@__security_check_cookie@4
	mov	eax, OFFSET __ehfuncinfo$?array_stack_pool_test_main@@YAXXZ
	jmp	___CxxFrameHandler3
text$x	ENDS
?array_stack_pool_test_main@@YAXXZ ENDP			; array_stack_pool_test_main
PUBLIC	??_7?$pecker_array@HV?$pecker_simple_allocator@H@pecker_sdk@@@pecker_sdk@@6B@ ; pecker_sdk::pecker_array<int,pecker_sdk::pecker_simple_allocator<int> >::`vftable'
PUBLIC	??_R4?$pecker_array@HV?$pecker_simple_allocator@H@pecker_sdk@@@pecker_sdk@@6B@ ; pecker_sdk::pecker_array<int,pecker_sdk::pecker_simple_allocator<int> >::`RTTI Complete Object Locator'
PUBLIC	??_R0?AV?$pecker_array@HV?$pecker_simple_allocator@H@pecker_sdk@@@pecker_sdk@@@8 ; pecker_sdk::pecker_array<int,pecker_sdk::pecker_simple_allocator<int> > `RTTI Type Descriptor'
PUBLIC	??_R3?$pecker_array@HV?$pecker_simple_allocator@H@pecker_sdk@@@pecker_sdk@@8 ; pecker_sdk::pecker_array<int,pecker_sdk::pecker_simple_allocator<int> >::`RTTI Class Hierarchy Descriptor'
PUBLIC	??_R2?$pecker_array@HV?$pecker_simple_allocator@H@pecker_sdk@@@pecker_sdk@@8 ; pecker_sdk::pecker_array<int,pecker_sdk::pecker_simple_allocator<int> >::`RTTI Base Class Array'
PUBLIC	??_R1A@?0A@EA@?$pecker_array@HV?$pecker_simple_allocator@H@pecker_sdk@@@pecker_sdk@@8 ; pecker_sdk::pecker_array<int,pecker_sdk::pecker_simple_allocator<int> >::`RTTI Base Class Descriptor at (0,-1,0,64)'
EXTRN	??_7type_info@@6B@:QWORD			; type_info::`vftable'
EXTRN	??_E?$pecker_array@HV?$pecker_simple_allocator@H@pecker_sdk@@@pecker_sdk@@UAEPAXI@Z:PROC ; pecker_sdk::pecker_array<int,pecker_sdk::pecker_simple_allocator<int> >::`vector deleting destructor'
;	COMDAT ??_R1A@?0A@EA@?$pecker_array@HV?$pecker_simple_allocator@H@pecker_sdk@@@pecker_sdk@@8
; File f:\codes\pecker_framework_git\pecker_src\pecker_framework\data\pecker_array.h
rdata$r	SEGMENT
??_R1A@?0A@EA@?$pecker_array@HV?$pecker_simple_allocator@H@pecker_sdk@@@pecker_sdk@@8 DD FLAT:??_R0?AV?$pecker_array@HV?$pecker_simple_allocator@H@pecker_sdk@@@pecker_sdk@@@8 ; pecker_sdk::pecker_array<int,pecker_sdk::pecker_simple_allocator<int> >::`RTTI Base Class Descriptor at (0,-1,0,64)'
	DD	00H
	DD	00H
	DD	0ffffffffH
	DD	00H
	DD	040H
	DD	FLAT:??_R3?$pecker_array@HV?$pecker_simple_allocator@H@pecker_sdk@@@pecker_sdk@@8
rdata$r	ENDS
;	COMDAT ??_R2?$pecker_array@HV?$pecker_simple_allocator@H@pecker_sdk@@@pecker_sdk@@8
rdata$r	SEGMENT
??_R2?$pecker_array@HV?$pecker_simple_allocator@H@pecker_sdk@@@pecker_sdk@@8 DD FLAT:??_R1A@?0A@EA@?$pecker_array@HV?$pecker_simple_allocator@H@pecker_sdk@@@pecker_sdk@@8 ; pecker_sdk::pecker_array<int,pecker_sdk::pecker_simple_allocator<int> >::`RTTI Base Class Array'
rdata$r	ENDS
;	COMDAT ??_R3?$pecker_array@HV?$pecker_simple_allocator@H@pecker_sdk@@@pecker_sdk@@8
rdata$r	SEGMENT
??_R3?$pecker_array@HV?$pecker_simple_allocator@H@pecker_sdk@@@pecker_sdk@@8 DD 00H ; pecker_sdk::pecker_array<int,pecker_sdk::pecker_simple_allocator<int> >::`RTTI Class Hierarchy Descriptor'
	DD	00H
	DD	01H
	DD	FLAT:??_R2?$pecker_array@HV?$pecker_simple_allocator@H@pecker_sdk@@@pecker_sdk@@8
rdata$r	ENDS
;	COMDAT ??_R0?AV?$pecker_array@HV?$pecker_simple_allocator@H@pecker_sdk@@@pecker_sdk@@@8
_DATA	SEGMENT
??_R0?AV?$pecker_array@HV?$pecker_simple_allocator@H@pecker_sdk@@@pecker_sdk@@@8 DD FLAT:??_7type_info@@6B@ ; pecker_sdk::pecker_array<int,pecker_sdk::pecker_simple_allocator<int> > `RTTI Type Descriptor'
	DD	00H
	DB	'.?AV?$pecker_array@HV?$pecker_simple_allocator@H@pecker_'
	DB	'sdk@@@pecker_sdk@@', 00H
_DATA	ENDS
;	COMDAT ??_R4?$pecker_array@HV?$pecker_simple_allocator@H@pecker_sdk@@@pecker_sdk@@6B@
rdata$r	SEGMENT
??_R4?$pecker_array@HV?$pecker_simple_allocator@H@pecker_sdk@@@pecker_sdk@@6B@ DD 00H ; pecker_sdk::pecker_array<int,pecker_sdk::pecker_simple_allocator<int> >::`RTTI Complete Object Locator'
	DD	00H
	DD	00H
	DD	FLAT:??_R0?AV?$pecker_array@HV?$pecker_simple_allocator@H@pecker_sdk@@@pecker_sdk@@@8
	DD	FLAT:??_R3?$pecker_array@HV?$pecker_simple_allocator@H@pecker_sdk@@@pecker_sdk@@8
rdata$r	ENDS
;	COMDAT ??_7?$pecker_array@HV?$pecker_simple_allocator@H@pecker_sdk@@@pecker_sdk@@6B@
CONST	SEGMENT
??_7?$pecker_array@HV?$pecker_simple_allocator@H@pecker_sdk@@@pecker_sdk@@6B@ DD FLAT:??_R4?$pecker_array@HV?$pecker_simple_allocator@H@pecker_sdk@@@pecker_sdk@@6B@ ; pecker_sdk::pecker_array<int,pecker_sdk::pecker_simple_allocator<int> >::`vftable'
	DD	FLAT:??_E?$pecker_array@HV?$pecker_simple_allocator@H@pecker_sdk@@@pecker_sdk@@UAEPAXI@Z
; Function compile flags: /Odtp /RTCsu /ZI
CONST	ENDS
;	COMDAT ??0?$pecker_array@HV?$pecker_simple_allocator@H@pecker_sdk@@@pecker_sdk@@QAE@H@Z
_TEXT	SEGMENT
_this$ = -8						; size = 4
_auto_allocate_size$ = 8				; size = 4
??0?$pecker_array@HV?$pecker_simple_allocator@H@pecker_sdk@@@pecker_sdk@@QAE@H@Z PROC ; pecker_sdk::pecker_array<int,pecker_sdk::pecker_simple_allocator<int> >::pecker_array<int,pecker_sdk::pecker_simple_allocator<int> >, COMDAT
; _this$ = ecx

; 32   : 	{

	push	ebp
	mov	ebp, esp
	sub	esp, 204				; 000000ccH
	push	ebx
	push	esi
	push	edi
	push	ecx
	lea	edi, DWORD PTR [ebp-204]
	mov	ecx, 51					; 00000033H
	mov	eax, -858993460				; ccccccccH
	rep stosd
	pop	ecx
	mov	DWORD PTR _this$[ebp], ecx
	mov	eax, DWORD PTR _this$[ebp]
	mov	DWORD PTR [eax], OFFSET ??_7?$pecker_array@HV?$pecker_simple_allocator@H@pecker_sdk@@@pecker_sdk@@6B@
	mov	eax, DWORD PTR _this$[ebp]
	mov	DWORD PTR [eax+4], 0
	mov	eax, DWORD PTR _this$[ebp]
	mov	DWORD PTR [eax+8], 0
	mov	eax, DWORD PTR _this$[ebp]
	mov	DWORD PTR [eax+12], 0
	mov	eax, DWORD PTR _this$[ebp]
	mov	ecx, DWORD PTR _auto_allocate_size$[ebp]
	mov	DWORD PTR [eax+16], ecx

; 33   : 		if (_M_auto_allocate_step <= 0)

	mov	eax, DWORD PTR _this$[ebp]
	cmp	DWORD PTR [eax+16], 0
	jg	SHORT $LN2@pecker_arr

; 34   : 		{
; 35   : 			_M_auto_allocate_step = ARRAY_DEFAULT_ALLOCATE_STEP;

	mov	eax, DWORD PTR _this$[ebp]
	mov	DWORD PTR [eax+16], 16			; 00000010H
$LN2@pecker_arr:

; 36   : 		}
; 37   : 	}

	mov	eax, DWORD PTR _this$[ebp]
	pop	edi
	pop	esi
	pop	ebx
	mov	esp, ebp
	pop	ebp
	ret	4
??0?$pecker_array@HV?$pecker_simple_allocator@H@pecker_sdk@@@pecker_sdk@@QAE@H@Z ENDP ; pecker_sdk::pecker_array<int,pecker_sdk::pecker_simple_allocator<int> >::pecker_array<int,pecker_sdk::pecker_simple_allocator<int> >
; Function compile flags: /Odtp /RTCsu /ZI
_TEXT	ENDS
;	COMDAT ??1?$pecker_array@HV?$pecker_simple_allocator@H@pecker_sdk@@@pecker_sdk@@UAE@XZ
_TEXT	SEGMENT
_this$ = -8						; size = 4
??1?$pecker_array@HV?$pecker_simple_allocator@H@pecker_sdk@@@pecker_sdk@@UAE@XZ PROC ; pecker_sdk::pecker_array<int,pecker_sdk::pecker_simple_allocator<int> >::~pecker_array<int,pecker_sdk::pecker_simple_allocator<int> >, COMDAT
; _this$ = ecx

; 53   : 	{

	push	ebp
	mov	ebp, esp
	sub	esp, 204				; 000000ccH
	push	ebx
	push	esi
	push	edi
	push	ecx
	lea	edi, DWORD PTR [ebp-204]
	mov	ecx, 51					; 00000033H
	mov	eax, -858993460				; ccccccccH
	rep stosd
	pop	ecx
	mov	DWORD PTR _this$[ebp], ecx
	mov	eax, DWORD PTR _this$[ebp]
	mov	DWORD PTR [eax], OFFSET ??_7?$pecker_array@HV?$pecker_simple_allocator@H@pecker_sdk@@@pecker_sdk@@6B@

; 54   : 		clear(ARRAY_BOOLEAN_TRUE);

	push	1
	mov	ecx, DWORD PTR _this$[ebp]
	call	?clear@?$pecker_array@HV?$pecker_simple_allocator@H@pecker_sdk@@@pecker_sdk@@QAEJ_N@Z ; pecker_sdk::pecker_array<int,pecker_sdk::pecker_simple_allocator<int> >::clear

; 55   : 	}

	pop	edi
	pop	esi
	pop	ebx
	add	esp, 204				; 000000ccH
	cmp	ebp, esp
	call	__RTC_CheckEsp
	mov	esp, ebp
	pop	ebp
	ret	0
??1?$pecker_array@HV?$pecker_simple_allocator@H@pecker_sdk@@@pecker_sdk@@UAE@XZ ENDP ; pecker_sdk::pecker_array<int,pecker_sdk::pecker_simple_allocator<int> >::~pecker_array<int,pecker_sdk::pecker_simple_allocator<int> >
; Function compile flags: /Odtp /RTCsu /ZI
_TEXT	ENDS
;	COMDAT ?init@?$pecker_array@HV?$pecker_simple_allocator@H@pecker_sdk@@@pecker_sdk@@QAEJHH@Z
_TEXT	SEGMENT
_resize_result$ = -20					; size = 4
_this$ = -8						; size = 4
_init_size$ = 8						; size = 4
_auto_allocate_size$ = 12				; size = 4
?init@?$pecker_array@HV?$pecker_simple_allocator@H@pecker_sdk@@@pecker_sdk@@QAEJHH@Z PROC ; pecker_sdk::pecker_array<int,pecker_sdk::pecker_simple_allocator<int> >::init, COMDAT
; _this$ = ecx

; 116  : 	{

	push	ebp
	mov	ebp, esp
	sub	esp, 216				; 000000d8H
	push	ebx
	push	esi
	push	edi
	push	ecx
	lea	edi, DWORD PTR [ebp-216]
	mov	ecx, 54					; 00000036H
	mov	eax, -858993460				; ccccccccH
	rep stosd
	pop	ecx
	mov	DWORD PTR _this$[ebp], ecx

; 117  : 		if (init_size <= 0)

	cmp	DWORD PTR _init_size$[ebp], 0
	jg	SHORT $LN2@init

; 118  : 		{
; 119  : 			init_size = 1;

	mov	DWORD PTR _init_size$[ebp], 1
$LN2@init:

; 120  : 		}
; 121  : 		array_result resize_result = resize(init_size,auto_allocate_size);

	push	0
	mov	eax, DWORD PTR _auto_allocate_size$[ebp]
	push	eax
	mov	ecx, DWORD PTR _init_size$[ebp]
	push	ecx
	mov	ecx, DWORD PTR _this$[ebp]
	call	?resize@?$pecker_array@HV?$pecker_simple_allocator@H@pecker_sdk@@@pecker_sdk@@QAEJHH_N@Z ; pecker_sdk::pecker_array<int,pecker_sdk::pecker_simple_allocator<int> >::resize
	mov	DWORD PTR _resize_result$[ebp], eax

; 122  : 		if (P_OK == resize_result)

	cmp	DWORD PTR _resize_result$[ebp], 0
	jne	SHORT $LN1@init

; 123  : 		{
; 124  : 			_M_array_size = 0;

	mov	eax, DWORD PTR _this$[ebp]
	mov	DWORD PTR [eax+8], 0
$LN1@init:

; 125  : 		}
; 126  : 		return resize_result;

	mov	eax, DWORD PTR _resize_result$[ebp]

; 127  : 	}

	pop	edi
	pop	esi
	pop	ebx
	add	esp, 216				; 000000d8H
	cmp	ebp, esp
	call	__RTC_CheckEsp
	mov	esp, ebp
	pop	ebp
	ret	8
?init@?$pecker_array@HV?$pecker_simple_allocator@H@pecker_sdk@@@pecker_sdk@@QAEJHH@Z ENDP ; pecker_sdk::pecker_array<int,pecker_sdk::pecker_simple_allocator<int> >::init
; Function compile flags: /Odtp /RTCsu /ZI
_TEXT	ENDS
;	COMDAT ?get_at@?$pecker_array@HV?$pecker_simple_allocator@H@pecker_sdk@@@pecker_sdk@@QBEPBHH@Z
_TEXT	SEGMENT
_this$ = -8						; size = 4
_index$ = 8						; size = 4
?get_at@?$pecker_array@HV?$pecker_simple_allocator@H@pecker_sdk@@@pecker_sdk@@QBEPBHH@Z PROC ; pecker_sdk::pecker_array<int,pecker_sdk::pecker_simple_allocator<int> >::get_at, COMDAT
; _this$ = ecx

; 155  : 	{

	push	ebp
	mov	ebp, esp
	sub	esp, 204				; 000000ccH
	push	ebx
	push	esi
	push	edi
	push	ecx
	lea	edi, DWORD PTR [ebp-204]
	mov	ecx, 51					; 00000033H
	mov	eax, -858993460				; ccccccccH
	rep stosd
	pop	ecx
	mov	DWORD PTR _this$[ebp], ecx

; 156  : 		if (index >=0 && index < _M_array_size)

	cmp	DWORD PTR _index$[ebp], 0
	jl	SHORT $LN2@get_at
	mov	eax, DWORD PTR _this$[ebp]
	mov	ecx, DWORD PTR _index$[ebp]
	cmp	ecx, DWORD PTR [eax+8]
	jge	SHORT $LN2@get_at

; 157  : 		{
; 158  : 			return &_M_parray_buffer[index];

	mov	eax, DWORD PTR _this$[ebp]
	mov	ecx, DWORD PTR [eax+4]
	mov	edx, DWORD PTR _index$[ebp]
	lea	eax, DWORD PTR [ecx+edx*4]
	jmp	SHORT $LN3@get_at

; 159  : 		}
; 160  : 		else

	jmp	SHORT $LN3@get_at
$LN2@get_at:

; 161  : 		{
; 162  : 			return null;

	xor	eax, eax
$LN3@get_at:

; 163  : 		}
; 164  : 	}

	pop	edi
	pop	esi
	pop	ebx
	mov	esp, ebp
	pop	ebp
	ret	4
?get_at@?$pecker_array@HV?$pecker_simple_allocator@H@pecker_sdk@@@pecker_sdk@@QBEPBHH@Z ENDP ; pecker_sdk::pecker_array<int,pecker_sdk::pecker_simple_allocator<int> >::get_at
; Function compile flags: /Odtp /RTCsu /ZI
_TEXT	ENDS
;	COMDAT ?set_at@?$pecker_array@HV?$pecker_simple_allocator@H@pecker_sdk@@@pecker_sdk@@QAEJHABH@Z
_TEXT	SEGMENT
_this$ = -8						; size = 4
_index$ = 8						; size = 4
_set_item$ = 12						; size = 4
?set_at@?$pecker_array@HV?$pecker_simple_allocator@H@pecker_sdk@@@pecker_sdk@@QAEJHABH@Z PROC ; pecker_sdk::pecker_array<int,pecker_sdk::pecker_simple_allocator<int> >::set_at, COMDAT
; _this$ = ecx

; 177  : 	{

	push	ebp
	mov	ebp, esp
	sub	esp, 204				; 000000ccH
	push	ebx
	push	esi
	push	edi
	push	ecx
	lea	edi, DWORD PTR [ebp-204]
	mov	ecx, 51					; 00000033H
	mov	eax, -858993460				; ccccccccH
	rep stosd
	pop	ecx
	mov	DWORD PTR _this$[ebp], ecx

; 178  : 		if (index >=0 && index < _M_array_size)

	cmp	DWORD PTR _index$[ebp], 0
	jl	SHORT $LN2@set_at
	mov	eax, DWORD PTR _this$[ebp]
	mov	ecx, DWORD PTR _index$[ebp]
	cmp	ecx, DWORD PTR [eax+8]
	jge	SHORT $LN2@set_at

; 179  : 		{
; 180  : 			_M_parray_buffer[index] = set_item;

	mov	eax, DWORD PTR _this$[ebp]
	mov	ecx, DWORD PTR [eax+4]
	mov	edx, DWORD PTR _index$[ebp]
	mov	eax, DWORD PTR _set_item$[ebp]
	mov	eax, DWORD PTR [eax]
	mov	DWORD PTR [ecx+edx*4], eax

; 181  : 			return P_OK;

	xor	eax, eax
	jmp	SHORT $LN3@set_at

; 182  : 		}
; 183  : 		else

	jmp	SHORT $LN3@set_at
$LN2@set_at:

; 184  : 		{
; 185  : 			return P_ERR;

	or	eax, -1
$LN3@set_at:

; 186  : 		}
; 187  : 	}

	pop	edi
	pop	esi
	pop	ebx
	mov	esp, ebp
	pop	ebp
	ret	8
?set_at@?$pecker_array@HV?$pecker_simple_allocator@H@pecker_sdk@@@pecker_sdk@@QAEJHABH@Z ENDP ; pecker_sdk::pecker_array<int,pecker_sdk::pecker_simple_allocator<int> >::set_at
_TEXT	ENDS
PUBLIC	??$resize_array@HV?$pecker_simple_allocator@H@pecker_sdk@@@pecker_sdk@@YAJAAPAHHAAHHH_N2@Z ; pecker_sdk::resize_array<int,pecker_sdk::pecker_simple_allocator<int> >
; Function compile flags: /Odtp /RTCsu /ZI
;	COMDAT ?resize@?$pecker_array@HV?$pecker_simple_allocator@H@pecker_sdk@@@pecker_sdk@@QAEJHH_N@Z
_TEXT	SEGMENT
_resize_result$ = -20					; size = 4
_this$ = -8						; size = 4
_resize_size$ = 8					; size = 4
_auto_allocate_size$ = 12				; size = 4
_bForce_release$ = 16					; size = 1
?resize@?$pecker_array@HV?$pecker_simple_allocator@H@pecker_sdk@@@pecker_sdk@@QAEJHH_N@Z PROC ; pecker_sdk::pecker_array<int,pecker_sdk::pecker_simple_allocator<int> >::resize, COMDAT
; _this$ = ecx

; 192  : 	{

	push	ebp
	mov	ebp, esp
	sub	esp, 216				; 000000d8H
	push	ebx
	push	esi
	push	edi
	push	ecx
	lea	edi, DWORD PTR [ebp-216]
	mov	ecx, 54					; 00000036H
	mov	eax, -858993460				; ccccccccH
	rep stosd
	pop	ecx
	mov	DWORD PTR _this$[ebp], ecx

; 193  : 		if (auto_allocate_size <= 0)

	cmp	DWORD PTR _auto_allocate_size$[ebp], 0
	jg	SHORT $LN2@resize

; 194  : 		{
; 195  : 			auto_allocate_size = _M_auto_allocate_step;

	mov	eax, DWORD PTR _this$[ebp]
	mov	ecx, DWORD PTR [eax+16]
	mov	DWORD PTR _auto_allocate_size$[ebp], ecx
$LN2@resize:

; 196  : 		}
; 197  : 		array_result resize_result = resize_array< class_type, allocate_object_t >(_M_parray_buffer,_M_array_size,
; 198  : 			_M_array_buffer_size,
; 199  : 			resize_size,
; 200  : 			auto_allocate_size,
; 201  : 			bForce_release,
; 202  : 			ARRAY_BOOLEAN_FLASE);

	push	0
	movzx	eax, BYTE PTR _bForce_release$[ebp]
	push	eax
	mov	ecx, DWORD PTR _auto_allocate_size$[ebp]
	push	ecx
	mov	edx, DWORD PTR _resize_size$[ebp]
	push	edx
	mov	eax, DWORD PTR _this$[ebp]
	add	eax, 12					; 0000000cH
	push	eax
	mov	ecx, DWORD PTR _this$[ebp]
	mov	edx, DWORD PTR [ecx+8]
	push	edx
	mov	eax, DWORD PTR _this$[ebp]
	add	eax, 4
	push	eax
	call	??$resize_array@HV?$pecker_simple_allocator@H@pecker_sdk@@@pecker_sdk@@YAJAAPAHHAAHHH_N2@Z ; pecker_sdk::resize_array<int,pecker_sdk::pecker_simple_allocator<int> >
	add	esp, 28					; 0000001cH
	mov	DWORD PTR _resize_result$[ebp], eax

; 203  : 
; 204  : 		if (P_OK == resize_result)

	cmp	DWORD PTR _resize_result$[ebp], 0
	jne	SHORT $LN1@resize

; 205  : 		{
; 206  : 			_M_array_size = resize_size;

	mov	eax, DWORD PTR _this$[ebp]
	mov	ecx, DWORD PTR _resize_size$[ebp]
	mov	DWORD PTR [eax+8], ecx

; 207  : 			_M_auto_allocate_step = auto_allocate_size;

	mov	eax, DWORD PTR _this$[ebp]
	mov	ecx, DWORD PTR _auto_allocate_size$[ebp]
	mov	DWORD PTR [eax+16], ecx
$LN1@resize:

; 208  : 		}
; 209  : 
; 210  : 		return resize_result;

	mov	eax, DWORD PTR _resize_result$[ebp]

; 211  : 	}

	pop	edi
	pop	esi
	pop	ebx
	add	esp, 216				; 000000d8H
	cmp	ebp, esp
	call	__RTC_CheckEsp
	mov	esp, ebp
	pop	ebp
	ret	12					; 0000000cH
?resize@?$pecker_array@HV?$pecker_simple_allocator@H@pecker_sdk@@@pecker_sdk@@QAEJHH_N@Z ENDP ; pecker_sdk::pecker_array<int,pecker_sdk::pecker_simple_allocator<int> >::resize
; Function compile flags: /Odtp /RTCsu /ZI
_TEXT	ENDS
;	COMDAT ?clear@?$pecker_array@HV?$pecker_simple_allocator@H@pecker_sdk@@@pecker_sdk@@QAEJ_N@Z
_TEXT	SEGMENT
_this$ = -8						; size = 4
_bForce_release$ = 8					; size = 1
?clear@?$pecker_array@HV?$pecker_simple_allocator@H@pecker_sdk@@@pecker_sdk@@QAEJ_N@Z PROC ; pecker_sdk::pecker_array<int,pecker_sdk::pecker_simple_allocator<int> >::clear, COMDAT
; _this$ = ecx

; 213  : 	{

	push	ebp
	mov	ebp, esp
	sub	esp, 204				; 000000ccH
	push	ebx
	push	esi
	push	edi
	push	ecx
	lea	edi, DWORD PTR [ebp-204]
	mov	ecx, 51					; 00000033H
	mov	eax, -858993460				; ccccccccH
	rep stosd
	pop	ecx
	mov	DWORD PTR _this$[ebp], ecx

; 214  : 		return resize(0,-1,bForce_release);

	movzx	eax, BYTE PTR _bForce_release$[ebp]
	push	eax
	push	-1
	push	0
	mov	ecx, DWORD PTR _this$[ebp]
	call	?resize@?$pecker_array@HV?$pecker_simple_allocator@H@pecker_sdk@@@pecker_sdk@@QAEJHH_N@Z ; pecker_sdk::pecker_array<int,pecker_sdk::pecker_simple_allocator<int> >::resize

; 215  : 	}

	pop	edi
	pop	esi
	pop	ebx
	add	esp, 204				; 000000ccH
	cmp	ebp, esp
	call	__RTC_CheckEsp
	mov	esp, ebp
	pop	ebp
	ret	4
?clear@?$pecker_array@HV?$pecker_simple_allocator@H@pecker_sdk@@@pecker_sdk@@QAEJ_N@Z ENDP ; pecker_sdk::pecker_array<int,pecker_sdk::pecker_simple_allocator<int> >::clear
; Function compile flags: /Odtp /RTCsu /ZI
_TEXT	ENDS
;	COMDAT ?push@?$pecker_array@HV?$pecker_simple_allocator@H@pecker_sdk@@@pecker_sdk@@QAEJABH@Z
_TEXT	SEGMENT
_resize_result$ = -20					; size = 4
_this$ = -8						; size = 4
_set_item$ = 8						; size = 4
?push@?$pecker_array@HV?$pecker_simple_allocator@H@pecker_sdk@@@pecker_sdk@@QAEJABH@Z PROC ; pecker_sdk::pecker_array<int,pecker_sdk::pecker_simple_allocator<int> >::push, COMDAT
; _this$ = ecx

; 223  : 	{

	push	ebp
	mov	ebp, esp
	sub	esp, 216				; 000000d8H
	push	ebx
	push	esi
	push	edi
	push	ecx
	lea	edi, DWORD PTR [ebp-216]
	mov	ecx, 54					; 00000036H
	mov	eax, -858993460				; ccccccccH
	rep stosd
	pop	ecx
	mov	DWORD PTR _this$[ebp], ecx

; 224  : 		array_result resize_result = resize(_M_array_size+1);

	push	0
	push	-1
	mov	eax, DWORD PTR _this$[ebp]
	mov	ecx, DWORD PTR [eax+8]
	add	ecx, 1
	push	ecx
	mov	ecx, DWORD PTR _this$[ebp]
	call	?resize@?$pecker_array@HV?$pecker_simple_allocator@H@pecker_sdk@@@pecker_sdk@@QAEJHH_N@Z ; pecker_sdk::pecker_array<int,pecker_sdk::pecker_simple_allocator<int> >::resize
	mov	DWORD PTR _resize_result$[ebp], eax

; 225  : 		if (P_OK == resize_result)

	cmp	DWORD PTR _resize_result$[ebp], 0
	jne	SHORT $LN1@push

; 226  : 		{
; 227  : 			_M_parray_buffer[_M_array_size-1] = set_item;

	mov	eax, DWORD PTR _this$[ebp]
	mov	ecx, DWORD PTR [eax+8]
	mov	edx, DWORD PTR _this$[ebp]
	mov	eax, DWORD PTR [edx+4]
	mov	edx, DWORD PTR _set_item$[ebp]
	mov	edx, DWORD PTR [edx]
	mov	DWORD PTR [eax+ecx*4-4], edx
$LN1@push:

; 228  : 		}
; 229  : 		return resize_result;

	mov	eax, DWORD PTR _resize_result$[ebp]

; 230  : 	}

	pop	edi
	pop	esi
	pop	ebx
	add	esp, 216				; 000000d8H
	cmp	ebp, esp
	call	__RTC_CheckEsp
	mov	esp, ebp
	pop	ebp
	ret	4
?push@?$pecker_array@HV?$pecker_simple_allocator@H@pecker_sdk@@@pecker_sdk@@QAEJABH@Z ENDP ; pecker_sdk::pecker_array<int,pecker_sdk::pecker_simple_allocator<int> >::push
; Function compile flags: /Odtp /RTCsu /ZI
_TEXT	ENDS
;	COMDAT ?pop@?$pecker_array@HV?$pecker_simple_allocator@H@pecker_sdk@@@pecker_sdk@@QAEJXZ
_TEXT	SEGMENT
_this$ = -8						; size = 4
?pop@?$pecker_array@HV?$pecker_simple_allocator@H@pecker_sdk@@@pecker_sdk@@QAEJXZ PROC ; pecker_sdk::pecker_array<int,pecker_sdk::pecker_simple_allocator<int> >::pop, COMDAT
; _this$ = ecx

; 232  : 	{

	push	ebp
	mov	ebp, esp
	sub	esp, 204				; 000000ccH
	push	ebx
	push	esi
	push	edi
	push	ecx
	lea	edi, DWORD PTR [ebp-204]
	mov	ecx, 51					; 00000033H
	mov	eax, -858993460				; ccccccccH
	rep stosd
	pop	ecx
	mov	DWORD PTR _this$[ebp], ecx

; 233  : 		if (_M_array_size > 0)

	mov	eax, DWORD PTR _this$[ebp]
	cmp	DWORD PTR [eax+8], 0
	jle	SHORT $LN2@pop

; 234  : 		{
; 235  : 			return resize(_M_array_size-1);

	push	0
	push	-1
	mov	eax, DWORD PTR _this$[ebp]
	mov	ecx, DWORD PTR [eax+8]
	sub	ecx, 1
	push	ecx
	mov	ecx, DWORD PTR _this$[ebp]
	call	?resize@?$pecker_array@HV?$pecker_simple_allocator@H@pecker_sdk@@@pecker_sdk@@QAEJHH_N@Z ; pecker_sdk::pecker_array<int,pecker_sdk::pecker_simple_allocator<int> >::resize
	jmp	SHORT $LN3@pop

; 236  : 		}
; 237  : 		else

	jmp	SHORT $LN3@pop
$LN2@pop:

; 238  : 		{
; 239  : 			return P_SUCCESS;

	mov	eax, 6
$LN3@pop:

; 240  : 		}
; 241  : 	}

	pop	edi
	pop	esi
	pop	ebx
	add	esp, 204				; 000000ccH
	cmp	ebp, esp
	call	__RTC_CheckEsp
	mov	esp, ebp
	pop	ebp
	ret	0
?pop@?$pecker_array@HV?$pecker_simple_allocator@H@pecker_sdk@@@pecker_sdk@@QAEJXZ ENDP ; pecker_sdk::pecker_array<int,pecker_sdk::pecker_simple_allocator<int> >::pop
; Function compile flags: /Odtp /RTCsu /ZI
_TEXT	ENDS
;	COMDAT ?get_iterator@?$pecker_array@HV?$pecker_simple_allocator@H@pecker_sdk@@@pecker_sdk@@QBEPAV?$pecker_array_iterator@V?$pecker_array@HV?$pecker_simple_allocator@H@pecker_sdk@@@pecker_sdk@@@2@PAV32@@Z
_TEXT	SEGMENT
_this$ = -8						; size = 4
_parray_iterator$ = 8					; size = 4
?get_iterator@?$pecker_array@HV?$pecker_simple_allocator@H@pecker_sdk@@@pecker_sdk@@QBEPAV?$pecker_array_iterator@V?$pecker_array@HV?$pecker_simple_allocator@H@pecker_sdk@@@pecker_sdk@@@2@PAV32@@Z PROC ; pecker_sdk::pecker_array<int,pecker_sdk::pecker_simple_allocator<int> >::get_iterator, COMDAT
; _this$ = ecx

; 268  : 	{

	push	ebp
	mov	ebp, esp
	sub	esp, 204				; 000000ccH
	push	ebx
	push	esi
	push	edi
	push	ecx
	lea	edi, DWORD PTR [ebp-204]
	mov	ecx, 51					; 00000033H
	mov	eax, -858993460				; ccccccccH
	rep stosd
	pop	ecx
	mov	DWORD PTR _this$[ebp], ecx

; 269  : 		if (null != parray_iterator)

	cmp	DWORD PTR _parray_iterator$[ebp], 0
	je	SHORT $LN2@get_iterat

; 270  : 		{
; 271  : 			if (P_OK == parray_iterator->reinit(this))

	mov	esi, esp
	push	0
	mov	eax, DWORD PTR _this$[ebp]
	push	eax
	mov	ecx, DWORD PTR _parray_iterator$[ebp]
	mov	edx, DWORD PTR [ecx]
	mov	ecx, DWORD PTR _parray_iterator$[ebp]
	mov	eax, DWORD PTR [edx+12]
	call	eax
	cmp	esi, esp
	call	__RTC_CheckEsp
	test	eax, eax
	jne	SHORT $LN2@get_iterat

; 272  : 			{
; 273  : 				return parray_iterator;

	mov	eax, DWORD PTR _parray_iterator$[ebp]
	jmp	SHORT $LN3@get_iterat
$LN2@get_iterat:

; 274  : 			}
; 275  : 		}
; 276  : 		return null;

	xor	eax, eax
$LN3@get_iterat:

; 277  : 	}

	pop	edi
	pop	esi
	pop	ebx
	add	esp, 204				; 000000ccH
	cmp	ebp, esp
	call	__RTC_CheckEsp
	mov	esp, ebp
	pop	ebp
	ret	4
?get_iterator@?$pecker_array@HV?$pecker_simple_allocator@H@pecker_sdk@@@pecker_sdk@@QBEPAV?$pecker_array_iterator@V?$pecker_array@HV?$pecker_simple_allocator@H@pecker_sdk@@@pecker_sdk@@@2@PAV32@@Z ENDP ; pecker_sdk::pecker_array<int,pecker_sdk::pecker_simple_allocator<int> >::get_iterator
; Function compile flags: /Odtp /RTCsu /ZI
_TEXT	ENDS
;	COMDAT ?get_at@?$pecker_array@HV?$pecker_simple_allocator@H@pecker_sdk@@@pecker_sdk@@QBEPBHPBV?$pecker_array_iterator@V?$pecker_array@HV?$pecker_simple_allocator@H@pecker_sdk@@@pecker_sdk@@@2@@Z
_TEXT	SEGMENT
_this$ = -8						; size = 4
_parray_iterator$ = 8					; size = 4
?get_at@?$pecker_array@HV?$pecker_simple_allocator@H@pecker_sdk@@@pecker_sdk@@QBEPBHPBV?$pecker_array_iterator@V?$pecker_array@HV?$pecker_simple_allocator@H@pecker_sdk@@@pecker_sdk@@@2@@Z PROC ; pecker_sdk::pecker_array<int,pecker_sdk::pecker_simple_allocator<int> >::get_at, COMDAT
; _this$ = ecx

; 288  : 	{

	push	ebp
	mov	ebp, esp
	sub	esp, 204				; 000000ccH
	push	ebx
	push	esi
	push	edi
	push	ecx
	lea	edi, DWORD PTR [ebp-204]
	mov	ecx, 51					; 00000033H
	mov	eax, -858993460				; ccccccccH
	rep stosd
	pop	ecx
	mov	DWORD PTR _this$[ebp], ecx

; 289  : 		if (null != parray_iterator)

	cmp	DWORD PTR _parray_iterator$[ebp], 0
	je	SHORT $LN1@get_at@2

; 290  : 		{
; 291  : 			return get_at(parray_iterator->get_current_index());

	mov	eax, DWORD PTR _parray_iterator$[ebp]
	mov	edx, DWORD PTR [eax]
	mov	esi, esp
	mov	ecx, DWORD PTR _parray_iterator$[ebp]
	mov	eax, DWORD PTR [edx+28]
	call	eax
	cmp	esi, esp
	call	__RTC_CheckEsp
	push	eax
	mov	ecx, DWORD PTR _this$[ebp]
	call	?get_at@?$pecker_array@HV?$pecker_simple_allocator@H@pecker_sdk@@@pecker_sdk@@QBEPBHH@Z ; pecker_sdk::pecker_array<int,pecker_sdk::pecker_simple_allocator<int> >::get_at
	jmp	SHORT $LN2@get_at@2
$LN1@get_at@2:

; 292  : 		}
; 293  : 
; 294  : 		return null;

	xor	eax, eax
$LN2@get_at@2:

; 295  : 	}

	pop	edi
	pop	esi
	pop	ebx
	add	esp, 204				; 000000ccH
	cmp	ebp, esp
	call	__RTC_CheckEsp
	mov	esp, ebp
	pop	ebp
	ret	4
?get_at@?$pecker_array@HV?$pecker_simple_allocator@H@pecker_sdk@@@pecker_sdk@@QBEPBHPBV?$pecker_array_iterator@V?$pecker_array@HV?$pecker_simple_allocator@H@pecker_sdk@@@pecker_sdk@@@2@@Z ENDP ; pecker_sdk::pecker_array<int,pecker_sdk::pecker_simple_allocator<int> >::get_at
_TEXT	ENDS
PUBLIC	?get_size@?$pecker_array@HV?$pecker_simple_allocator@H@pecker_sdk@@@pecker_sdk@@QBEHXZ ; pecker_sdk::pecker_array<int,pecker_sdk::pecker_simple_allocator<int> >::get_size
PUBLIC	??_7?$pecker_array_iterator@V?$pecker_array@HV?$pecker_simple_allocator@H@pecker_sdk@@@pecker_sdk@@@pecker_sdk@@6B@ ; pecker_sdk::pecker_array_iterator<pecker_sdk::pecker_array<int,pecker_sdk::pecker_simple_allocator<int> > >::`vftable'
PUBLIC	??_R4?$pecker_array_iterator@V?$pecker_array@HV?$pecker_simple_allocator@H@pecker_sdk@@@pecker_sdk@@@pecker_sdk@@6B@ ; pecker_sdk::pecker_array_iterator<pecker_sdk::pecker_array<int,pecker_sdk::pecker_simple_allocator<int> > >::`RTTI Complete Object Locator'
PUBLIC	??_R0?AV?$pecker_array_iterator@V?$pecker_array@HV?$pecker_simple_allocator@H@pecker_sdk@@@pecker_sdk@@@pecker_sdk@@@8 ; pecker_sdk::pecker_array_iterator<pecker_sdk::pecker_array<int,pecker_sdk::pecker_simple_allocator<int> > > `RTTI Type Descriptor'
PUBLIC	??_R3?$pecker_array_iterator@V?$pecker_array@HV?$pecker_simple_allocator@H@pecker_sdk@@@pecker_sdk@@@pecker_sdk@@8 ; pecker_sdk::pecker_array_iterator<pecker_sdk::pecker_array<int,pecker_sdk::pecker_simple_allocator<int> > >::`RTTI Class Hierarchy Descriptor'
PUBLIC	??_R2?$pecker_array_iterator@V?$pecker_array@HV?$pecker_simple_allocator@H@pecker_sdk@@@pecker_sdk@@@pecker_sdk@@8 ; pecker_sdk::pecker_array_iterator<pecker_sdk::pecker_array<int,pecker_sdk::pecker_simple_allocator<int> > >::`RTTI Base Class Array'
PUBLIC	??_R1A@?0A@EA@?$pecker_array_iterator@V?$pecker_array@HV?$pecker_simple_allocator@H@pecker_sdk@@@pecker_sdk@@@pecker_sdk@@8 ; pecker_sdk::pecker_array_iterator<pecker_sdk::pecker_array<int,pecker_sdk::pecker_simple_allocator<int> > >::`RTTI Base Class Descriptor at (0,-1,0,64)'
PUBLIC	?init@?$pecker_array_iterator@V?$pecker_array@HV?$pecker_simple_allocator@H@pecker_sdk@@@pecker_sdk@@@pecker_sdk@@UAEJXZ ; pecker_sdk::pecker_array_iterator<pecker_sdk::pecker_array<int,pecker_sdk::pecker_simple_allocator<int> > >::init
PUBLIC	?reinit@?$pecker_array_iterator@V?$pecker_array@HV?$pecker_simple_allocator@H@pecker_sdk@@@pecker_sdk@@@pecker_sdk@@UAEJPBV?$pecker_array@HV?$pecker_simple_allocator@H@pecker_sdk@@@2@W4enumLINEAR_INTERATOR_INIT_TYPE@@@Z ; pecker_sdk::pecker_array_iterator<pecker_sdk::pecker_array<int,pecker_sdk::pecker_simple_allocator<int> > >::reinit
PUBLIC	?copy@?$pecker_array_iterator@V?$pecker_array@HV?$pecker_simple_allocator@H@pecker_sdk@@@pecker_sdk@@@pecker_sdk@@UAEJPBV12@@Z ; pecker_sdk::pecker_array_iterator<pecker_sdk::pecker_array<int,pecker_sdk::pecker_simple_allocator<int> > >::copy
PUBLIC	?get_current_index@?$pecker_array_iterator@V?$pecker_array@HV?$pecker_simple_allocator@H@pecker_sdk@@@pecker_sdk@@@pecker_sdk@@UBEHXZ ; pecker_sdk::pecker_array_iterator<pecker_sdk::pecker_array<int,pecker_sdk::pecker_simple_allocator<int> > >::get_current_index
PUBLIC	?set_current_index@?$pecker_array_iterator@V?$pecker_array@HV?$pecker_simple_allocator@H@pecker_sdk@@@pecker_sdk@@@pecker_sdk@@UAEJH@Z ; pecker_sdk::pecker_array_iterator<pecker_sdk::pecker_array<int,pecker_sdk::pecker_simple_allocator<int> > >::set_current_index
EXTRN	??_E?$pecker_array_iterator@V?$pecker_array@HV?$pecker_simple_allocator@H@pecker_sdk@@@pecker_sdk@@@pecker_sdk@@UAEPAXI@Z:PROC ; pecker_sdk::pecker_array_iterator<pecker_sdk::pecker_array<int,pecker_sdk::pecker_simple_allocator<int> > >::`vector deleting destructor'
;	COMDAT ??_R1A@?0A@EA@?$pecker_array_iterator@V?$pecker_array@HV?$pecker_simple_allocator@H@pecker_sdk@@@pecker_sdk@@@pecker_sdk@@8
; File f:\codes\pecker_framework_git\pecker_src\pecker_framework\data\pecker_array_iterator.h
rdata$r	SEGMENT
??_R1A@?0A@EA@?$pecker_array_iterator@V?$pecker_array@HV?$pecker_simple_allocator@H@pecker_sdk@@@pecker_sdk@@@pecker_sdk@@8 DD FLAT:??_R0?AV?$pecker_array_iterator@V?$pecker_array@HV?$pecker_simple_allocator@H@pecker_sdk@@@pecker_sdk@@@pecker_sdk@@@8 ; pecker_sdk::pecker_array_iterator<pecker_sdk::pecker_array<int,pecker_sdk::pecker_simple_allocator<int> > >::`RTTI Base Class Descriptor at (0,-1,0,64)'
	DD	00H
	DD	00H
	DD	0ffffffffH
	DD	00H
	DD	040H
	DD	FLAT:??_R3?$pecker_array_iterator@V?$pecker_array@HV?$pecker_simple_allocator@H@pecker_sdk@@@pecker_sdk@@@pecker_sdk@@8
rdata$r	ENDS
;	COMDAT ??_R2?$pecker_array_iterator@V?$pecker_array@HV?$pecker_simple_allocator@H@pecker_sdk@@@pecker_sdk@@@pecker_sdk@@8
rdata$r	SEGMENT
??_R2?$pecker_array_iterator@V?$pecker_array@HV?$pecker_simple_allocator@H@pecker_sdk@@@pecker_sdk@@@pecker_sdk@@8 DD FLAT:??_R1A@?0A@EA@?$pecker_array_iterator@V?$pecker_array@HV?$pecker_simple_allocator@H@pecker_sdk@@@pecker_sdk@@@pecker_sdk@@8 ; pecker_sdk::pecker_array_iterator<pecker_sdk::pecker_array<int,pecker_sdk::pecker_simple_allocator<int> > >::`RTTI Base Class Array'
rdata$r	ENDS
;	COMDAT ??_R3?$pecker_array_iterator@V?$pecker_array@HV?$pecker_simple_allocator@H@pecker_sdk@@@pecker_sdk@@@pecker_sdk@@8
rdata$r	SEGMENT
??_R3?$pecker_array_iterator@V?$pecker_array@HV?$pecker_simple_allocator@H@pecker_sdk@@@pecker_sdk@@@pecker_sdk@@8 DD 00H ; pecker_sdk::pecker_array_iterator<pecker_sdk::pecker_array<int,pecker_sdk::pecker_simple_allocator<int> > >::`RTTI Class Hierarchy Descriptor'
	DD	00H
	DD	01H
	DD	FLAT:??_R2?$pecker_array_iterator@V?$pecker_array@HV?$pecker_simple_allocator@H@pecker_sdk@@@pecker_sdk@@@pecker_sdk@@8
rdata$r	ENDS
;	COMDAT ??_R0?AV?$pecker_array_iterator@V?$pecker_array@HV?$pecker_simple_allocator@H@pecker_sdk@@@pecker_sdk@@@pecker_sdk@@@8
_DATA	SEGMENT
??_R0?AV?$pecker_array_iterator@V?$pecker_array@HV?$pecker_simple_allocator@H@pecker_sdk@@@pecker_sdk@@@pecker_sdk@@@8 DD FLAT:??_7type_info@@6B@ ; pecker_sdk::pecker_array_iterator<pecker_sdk::pecker_array<int,pecker_sdk::pecker_simple_allocator<int> > > `RTTI Type Descriptor'
	DD	00H
	DB	'.?AV?$pecker_array_iterator@V?$pecker_array@HV?$pecker_s'
	DB	'imple_allocator@H@pecker_sdk@@@pecker_sdk@@@pecker_sdk@@', 00H
_DATA	ENDS
;	COMDAT ??_R4?$pecker_array_iterator@V?$pecker_array@HV?$pecker_simple_allocator@H@pecker_sdk@@@pecker_sdk@@@pecker_sdk@@6B@
rdata$r	SEGMENT
??_R4?$pecker_array_iterator@V?$pecker_array@HV?$pecker_simple_allocator@H@pecker_sdk@@@pecker_sdk@@@pecker_sdk@@6B@ DD 00H ; pecker_sdk::pecker_array_iterator<pecker_sdk::pecker_array<int,pecker_sdk::pecker_simple_allocator<int> > >::`RTTI Complete Object Locator'
	DD	00H
	DD	00H
	DD	FLAT:??_R0?AV?$pecker_array_iterator@V?$pecker_array@HV?$pecker_simple_allocator@H@pecker_sdk@@@pecker_sdk@@@pecker_sdk@@@8
	DD	FLAT:??_R3?$pecker_array_iterator@V?$pecker_array@HV?$pecker_simple_allocator@H@pecker_sdk@@@pecker_sdk@@@pecker_sdk@@8
rdata$r	ENDS
;	COMDAT ??_7?$pecker_array_iterator@V?$pecker_array@HV?$pecker_simple_allocator@H@pecker_sdk@@@pecker_sdk@@@pecker_sdk@@6B@
CONST	SEGMENT
??_7?$pecker_array_iterator@V?$pecker_array@HV?$pecker_simple_allocator@H@pecker_sdk@@@pecker_sdk@@@pecker_sdk@@6B@ DD FLAT:??_R4?$pecker_array_iterator@V?$pecker_array@HV?$pecker_simple_allocator@H@pecker_sdk@@@pecker_sdk@@@pecker_sdk@@6B@ ; pecker_sdk::pecker_array_iterator<pecker_sdk::pecker_array<int,pecker_sdk::pecker_simple_allocator<int> > >::`vftable'
	DD	FLAT:??_E?$pecker_array_iterator@V?$pecker_array@HV?$pecker_simple_allocator@H@pecker_sdk@@@pecker_sdk@@@pecker_sdk@@UAEPAXI@Z
	DD	FLAT:?init@?$pecker_array_iterator@V?$pecker_array@HV?$pecker_simple_allocator@H@pecker_sdk@@@pecker_sdk@@@pecker_sdk@@UAEJW4enumLINEAR_INTERATOR_INIT_TYPE@@@Z
	DD	FLAT:?init@?$pecker_array_iterator@V?$pecker_array@HV?$pecker_simple_allocator@H@pecker_sdk@@@pecker_sdk@@@pecker_sdk@@UAEJXZ
	DD	FLAT:?reinit@?$pecker_array_iterator@V?$pecker_array@HV?$pecker_simple_allocator@H@pecker_sdk@@@pecker_sdk@@@pecker_sdk@@UAEJPBV?$pecker_array@HV?$pecker_simple_allocator@H@pecker_sdk@@@2@W4enumLINEAR_INTERATOR_INIT_TYPE@@@Z
	DD	FLAT:?copy@?$pecker_array_iterator@V?$pecker_array@HV?$pecker_simple_allocator@H@pecker_sdk@@@pecker_sdk@@@pecker_sdk@@UAEJPBV12@@Z
	DD	FLAT:?increment@?$pecker_array_iterator@V?$pecker_array@HV?$pecker_simple_allocator@H@pecker_sdk@@@pecker_sdk@@@pecker_sdk@@UAEJXZ
	DD	FLAT:?decrement@?$pecker_array_iterator@V?$pecker_array@HV?$pecker_simple_allocator@H@pecker_sdk@@@pecker_sdk@@@pecker_sdk@@UAEJXZ
	DD	FLAT:?get_current_index@?$pecker_array_iterator@V?$pecker_array@HV?$pecker_simple_allocator@H@pecker_sdk@@@pecker_sdk@@@pecker_sdk@@UBEHXZ
	DD	FLAT:?set_current_index@?$pecker_array_iterator@V?$pecker_array@HV?$pecker_simple_allocator@H@pecker_sdk@@@pecker_sdk@@@pecker_sdk@@UAEJH@Z
; Function compile flags: /Odtp /RTCsu /ZI
CONST	ENDS
;	COMDAT ??0?$pecker_array_iterator@V?$pecker_array@HV?$pecker_simple_allocator@H@pecker_sdk@@@pecker_sdk@@@pecker_sdk@@QAE@PBV?$pecker_array@HV?$pecker_simple_allocator@H@pecker_sdk@@@1@@Z
_TEXT	SEGMENT
_this$ = -8						; size = 4
_pcontainer$ = 8					; size = 4
??0?$pecker_array_iterator@V?$pecker_array@HV?$pecker_simple_allocator@H@pecker_sdk@@@pecker_sdk@@@pecker_sdk@@QAE@PBV?$pecker_array@HV?$pecker_simple_allocator@H@pecker_sdk@@@1@@Z PROC ; pecker_sdk::pecker_array_iterator<pecker_sdk::pecker_array<int,pecker_sdk::pecker_simple_allocator<int> > >::pecker_array_iterator<pecker_sdk::pecker_array<int,pecker_sdk::pecker_simple_allocator<int> > >, COMDAT
; _this$ = ecx

; 26   : 	{

	push	ebp
	mov	ebp, esp
	sub	esp, 204				; 000000ccH
	push	ebx
	push	esi
	push	edi
	push	ecx
	lea	edi, DWORD PTR [ebp-204]
	mov	ecx, 51					; 00000033H
	mov	eax, -858993460				; ccccccccH
	rep stosd
	pop	ecx
	mov	DWORD PTR _this$[ebp], ecx
	mov	eax, DWORD PTR _this$[ebp]
	mov	DWORD PTR [eax], OFFSET ??_7?$pecker_array_iterator@V?$pecker_array@HV?$pecker_simple_allocator@H@pecker_sdk@@@pecker_sdk@@@pecker_sdk@@6B@
	mov	eax, DWORD PTR _this$[ebp]
	mov	ecx, DWORD PTR _pcontainer$[ebp]
	mov	DWORD PTR [eax+4], ecx

; 27   : 		if (null != _M_pContainer && _M_pContainer->get_size() > 0)

	mov	eax, DWORD PTR _this$[ebp]
	cmp	DWORD PTR [eax+4], 0
	je	SHORT $LN1@pecker_arr@2
	mov	eax, DWORD PTR _this$[ebp]
	mov	ecx, DWORD PTR [eax+4]
	call	?get_size@?$pecker_array@HV?$pecker_simple_allocator@H@pecker_sdk@@@pecker_sdk@@QBEHXZ ; pecker_sdk::pecker_array<int,pecker_sdk::pecker_simple_allocator<int> >::get_size
	test	eax, eax
	jle	SHORT $LN1@pecker_arr@2

; 28   : 		{
; 29   : 			_M_current_index = 0;

	mov	eax, DWORD PTR _this$[ebp]
	mov	DWORD PTR [eax+8], 0
$LN1@pecker_arr@2:

; 30   : 		}
; 31   : 		_M_current_index = -1;

	mov	eax, DWORD PTR _this$[ebp]
	mov	DWORD PTR [eax+8], -1

; 32   : 	}

	mov	eax, DWORD PTR _this$[ebp]
	pop	edi
	pop	esi
	pop	ebx
	add	esp, 204				; 000000ccH
	cmp	ebp, esp
	call	__RTC_CheckEsp
	mov	esp, ebp
	pop	ebp
	ret	4
??0?$pecker_array_iterator@V?$pecker_array@HV?$pecker_simple_allocator@H@pecker_sdk@@@pecker_sdk@@@pecker_sdk@@QAE@PBV?$pecker_array@HV?$pecker_simple_allocator@H@pecker_sdk@@@1@@Z ENDP ; pecker_sdk::pecker_array_iterator<pecker_sdk::pecker_array<int,pecker_sdk::pecker_simple_allocator<int> > >::pecker_array_iterator<pecker_sdk::pecker_array<int,pecker_sdk::pecker_simple_allocator<int> > >
; Function compile flags: /Odtp /RTCsu /ZI
_TEXT	ENDS
;	COMDAT ??1?$pecker_array_iterator@V?$pecker_array@HV?$pecker_simple_allocator@H@pecker_sdk@@@pecker_sdk@@@pecker_sdk@@UAE@XZ
_TEXT	SEGMENT
_this$ = -8						; size = 4
??1?$pecker_array_iterator@V?$pecker_array@HV?$pecker_simple_allocator@H@pecker_sdk@@@pecker_sdk@@@pecker_sdk@@UAE@XZ PROC ; pecker_sdk::pecker_array_iterator<pecker_sdk::pecker_array<int,pecker_sdk::pecker_simple_allocator<int> > >::~pecker_array_iterator<pecker_sdk::pecker_array<int,pecker_sdk::pecker_simple_allocator<int> > >, COMDAT
; _this$ = ecx

; 38   : 	{

	push	ebp
	mov	ebp, esp
	sub	esp, 204				; 000000ccH
	push	ebx
	push	esi
	push	edi
	push	ecx
	lea	edi, DWORD PTR [ebp-204]
	mov	ecx, 51					; 00000033H
	mov	eax, -858993460				; ccccccccH
	rep stosd
	pop	ecx
	mov	DWORD PTR _this$[ebp], ecx
	mov	eax, DWORD PTR _this$[ebp]
	mov	DWORD PTR [eax], OFFSET ??_7?$pecker_array_iterator@V?$pecker_array@HV?$pecker_simple_allocator@H@pecker_sdk@@@pecker_sdk@@@pecker_sdk@@6B@

; 39   : 		_M_pContainer = null;

	mov	eax, DWORD PTR _this$[ebp]
	mov	DWORD PTR [eax+4], 0

; 40   : 	}

	pop	edi
	pop	esi
	pop	ebx
	mov	esp, ebp
	pop	ebp
	ret	0
??1?$pecker_array_iterator@V?$pecker_array@HV?$pecker_simple_allocator@H@pecker_sdk@@@pecker_sdk@@@pecker_sdk@@UAE@XZ ENDP ; pecker_sdk::pecker_array_iterator<pecker_sdk::pecker_array<int,pecker_sdk::pecker_simple_allocator<int> > >::~pecker_array_iterator<pecker_sdk::pecker_array<int,pecker_sdk::pecker_simple_allocator<int> > >
; Function compile flags: /Odtp /RTCsu /ZI
_TEXT	ENDS
;	COMDAT ?init@?$pecker_array_iterator@V?$pecker_array@HV?$pecker_simple_allocator@H@pecker_sdk@@@pecker_sdk@@@pecker_sdk@@UAEJXZ
_TEXT	SEGMENT
_this$ = -8						; size = 4
?init@?$pecker_array_iterator@V?$pecker_array@HV?$pecker_simple_allocator@H@pecker_sdk@@@pecker_sdk@@@pecker_sdk@@UAEJXZ PROC ; pecker_sdk::pecker_array_iterator<pecker_sdk::pecker_array<int,pecker_sdk::pecker_simple_allocator<int> > >::init, COMDAT
; _this$ = ecx

; 44   : 	{

	push	ebp
	mov	ebp, esp
	sub	esp, 204				; 000000ccH
	push	ebx
	push	esi
	push	edi
	push	ecx
	lea	edi, DWORD PTR [ebp-204]
	mov	ecx, 51					; 00000033H
	mov	eax, -858993460				; ccccccccH
	rep stosd
	pop	ecx
	mov	DWORD PTR _this$[ebp], ecx

; 45   : 		return init(ITERATOR_INIT_BEGIN_INDEX);

	mov	esi, esp
	push	0
	mov	eax, DWORD PTR _this$[ebp]
	mov	edx, DWORD PTR [eax]
	mov	ecx, DWORD PTR _this$[ebp]
	mov	eax, DWORD PTR [edx+4]
	call	eax
	cmp	esi, esp
	call	__RTC_CheckEsp

; 46   : 	}

	pop	edi
	pop	esi
	pop	ebx
	add	esp, 204				; 000000ccH
	cmp	ebp, esp
	call	__RTC_CheckEsp
	mov	esp, ebp
	pop	ebp
	ret	0
?init@?$pecker_array_iterator@V?$pecker_array@HV?$pecker_simple_allocator@H@pecker_sdk@@@pecker_sdk@@@pecker_sdk@@UAEJXZ ENDP ; pecker_sdk::pecker_array_iterator<pecker_sdk::pecker_array<int,pecker_sdk::pecker_simple_allocator<int> > >::init
; Function compile flags: /Odtp /RTCsu /ZI
_TEXT	ENDS
;	COMDAT ?init@?$pecker_array_iterator@V?$pecker_array@HV?$pecker_simple_allocator@H@pecker_sdk@@@pecker_sdk@@@pecker_sdk@@UAEJW4enumLINEAR_INTERATOR_INIT_TYPE@@@Z
_TEXT	SEGMENT
_size$68998 = -20					; size = 4
_this$ = -8						; size = 4
_init_type$ = 8						; size = 4
?init@?$pecker_array_iterator@V?$pecker_array@HV?$pecker_simple_allocator@H@pecker_sdk@@@pecker_sdk@@@pecker_sdk@@UAEJW4enumLINEAR_INTERATOR_INIT_TYPE@@@Z PROC ; pecker_sdk::pecker_array_iterator<pecker_sdk::pecker_array<int,pecker_sdk::pecker_simple_allocator<int> > >::init, COMDAT
; _this$ = ecx

; 49   : 	{

	push	ebp
	mov	ebp, esp
	sub	esp, 216				; 000000d8H
	push	ebx
	push	esi
	push	edi
	push	ecx
	lea	edi, DWORD PTR [ebp-216]
	mov	ecx, 54					; 00000036H
	mov	eax, -858993460				; ccccccccH
	rep stosd
	pop	ecx
	mov	DWORD PTR _this$[ebp], ecx

; 50   : 		if (null != _M_pContainer)

	mov	eax, DWORD PTR _this$[ebp]
	cmp	DWORD PTR [eax+4], 0
	je	SHORT $LN7@init@2

; 51   : 		{
; 52   : 			array_buffer_size_val size = _M_pContainer->get_size();

	mov	eax, DWORD PTR _this$[ebp]
	mov	ecx, DWORD PTR [eax+4]
	call	?get_size@?$pecker_array@HV?$pecker_simple_allocator@H@pecker_sdk@@@pecker_sdk@@QBEHXZ ; pecker_sdk::pecker_array<int,pecker_sdk::pecker_simple_allocator<int> >::get_size
	mov	DWORD PTR _size$68998[ebp], eax

; 53   : 			if (0 >= size)

	cmp	DWORD PTR _size$68998[ebp], 0
	jg	SHORT $LN6@init@2

; 54   : 			{
; 55   : 				_M_current_index = -1;

	mov	eax, DWORD PTR _this$[ebp]
	mov	DWORD PTR [eax+8], -1

; 56   : 				return P_OK;

	xor	eax, eax
	jmp	SHORT $LN8@init@2
$LN6@init@2:

; 57   : 			}
; 58   : 
; 59   : 			if (ITERATOR_INIT_BEGIN_INDEX == init_type)

	cmp	DWORD PTR _init_type$[ebp], 0
	jne	SHORT $LN5@init@2

; 60   : 			{
; 61   : 				_M_current_index = 0;

	mov	eax, DWORD PTR _this$[ebp]
	mov	DWORD PTR [eax+8], 0
	jmp	SHORT $LN4@init@2
$LN5@init@2:

; 62   : 			}
; 63   : 			else if (ITERATOR_INIT_END_INDEX == init_type)

	cmp	DWORD PTR _init_type$[ebp], 1
	jne	SHORT $LN3@init@2

; 64   : 			{
; 65   : 				_M_current_index = size - 1;

	mov	eax, DWORD PTR _size$68998[ebp]
	sub	eax, 1
	mov	ecx, DWORD PTR _this$[ebp]
	mov	DWORD PTR [ecx+8], eax

; 66   : 			}
; 67   : 			else

	jmp	SHORT $LN4@init@2
$LN3@init@2:

; 68   : 			{
; 69   : 				_M_current_index = -1;

	mov	eax, DWORD PTR _this$[ebp]
	mov	DWORD PTR [eax+8], -1

; 70   : 				return P_ERR;

	or	eax, -1
	jmp	SHORT $LN8@init@2
$LN4@init@2:

; 71   : 			}
; 72   : 			return P_OK;

	xor	eax, eax
	jmp	SHORT $LN8@init@2

; 73   : 		}
; 74   : 		else

	jmp	SHORT $LN8@init@2
$LN7@init@2:

; 75   : 		{
; 76   : 			_M_current_index = -1;

	mov	eax, DWORD PTR _this$[ebp]
	mov	DWORD PTR [eax+8], -1

; 77   : 			return P_SUCCESS;

	mov	eax, 6
$LN8@init@2:

; 78   : 		}
; 79   : 
; 80   : 
; 81   : 	}

	pop	edi
	pop	esi
	pop	ebx
	add	esp, 216				; 000000d8H
	cmp	ebp, esp
	call	__RTC_CheckEsp
	mov	esp, ebp
	pop	ebp
	ret	4
?init@?$pecker_array_iterator@V?$pecker_array@HV?$pecker_simple_allocator@H@pecker_sdk@@@pecker_sdk@@@pecker_sdk@@UAEJW4enumLINEAR_INTERATOR_INIT_TYPE@@@Z ENDP ; pecker_sdk::pecker_array_iterator<pecker_sdk::pecker_array<int,pecker_sdk::pecker_simple_allocator<int> > >::init
; Function compile flags: /Odtp /RTCsu /ZI
_TEXT	ENDS
;	COMDAT ?reinit@?$pecker_array_iterator@V?$pecker_array@HV?$pecker_simple_allocator@H@pecker_sdk@@@pecker_sdk@@@pecker_sdk@@UAEJPBV?$pecker_array@HV?$pecker_simple_allocator@H@pecker_sdk@@@2@W4enumLINEAR_INTERATOR_INIT_TYPE@@@Z
_TEXT	SEGMENT
_this$ = -8						; size = 4
_pcontainer$ = 8					; size = 4
_init_type$ = 12					; size = 4
?reinit@?$pecker_array_iterator@V?$pecker_array@HV?$pecker_simple_allocator@H@pecker_sdk@@@pecker_sdk@@@pecker_sdk@@UAEJPBV?$pecker_array@HV?$pecker_simple_allocator@H@pecker_sdk@@@2@W4enumLINEAR_INTERATOR_INIT_TYPE@@@Z PROC ; pecker_sdk::pecker_array_iterator<pecker_sdk::pecker_array<int,pecker_sdk::pecker_simple_allocator<int> > >::reinit, COMDAT
; _this$ = ecx

; 84   : 	{

	push	ebp
	mov	ebp, esp
	sub	esp, 204				; 000000ccH
	push	ebx
	push	esi
	push	edi
	push	ecx
	lea	edi, DWORD PTR [ebp-204]
	mov	ecx, 51					; 00000033H
	mov	eax, -858993460				; ccccccccH
	rep stosd
	pop	ecx
	mov	DWORD PTR _this$[ebp], ecx

; 85   : 		if (pcontainer != null)

	cmp	DWORD PTR _pcontainer$[ebp], 0
	je	SHORT $LN1@reinit

; 86   : 		{
; 87   : 			_M_pContainer = pcontainer;

	mov	eax, DWORD PTR _this$[ebp]
	mov	ecx, DWORD PTR _pcontainer$[ebp]
	mov	DWORD PTR [eax+4], ecx

; 88   : 			return init(init_type);

	mov	esi, esp
	mov	eax, DWORD PTR _init_type$[ebp]
	push	eax
	mov	ecx, DWORD PTR _this$[ebp]
	mov	edx, DWORD PTR [ecx]
	mov	ecx, DWORD PTR _this$[ebp]
	mov	eax, DWORD PTR [edx+4]
	call	eax
	cmp	esi, esp
	call	__RTC_CheckEsp
	jmp	SHORT $LN2@reinit
$LN1@reinit:

; 89   : 		}
; 90   : 		return P_ERR;

	or	eax, -1
$LN2@reinit:

; 91   : 	}

	pop	edi
	pop	esi
	pop	ebx
	add	esp, 204				; 000000ccH
	cmp	ebp, esp
	call	__RTC_CheckEsp
	mov	esp, ebp
	pop	ebp
	ret	8
?reinit@?$pecker_array_iterator@V?$pecker_array@HV?$pecker_simple_allocator@H@pecker_sdk@@@pecker_sdk@@@pecker_sdk@@UAEJPBV?$pecker_array@HV?$pecker_simple_allocator@H@pecker_sdk@@@2@W4enumLINEAR_INTERATOR_INIT_TYPE@@@Z ENDP ; pecker_sdk::pecker_array_iterator<pecker_sdk::pecker_array<int,pecker_sdk::pecker_simple_allocator<int> > >::reinit
; Function compile flags: /Odtp /RTCsu /ZI
_TEXT	ENDS
;	COMDAT ?copy@?$pecker_array_iterator@V?$pecker_array@HV?$pecker_simple_allocator@H@pecker_sdk@@@pecker_sdk@@@pecker_sdk@@UAEJPBV12@@Z
_TEXT	SEGMENT
_this$ = -8						; size = 4
_pother_liner_iterator$ = 8				; size = 4
?copy@?$pecker_array_iterator@V?$pecker_array@HV?$pecker_simple_allocator@H@pecker_sdk@@@pecker_sdk@@@pecker_sdk@@UAEJPBV12@@Z PROC ; pecker_sdk::pecker_array_iterator<pecker_sdk::pecker_array<int,pecker_sdk::pecker_simple_allocator<int> > >::copy, COMDAT
; _this$ = ecx

; 94   : 	{

	push	ebp
	mov	ebp, esp
	sub	esp, 204				; 000000ccH
	push	ebx
	push	esi
	push	edi
	push	ecx
	lea	edi, DWORD PTR [ebp-204]
	mov	ecx, 51					; 00000033H
	mov	eax, -858993460				; ccccccccH
	rep stosd
	pop	ecx
	mov	DWORD PTR _this$[ebp], ecx

; 95   : 		if (this == pother_liner_iterator)

	mov	eax, DWORD PTR _this$[ebp]
	cmp	eax, DWORD PTR _pother_liner_iterator$[ebp]
	jne	SHORT $LN3@copy

; 96   : 		{
; 97   : 			return P_OK;

	xor	eax, eax
	jmp	SHORT $LN4@copy
	jmp	SHORT $LN2@copy
$LN3@copy:

; 98   : 		}
; 99   : 		else if (null != pother_liner_iterator)

	cmp	DWORD PTR _pother_liner_iterator$[ebp], 0
	je	SHORT $LN2@copy

; 100  : 		{
; 101  : 			_M_pContainer = pother_liner_iterator->_M_pContainer;

	mov	eax, DWORD PTR _this$[ebp]
	mov	ecx, DWORD PTR _pother_liner_iterator$[ebp]
	mov	edx, DWORD PTR [ecx+4]
	mov	DWORD PTR [eax+4], edx

; 102  : 			_M_current_index = pother_liner_iterator->_M_current_index;

	mov	eax, DWORD PTR _this$[ebp]
	mov	ecx, DWORD PTR _pother_liner_iterator$[ebp]
	mov	edx, DWORD PTR [ecx+8]
	mov	DWORD PTR [eax+8], edx

; 103  : 			return P_OK;

	xor	eax, eax
	jmp	SHORT $LN4@copy
$LN2@copy:

; 104  : 		}
; 105  : 		return P_ERR;

	or	eax, -1
$LN4@copy:

; 106  : 	}

	pop	edi
	pop	esi
	pop	ebx
	mov	esp, ebp
	pop	ebp
	ret	4
?copy@?$pecker_array_iterator@V?$pecker_array@HV?$pecker_simple_allocator@H@pecker_sdk@@@pecker_sdk@@@pecker_sdk@@UAEJPBV12@@Z ENDP ; pecker_sdk::pecker_array_iterator<pecker_sdk::pecker_array<int,pecker_sdk::pecker_simple_allocator<int> > >::copy
; Function compile flags: /Odtp /RTCsu /ZI
_TEXT	ENDS
;	COMDAT ?increment@?$pecker_array_iterator@V?$pecker_array@HV?$pecker_simple_allocator@H@pecker_sdk@@@pecker_sdk@@@pecker_sdk@@UAEJXZ
_TEXT	SEGMENT
_this$ = -8						; size = 4
?increment@?$pecker_array_iterator@V?$pecker_array@HV?$pecker_simple_allocator@H@pecker_sdk@@@pecker_sdk@@@pecker_sdk@@UAEJXZ PROC ; pecker_sdk::pecker_array_iterator<pecker_sdk::pecker_array<int,pecker_sdk::pecker_simple_allocator<int> > >::increment, COMDAT
; _this$ = ecx

; 109  : 	{

	push	ebp
	mov	ebp, esp
	sub	esp, 204				; 000000ccH
	push	ebx
	push	esi
	push	edi
	push	ecx
	lea	edi, DWORD PTR [ebp-204]
	mov	ecx, 51					; 00000033H
	mov	eax, -858993460				; ccccccccH
	rep stosd
	pop	ecx
	mov	DWORD PTR _this$[ebp], ecx

; 110  : 		if (null == _M_pContainer)

	mov	eax, DWORD PTR _this$[ebp]
	cmp	DWORD PTR [eax+4], 0
	jne	SHORT $LN1@increment

; 111  : 		{
; 112  : 			return P_ERR;

	or	eax, -1
	jmp	SHORT $LN2@increment
$LN1@increment:

; 113  : 		}
; 114  : 		++_M_current_index;

	mov	eax, DWORD PTR _this$[ebp]
	mov	ecx, DWORD PTR [eax+8]
	add	ecx, 1
	mov	edx, DWORD PTR _this$[ebp]
	mov	DWORD PTR [edx+8], ecx

; 115  : 		//if (_M_current_index < (_M_pContainer->get_size() - 1))
; 116  : 		//{
; 117  : 		//	++_M_current_index;
; 118  : 		//}
; 119  : 		return P_OK;

	xor	eax, eax
$LN2@increment:

; 120  : 	}

	pop	edi
	pop	esi
	pop	ebx
	mov	esp, ebp
	pop	ebp
	ret	0
?increment@?$pecker_array_iterator@V?$pecker_array@HV?$pecker_simple_allocator@H@pecker_sdk@@@pecker_sdk@@@pecker_sdk@@UAEJXZ ENDP ; pecker_sdk::pecker_array_iterator<pecker_sdk::pecker_array<int,pecker_sdk::pecker_simple_allocator<int> > >::increment
; Function compile flags: /Odtp /RTCsu /ZI
_TEXT	ENDS
;	COMDAT ?decrement@?$pecker_array_iterator@V?$pecker_array@HV?$pecker_simple_allocator@H@pecker_sdk@@@pecker_sdk@@@pecker_sdk@@UAEJXZ
_TEXT	SEGMENT
_this$ = -8						; size = 4
?decrement@?$pecker_array_iterator@V?$pecker_array@HV?$pecker_simple_allocator@H@pecker_sdk@@@pecker_sdk@@@pecker_sdk@@UAEJXZ PROC ; pecker_sdk::pecker_array_iterator<pecker_sdk::pecker_array<int,pecker_sdk::pecker_simple_allocator<int> > >::decrement, COMDAT
; _this$ = ecx

; 123  : 	{

	push	ebp
	mov	ebp, esp
	sub	esp, 204				; 000000ccH
	push	ebx
	push	esi
	push	edi
	push	ecx
	lea	edi, DWORD PTR [ebp-204]
	mov	ecx, 51					; 00000033H
	mov	eax, -858993460				; ccccccccH
	rep stosd
	pop	ecx
	mov	DWORD PTR _this$[ebp], ecx

; 124  : 		if (null == _M_pContainer)

	mov	eax, DWORD PTR _this$[ebp]
	cmp	DWORD PTR [eax+4], 0
	jne	SHORT $LN1@decrement

; 125  : 		{
; 126  : 			return P_ERR;

	or	eax, -1
	jmp	SHORT $LN2@decrement
$LN1@decrement:

; 127  : 		}
; 128  : 
; 129  : 		--_M_current_index;

	mov	eax, DWORD PTR _this$[ebp]
	mov	ecx, DWORD PTR [eax+8]
	sub	ecx, 1
	mov	edx, DWORD PTR _this$[ebp]
	mov	DWORD PTR [edx+8], ecx

; 130  : 		//if (0 < _M_current_index)
; 131  : 		//{
; 132  : 		//	--_M_current_index;
; 133  : 		//}
; 134  : 		return P_OK;

	xor	eax, eax
$LN2@decrement:

; 135  : 	}

	pop	edi
	pop	esi
	pop	ebx
	mov	esp, ebp
	pop	ebp
	ret	0
?decrement@?$pecker_array_iterator@V?$pecker_array@HV?$pecker_simple_allocator@H@pecker_sdk@@@pecker_sdk@@@pecker_sdk@@UAEJXZ ENDP ; pecker_sdk::pecker_array_iterator<pecker_sdk::pecker_array<int,pecker_sdk::pecker_simple_allocator<int> > >::decrement
; Function compile flags: /Odtp /RTCsu /ZI
_TEXT	ENDS
;	COMDAT ?get_current_index@?$pecker_array_iterator@V?$pecker_array@HV?$pecker_simple_allocator@H@pecker_sdk@@@pecker_sdk@@@pecker_sdk@@UBEHXZ
_TEXT	SEGMENT
_this$ = -8						; size = 4
?get_current_index@?$pecker_array_iterator@V?$pecker_array@HV?$pecker_simple_allocator@H@pecker_sdk@@@pecker_sdk@@@pecker_sdk@@UBEHXZ PROC ; pecker_sdk::pecker_array_iterator<pecker_sdk::pecker_array<int,pecker_sdk::pecker_simple_allocator<int> > >::get_current_index, COMDAT
; _this$ = ecx

; 138  : 	{

	push	ebp
	mov	ebp, esp
	sub	esp, 204				; 000000ccH
	push	ebx
	push	esi
	push	edi
	push	ecx
	lea	edi, DWORD PTR [ebp-204]
	mov	ecx, 51					; 00000033H
	mov	eax, -858993460				; ccccccccH
	rep stosd
	pop	ecx
	mov	DWORD PTR _this$[ebp], ecx

; 139  : 		return _M_current_index;

	mov	eax, DWORD PTR _this$[ebp]
	mov	eax, DWORD PTR [eax+8]

; 140  : 	}

	pop	edi
	pop	esi
	pop	ebx
	mov	esp, ebp
	pop	ebp
	ret	0
?get_current_index@?$pecker_array_iterator@V?$pecker_array@HV?$pecker_simple_allocator@H@pecker_sdk@@@pecker_sdk@@@pecker_sdk@@UBEHXZ ENDP ; pecker_sdk::pecker_array_iterator<pecker_sdk::pecker_array<int,pecker_sdk::pecker_simple_allocator<int> > >::get_current_index
; Function compile flags: /Odtp /RTCsu /ZI
_TEXT	ENDS
;	COMDAT ?set_current_index@?$pecker_array_iterator@V?$pecker_array@HV?$pecker_simple_allocator@H@pecker_sdk@@@pecker_sdk@@@pecker_sdk@@UAEJH@Z
_TEXT	SEGMENT
_this$ = -8						; size = 4
_set_index$ = 8						; size = 4
?set_current_index@?$pecker_array_iterator@V?$pecker_array@HV?$pecker_simple_allocator@H@pecker_sdk@@@pecker_sdk@@@pecker_sdk@@UAEJH@Z PROC ; pecker_sdk::pecker_array_iterator<pecker_sdk::pecker_array<int,pecker_sdk::pecker_simple_allocator<int> > >::set_current_index, COMDAT
; _this$ = ecx

; 143  : 	{

	push	ebp
	mov	ebp, esp
	sub	esp, 204				; 000000ccH
	push	ebx
	push	esi
	push	edi
	push	ecx
	lea	edi, DWORD PTR [ebp-204]
	mov	ecx, 51					; 00000033H
	mov	eax, -858993460				; ccccccccH
	rep stosd
	pop	ecx
	mov	DWORD PTR _this$[ebp], ecx

; 144  : 		if (null != _M_pContainer && set_index >=0 && set_index < _M_pContainer->get_size())

	mov	eax, DWORD PTR _this$[ebp]
	cmp	DWORD PTR [eax+4], 0
	je	SHORT $LN1@set_curren
	cmp	DWORD PTR _set_index$[ebp], 0
	jl	SHORT $LN1@set_curren
	mov	eax, DWORD PTR _this$[ebp]
	mov	ecx, DWORD PTR [eax+4]
	call	?get_size@?$pecker_array@HV?$pecker_simple_allocator@H@pecker_sdk@@@pecker_sdk@@QBEHXZ ; pecker_sdk::pecker_array<int,pecker_sdk::pecker_simple_allocator<int> >::get_size
	cmp	DWORD PTR _set_index$[ebp], eax
	jge	SHORT $LN1@set_curren

; 145  : 		{
; 146  : 			_M_current_index = set_index;

	mov	eax, DWORD PTR _this$[ebp]
	mov	ecx, DWORD PTR _set_index$[ebp]
	mov	DWORD PTR [eax+8], ecx

; 147  : 			return P_OK;

	xor	eax, eax
	jmp	SHORT $LN2@set_curren
$LN1@set_curren:

; 148  : 		}
; 149  : 		return P_ERR;

	or	eax, -1
$LN2@set_curren:

; 150  : 	}

	pop	edi
	pop	esi
	pop	ebx
	add	esp, 204				; 000000ccH
	cmp	ebp, esp
	call	__RTC_CheckEsp
	mov	esp, ebp
	pop	ebp
	ret	4
?set_current_index@?$pecker_array_iterator@V?$pecker_array@HV?$pecker_simple_allocator@H@pecker_sdk@@@pecker_sdk@@@pecker_sdk@@UAEJH@Z ENDP ; pecker_sdk::pecker_array_iterator<pecker_sdk::pecker_array<int,pecker_sdk::pecker_simple_allocator<int> > >::set_current_index
_TEXT	ENDS
PUBLIC	??_7?$pecker_pool_array@HV?$pecker_simple_allocator@H@pecker_sdk@@V?$pecker_simple_allocator@PAH@2@@pecker_sdk@@6B@ ; pecker_sdk::pecker_pool_array<int,pecker_sdk::pecker_simple_allocator<int>,pecker_sdk::pecker_simple_allocator<int *> >::`vftable'
PUBLIC	??_R4?$pecker_pool_array@HV?$pecker_simple_allocator@H@pecker_sdk@@V?$pecker_simple_allocator@PAH@2@@pecker_sdk@@6B@ ; pecker_sdk::pecker_pool_array<int,pecker_sdk::pecker_simple_allocator<int>,pecker_sdk::pecker_simple_allocator<int *> >::`RTTI Complete Object Locator'
PUBLIC	??_R0?AV?$pecker_pool_array@HV?$pecker_simple_allocator@H@pecker_sdk@@V?$pecker_simple_allocator@PAH@2@@pecker_sdk@@@8 ; pecker_sdk::pecker_pool_array<int,pecker_sdk::pecker_simple_allocator<int>,pecker_sdk::pecker_simple_allocator<int *> > `RTTI Type Descriptor'
PUBLIC	??_R3?$pecker_pool_array@HV?$pecker_simple_allocator@H@pecker_sdk@@V?$pecker_simple_allocator@PAH@2@@pecker_sdk@@8 ; pecker_sdk::pecker_pool_array<int,pecker_sdk::pecker_simple_allocator<int>,pecker_sdk::pecker_simple_allocator<int *> >::`RTTI Class Hierarchy Descriptor'
PUBLIC	??_R2?$pecker_pool_array@HV?$pecker_simple_allocator@H@pecker_sdk@@V?$pecker_simple_allocator@PAH@2@@pecker_sdk@@8 ; pecker_sdk::pecker_pool_array<int,pecker_sdk::pecker_simple_allocator<int>,pecker_sdk::pecker_simple_allocator<int *> >::`RTTI Base Class Array'
PUBLIC	??_R1A@?0A@EA@?$pecker_pool_array@HV?$pecker_simple_allocator@H@pecker_sdk@@V?$pecker_simple_allocator@PAH@2@@pecker_sdk@@8 ; pecker_sdk::pecker_pool_array<int,pecker_sdk::pecker_simple_allocator<int>,pecker_sdk::pecker_simple_allocator<int *> >::`RTTI Base Class Descriptor at (0,-1,0,64)'
EXTRN	??_E?$pecker_pool_array@HV?$pecker_simple_allocator@H@pecker_sdk@@V?$pecker_simple_allocator@PAH@2@@pecker_sdk@@UAEPAXI@Z:PROC ; pecker_sdk::pecker_pool_array<int,pecker_sdk::pecker_simple_allocator<int>,pecker_sdk::pecker_simple_allocator<int *> >::`vector deleting destructor'
;	COMDAT ??_R1A@?0A@EA@?$pecker_pool_array@HV?$pecker_simple_allocator@H@pecker_sdk@@V?$pecker_simple_allocator@PAH@2@@pecker_sdk@@8
; File f:\codes\pecker_framework_git\pecker_src\pecker_framework\data\pecker_array.h
rdata$r	SEGMENT
??_R1A@?0A@EA@?$pecker_pool_array@HV?$pecker_simple_allocator@H@pecker_sdk@@V?$pecker_simple_allocator@PAH@2@@pecker_sdk@@8 DD FLAT:??_R0?AV?$pecker_pool_array@HV?$pecker_simple_allocator@H@pecker_sdk@@V?$pecker_simple_allocator@PAH@2@@pecker_sdk@@@8 ; pecker_sdk::pecker_pool_array<int,pecker_sdk::pecker_simple_allocator<int>,pecker_sdk::pecker_simple_allocator<int *> >::`RTTI Base Class Descriptor at (0,-1,0,64)'
	DD	00H
	DD	00H
	DD	0ffffffffH
	DD	00H
	DD	040H
	DD	FLAT:??_R3?$pecker_pool_array@HV?$pecker_simple_allocator@H@pecker_sdk@@V?$pecker_simple_allocator@PAH@2@@pecker_sdk@@8
rdata$r	ENDS
;	COMDAT ??_R2?$pecker_pool_array@HV?$pecker_simple_allocator@H@pecker_sdk@@V?$pecker_simple_allocator@PAH@2@@pecker_sdk@@8
rdata$r	SEGMENT
??_R2?$pecker_pool_array@HV?$pecker_simple_allocator@H@pecker_sdk@@V?$pecker_simple_allocator@PAH@2@@pecker_sdk@@8 DD FLAT:??_R1A@?0A@EA@?$pecker_pool_array@HV?$pecker_simple_allocator@H@pecker_sdk@@V?$pecker_simple_allocator@PAH@2@@pecker_sdk@@8 ; pecker_sdk::pecker_pool_array<int,pecker_sdk::pecker_simple_allocator<int>,pecker_sdk::pecker_simple_allocator<int *> >::`RTTI Base Class Array'
rdata$r	ENDS
;	COMDAT ??_R3?$pecker_pool_array@HV?$pecker_simple_allocator@H@pecker_sdk@@V?$pecker_simple_allocator@PAH@2@@pecker_sdk@@8
rdata$r	SEGMENT
??_R3?$pecker_pool_array@HV?$pecker_simple_allocator@H@pecker_sdk@@V?$pecker_simple_allocator@PAH@2@@pecker_sdk@@8 DD 00H ; pecker_sdk::pecker_pool_array<int,pecker_sdk::pecker_simple_allocator<int>,pecker_sdk::pecker_simple_allocator<int *> >::`RTTI Class Hierarchy Descriptor'
	DD	00H
	DD	01H
	DD	FLAT:??_R2?$pecker_pool_array@HV?$pecker_simple_allocator@H@pecker_sdk@@V?$pecker_simple_allocator@PAH@2@@pecker_sdk@@8
rdata$r	ENDS
;	COMDAT ??_R0?AV?$pecker_pool_array@HV?$pecker_simple_allocator@H@pecker_sdk@@V?$pecker_simple_allocator@PAH@2@@pecker_sdk@@@8
_DATA	SEGMENT
??_R0?AV?$pecker_pool_array@HV?$pecker_simple_allocator@H@pecker_sdk@@V?$pecker_simple_allocator@PAH@2@@pecker_sdk@@@8 DD FLAT:??_7type_info@@6B@ ; pecker_sdk::pecker_pool_array<int,pecker_sdk::pecker_simple_allocator<int>,pecker_sdk::pecker_simple_allocator<int *> > `RTTI Type Descriptor'
	DD	00H
	DB	'.?AV?$pecker_pool_array@HV?$pecker_simple_allocator@H@pe'
	DB	'cker_sdk@@V?$pecker_simple_allocator@PAH@2@@pecker_sdk@@', 00H
_DATA	ENDS
;	COMDAT ??_R4?$pecker_pool_array@HV?$pecker_simple_allocator@H@pecker_sdk@@V?$pecker_simple_allocator@PAH@2@@pecker_sdk@@6B@
rdata$r	SEGMENT
??_R4?$pecker_pool_array@HV?$pecker_simple_allocator@H@pecker_sdk@@V?$pecker_simple_allocator@PAH@2@@pecker_sdk@@6B@ DD 00H ; pecker_sdk::pecker_pool_array<int,pecker_sdk::pecker_simple_allocator<int>,pecker_sdk::pecker_simple_allocator<int *> >::`RTTI Complete Object Locator'
	DD	00H
	DD	00H
	DD	FLAT:??_R0?AV?$pecker_pool_array@HV?$pecker_simple_allocator@H@pecker_sdk@@V?$pecker_simple_allocator@PAH@2@@pecker_sdk@@@8
	DD	FLAT:??_R3?$pecker_pool_array@HV?$pecker_simple_allocator@H@pecker_sdk@@V?$pecker_simple_allocator@PAH@2@@pecker_sdk@@8
rdata$r	ENDS
;	COMDAT ??_7?$pecker_pool_array@HV?$pecker_simple_allocator@H@pecker_sdk@@V?$pecker_simple_allocator@PAH@2@@pecker_sdk@@6B@
CONST	SEGMENT
??_7?$pecker_pool_array@HV?$pecker_simple_allocator@H@pecker_sdk@@V?$pecker_simple_allocator@PAH@2@@pecker_sdk@@6B@ DD FLAT:??_R4?$pecker_pool_array@HV?$pecker_simple_allocator@H@pecker_sdk@@V?$pecker_simple_allocator@PAH@2@@pecker_sdk@@6B@ ; pecker_sdk::pecker_pool_array<int,pecker_sdk::pecker_simple_allocator<int>,pecker_sdk::pecker_simple_allocator<int *> >::`vftable'
	DD	FLAT:??_E?$pecker_pool_array@HV?$pecker_simple_allocator@H@pecker_sdk@@V?$pecker_simple_allocator@PAH@2@@pecker_sdk@@UAEPAXI@Z
; Function compile flags: /Odtp /RTCsu /ZI
CONST	ENDS
;	COMDAT ??0?$pecker_pool_array@HV?$pecker_simple_allocator@H@pecker_sdk@@V?$pecker_simple_allocator@PAH@2@@pecker_sdk@@QAE@HH@Z
_TEXT	SEGMENT
_this$ = -8						; size = 4
_auto_allocate_size$ = 8				; size = 4
_array_buffer_array_allocate_step$ = 12			; size = 4
