; Listing generated by Microsoft (R) Optimizing Compiler Version 16.00.40219.01 

	TITLE	F:\codes\pecker_framework_git\pecker_src\pecker_framework\avl_tree_container_test.cpp
	.686P
	.XMM
	include listing.inc
	.model	flat

INCLUDELIB MSVCRTD
INCLUDELIB OLDNAMES

PUBLIC	?value@?$integral_constant@_N$0A@@tr1@std@@2_NB	; std::tr1::integral_constant<bool,0>::value
PUBLIC	?value@?$integral_constant@_N$00@tr1@std@@2_NB	; std::tr1::integral_constant<bool,1>::value
PUBLIC	?value@?$integral_constant@I$0A@@tr1@std@@2IB	; std::tr1::integral_constant<unsigned int,0>::value
PUBLIC	?_Rank@?$_Arithmetic_traits@_N@std@@2HB		; std::_Arithmetic_traits<bool>::_Rank
PUBLIC	?_Rank@?$_Arithmetic_traits@D@std@@2HB		; std::_Arithmetic_traits<char>::_Rank
PUBLIC	?_Rank@?$_Arithmetic_traits@C@std@@2HB		; std::_Arithmetic_traits<signed char>::_Rank
PUBLIC	?_Rank@?$_Arithmetic_traits@E@std@@2HB		; std::_Arithmetic_traits<unsigned char>::_Rank
PUBLIC	?_Rank@?$_Arithmetic_traits@F@std@@2HB		; std::_Arithmetic_traits<short>::_Rank
PUBLIC	?_Rank@?$_Arithmetic_traits@G@std@@2HB		; std::_Arithmetic_traits<unsigned short>::_Rank
PUBLIC	?_Rank@?$_Arithmetic_traits@H@std@@2HB		; std::_Arithmetic_traits<int>::_Rank
PUBLIC	?_Rank@?$_Arithmetic_traits@I@std@@2HB		; std::_Arithmetic_traits<unsigned int>::_Rank
PUBLIC	?_Rank@?$_Arithmetic_traits@J@std@@2HB		; std::_Arithmetic_traits<long>::_Rank
PUBLIC	?_Rank@?$_Arithmetic_traits@K@std@@2HB		; std::_Arithmetic_traits<unsigned long>::_Rank
PUBLIC	?_Rank@?$_Arithmetic_traits@_J@std@@2HB		; std::_Arithmetic_traits<__int64>::_Rank
PUBLIC	?_Rank@?$_Arithmetic_traits@_K@std@@2HB		; std::_Arithmetic_traits<unsigned __int64>::_Rank
PUBLIC	?_Rank@?$_Arithmetic_traits@M@std@@2HB		; std::_Arithmetic_traits<float>::_Rank
PUBLIC	?_Rank@?$_Arithmetic_traits@N@std@@2HB		; std::_Arithmetic_traits<double>::_Rank
PUBLIC	?_Rank@?$_Arithmetic_traits@O@std@@2HB		; std::_Arithmetic_traits<long double>::_Rank
PUBLIC	?collate@?$_Locbase@H@std@@2HB			; std::_Locbase<int>::collate
PUBLIC	?ctype@?$_Locbase@H@std@@2HB			; std::_Locbase<int>::ctype
PUBLIC	?monetary@?$_Locbase@H@std@@2HB			; std::_Locbase<int>::monetary
PUBLIC	?numeric@?$_Locbase@H@std@@2HB			; std::_Locbase<int>::numeric
PUBLIC	?time@?$_Locbase@H@std@@2HB			; std::_Locbase<int>::time
PUBLIC	?messages@?$_Locbase@H@std@@2HB			; std::_Locbase<int>::messages
PUBLIC	?all@?$_Locbase@H@std@@2HB			; std::_Locbase<int>::all
PUBLIC	?none@?$_Locbase@H@std@@2HB			; std::_Locbase<int>::none
PUBLIC	?skipws@?$_Iosb@H@std@@2W4_Fmtflags@12@B	; std::_Iosb<int>::skipws
PUBLIC	?unitbuf@?$_Iosb@H@std@@2W4_Fmtflags@12@B	; std::_Iosb<int>::unitbuf
PUBLIC	?uppercase@?$_Iosb@H@std@@2W4_Fmtflags@12@B	; std::_Iosb<int>::uppercase
PUBLIC	?showbase@?$_Iosb@H@std@@2W4_Fmtflags@12@B	; std::_Iosb<int>::showbase
PUBLIC	?showpoint@?$_Iosb@H@std@@2W4_Fmtflags@12@B	; std::_Iosb<int>::showpoint
PUBLIC	?showpos@?$_Iosb@H@std@@2W4_Fmtflags@12@B	; std::_Iosb<int>::showpos
PUBLIC	?left@?$_Iosb@H@std@@2W4_Fmtflags@12@B		; std::_Iosb<int>::left
PUBLIC	?right@?$_Iosb@H@std@@2W4_Fmtflags@12@B		; std::_Iosb<int>::right
PUBLIC	?internal@?$_Iosb@H@std@@2W4_Fmtflags@12@B	; std::_Iosb<int>::internal
PUBLIC	?dec@?$_Iosb@H@std@@2W4_Fmtflags@12@B		; std::_Iosb<int>::dec
PUBLIC	?oct@?$_Iosb@H@std@@2W4_Fmtflags@12@B		; std::_Iosb<int>::oct
PUBLIC	?hex@?$_Iosb@H@std@@2W4_Fmtflags@12@B		; std::_Iosb<int>::hex
PUBLIC	?scientific@?$_Iosb@H@std@@2W4_Fmtflags@12@B	; std::_Iosb<int>::scientific
PUBLIC	?fixed@?$_Iosb@H@std@@2W4_Fmtflags@12@B		; std::_Iosb<int>::fixed
PUBLIC	?hexfloat@?$_Iosb@H@std@@2W4_Fmtflags@12@B	; std::_Iosb<int>::hexfloat
PUBLIC	?boolalpha@?$_Iosb@H@std@@2W4_Fmtflags@12@B	; std::_Iosb<int>::boolalpha
PUBLIC	?_Stdio@?$_Iosb@H@std@@2W4_Fmtflags@12@B	; std::_Iosb<int>::_Stdio
PUBLIC	?adjustfield@?$_Iosb@H@std@@2W4_Fmtflags@12@B	; std::_Iosb<int>::adjustfield
PUBLIC	?basefield@?$_Iosb@H@std@@2W4_Fmtflags@12@B	; std::_Iosb<int>::basefield
PUBLIC	?floatfield@?$_Iosb@H@std@@2W4_Fmtflags@12@B	; std::_Iosb<int>::floatfield
PUBLIC	?goodbit@?$_Iosb@H@std@@2W4_Iostate@12@B	; std::_Iosb<int>::goodbit
PUBLIC	?eofbit@?$_Iosb@H@std@@2W4_Iostate@12@B		; std::_Iosb<int>::eofbit
PUBLIC	?failbit@?$_Iosb@H@std@@2W4_Iostate@12@B	; std::_Iosb<int>::failbit
PUBLIC	?badbit@?$_Iosb@H@std@@2W4_Iostate@12@B		; std::_Iosb<int>::badbit
PUBLIC	?_Hardfail@?$_Iosb@H@std@@2W4_Iostate@12@B	; std::_Iosb<int>::_Hardfail
PUBLIC	?in@?$_Iosb@H@std@@2W4_Openmode@12@B		; std::_Iosb<int>::in
PUBLIC	?out@?$_Iosb@H@std@@2W4_Openmode@12@B		; std::_Iosb<int>::out
PUBLIC	?ate@?$_Iosb@H@std@@2W4_Openmode@12@B		; std::_Iosb<int>::ate
PUBLIC	?app@?$_Iosb@H@std@@2W4_Openmode@12@B		; std::_Iosb<int>::app
PUBLIC	?trunc@?$_Iosb@H@std@@2W4_Openmode@12@B		; std::_Iosb<int>::trunc
PUBLIC	?_Nocreate@?$_Iosb@H@std@@2W4_Openmode@12@B	; std::_Iosb<int>::_Nocreate
PUBLIC	?_Noreplace@?$_Iosb@H@std@@2W4_Openmode@12@B	; std::_Iosb<int>::_Noreplace
PUBLIC	?binary@?$_Iosb@H@std@@2W4_Openmode@12@B	; std::_Iosb<int>::binary
PUBLIC	?beg@?$_Iosb@H@std@@2W4_Seekdir@12@B		; std::_Iosb<int>::beg
PUBLIC	?cur@?$_Iosb@H@std@@2W4_Seekdir@12@B		; std::_Iosb<int>::cur
PUBLIC	?end@?$_Iosb@H@std@@2W4_Seekdir@12@B		; std::_Iosb<int>::end
PUBLIC	?avl_char_cmp_count@@3HA			; avl_char_cmp_count
_BSS	SEGMENT
?avl_char_cmp_count@@3HA DD 01H DUP (?)			; avl_char_cmp_count
_BSS	ENDS
;	COMDAT ?end@?$_Iosb@H@std@@2W4_Seekdir@12@B
CONST	SEGMENT
?end@?$_Iosb@H@std@@2W4_Seekdir@12@B DD 02H		; std::_Iosb<int>::end
CONST	ENDS
;	COMDAT ?cur@?$_Iosb@H@std@@2W4_Seekdir@12@B
CONST	SEGMENT
?cur@?$_Iosb@H@std@@2W4_Seekdir@12@B DD 01H		; std::_Iosb<int>::cur
CONST	ENDS
;	COMDAT ?beg@?$_Iosb@H@std@@2W4_Seekdir@12@B
CONST	SEGMENT
?beg@?$_Iosb@H@std@@2W4_Seekdir@12@B DD 00H		; std::_Iosb<int>::beg
CONST	ENDS
;	COMDAT ?binary@?$_Iosb@H@std@@2W4_Openmode@12@B
CONST	SEGMENT
?binary@?$_Iosb@H@std@@2W4_Openmode@12@B DD 020H	; std::_Iosb<int>::binary
CONST	ENDS
;	COMDAT ?_Noreplace@?$_Iosb@H@std@@2W4_Openmode@12@B
CONST	SEGMENT
?_Noreplace@?$_Iosb@H@std@@2W4_Openmode@12@B DD 080H	; std::_Iosb<int>::_Noreplace
CONST	ENDS
;	COMDAT ?_Nocreate@?$_Iosb@H@std@@2W4_Openmode@12@B
CONST	SEGMENT
?_Nocreate@?$_Iosb@H@std@@2W4_Openmode@12@B DD 040H	; std::_Iosb<int>::_Nocreate
CONST	ENDS
;	COMDAT ?trunc@?$_Iosb@H@std@@2W4_Openmode@12@B
CONST	SEGMENT
?trunc@?$_Iosb@H@std@@2W4_Openmode@12@B DD 010H		; std::_Iosb<int>::trunc
CONST	ENDS
;	COMDAT ?app@?$_Iosb@H@std@@2W4_Openmode@12@B
CONST	SEGMENT
?app@?$_Iosb@H@std@@2W4_Openmode@12@B DD 08H		; std::_Iosb<int>::app
CONST	ENDS
;	COMDAT ?ate@?$_Iosb@H@std@@2W4_Openmode@12@B
CONST	SEGMENT
?ate@?$_Iosb@H@std@@2W4_Openmode@12@B DD 04H		; std::_Iosb<int>::ate
CONST	ENDS
;	COMDAT ?out@?$_Iosb@H@std@@2W4_Openmode@12@B
CONST	SEGMENT
?out@?$_Iosb@H@std@@2W4_Openmode@12@B DD 02H		; std::_Iosb<int>::out
CONST	ENDS
;	COMDAT ?in@?$_Iosb@H@std@@2W4_Openmode@12@B
CONST	SEGMENT
?in@?$_Iosb@H@std@@2W4_Openmode@12@B DD 01H		; std::_Iosb<int>::in
CONST	ENDS
;	COMDAT ?_Hardfail@?$_Iosb@H@std@@2W4_Iostate@12@B
CONST	SEGMENT
?_Hardfail@?$_Iosb@H@std@@2W4_Iostate@12@B DD 010H	; std::_Iosb<int>::_Hardfail
CONST	ENDS
;	COMDAT ?badbit@?$_Iosb@H@std@@2W4_Iostate@12@B
CONST	SEGMENT
?badbit@?$_Iosb@H@std@@2W4_Iostate@12@B DD 04H		; std::_Iosb<int>::badbit
CONST	ENDS
;	COMDAT ?failbit@?$_Iosb@H@std@@2W4_Iostate@12@B
CONST	SEGMENT
?failbit@?$_Iosb@H@std@@2W4_Iostate@12@B DD 02H		; std::_Iosb<int>::failbit
CONST	ENDS
;	COMDAT ?eofbit@?$_Iosb@H@std@@2W4_Iostate@12@B
CONST	SEGMENT
?eofbit@?$_Iosb@H@std@@2W4_Iostate@12@B DD 01H		; std::_Iosb<int>::eofbit
CONST	ENDS
;	COMDAT ?goodbit@?$_Iosb@H@std@@2W4_Iostate@12@B
CONST	SEGMENT
?goodbit@?$_Iosb@H@std@@2W4_Iostate@12@B DD 00H		; std::_Iosb<int>::goodbit
CONST	ENDS
;	COMDAT ?floatfield@?$_Iosb@H@std@@2W4_Fmtflags@12@B
CONST	SEGMENT
?floatfield@?$_Iosb@H@std@@2W4_Fmtflags@12@B DD 03000H	; std::_Iosb<int>::floatfield
CONST	ENDS
;	COMDAT ?basefield@?$_Iosb@H@std@@2W4_Fmtflags@12@B
CONST	SEGMENT
?basefield@?$_Iosb@H@std@@2W4_Fmtflags@12@B DD 0e00H	; std::_Iosb<int>::basefield
CONST	ENDS
;	COMDAT ?adjustfield@?$_Iosb@H@std@@2W4_Fmtflags@12@B
CONST	SEGMENT
?adjustfield@?$_Iosb@H@std@@2W4_Fmtflags@12@B DD 01c0H	; std::_Iosb<int>::adjustfield
CONST	ENDS
;	COMDAT ?_Stdio@?$_Iosb@H@std@@2W4_Fmtflags@12@B
CONST	SEGMENT
?_Stdio@?$_Iosb@H@std@@2W4_Fmtflags@12@B DD 08000H	; std::_Iosb<int>::_Stdio
CONST	ENDS
;	COMDAT ?boolalpha@?$_Iosb@H@std@@2W4_Fmtflags@12@B
CONST	SEGMENT
?boolalpha@?$_Iosb@H@std@@2W4_Fmtflags@12@B DD 04000H	; std::_Iosb<int>::boolalpha
CONST	ENDS
;	COMDAT ?hexfloat@?$_Iosb@H@std@@2W4_Fmtflags@12@B
CONST	SEGMENT
?hexfloat@?$_Iosb@H@std@@2W4_Fmtflags@12@B DD 03000H	; std::_Iosb<int>::hexfloat
CONST	ENDS
;	COMDAT ?fixed@?$_Iosb@H@std@@2W4_Fmtflags@12@B
CONST	SEGMENT
?fixed@?$_Iosb@H@std@@2W4_Fmtflags@12@B DD 02000H	; std::_Iosb<int>::fixed
CONST	ENDS
;	COMDAT ?scientific@?$_Iosb@H@std@@2W4_Fmtflags@12@B
CONST	SEGMENT
?scientific@?$_Iosb@H@std@@2W4_Fmtflags@12@B DD 01000H	; std::_Iosb<int>::scientific
CONST	ENDS
;	COMDAT ?hex@?$_Iosb@H@std@@2W4_Fmtflags@12@B
CONST	SEGMENT
?hex@?$_Iosb@H@std@@2W4_Fmtflags@12@B DD 0800H		; std::_Iosb<int>::hex
CONST	ENDS
;	COMDAT ?oct@?$_Iosb@H@std@@2W4_Fmtflags@12@B
CONST	SEGMENT
?oct@?$_Iosb@H@std@@2W4_Fmtflags@12@B DD 0400H		; std::_Iosb<int>::oct
CONST	ENDS
;	COMDAT ?dec@?$_Iosb@H@std@@2W4_Fmtflags@12@B
CONST	SEGMENT
?dec@?$_Iosb@H@std@@2W4_Fmtflags@12@B DD 0200H		; std::_Iosb<int>::dec
CONST	ENDS
;	COMDAT ?internal@?$_Iosb@H@std@@2W4_Fmtflags@12@B
CONST	SEGMENT
?internal@?$_Iosb@H@std@@2W4_Fmtflags@12@B DD 0100H	; std::_Iosb<int>::internal
CONST	ENDS
;	COMDAT ?right@?$_Iosb@H@std@@2W4_Fmtflags@12@B
CONST	SEGMENT
?right@?$_Iosb@H@std@@2W4_Fmtflags@12@B DD 080H		; std::_Iosb<int>::right
CONST	ENDS
;	COMDAT ?left@?$_Iosb@H@std@@2W4_Fmtflags@12@B
CONST	SEGMENT
?left@?$_Iosb@H@std@@2W4_Fmtflags@12@B DD 040H		; std::_Iosb<int>::left
CONST	ENDS
;	COMDAT ?showpos@?$_Iosb@H@std@@2W4_Fmtflags@12@B
CONST	SEGMENT
?showpos@?$_Iosb@H@std@@2W4_Fmtflags@12@B DD 020H	; std::_Iosb<int>::showpos
CONST	ENDS
;	COMDAT ?showpoint@?$_Iosb@H@std@@2W4_Fmtflags@12@B
CONST	SEGMENT
?showpoint@?$_Iosb@H@std@@2W4_Fmtflags@12@B DD 010H	; std::_Iosb<int>::showpoint
CONST	ENDS
;	COMDAT ?showbase@?$_Iosb@H@std@@2W4_Fmtflags@12@B
CONST	SEGMENT
?showbase@?$_Iosb@H@std@@2W4_Fmtflags@12@B DD 08H	; std::_Iosb<int>::showbase
CONST	ENDS
;	COMDAT ?uppercase@?$_Iosb@H@std@@2W4_Fmtflags@12@B
CONST	SEGMENT
?uppercase@?$_Iosb@H@std@@2W4_Fmtflags@12@B DD 04H	; std::_Iosb<int>::uppercase
CONST	ENDS
;	COMDAT ?unitbuf@?$_Iosb@H@std@@2W4_Fmtflags@12@B
CONST	SEGMENT
?unitbuf@?$_Iosb@H@std@@2W4_Fmtflags@12@B DD 02H	; std::_Iosb<int>::unitbuf
CONST	ENDS
;	COMDAT ?skipws@?$_Iosb@H@std@@2W4_Fmtflags@12@B
CONST	SEGMENT
?skipws@?$_Iosb@H@std@@2W4_Fmtflags@12@B DD 01H		; std::_Iosb<int>::skipws
CONST	ENDS
;	COMDAT ?none@?$_Locbase@H@std@@2HB
CONST	SEGMENT
?none@?$_Locbase@H@std@@2HB DD 00H			; std::_Locbase<int>::none
CONST	ENDS
;	COMDAT ?all@?$_Locbase@H@std@@2HB
CONST	SEGMENT
?all@?$_Locbase@H@std@@2HB DD 03fH			; std::_Locbase<int>::all
CONST	ENDS
;	COMDAT ?messages@?$_Locbase@H@std@@2HB
CONST	SEGMENT
?messages@?$_Locbase@H@std@@2HB DD 020H			; std::_Locbase<int>::messages
CONST	ENDS
;	COMDAT ?time@?$_Locbase@H@std@@2HB
CONST	SEGMENT
?time@?$_Locbase@H@std@@2HB DD 010H			; std::_Locbase<int>::time
CONST	ENDS
;	COMDAT ?numeric@?$_Locbase@H@std@@2HB
CONST	SEGMENT
?numeric@?$_Locbase@H@std@@2HB DD 08H			; std::_Locbase<int>::numeric
CONST	ENDS
;	COMDAT ?monetary@?$_Locbase@H@std@@2HB
CONST	SEGMENT
?monetary@?$_Locbase@H@std@@2HB DD 04H			; std::_Locbase<int>::monetary
CONST	ENDS
;	COMDAT ?ctype@?$_Locbase@H@std@@2HB
CONST	SEGMENT
?ctype@?$_Locbase@H@std@@2HB DD 02H			; std::_Locbase<int>::ctype
CONST	ENDS
;	COMDAT ?collate@?$_Locbase@H@std@@2HB
CONST	SEGMENT
?collate@?$_Locbase@H@std@@2HB DD 01H			; std::_Locbase<int>::collate
CONST	ENDS
;	COMDAT ?_Rank@?$_Arithmetic_traits@O@std@@2HB
CONST	SEGMENT
?_Rank@?$_Arithmetic_traits@O@std@@2HB DD 09H		; std::_Arithmetic_traits<long double>::_Rank
CONST	ENDS
;	COMDAT ?_Rank@?$_Arithmetic_traits@N@std@@2HB
CONST	SEGMENT
?_Rank@?$_Arithmetic_traits@N@std@@2HB DD 08H		; std::_Arithmetic_traits<double>::_Rank
CONST	ENDS
;	COMDAT ?_Rank@?$_Arithmetic_traits@M@std@@2HB
CONST	SEGMENT
?_Rank@?$_Arithmetic_traits@M@std@@2HB DD 07H		; std::_Arithmetic_traits<float>::_Rank
CONST	ENDS
;	COMDAT ?_Rank@?$_Arithmetic_traits@_K@std@@2HB
CONST	SEGMENT
?_Rank@?$_Arithmetic_traits@_K@std@@2HB DD 06H		; std::_Arithmetic_traits<unsigned __int64>::_Rank
CONST	ENDS
;	COMDAT ?_Rank@?$_Arithmetic_traits@_J@std@@2HB
CONST	SEGMENT
?_Rank@?$_Arithmetic_traits@_J@std@@2HB DD 06H		; std::_Arithmetic_traits<__int64>::_Rank
CONST	ENDS
;	COMDAT ?_Rank@?$_Arithmetic_traits@K@std@@2HB
CONST	SEGMENT
?_Rank@?$_Arithmetic_traits@K@std@@2HB DD 05H		; std::_Arithmetic_traits<unsigned long>::_Rank
CONST	ENDS
;	COMDAT ?_Rank@?$_Arithmetic_traits@J@std@@2HB
CONST	SEGMENT
?_Rank@?$_Arithmetic_traits@J@std@@2HB DD 05H		; std::_Arithmetic_traits<long>::_Rank
CONST	ENDS
;	COMDAT ?_Rank@?$_Arithmetic_traits@I@std@@2HB
CONST	SEGMENT
?_Rank@?$_Arithmetic_traits@I@std@@2HB DD 04H		; std::_Arithmetic_traits<unsigned int>::_Rank
CONST	ENDS
;	COMDAT ?_Rank@?$_Arithmetic_traits@H@std@@2HB
CONST	SEGMENT
?_Rank@?$_Arithmetic_traits@H@std@@2HB DD 04H		; std::_Arithmetic_traits<int>::_Rank
CONST	ENDS
;	COMDAT ?_Rank@?$_Arithmetic_traits@G@std@@2HB
CONST	SEGMENT
?_Rank@?$_Arithmetic_traits@G@std@@2HB DD 03H		; std::_Arithmetic_traits<unsigned short>::_Rank
CONST	ENDS
;	COMDAT ?_Rank@?$_Arithmetic_traits@F@std@@2HB
CONST	SEGMENT
?_Rank@?$_Arithmetic_traits@F@std@@2HB DD 03H		; std::_Arithmetic_traits<short>::_Rank
CONST	ENDS
;	COMDAT ?_Rank@?$_Arithmetic_traits@E@std@@2HB
CONST	SEGMENT
?_Rank@?$_Arithmetic_traits@E@std@@2HB DD 02H		; std::_Arithmetic_traits<unsigned char>::_Rank
CONST	ENDS
;	COMDAT ?_Rank@?$_Arithmetic_traits@C@std@@2HB
CONST	SEGMENT
?_Rank@?$_Arithmetic_traits@C@std@@2HB DD 02H		; std::_Arithmetic_traits<signed char>::_Rank
CONST	ENDS
;	COMDAT ?_Rank@?$_Arithmetic_traits@D@std@@2HB
CONST	SEGMENT
?_Rank@?$_Arithmetic_traits@D@std@@2HB DD 02H		; std::_Arithmetic_traits<char>::_Rank
CONST	ENDS
;	COMDAT ?_Rank@?$_Arithmetic_traits@_N@std@@2HB
CONST	SEGMENT
?_Rank@?$_Arithmetic_traits@_N@std@@2HB DD 01H		; std::_Arithmetic_traits<bool>::_Rank
CONST	ENDS
;	COMDAT ?value@?$integral_constant@I$0A@@tr1@std@@2IB
CONST	SEGMENT
?value@?$integral_constant@I$0A@@tr1@std@@2IB DD 00H	; std::tr1::integral_constant<unsigned int,0>::value
CONST	ENDS
;	COMDAT ?value@?$integral_constant@_N$00@tr1@std@@2_NB
CONST	SEGMENT
?value@?$integral_constant@_N$00@tr1@std@@2_NB DB 01H	; std::tr1::integral_constant<bool,1>::value
CONST	ENDS
;	COMDAT ?value@?$integral_constant@_N$0A@@tr1@std@@2_NB
CONST	SEGMENT
?value@?$integral_constant@_N$0A@@tr1@std@@2_NB DB 00H	; std::tr1::integral_constant<bool,0>::value
CONST	ENDS
PUBLIC	??1?$pecker_avl_tree_set_container@V?$basic_string@DU?$char_traits@D@std@@V?$allocator@D@2@@std@@Ustringcmp_t@@U?$AVL_node_set@V?$basic_string@DU?$char_traits@D@std@@V?$allocator@D@2@@std@@@pecker_sdk@@V?$pecker_nodes_simple_allocater@U?$AVL_node_set@V?$basic_string@DU?$char_traits@D@std@@V?$allocator@D@2@@std@@@pecker_sdk@@V?$pecker_simple_allocator@U?$AVL_node_set@V?$basic_string@DU?$char_traits@D@std@@V?$allocator@D@2@@std@@@pecker_sdk@@@2@@5@@pecker_sdk@@QAE@XZ ; pecker_sdk::pecker_avl_tree_set_container<std::basic_string<char,std::char_traits<char>,std::allocator<char> >,stringcmp_t,pecker_sdk::AVL_node_set<std::basic_string<char,std::char_traits<char>,std::allocator<char> > >,pecker_sdk::pecker_nodes_simple_allocater<pecker_sdk::AVL_node_set<std::basic_string<char,std::char_traits<char>,std::allocator<char> > >,pecker_sdk::pecker_simple_allocator<pecker_sdk::AVL_node_set<std::basic_string<char,std::char_traits<char>,std::allocator<char> > > > > >::~pecker_avl_tree_set_container<std::basic_string<char,std::char_traits<char>,std::allocator<char> >,stringcmp_t,pecker_sdk::AVL_node_set<std::basic_string<char,std::char_traits<char>,std::allocator<char> > >,pecker_sdk::pecker_nodes_simple_allocater<pecker_sdk::AVL_node_set<std::basic_string<char,std::char_traits<char>,std::allocator<char> > >,pecker_sdk::pecker_simple_allocator<pecker_sdk::AVL_node_set<std::basic_string<char,std::char_traits<char>,std::allocator<char> > > > > >
PUBLIC	??1?$pecker_array@V?$basic_string@DU?$char_traits@D@std@@V?$allocator@D@2@@std@@V?$pecker_simple_allocator@V?$basic_string@DU?$char_traits@D@std@@V?$allocator@D@2@@std@@@pecker_sdk@@@pecker_sdk@@UAE@XZ ; pecker_sdk::pecker_array<std::basic_string<char,std::char_traits<char>,std::allocator<char> >,pecker_sdk::pecker_simple_allocator<std::basic_string<char,std::char_traits<char>,std::allocator<char> > > >::~pecker_array<std::basic_string<char,std::char_traits<char>,std::allocator<char> >,pecker_sdk::pecker_simple_allocator<std::basic_string<char,std::char_traits<char>,std::allocator<char> > > >
PUBLIC	??_D?$basic_ifstream@DU?$char_traits@D@std@@@std@@QAEXXZ ; std::basic_ifstream<char,std::char_traits<char> >::`vbase destructor'
PUBLIC	??1?$pecker_array_iterator@V?$pecker_array@V?$basic_string@DU?$char_traits@D@std@@V?$allocator@D@2@@std@@V?$pecker_simple_allocator@V?$basic_string@DU?$char_traits@D@std@@V?$allocator@D@2@@std@@@pecker_sdk@@@pecker_sdk@@@pecker_sdk@@UAE@XZ ; pecker_sdk::pecker_array_iterator<pecker_sdk::pecker_array<std::basic_string<char,std::char_traits<char>,std::allocator<char> >,pecker_sdk::pecker_simple_allocator<std::basic_string<char,std::char_traits<char>,std::allocator<char> > > > >::~pecker_array_iterator<pecker_sdk::pecker_array<std::basic_string<char,std::char_traits<char>,std::allocator<char> >,pecker_sdk::pecker_simple_allocator<std::basic_string<char,std::char_traits<char>,std::allocator<char> > > > >
PUBLIC	??1?$pecker_bst_tree_no_perent_node_inorder_iterator_base@U_AVL_node_base@pecker_sdk@@V?$pecker_simple_allocator@PBU_AVL_node_base@pecker_sdk@@@2@V?$pecker_simple_allocator@PAPBU_AVL_node_base@pecker_sdk@@@2@@pecker_sdk@@UAE@XZ ; pecker_sdk::pecker_bst_tree_no_perent_node_inorder_iterator_base<pecker_sdk::_AVL_node_base,pecker_sdk::pecker_simple_allocator<pecker_sdk::_AVL_node_base const *>,pecker_sdk::pecker_simple_allocator<pecker_sdk::_AVL_node_base const * *> >::~pecker_bst_tree_no_perent_node_inorder_iterator_base<pecker_sdk::_AVL_node_base,pecker_sdk::pecker_simple_allocator<pecker_sdk::_AVL_node_base const *>,pecker_sdk::pecker_simple_allocator<pecker_sdk::_AVL_node_base const * *> >
PUBLIC	??1?$pecker_bst_tree_no_perent_node_posorder_iterator_base@U_AVL_node_base@pecker_sdk@@V?$pecker_simple_allocator@PBU_AVL_node_base@pecker_sdk@@@2@V?$pecker_simple_allocator@PAPBU_AVL_node_base@pecker_sdk@@@2@@pecker_sdk@@UAE@XZ ; pecker_sdk::pecker_bst_tree_no_perent_node_posorder_iterator_base<pecker_sdk::_AVL_node_base,pecker_sdk::pecker_simple_allocator<pecker_sdk::_AVL_node_base const *>,pecker_sdk::pecker_simple_allocator<pecker_sdk::_AVL_node_base const * *> >::~pecker_bst_tree_no_perent_node_posorder_iterator_base<pecker_sdk::_AVL_node_base,pecker_sdk::pecker_simple_allocator<pecker_sdk::_AVL_node_base const *>,pecker_sdk::pecker_simple_allocator<pecker_sdk::_AVL_node_base const * *> >
PUBLIC	??_C@_0BN@NOBDPJD@copy?5tree?5iterator?5inc?5?4?4?4?4?4?$AA@ ; `string'
PUBLIC	?reinit@?$pecker_bst_tree_no_perent_node_inorder_iterator_base@U_AVL_node_base@pecker_sdk@@V?$pecker_simple_allocator@PBU_AVL_node_base@pecker_sdk@@@2@V?$pecker_simple_allocator@PAPBU_AVL_node_base@pecker_sdk@@@2@@pecker_sdk@@UAEJPBU_AVL_node_base@2@W4enumTREE_ITERATOR_INIT_TYPE@@@Z ; pecker_sdk::pecker_bst_tree_no_perent_node_inorder_iterator_base<pecker_sdk::_AVL_node_base,pecker_sdk::pecker_simple_allocator<pecker_sdk::_AVL_node_base const *>,pecker_sdk::pecker_simple_allocator<pecker_sdk::_AVL_node_base const * *> >::reinit
PUBLIC	?get_root@?$pecker_avl_tree_set_container@V?$basic_string@DU?$char_traits@D@std@@V?$allocator@D@2@@std@@Ustringcmp_t@@U?$AVL_node_set@V?$basic_string@DU?$char_traits@D@std@@V?$allocator@D@2@@std@@@pecker_sdk@@V?$pecker_nodes_simple_allocater@U?$AVL_node_set@V?$basic_string@DU?$char_traits@D@std@@V?$allocator@D@2@@std@@@pecker_sdk@@V?$pecker_simple_allocator@U?$AVL_node_set@V?$basic_string@DU?$char_traits@D@std@@V?$allocator@D@2@@std@@@pecker_sdk@@@2@@5@@pecker_sdk@@QBEPBU?$AVL_node_set@V?$basic_string@DU?$char_traits@D@std@@V?$allocator@D@2@@std@@@2@XZ ; pecker_sdk::pecker_avl_tree_set_container<std::basic_string<char,std::char_traits<char>,std::allocator<char> >,stringcmp_t,pecker_sdk::AVL_node_set<std::basic_string<char,std::char_traits<char>,std::allocator<char> > >,pecker_sdk::pecker_nodes_simple_allocater<pecker_sdk::AVL_node_set<std::basic_string<char,std::char_traits<char>,std::allocator<char> > >,pecker_sdk::pecker_simple_allocator<pecker_sdk::AVL_node_set<std::basic_string<char,std::char_traits<char>,std::allocator<char> > > > > >::get_root
PUBLIC	?clear@?$pecker_avl_tree_set_container@V?$basic_string@DU?$char_traits@D@std@@V?$allocator@D@2@@std@@Ustringcmp_t@@U?$AVL_node_set@V?$basic_string@DU?$char_traits@D@std@@V?$allocator@D@2@@std@@@pecker_sdk@@V?$pecker_nodes_simple_allocater@U?$AVL_node_set@V?$basic_string@DU?$char_traits@D@std@@V?$allocator@D@2@@std@@@pecker_sdk@@V?$pecker_simple_allocator@U?$AVL_node_set@V?$basic_string@DU?$char_traits@D@std@@V?$allocator@D@2@@std@@@pecker_sdk@@@2@@5@@pecker_sdk@@QAEJ_N@Z ; pecker_sdk::pecker_avl_tree_set_container<std::basic_string<char,std::char_traits<char>,std::allocator<char> >,stringcmp_t,pecker_sdk::AVL_node_set<std::basic_string<char,std::char_traits<char>,std::allocator<char> > >,pecker_sdk::pecker_nodes_simple_allocater<pecker_sdk::AVL_node_set<std::basic_string<char,std::char_traits<char>,std::allocator<char> > >,pecker_sdk::pecker_simple_allocator<pecker_sdk::AVL_node_set<std::basic_string<char,std::char_traits<char>,std::allocator<char> > > > > >::clear
PUBLIC	?copy@?$pecker_avl_tree_set_container@V?$basic_string@DU?$char_traits@D@std@@V?$allocator@D@2@@std@@Ustringcmp_t@@U?$AVL_node_set@V?$basic_string@DU?$char_traits@D@std@@V?$allocator@D@2@@std@@@pecker_sdk@@V?$pecker_nodes_simple_allocater@U?$AVL_node_set@V?$basic_string@DU?$char_traits@D@std@@V?$allocator@D@2@@std@@@pecker_sdk@@V?$pecker_simple_allocator@U?$AVL_node_set@V?$basic_string@DU?$char_traits@D@std@@V?$allocator@D@2@@std@@@pecker_sdk@@@2@@5@@pecker_sdk@@QAEJPBV12@@Z ; pecker_sdk::pecker_avl_tree_set_container<std::basic_string<char,std::char_traits<char>,std::allocator<char> >,stringcmp_t,pecker_sdk::AVL_node_set<std::basic_string<char,std::char_traits<char>,std::allocator<char> > >,pecker_sdk::pecker_nodes_simple_allocater<pecker_sdk::AVL_node_set<std::basic_string<char,std::char_traits<char>,std::allocator<char> > >,pecker_sdk::pecker_simple_allocator<pecker_sdk::AVL_node_set<std::basic_string<char,std::char_traits<char>,std::allocator<char> > > > > >::copy
PUBLIC	?increment_left@?$pecker_bst_tree_no_perent_node_posorder_iterator_base@U_AVL_node_base@pecker_sdk@@V?$pecker_simple_allocator@PBU_AVL_node_base@pecker_sdk@@@2@V?$pecker_simple_allocator@PAPBU_AVL_node_base@pecker_sdk@@@2@@pecker_sdk@@UAEJXZ ; pecker_sdk::pecker_bst_tree_no_perent_node_posorder_iterator_base<pecker_sdk::_AVL_node_base,pecker_sdk::pecker_simple_allocator<pecker_sdk::_AVL_node_base const *>,pecker_sdk::pecker_simple_allocator<pecker_sdk::_AVL_node_base const * *> >::increment_left
PUBLIC	?increment_right@?$pecker_bst_tree_no_perent_node_posorder_iterator_base@U_AVL_node_base@pecker_sdk@@V?$pecker_simple_allocator@PBU_AVL_node_base@pecker_sdk@@@2@V?$pecker_simple_allocator@PAPBU_AVL_node_base@pecker_sdk@@@2@@pecker_sdk@@UAEJXZ ; pecker_sdk::pecker_bst_tree_no_perent_node_posorder_iterator_base<pecker_sdk::_AVL_node_base,pecker_sdk::pecker_simple_allocator<pecker_sdk::_AVL_node_base const *>,pecker_sdk::pecker_simple_allocator<pecker_sdk::_AVL_node_base const * *> >::increment_right
PUBLIC	??_C@_0CD@OCLOMHFI@tree?5pos?5iterator?5inc?5?5?$CG?$CG?5dec?4?4?4@ ; `string'
PUBLIC	??0?$pecker_bst_tree_no_perent_node_posorder_iterator_base@U_AVL_node_base@pecker_sdk@@V?$pecker_simple_allocator@PBU_AVL_node_base@pecker_sdk@@@2@V?$pecker_simple_allocator@PAPBU_AVL_node_base@pecker_sdk@@@2@@pecker_sdk@@QAE@PBU_AVL_node_base@1@@Z ; pecker_sdk::pecker_bst_tree_no_perent_node_posorder_iterator_base<pecker_sdk::_AVL_node_base,pecker_sdk::pecker_simple_allocator<pecker_sdk::_AVL_node_base const *>,pecker_sdk::pecker_simple_allocator<pecker_sdk::_AVL_node_base const * *> >::pecker_bst_tree_no_perent_node_posorder_iterator_base<pecker_sdk::_AVL_node_base,pecker_sdk::pecker_simple_allocator<pecker_sdk::_AVL_node_base const *>,pecker_sdk::pecker_simple_allocator<pecker_sdk::_AVL_node_base const * *> >
PUBLIC	??_C@_03MHLONNLM@?5?$DN?5?$AA@			; `string'
PUBLIC	??_C@_0BP@MANLILJM@tree?5iterator?5inc?5?5?$CG?$CG?5dec?4?4?4?4?4?$AA@ ; `string'
PUBLIC	?decrement@?$pecker_bst_tree_no_perent_node_inorder_iterator_base@U_AVL_node_base@pecker_sdk@@V?$pecker_simple_allocator@PBU_AVL_node_base@pecker_sdk@@@2@V?$pecker_simple_allocator@PAPBU_AVL_node_base@pecker_sdk@@@2@@pecker_sdk@@UAEJXZ ; pecker_sdk::pecker_bst_tree_no_perent_node_inorder_iterator_base<pecker_sdk::_AVL_node_base,pecker_sdk::pecker_simple_allocator<pecker_sdk::_AVL_node_base const *>,pecker_sdk::pecker_simple_allocator<pecker_sdk::_AVL_node_base const * *> >::decrement
PUBLIC	??_C@_0BI@CGJJIMKE@tree?5iterator?5dec?5?4?4?4?4?4?$AA@ ; `string'
PUBLIC	?increment@?$pecker_bst_tree_no_perent_node_inorder_iterator_base@U_AVL_node_base@pecker_sdk@@V?$pecker_simple_allocator@PBU_AVL_node_base@pecker_sdk@@@2@V?$pecker_simple_allocator@PAPBU_AVL_node_base@pecker_sdk@@@2@@pecker_sdk@@UAEJXZ ; pecker_sdk::pecker_bst_tree_no_perent_node_inorder_iterator_base<pecker_sdk::_AVL_node_base,pecker_sdk::pecker_simple_allocator<pecker_sdk::_AVL_node_base const *>,pecker_sdk::pecker_simple_allocator<pecker_sdk::_AVL_node_base const * *> >::increment
PUBLIC	??$?8DU?$char_traits@D@std@@V?$allocator@D@1@@std@@YA_NPBDABV?$basic_string@DU?$char_traits@D@std@@V?$allocator@D@2@@0@@Z ; std::operator==<char,std::char_traits<char>,std::allocator<char> >
PUBLIC	??_C@_04BIGBAIKH@yard?$AA@			; `string'
PUBLIC	?get_at@?$pecker_avl_tree_set_container@V?$basic_string@DU?$char_traits@D@std@@V?$allocator@D@2@@std@@Ustringcmp_t@@U?$AVL_node_set@V?$basic_string@DU?$char_traits@D@std@@V?$allocator@D@2@@std@@@pecker_sdk@@V?$pecker_nodes_simple_allocater@U?$AVL_node_set@V?$basic_string@DU?$char_traits@D@std@@V?$allocator@D@2@@std@@@pecker_sdk@@V?$pecker_simple_allocator@U?$AVL_node_set@V?$basic_string@DU?$char_traits@D@std@@V?$allocator@D@2@@std@@@pecker_sdk@@@2@@5@@pecker_sdk@@QBEPBV?$basic_string@DU?$char_traits@D@std@@V?$allocator@D@2@@std@@PBU?$Ipecker_bst_tree_iterator@U_AVL_node_base@pecker_sdk@@@2@@Z ; pecker_sdk::pecker_avl_tree_set_container<std::basic_string<char,std::char_traits<char>,std::allocator<char> >,stringcmp_t,pecker_sdk::AVL_node_set<std::basic_string<char,std::char_traits<char>,std::allocator<char> > >,pecker_sdk::pecker_nodes_simple_allocater<pecker_sdk::AVL_node_set<std::basic_string<char,std::char_traits<char>,std::allocator<char> > >,pecker_sdk::pecker_simple_allocator<pecker_sdk::AVL_node_set<std::basic_string<char,std::char_traits<char>,std::allocator<char> > > > > >::get_at
PUBLIC	??_C@_0BI@FBDCJJMJ@tree?5iterator?5inc?5?4?4?4?4?4?$AA@ ; `string'
PUBLIC	?init@?$pecker_bst_tree_no_perent_node_inorder_iterator_base@U_AVL_node_base@pecker_sdk@@V?$pecker_simple_allocator@PBU_AVL_node_base@pecker_sdk@@@2@V?$pecker_simple_allocator@PAPBU_AVL_node_base@pecker_sdk@@@2@@pecker_sdk@@UAEJXZ ; pecker_sdk::pecker_bst_tree_no_perent_node_inorder_iterator_base<pecker_sdk::_AVL_node_base,pecker_sdk::pecker_simple_allocator<pecker_sdk::_AVL_node_base const *>,pecker_sdk::pecker_simple_allocator<pecker_sdk::_AVL_node_base const * *> >::init
PUBLIC	?get_iterator@?$pecker_avl_tree_set_container@V?$basic_string@DU?$char_traits@D@std@@V?$allocator@D@2@@std@@Ustringcmp_t@@U?$AVL_node_set@V?$basic_string@DU?$char_traits@D@std@@V?$allocator@D@2@@std@@@pecker_sdk@@V?$pecker_nodes_simple_allocater@U?$AVL_node_set@V?$basic_string@DU?$char_traits@D@std@@V?$allocator@D@2@@std@@@pecker_sdk@@V?$pecker_simple_allocator@U?$AVL_node_set@V?$basic_string@DU?$char_traits@D@std@@V?$allocator@D@2@@std@@@pecker_sdk@@@2@@5@@pecker_sdk@@QBEPAU?$Ipecker_bst_tree_iterator@U_AVL_node_base@pecker_sdk@@@2@PAU32@@Z ; pecker_sdk::pecker_avl_tree_set_container<std::basic_string<char,std::char_traits<char>,std::allocator<char> >,stringcmp_t,pecker_sdk::AVL_node_set<std::basic_string<char,std::char_traits<char>,std::allocator<char> > >,pecker_sdk::pecker_nodes_simple_allocater<pecker_sdk::AVL_node_set<std::basic_string<char,std::char_traits<char>,std::allocator<char> > >,pecker_sdk::pecker_simple_allocator<pecker_sdk::AVL_node_set<std::basic_string<char,std::char_traits<char>,std::allocator<char> > > > > >::get_iterator
PUBLIC	??0?$pecker_bst_tree_no_perent_node_inorder_iterator_base@U_AVL_node_base@pecker_sdk@@V?$pecker_simple_allocator@PBU_AVL_node_base@pecker_sdk@@@2@V?$pecker_simple_allocator@PAPBU_AVL_node_base@pecker_sdk@@@2@@pecker_sdk@@QAE@PBU_AVL_node_base@1@@Z ; pecker_sdk::pecker_bst_tree_no_perent_node_inorder_iterator_base<pecker_sdk::_AVL_node_base,pecker_sdk::pecker_simple_allocator<pecker_sdk::_AVL_node_base const *>,pecker_sdk::pecker_simple_allocator<pecker_sdk::_AVL_node_base const * *> >::pecker_bst_tree_no_perent_node_inorder_iterator_base<pecker_sdk::_AVL_node_base,pecker_sdk::pecker_simple_allocator<pecker_sdk::_AVL_node_base const *>,pecker_sdk::pecker_simple_allocator<pecker_sdk::_AVL_node_base const * *> >
PUBLIC	??_C@_0M@HGLHBMJP@erase?5error?$AA@		; `string'
PUBLIC	?erase@?$pecker_avl_tree_set_container@V?$basic_string@DU?$char_traits@D@std@@V?$allocator@D@2@@std@@Ustringcmp_t@@U?$AVL_node_set@V?$basic_string@DU?$char_traits@D@std@@V?$allocator@D@2@@std@@@pecker_sdk@@V?$pecker_nodes_simple_allocater@U?$AVL_node_set@V?$basic_string@DU?$char_traits@D@std@@V?$allocator@D@2@@std@@@pecker_sdk@@V?$pecker_simple_allocator@U?$AVL_node_set@V?$basic_string@DU?$char_traits@D@std@@V?$allocator@D@2@@std@@@pecker_sdk@@@2@@5@@pecker_sdk@@QAEJV?$basic_string@DU?$char_traits@D@std@@V?$allocator@D@2@@std@@@Z ; pecker_sdk::pecker_avl_tree_set_container<std::basic_string<char,std::char_traits<char>,std::allocator<char> >,stringcmp_t,pecker_sdk::AVL_node_set<std::basic_string<char,std::char_traits<char>,std::allocator<char> > >,pecker_sdk::pecker_nodes_simple_allocater<pecker_sdk::AVL_node_set<std::basic_string<char,std::char_traits<char>,std::allocator<char> > >,pecker_sdk::pecker_simple_allocator<pecker_sdk::AVL_node_set<std::basic_string<char,std::char_traits<char>,std::allocator<char> > > > > >::erase
PUBLIC	??0?$basic_string@DU?$char_traits@D@std@@V?$allocator@D@2@@std@@QAE@ABV01@@Z ; std::basic_string<char,std::char_traits<char>,std::allocator<char> >::basic_string<char,std::char_traits<char>,std::allocator<char> >
PUBLIC	??$?6DU?$char_traits@D@std@@V?$allocator@D@1@@std@@YAAAV?$basic_ostream@DU?$char_traits@D@std@@@0@AAV10@ABV?$basic_string@DU?$char_traits@D@std@@V?$allocator@D@2@@0@@Z ; std::operator<<<char,std::char_traits<char>,std::allocator<char> >
PUBLIC	??_C@_09HPBOIEGF@find?5null?$AA@		; `string'
PUBLIC	?find@?$pecker_avl_tree_set_container@V?$basic_string@DU?$char_traits@D@std@@V?$allocator@D@2@@std@@Ustringcmp_t@@U?$AVL_node_set@V?$basic_string@DU?$char_traits@D@std@@V?$allocator@D@2@@std@@@pecker_sdk@@V?$pecker_nodes_simple_allocater@U?$AVL_node_set@V?$basic_string@DU?$char_traits@D@std@@V?$allocator@D@2@@std@@@pecker_sdk@@V?$pecker_simple_allocator@U?$AVL_node_set@V?$basic_string@DU?$char_traits@D@std@@V?$allocator@D@2@@std@@@pecker_sdk@@@2@@5@@pecker_sdk@@QBEPBV?$basic_string@DU?$char_traits@D@std@@V?$allocator@D@2@@std@@ABV34@@Z ; pecker_sdk::pecker_avl_tree_set_container<std::basic_string<char,std::char_traits<char>,std::allocator<char> >,stringcmp_t,pecker_sdk::AVL_node_set<std::basic_string<char,std::char_traits<char>,std::allocator<char> > >,pecker_sdk::pecker_nodes_simple_allocater<pecker_sdk::AVL_node_set<std::basic_string<char,std::char_traits<char>,std::allocator<char> > >,pecker_sdk::pecker_simple_allocator<pecker_sdk::AVL_node_set<std::basic_string<char,std::char_traits<char>,std::allocator<char> > > > > >::find
PUBLIC	?increment@?$pecker_array_iterator@V?$pecker_array@V?$basic_string@DU?$char_traits@D@std@@V?$allocator@D@2@@std@@V?$pecker_simple_allocator@V?$basic_string@DU?$char_traits@D@std@@V?$allocator@D@2@@std@@@pecker_sdk@@@pecker_sdk@@@pecker_sdk@@UAEJXZ ; pecker_sdk::pecker_array_iterator<pecker_sdk::pecker_array<std::basic_string<char,std::char_traits<char>,std::allocator<char> >,pecker_sdk::pecker_simple_allocator<std::basic_string<char,std::char_traits<char>,std::allocator<char> > > > >::increment
PUBLIC	??_C@_04MLLLIHIP@null?$AA@			; `string'
PUBLIC	??_C@_0N@JFONLCIG@insert?5error?$AA@		; `string'
PUBLIC	?insert@?$pecker_avl_tree_set_container@V?$basic_string@DU?$char_traits@D@std@@V?$allocator@D@2@@std@@Ustringcmp_t@@U?$AVL_node_set@V?$basic_string@DU?$char_traits@D@std@@V?$allocator@D@2@@std@@@pecker_sdk@@V?$pecker_nodes_simple_allocater@U?$AVL_node_set@V?$basic_string@DU?$char_traits@D@std@@V?$allocator@D@2@@std@@@pecker_sdk@@V?$pecker_simple_allocator@U?$AVL_node_set@V?$basic_string@DU?$char_traits@D@std@@V?$allocator@D@2@@std@@@pecker_sdk@@@2@@5@@pecker_sdk@@QAEJABV?$basic_string@DU?$char_traits@D@std@@V?$allocator@D@2@@std@@@Z ; pecker_sdk::pecker_avl_tree_set_container<std::basic_string<char,std::char_traits<char>,std::allocator<char> >,stringcmp_t,pecker_sdk::AVL_node_set<std::basic_string<char,std::char_traits<char>,std::allocator<char> > >,pecker_sdk::pecker_nodes_simple_allocater<pecker_sdk::AVL_node_set<std::basic_string<char,std::char_traits<char>,std::allocator<char> > >,pecker_sdk::pecker_simple_allocator<pecker_sdk::AVL_node_set<std::basic_string<char,std::char_traits<char>,std::allocator<char> > > > > >::insert
PUBLIC	?get_at@?$pecker_array@V?$basic_string@DU?$char_traits@D@std@@V?$allocator@D@2@@std@@V?$pecker_simple_allocator@V?$basic_string@DU?$char_traits@D@std@@V?$allocator@D@2@@std@@@pecker_sdk@@@pecker_sdk@@QBEPBV?$basic_string@DU?$char_traits@D@std@@V?$allocator@D@2@@std@@PBV?$pecker_array_iterator@V?$pecker_array@V?$basic_string@DU?$char_traits@D@std@@V?$allocator@D@2@@std@@V?$pecker_simple_allocator@V?$basic_string@DU?$char_traits@D@std@@V?$allocator@D@2@@std@@@pecker_sdk@@@pecker_sdk@@@2@@Z ; pecker_sdk::pecker_array<std::basic_string<char,std::char_traits<char>,std::allocator<char> >,pecker_sdk::pecker_simple_allocator<std::basic_string<char,std::char_traits<char>,std::allocator<char> > > >::get_at
PUBLIC	??$?6U?$char_traits@D@std@@@std@@YAAAV?$basic_ostream@DU?$char_traits@D@std@@@0@AAV10@PBD@Z ; std::operator<<<std::char_traits<char> >
PUBLIC	??_C@_09OJBDDCJ@inc?5?4?4?4?4?4?$AA@		; `string'
PUBLIC	?init@?$pecker_array_iterator@V?$pecker_array@V?$basic_string@DU?$char_traits@D@std@@V?$allocator@D@2@@std@@V?$pecker_simple_allocator@V?$basic_string@DU?$char_traits@D@std@@V?$allocator@D@2@@std@@@pecker_sdk@@@pecker_sdk@@@pecker_sdk@@UAEJW4enumLINEAR_INTERATOR_INIT_TYPE@@@Z ; pecker_sdk::pecker_array_iterator<pecker_sdk::pecker_array<std::basic_string<char,std::char_traits<char>,std::allocator<char> >,pecker_sdk::pecker_simple_allocator<std::basic_string<char,std::char_traits<char>,std::allocator<char> > > > >::init
PUBLIC	?get_iterator@?$pecker_array@V?$basic_string@DU?$char_traits@D@std@@V?$allocator@D@2@@std@@V?$pecker_simple_allocator@V?$basic_string@DU?$char_traits@D@std@@V?$allocator@D@2@@std@@@pecker_sdk@@@pecker_sdk@@QBEPAV?$pecker_array_iterator@V?$pecker_array@V?$basic_string@DU?$char_traits@D@std@@V?$allocator@D@2@@std@@V?$pecker_simple_allocator@V?$basic_string@DU?$char_traits@D@std@@V?$allocator@D@2@@std@@@pecker_sdk@@@pecker_sdk@@@2@PAV32@@Z ; pecker_sdk::pecker_array<std::basic_string<char,std::char_traits<char>,std::allocator<char> >,pecker_sdk::pecker_simple_allocator<std::basic_string<char,std::char_traits<char>,std::allocator<char> > > >::get_iterator
PUBLIC	??0?$pecker_array_iterator@V?$pecker_array@V?$basic_string@DU?$char_traits@D@std@@V?$allocator@D@2@@std@@V?$pecker_simple_allocator@V?$basic_string@DU?$char_traits@D@std@@V?$allocator@D@2@@std@@@pecker_sdk@@@pecker_sdk@@@pecker_sdk@@QAE@PBV?$pecker_array@V?$basic_string@DU?$char_traits@D@std@@V?$allocator@D@2@@std@@V?$pecker_simple_allocator@V?$basic_string@DU?$char_traits@D@std@@V?$allocator@D@2@@std@@@pecker_sdk@@@1@@Z ; pecker_sdk::pecker_array_iterator<pecker_sdk::pecker_array<std::basic_string<char,std::char_traits<char>,std::allocator<char> >,pecker_sdk::pecker_simple_allocator<std::basic_string<char,std::char_traits<char>,std::allocator<char> > > > >::pecker_array_iterator<pecker_sdk::pecker_array<std::basic_string<char,std::char_traits<char>,std::allocator<char> >,pecker_sdk::pecker_simple_allocator<std::basic_string<char,std::char_traits<char>,std::allocator<char> > > > >
PUBLIC	??1?$basic_string@DU?$char_traits@D@std@@V?$allocator@D@2@@std@@QAE@XZ ; std::basic_string<char,std::char_traits<char>,std::allocator<char> >::~basic_string<char,std::char_traits<char>,std::allocator<char> >
PUBLIC	?push@?$pecker_array@V?$basic_string@DU?$char_traits@D@std@@V?$allocator@D@2@@std@@V?$pecker_simple_allocator@V?$basic_string@DU?$char_traits@D@std@@V?$allocator@D@2@@std@@@pecker_sdk@@@pecker_sdk@@QAEJABV?$basic_string@DU?$char_traits@D@std@@V?$allocator@D@2@@std@@@Z ; pecker_sdk::pecker_array<std::basic_string<char,std::char_traits<char>,std::allocator<char> >,pecker_sdk::pecker_simple_allocator<std::basic_string<char,std::char_traits<char>,std::allocator<char> > > >::push
PUBLIC	??$?5DU?$char_traits@D@std@@V?$allocator@D@1@@std@@YAAAV?$basic_istream@DU?$char_traits@D@std@@@0@AAV10@AAV?$basic_string@DU?$char_traits@D@std@@V?$allocator@D@2@@0@@Z ; std::operator>><char,std::char_traits<char>,std::allocator<char> >
PUBLIC	??0?$basic_string@DU?$char_traits@D@std@@V?$allocator@D@2@@std@@QAE@XZ ; std::basic_string<char,std::char_traits<char>,std::allocator<char> >::basic_string<char,std::char_traits<char>,std::allocator<char> >
PUBLIC	?open@?$basic_ifstream@DU?$char_traits@D@std@@@std@@QAEXPBDHH@Z ; std::basic_ifstream<char,std::char_traits<char> >::open
PUBLIC	??_C@_0BD@PHDOHNMM@inputaddsearch?4txt?$AA@	; `string'
PUBLIC	?close@?$basic_ifstream@DU?$char_traits@D@std@@@std@@QAEXXZ ; std::basic_ifstream<char,std::char_traits<char> >::close
PUBLIC	??0?$basic_ifstream@DU?$char_traits@D@std@@@std@@QAE@XZ ; std::basic_ifstream<char,std::char_traits<char> >::basic_ifstream<char,std::char_traits<char> >
PUBLIC	?init@?$pecker_array@V?$basic_string@DU?$char_traits@D@std@@V?$allocator@D@2@@std@@V?$pecker_simple_allocator@V?$basic_string@DU?$char_traits@D@std@@V?$allocator@D@2@@std@@@pecker_sdk@@@pecker_sdk@@QAEJHH@Z ; pecker_sdk::pecker_array<std::basic_string<char,std::char_traits<char>,std::allocator<char> >,pecker_sdk::pecker_simple_allocator<std::basic_string<char,std::char_traits<char>,std::allocator<char> > > >::init
PUBLIC	??0?$pecker_array@V?$basic_string@DU?$char_traits@D@std@@V?$allocator@D@2@@std@@V?$pecker_simple_allocator@V?$basic_string@DU?$char_traits@D@std@@V?$allocator@D@2@@std@@@pecker_sdk@@@pecker_sdk@@QAE@H@Z ; pecker_sdk::pecker_array<std::basic_string<char,std::char_traits<char>,std::allocator<char> >,pecker_sdk::pecker_simple_allocator<std::basic_string<char,std::char_traits<char>,std::allocator<char> > > >::pecker_array<std::basic_string<char,std::char_traits<char>,std::allocator<char> >,pecker_sdk::pecker_simple_allocator<std::basic_string<char,std::char_traits<char>,std::allocator<char> > > >
PUBLIC	??0?$pecker_avl_tree_set_container@V?$basic_string@DU?$char_traits@D@std@@V?$allocator@D@2@@std@@Ustringcmp_t@@U?$AVL_node_set@V?$basic_string@DU?$char_traits@D@std@@V?$allocator@D@2@@std@@@pecker_sdk@@V?$pecker_nodes_simple_allocater@U?$AVL_node_set@V?$basic_string@DU?$char_traits@D@std@@V?$allocator@D@2@@std@@@pecker_sdk@@V?$pecker_simple_allocator@U?$AVL_node_set@V?$basic_string@DU?$char_traits@D@std@@V?$allocator@D@2@@std@@@pecker_sdk@@@2@@5@@pecker_sdk@@QAE@XZ ; pecker_sdk::pecker_avl_tree_set_container<std::basic_string<char,std::char_traits<char>,std::allocator<char> >,stringcmp_t,pecker_sdk::AVL_node_set<std::basic_string<char,std::char_traits<char>,std::allocator<char> > >,pecker_sdk::pecker_nodes_simple_allocater<pecker_sdk::AVL_node_set<std::basic_string<char,std::char_traits<char>,std::allocator<char> > >,pecker_sdk::pecker_simple_allocator<pecker_sdk::AVL_node_set<std::basic_string<char,std::char_traits<char>,std::allocator<char> > > > > >::pecker_avl_tree_set_container<std::basic_string<char,std::char_traits<char>,std::allocator<char> >,stringcmp_t,pecker_sdk::AVL_node_set<std::basic_string<char,std::char_traits<char>,std::allocator<char> > >,pecker_sdk::pecker_nodes_simple_allocater<pecker_sdk::AVL_node_set<std::basic_string<char,std::char_traits<char>,std::allocator<char> > >,pecker_sdk::pecker_simple_allocator<pecker_sdk::AVL_node_set<std::basic_string<char,std::char_traits<char>,std::allocator<char> > > > > >
PUBLIC	__$ArrayPad$
PUBLIC	?avl_tree_container_test_main@@YAHXZ		; avl_tree_container_test_main
EXTRN	__imp_??6?$basic_ostream@DU?$char_traits@D@std@@@std@@QAEAAV01@H@Z:PROC
EXTRN	__imp_??6?$basic_ostream@DU?$char_traits@D@std@@@std@@QAEAAV01@P6AAAV01@AAV01@@Z@Z:PROC
EXTRN	__imp_?cout@std@@3V?$basic_ostream@DU?$char_traits@D@std@@@1@A:BYTE
EXTRN	__imp_?endl@std@@YAAAV?$basic_ostream@DU?$char_traits@D@std@@@1@AAV21@@Z:PROC
EXTRN	__imp_?eof@ios_base@std@@QBE_NXZ:PROC
EXTRN	___security_cookie:DWORD
EXTRN	___CxxFrameHandler3:PROC
EXTRN	@__security_check_cookie@4:PROC
EXTRN	@_RTC_CheckStackVars@8:PROC
EXTRN	__RTC_CheckEsp:PROC
EXTRN	__RTC_Shutdown:PROC
EXTRN	__RTC_InitBase:PROC
;	COMDAT ??_C@_0BN@NOBDPJD@copy?5tree?5iterator?5inc?5?4?4?4?4?4?$AA@
; File f:\codes\pecker_framework_git\pecker_src\pecker_framework\avl_tree_container_test.cpp
CONST	SEGMENT
??_C@_0BN@NOBDPJD@copy?5tree?5iterator?5inc?5?4?4?4?4?4?$AA@ DB 'copy tre'
	DB	'e iterator inc .....', 00H			; `string'
CONST	ENDS
;	COMDAT ??_C@_0CD@OCLOMHFI@tree?5pos?5iterator?5inc?5?5?$CG?$CG?5dec?4?4?4@
CONST	SEGMENT
??_C@_0CD@OCLOMHFI@tree?5pos?5iterator?5inc?5?5?$CG?$CG?5dec?4?4?4@ DB 't'
	DB	'ree pos iterator inc  && dec.....', 00H	; `string'
CONST	ENDS
;	COMDAT ??_C@_03MHLONNLM@?5?$DN?5?$AA@
CONST	SEGMENT
??_C@_03MHLONNLM@?5?$DN?5?$AA@ DB ' = ', 00H		; `string'
CONST	ENDS
;	COMDAT ??_C@_0BP@MANLILJM@tree?5iterator?5inc?5?5?$CG?$CG?5dec?4?4?4?4?4?$AA@
CONST	SEGMENT
??_C@_0BP@MANLILJM@tree?5iterator?5inc?5?5?$CG?$CG?5dec?4?4?4?4?4?$AA@ DB 't'
	DB	'ree iterator inc  && dec.....', 00H		; `string'
CONST	ENDS
;	COMDAT ??_C@_0BI@CGJJIMKE@tree?5iterator?5dec?5?4?4?4?4?4?$AA@
CONST	SEGMENT
??_C@_0BI@CGJJIMKE@tree?5iterator?5dec?5?4?4?4?4?4?$AA@ DB 'tree iterator'
	DB	' dec .....', 00H				; `string'
CONST	ENDS
;	COMDAT ??_C@_04BIGBAIKH@yard?$AA@
CONST	SEGMENT
??_C@_04BIGBAIKH@yard?$AA@ DB 'yard', 00H		; `string'
CONST	ENDS
;	COMDAT ??_C@_0BI@FBDCJJMJ@tree?5iterator?5inc?5?4?4?4?4?4?$AA@
CONST	SEGMENT
??_C@_0BI@FBDCJJMJ@tree?5iterator?5inc?5?4?4?4?4?4?$AA@ DB 'tree iterator'
	DB	' inc .....', 00H				; `string'
CONST	ENDS
;	COMDAT ??_C@_0M@HGLHBMJP@erase?5error?$AA@
CONST	SEGMENT
??_C@_0M@HGLHBMJP@erase?5error?$AA@ DB 'erase error', 00H ; `string'
CONST	ENDS
;	COMDAT ??_C@_09HPBOIEGF@find?5null?$AA@
CONST	SEGMENT
??_C@_09HPBOIEGF@find?5null?$AA@ DB 'find null', 00H	; `string'
CONST	ENDS
;	COMDAT ??_C@_04MLLLIHIP@null?$AA@
CONST	SEGMENT
??_C@_04MLLLIHIP@null?$AA@ DB 'null', 00H		; `string'
CONST	ENDS
;	COMDAT ??_C@_0N@JFONLCIG@insert?5error?$AA@
CONST	SEGMENT
??_C@_0N@JFONLCIG@insert?5error?$AA@ DB 'insert error', 00H ; `string'
CONST	ENDS
;	COMDAT ??_C@_09OJBDDCJ@inc?5?4?4?4?4?4?$AA@
CONST	SEGMENT
??_C@_09OJBDDCJ@inc?5?4?4?4?4?4?$AA@ DB 'inc .....', 00H ; `string'
CONST	ENDS
;	COMDAT ??_C@_0BD@PHDOHNMM@inputaddsearch?4txt?$AA@
CONST	SEGMENT
??_C@_0BD@PHDOHNMM@inputaddsearch?4txt?$AA@ DB 'inputaddsearch.txt', 00H ; `string'
CONST	ENDS
;	COMDAT xdata$x
xdata$x	SEGMENT
__ehfuncinfo$?avl_tree_container_test_main@@YAHXZ DD 019930522H
	DD	08H
	DD	FLAT:__unwindtable$?avl_tree_container_test_main@@YAHXZ
	DD	2 DUP(00H)
	DD	2 DUP(00H)
	DD	00H
	DD	01H
__unwindtable$?avl_tree_container_test_main@@YAHXZ DD 0ffffffffH
	DD	FLAT:__unwindfunclet$?avl_tree_container_test_main@@YAHXZ$0
	DD	00H
	DD	FLAT:__unwindfunclet$?avl_tree_container_test_main@@YAHXZ$1
	DD	01H
	DD	FLAT:__unwindfunclet$?avl_tree_container_test_main@@YAHXZ$2
	DD	02H
	DD	FLAT:__unwindfunclet$?avl_tree_container_test_main@@YAHXZ$3
	DD	03H
	DD	FLAT:__unwindfunclet$?avl_tree_container_test_main@@YAHXZ$4
	DD	03H
	DD	FLAT:__unwindfunclet$?avl_tree_container_test_main@@YAHXZ$5
	DD	05H
	DD	FLAT:__unwindfunclet$?avl_tree_container_test_main@@YAHXZ$7
	DD	06H
	DD	FLAT:__unwindfunclet$?avl_tree_container_test_main@@YAHXZ$8
xdata$x	ENDS
;	COMDAT rtc$TMZ
rtc$TMZ	SEGMENT
__RTC_Shutdown.rtc$TMZ DD FLAT:__RTC_Shutdown
rtc$TMZ	ENDS
;	COMDAT rtc$IMZ
rtc$IMZ	SEGMENT
__RTC_InitBase.rtc$IMZ DD FLAT:__RTC_InitBase
; Function compile flags: /Odtp /RTCsu /ZI
rtc$IMZ	ENDS
;	COMDAT ?avl_tree_container_test_main@@YAHXZ
_TEXT	SEGMENT
tv863 = -1864						; size = 4
tv549 = -1864						; size = 4
tv861 = -1860						; size = 4
tv548 = -1860						; size = 4
$T108115 = -1852					; size = 4
$T108116 = -1840					; size = 4
_pvalue$96378 = -1636					; size = 4
_pvalue$96330 = -1624					; size = 4
_i$96326 = -1612					; size = 4
_pvalue$96314 = -1600					; size = 4
_i$96310 = -1588					; size = 4
_tree_pos_iterator$ = -1576				; size = 532
_pvalue$96241 = -1036					; size = 4
_i$96237 = -1024					; size = 4
_pvalue$96213 = -1012					; size = 4
_i$96209 = -1000					; size = 4
_pvalue$96192 = -988					; size = 4
_pvalue$96144 = -976					; size = 4
_tree_iterator_strings$ = -964				; size = 536
_res$95967 = -420					; size = 4
_pvalue$95965 = -408					; size = 4
_res$95945 = -396					; size = 4
_pvalue$95943 = -384					; size = 4
_pfind_value$95886 = -372				; size = 4
_pvalue$95884 = -360					; size = 4
_res$95864 = -348					; size = 4
_pvalue$95862 = -336					; size = 4
_array_iterator_strings$ = -324				; size = 12
_strin$95582 = -304					; size = 32
_myfile$ = -264						; size = 176
_array_strings$ = -80					; size = 20
_avl_tree_strings_copy$ = -52				; size = 12
_avl_tree_strings$ = -32				; size = 12
__$ArrayPad$ = -16					; size = 4
__$EHRec$ = -12						; size = 12
?avl_tree_container_test_main@@YAHXZ PROC		; avl_tree_container_test_main, COMDAT

; 52   : {

	push	ebp
	mov	ebp, esp
	push	-1
	push	__ehhandler$?avl_tree_container_test_main@@YAHXZ
	mov	eax, DWORD PTR fs:0
	push	eax
	sub	esp, 1852				; 0000073cH
	push	ebx
	push	esi
	push	edi
	lea	edi, DWORD PTR [ebp-1864]
	mov	ecx, 463				; 000001cfH
	mov	eax, -858993460				; ccccccccH
	rep stosd
	mov	eax, DWORD PTR ___security_cookie
	xor	eax, ebp
	mov	DWORD PTR __$ArrayPad$[ebp], eax
	push	eax
	lea	eax, DWORD PTR __$EHRec$[ebp]
	mov	DWORD PTR fs:0, eax

; 53   : 	pecker_avl_tree_set_container< std::string,stringcmp_t,AVL_node_set< std::string >,pecker_nodes_simple_allocater< AVL_node_set< std::string> > > avl_tree_strings;

	lea	ecx, DWORD PTR _avl_tree_strings$[ebp]
	call	??0?$pecker_avl_tree_set_container@V?$basic_string@DU?$char_traits@D@std@@V?$allocator@D@2@@std@@Ustringcmp_t@@U?$AVL_node_set@V?$basic_string@DU?$char_traits@D@std@@V?$allocator@D@2@@std@@@pecker_sdk@@V?$pecker_nodes_simple_allocater@U?$AVL_node_set@V?$basic_string@DU?$char_traits@D@std@@V?$allocator@D@2@@std@@@pecker_sdk@@V?$pecker_simple_allocator@U?$AVL_node_set@V?$basic_string@DU?$char_traits@D@std@@V?$allocator@D@2@@std@@@pecker_sdk@@@2@@5@@pecker_sdk@@QAE@XZ ; pecker_sdk::pecker_avl_tree_set_container<std::basic_string<char,std::char_traits<char>,std::allocator<char> >,stringcmp_t,pecker_sdk::AVL_node_set<std::basic_string<char,std::char_traits<char>,std::allocator<char> > >,pecker_sdk::pecker_nodes_simple_allocater<pecker_sdk::AVL_node_set<std::basic_string<char,std::char_traits<char>,std::allocator<char> > >,pecker_sdk::pecker_simple_allocator<pecker_sdk::AVL_node_set<std::basic_string<char,std::char_traits<char>,std::allocator<char> > > > > >::pecker_avl_tree_set_container<std::basic_string<char,std::char_traits<char>,std::allocator<char> >,stringcmp_t,pecker_sdk::AVL_node_set<std::basic_string<char,std::char_traits<char>,std::allocator<char> > >,pecker_sdk::pecker_nodes_simple_allocater<pecker_sdk::AVL_node_set<std::basic_string<char,std::char_traits<char>,std::allocator<char> > >,pecker_sdk::pecker_simple_allocator<pecker_sdk::AVL_node_set<std::basic_string<char,std::char_traits<char>,std::allocator<char> > > > > >
	mov	DWORD PTR __$EHRec$[ebp+8], 0

; 54   : 	pecker_avl_tree_set_container< std::string,stringcmp_t,AVL_node_set< std::string >,pecker_nodes_simple_allocater< AVL_node_set< std::string> > > avl_tree_strings_copy;

	lea	ecx, DWORD PTR _avl_tree_strings_copy$[ebp]
	call	??0?$pecker_avl_tree_set_container@V?$basic_string@DU?$char_traits@D@std@@V?$allocator@D@2@@std@@Ustringcmp_t@@U?$AVL_node_set@V?$basic_string@DU?$char_traits@D@std@@V?$allocator@D@2@@std@@@pecker_sdk@@V?$pecker_nodes_simple_allocater@U?$AVL_node_set@V?$basic_string@DU?$char_traits@D@std@@V?$allocator@D@2@@std@@@pecker_sdk@@V?$pecker_simple_allocator@U?$AVL_node_set@V?$basic_string@DU?$char_traits@D@std@@V?$allocator@D@2@@std@@@pecker_sdk@@@2@@5@@pecker_sdk@@QAE@XZ ; pecker_sdk::pecker_avl_tree_set_container<std::basic_string<char,std::char_traits<char>,std::allocator<char> >,stringcmp_t,pecker_sdk::AVL_node_set<std::basic_string<char,std::char_traits<char>,std::allocator<char> > >,pecker_sdk::pecker_nodes_simple_allocater<pecker_sdk::AVL_node_set<std::basic_string<char,std::char_traits<char>,std::allocator<char> > >,pecker_sdk::pecker_simple_allocator<pecker_sdk::AVL_node_set<std::basic_string<char,std::char_traits<char>,std::allocator<char> > > > > >::pecker_avl_tree_set_container<std::basic_string<char,std::char_traits<char>,std::allocator<char> >,stringcmp_t,pecker_sdk::AVL_node_set<std::basic_string<char,std::char_traits<char>,std::allocator<char> > >,pecker_sdk::pecker_nodes_simple_allocater<pecker_sdk::AVL_node_set<std::basic_string<char,std::char_traits<char>,std::allocator<char> > >,pecker_sdk::pecker_simple_allocator<pecker_sdk::AVL_node_set<std::basic_string<char,std::char_traits<char>,std::allocator<char> > > > > >
	mov	BYTE PTR __$EHRec$[ebp+8], 1

; 55   : 	
; 56   : 	pecker_array< std::string > array_strings;

	push	16					; 00000010H
	lea	ecx, DWORD PTR _array_strings$[ebp]
	call	??0?$pecker_array@V?$basic_string@DU?$char_traits@D@std@@V?$allocator@D@2@@std@@V?$pecker_simple_allocator@V?$basic_string@DU?$char_traits@D@std@@V?$allocator@D@2@@std@@@pecker_sdk@@@pecker_sdk@@QAE@H@Z ; pecker_sdk::pecker_array<std::basic_string<char,std::char_traits<char>,std::allocator<char> >,pecker_sdk::pecker_simple_allocator<std::basic_string<char,std::char_traits<char>,std::allocator<char> > > >::pecker_array<std::basic_string<char,std::char_traits<char>,std::allocator<char> >,pecker_sdk::pecker_simple_allocator<std::basic_string<char,std::char_traits<char>,std::allocator<char> > > >
	mov	BYTE PTR __$EHRec$[ebp+8], 2

; 57   : 	array_strings.init(100000,256);

	push	256					; 00000100H
	push	100000					; 000186a0H
	lea	ecx, DWORD PTR _array_strings$[ebp]
	call	?init@?$pecker_array@V?$basic_string@DU?$char_traits@D@std@@V?$allocator@D@2@@std@@V?$pecker_simple_allocator@V?$basic_string@DU?$char_traits@D@std@@V?$allocator@D@2@@std@@@pecker_sdk@@@pecker_sdk@@QAEJHH@Z ; pecker_sdk::pecker_array<std::basic_string<char,std::char_traits<char>,std::allocator<char> >,pecker_sdk::pecker_simple_allocator<std::basic_string<char,std::char_traits<char>,std::allocator<char> > > >::init

; 58   : 	std::ifstream myfile;

	push	1
	lea	ecx, DWORD PTR _myfile$[ebp]
	call	??0?$basic_ifstream@DU?$char_traits@D@std@@@std@@QAE@XZ ; std::basic_ifstream<char,std::char_traits<char> >::basic_ifstream<char,std::char_traits<char> >
	mov	BYTE PTR __$EHRec$[ebp+8], 3

; 59   : 	myfile.close();

	lea	ecx, DWORD PTR _myfile$[ebp]
	call	?close@?$basic_ifstream@DU?$char_traits@D@std@@@std@@QAEXXZ ; std::basic_ifstream<char,std::char_traits<char> >::close

; 60   : 	myfile.open("inputaddsearch.txt");

	push	64					; 00000040H
	push	1
	push	OFFSET ??_C@_0BD@PHDOHNMM@inputaddsearch?4txt?$AA@
	lea	ecx, DWORD PTR _myfile$[ebp]
	call	?open@?$basic_ifstream@DU?$char_traits@D@std@@@std@@QAEXPBDHH@Z ; std::basic_ifstream<char,std::char_traits<char> >::open
$LN64@avl_tree_c:

; 61   : 	while(1)

	mov	eax, 1
	test	eax, eax
	je	SHORT $LN63@avl_tree_c

; 62   : 	{
; 63   : 		if (myfile.eof())

	mov	eax, DWORD PTR _myfile$[ebp]
	mov	ecx, DWORD PTR [eax+4]
	lea	ecx, DWORD PTR _myfile$[ebp+ecx]
	mov	esi, esp
	call	DWORD PTR __imp_?eof@ios_base@std@@QBE_NXZ
	cmp	esi, esp
	call	__RTC_CheckEsp
	movzx	edx, al
	test	edx, edx
	je	SHORT $LN62@avl_tree_c

; 64   : 			break;

	jmp	SHORT $LN63@avl_tree_c
$LN62@avl_tree_c:

; 65   : 
; 66   : 		std::string strin;

	lea	ecx, DWORD PTR _strin$95582[ebp]
	call	??0?$basic_string@DU?$char_traits@D@std@@V?$allocator@D@2@@std@@QAE@XZ ; std::basic_string<char,std::char_traits<char>,std::allocator<char> >::basic_string<char,std::char_traits<char>,std::allocator<char> >
	mov	BYTE PTR __$EHRec$[ebp+8], 4

; 67   : 		myfile >> strin;

	lea	eax, DWORD PTR _strin$95582[ebp]
	push	eax
	lea	ecx, DWORD PTR _myfile$[ebp]
	push	ecx
	call	??$?5DU?$char_traits@D@std@@V?$allocator@D@1@@std@@YAAAV?$basic_istream@DU?$char_traits@D@std@@@0@AAV10@AAV?$basic_string@DU?$char_traits@D@std@@V?$allocator@D@2@@0@@Z ; std::operator>><char,std::char_traits<char>,std::allocator<char> >
	add	esp, 8

; 68   : 		array_strings.push(strin);

	lea	eax, DWORD PTR _strin$95582[ebp]
	push	eax
	lea	ecx, DWORD PTR _array_strings$[ebp]
	call	?push@?$pecker_array@V?$basic_string@DU?$char_traits@D@std@@V?$allocator@D@2@@std@@V?$pecker_simple_allocator@V?$basic_string@DU?$char_traits@D@std@@V?$allocator@D@2@@std@@@pecker_sdk@@@pecker_sdk@@QAEJABV?$basic_string@DU?$char_traits@D@std@@V?$allocator@D@2@@std@@@Z ; pecker_sdk::pecker_array<std::basic_string<char,std::char_traits<char>,std::allocator<char> >,pecker_sdk::pecker_simple_allocator<std::basic_string<char,std::char_traits<char>,std::allocator<char> > > >::push

; 69   : 	}

	mov	BYTE PTR __$EHRec$[ebp+8], 3
	lea	ecx, DWORD PTR _strin$95582[ebp]
	call	??1?$basic_string@DU?$char_traits@D@std@@V?$allocator@D@2@@std@@QAE@XZ ; std::basic_string<char,std::char_traits<char>,std::allocator<char> >::~basic_string<char,std::char_traits<char>,std::allocator<char> >
	jmp	SHORT $LN64@avl_tree_c
$LN63@avl_tree_c:

; 70   : 
; 71   : 	pecker_array_iterator< pecker_array< std::string > > array_iterator_strings;

	push	0
	lea	ecx, DWORD PTR _array_iterator_strings$[ebp]
	call	??0?$pecker_array_iterator@V?$pecker_array@V?$basic_string@DU?$char_traits@D@std@@V?$allocator@D@2@@std@@V?$pecker_simple_allocator@V?$basic_string@DU?$char_traits@D@std@@V?$allocator@D@2@@std@@@pecker_sdk@@@pecker_sdk@@@pecker_sdk@@QAE@PBV?$pecker_array@V?$basic_string@DU?$char_traits@D@std@@V?$allocator@D@2@@std@@V?$pecker_simple_allocator@V?$basic_string@DU?$char_traits@D@std@@V?$allocator@D@2@@std@@@pecker_sdk@@@1@@Z ; pecker_sdk::pecker_array_iterator<pecker_sdk::pecker_array<std::basic_string<char,std::char_traits<char>,std::allocator<char> >,pecker_sdk::pecker_simple_allocator<std::basic_string<char,std::char_traits<char>,std::allocator<char> > > > >::pecker_array_iterator<pecker_sdk::pecker_array<std::basic_string<char,std::char_traits<char>,std::allocator<char> >,pecker_sdk::pecker_simple_allocator<std::basic_string<char,std::char_traits<char>,std::allocator<char> > > > >
	mov	BYTE PTR __$EHRec$[ebp+8], 5

; 72   : 	array_strings.get_iterator(&array_iterator_strings);

	lea	eax, DWORD PTR _array_iterator_strings$[ebp]
	push	eax
	lea	ecx, DWORD PTR _array_strings$[ebp]
	call	?get_iterator@?$pecker_array@V?$basic_string@DU?$char_traits@D@std@@V?$allocator@D@2@@std@@V?$pecker_simple_allocator@V?$basic_string@DU?$char_traits@D@std@@V?$allocator@D@2@@std@@@pecker_sdk@@@pecker_sdk@@QBEPAV?$pecker_array_iterator@V?$pecker_array@V?$basic_string@DU?$char_traits@D@std@@V?$allocator@D@2@@std@@V?$pecker_simple_allocator@V?$basic_string@DU?$char_traits@D@std@@V?$allocator@D@2@@std@@@pecker_sdk@@@pecker_sdk@@@2@PAV32@@Z ; pecker_sdk::pecker_array<std::basic_string<char,std::char_traits<char>,std::allocator<char> >,pecker_sdk::pecker_simple_allocator<std::basic_string<char,std::char_traits<char>,std::allocator<char> > > >::get_iterator

; 73   : 	array_iterator_strings.init(ITERATOR_INIT_BEGIN_INDEX);

	push	0
	lea	ecx, DWORD PTR _array_iterator_strings$[ebp]
	call	?init@?$pecker_array_iterator@V?$pecker_array@V?$basic_string@DU?$char_traits@D@std@@V?$allocator@D@2@@std@@V?$pecker_simple_allocator@V?$basic_string@DU?$char_traits@D@std@@V?$allocator@D@2@@std@@@pecker_sdk@@@pecker_sdk@@@pecker_sdk@@UAEJW4enumLINEAR_INTERATOR_INIT_TYPE@@@Z ; pecker_sdk::pecker_array_iterator<pecker_sdk::pecker_array<std::basic_string<char,std::char_traits<char>,std::allocator<char> >,pecker_sdk::pecker_simple_allocator<std::basic_string<char,std::char_traits<char>,std::allocator<char> > > > >::init

; 74   : 	std::cout << "inc ....." << std::endl;

	mov	esi, esp
	mov	eax, DWORD PTR __imp_?endl@std@@YAAAV?$basic_ostream@DU?$char_traits@D@std@@@1@AAV21@@Z
	push	eax
	push	OFFSET ??_C@_09OJBDDCJ@inc?5?4?4?4?4?4?$AA@
	mov	ecx, DWORD PTR __imp_?cout@std@@3V?$basic_ostream@DU?$char_traits@D@std@@@1@A
	push	ecx
	call	??$?6U?$char_traits@D@std@@@std@@YAAAV?$basic_ostream@DU?$char_traits@D@std@@@0@AAV10@PBD@Z ; std::operator<<<std::char_traits<char> >
	add	esp, 8
	mov	ecx, eax
	call	DWORD PTR __imp_??6?$basic_ostream@DU?$char_traits@D@std@@@std@@QAEAAV01@P6AAAV01@AAV01@@Z@Z
	cmp	esi, esp
	call	__RTC_CheckEsp
$LN61@avl_tree_c:

; 75   : 	while (1)

	mov	eax, 1
	test	eax, eax
	je	$LN60@avl_tree_c

; 76   : 	{
; 77   : 		const std::string* pvalue = array_strings.get_at(&array_iterator_strings);

	lea	eax, DWORD PTR _array_iterator_strings$[ebp]
	push	eax
	lea	ecx, DWORD PTR _array_strings$[ebp]
	call	?get_at@?$pecker_array@V?$basic_string@DU?$char_traits@D@std@@V?$allocator@D@2@@std@@V?$pecker_simple_allocator@V?$basic_string@DU?$char_traits@D@std@@V?$allocator@D@2@@std@@@pecker_sdk@@@pecker_sdk@@QBEPBV?$basic_string@DU?$char_traits@D@std@@V?$allocator@D@2@@std@@PBV?$pecker_array_iterator@V?$pecker_array@V?$basic_string@DU?$char_traits@D@std@@V?$allocator@D@2@@std@@V?$pecker_simple_allocator@V?$basic_string@DU?$char_traits@D@std@@V?$allocator@D@2@@std@@@pecker_sdk@@@pecker_sdk@@@2@@Z ; pecker_sdk::pecker_array<std::basic_string<char,std::char_traits<char>,std::allocator<char> >,pecker_sdk::pecker_simple_allocator<std::basic_string<char,std::char_traits<char>,std::allocator<char> > > >::get_at
	mov	DWORD PTR _pvalue$95862[ebp], eax

; 78   : 		if (pvalue)

	cmp	DWORD PTR _pvalue$95862[ebp], 0
	je	SHORT $LN59@avl_tree_c

; 79   : 		{
; 80   : 			avl_result res = avl_tree_strings.insert(*pvalue);

	mov	eax, DWORD PTR _pvalue$95862[ebp]
	push	eax
	lea	ecx, DWORD PTR _avl_tree_strings$[ebp]
	call	?insert@?$pecker_avl_tree_set_container@V?$basic_string@DU?$char_traits@D@std@@V?$allocator@D@2@@std@@Ustringcmp_t@@U?$AVL_node_set@V?$basic_string@DU?$char_traits@D@std@@V?$allocator@D@2@@std@@@pecker_sdk@@V?$pecker_nodes_simple_allocater@U?$AVL_node_set@V?$basic_string@DU?$char_traits@D@std@@V?$allocator@D@2@@std@@@pecker_sdk@@V?$pecker_simple_allocator@U?$AVL_node_set@V?$basic_string@DU?$char_traits@D@std@@V?$allocator@D@2@@std@@@pecker_sdk@@@2@@5@@pecker_sdk@@QAEJABV?$basic_string@DU?$char_traits@D@std@@V?$allocator@D@2@@std@@@Z ; pecker_sdk::pecker_avl_tree_set_container<std::basic_string<char,std::char_traits<char>,std::allocator<char> >,stringcmp_t,pecker_sdk::AVL_node_set<std::basic_string<char,std::char_traits<char>,std::allocator<char> > >,pecker_sdk::pecker_nodes_simple_allocater<pecker_sdk::AVL_node_set<std::basic_string<char,std::char_traits<char>,std::allocator<char> > >,pecker_sdk::pecker_simple_allocator<pecker_sdk::AVL_node_set<std::basic_string<char,std::char_traits<char>,std::allocator<char> > > > > >::insert
	mov	DWORD PTR _res$95864[ebp], eax

; 81   : 			if (P_OK != res)

	cmp	DWORD PTR _res$95864[ebp], 0
	je	SHORT $LN58@avl_tree_c

; 82   : 			{
; 83   : 				std::cout << "insert error" << std::endl;

	mov	esi, esp
	mov	eax, DWORD PTR __imp_?endl@std@@YAAAV?$basic_ostream@DU?$char_traits@D@std@@@1@AAV21@@Z
	push	eax
	push	OFFSET ??_C@_0N@JFONLCIG@insert?5error?$AA@
	mov	ecx, DWORD PTR __imp_?cout@std@@3V?$basic_ostream@DU?$char_traits@D@std@@@1@A
	push	ecx
	call	??$?6U?$char_traits@D@std@@@std@@YAAAV?$basic_ostream@DU?$char_traits@D@std@@@0@AAV10@PBD@Z ; std::operator<<<std::char_traits<char> >
	add	esp, 8
	mov	ecx, eax
	call	DWORD PTR __imp_??6?$basic_ostream@DU?$char_traits@D@std@@@std@@QAEAAV01@P6AAAV01@AAV01@@Z@Z
	cmp	esi, esp
	call	__RTC_CheckEsp
$LN58@avl_tree_c:

; 84   : 			}
; 85   : 		}
; 86   : 		else

	jmp	SHORT $LN57@avl_tree_c
$LN59@avl_tree_c:

; 87   : 		{
; 88   : 			std::cout << "null" << std::endl;

	mov	esi, esp
	mov	eax, DWORD PTR __imp_?endl@std@@YAAAV?$basic_ostream@DU?$char_traits@D@std@@@1@AAV21@@Z
	push	eax
	push	OFFSET ??_C@_04MLLLIHIP@null?$AA@
	mov	ecx, DWORD PTR __imp_?cout@std@@3V?$basic_ostream@DU?$char_traits@D@std@@@1@A
	push	ecx
	call	??$?6U?$char_traits@D@std@@@std@@YAAAV?$basic_ostream@DU?$char_traits@D@std@@@0@AAV10@PBD@Z ; std::operator<<<std::char_traits<char> >
	add	esp, 8
	mov	ecx, eax
	call	DWORD PTR __imp_??6?$basic_ostream@DU?$char_traits@D@std@@@std@@QAEAAV01@P6AAAV01@AAV01@@Z@Z
	cmp	esi, esp
	call	__RTC_CheckEsp

; 89   : 			break;

	jmp	SHORT $LN60@avl_tree_c
$LN57@avl_tree_c:

; 90   : 		}
; 91   : 		array_iterator_strings.increment();

	lea	ecx, DWORD PTR _array_iterator_strings$[ebp]
	call	?increment@?$pecker_array_iterator@V?$pecker_array@V?$basic_string@DU?$char_traits@D@std@@V?$allocator@D@2@@std@@V?$pecker_simple_allocator@V?$basic_string@DU?$char_traits@D@std@@V?$allocator@D@2@@std@@@pecker_sdk@@@pecker_sdk@@@pecker_sdk@@UAEJXZ ; pecker_sdk::pecker_array_iterator<pecker_sdk::pecker_array<std::basic_string<char,std::char_traits<char>,std::allocator<char> >,pecker_sdk::pecker_simple_allocator<std::basic_string<char,std::char_traits<char>,std::allocator<char> > > > >::increment

; 92   : 	}

	jmp	$LN61@avl_tree_c
$LN60@avl_tree_c:

; 93   : 
; 94   : 	array_iterator_strings.init(ITERATOR_INIT_BEGIN_INDEX);

	push	0
	lea	ecx, DWORD PTR _array_iterator_strings$[ebp]
	call	?init@?$pecker_array_iterator@V?$pecker_array@V?$basic_string@DU?$char_traits@D@std@@V?$allocator@D@2@@std@@V?$pecker_simple_allocator@V?$basic_string@DU?$char_traits@D@std@@V?$allocator@D@2@@std@@@pecker_sdk@@@pecker_sdk@@@pecker_sdk@@UAEJW4enumLINEAR_INTERATOR_INIT_TYPE@@@Z ; pecker_sdk::pecker_array_iterator<pecker_sdk::pecker_array<std::basic_string<char,std::char_traits<char>,std::allocator<char> >,pecker_sdk::pecker_simple_allocator<std::basic_string<char,std::char_traits<char>,std::allocator<char> > > > >::init

; 95   : 	std::cout << "inc ....." << std::endl;

	mov	esi, esp
	mov	eax, DWORD PTR __imp_?endl@std@@YAAAV?$basic_ostream@DU?$char_traits@D@std@@@1@AAV21@@Z
	push	eax
	push	OFFSET ??_C@_09OJBDDCJ@inc?5?4?4?4?4?4?$AA@
	mov	ecx, DWORD PTR __imp_?cout@std@@3V?$basic_ostream@DU?$char_traits@D@std@@@1@A
	push	ecx
	call	??$?6U?$char_traits@D@std@@@std@@YAAAV?$basic_ostream@DU?$char_traits@D@std@@@0@AAV10@PBD@Z ; std::operator<<<std::char_traits<char> >
	add	esp, 8
	mov	ecx, eax
	call	DWORD PTR __imp_??6?$basic_ostream@DU?$char_traits@D@std@@@std@@QAEAAV01@P6AAAV01@AAV01@@Z@Z
	cmp	esi, esp
	call	__RTC_CheckEsp
$LN56@avl_tree_c:

; 96   : 	while (1)

	mov	eax, 1
	test	eax, eax
	je	$LN55@avl_tree_c

; 97   : 	{
; 98   : 		const std::string* pvalue = array_strings.get_at(&array_iterator_strings);

	lea	eax, DWORD PTR _array_iterator_strings$[ebp]
	push	eax
	lea	ecx, DWORD PTR _array_strings$[ebp]
	call	?get_at@?$pecker_array@V?$basic_string@DU?$char_traits@D@std@@V?$allocator@D@2@@std@@V?$pecker_simple_allocator@V?$basic_string@DU?$char_traits@D@std@@V?$allocator@D@2@@std@@@pecker_sdk@@@pecker_sdk@@QBEPBV?$basic_string@DU?$char_traits@D@std@@V?$allocator@D@2@@std@@PBV?$pecker_array_iterator@V?$pecker_array@V?$basic_string@DU?$char_traits@D@std@@V?$allocator@D@2@@std@@V?$pecker_simple_allocator@V?$basic_string@DU?$char_traits@D@std@@V?$allocator@D@2@@std@@@pecker_sdk@@@pecker_sdk@@@2@@Z ; pecker_sdk::pecker_array<std::basic_string<char,std::char_traits<char>,std::allocator<char> >,pecker_sdk::pecker_simple_allocator<std::basic_string<char,std::char_traits<char>,std::allocator<char> > > >::get_at
	mov	DWORD PTR _pvalue$95884[ebp], eax

; 99   : 		if (pvalue)

	cmp	DWORD PTR _pvalue$95884[ebp], 0
	je	SHORT $LN54@avl_tree_c

; 100  : 		{
; 101  : 			const std::string* pfind_value= avl_tree_strings.find(*pvalue);

	mov	eax, DWORD PTR _pvalue$95884[ebp]
	push	eax
	lea	ecx, DWORD PTR _avl_tree_strings$[ebp]
	call	?find@?$pecker_avl_tree_set_container@V?$basic_string@DU?$char_traits@D@std@@V?$allocator@D@2@@std@@Ustringcmp_t@@U?$AVL_node_set@V?$basic_string@DU?$char_traits@D@std@@V?$allocator@D@2@@std@@@pecker_sdk@@V?$pecker_nodes_simple_allocater@U?$AVL_node_set@V?$basic_string@DU?$char_traits@D@std@@V?$allocator@D@2@@std@@@pecker_sdk@@V?$pecker_simple_allocator@U?$AVL_node_set@V?$basic_string@DU?$char_traits@D@std@@V?$allocator@D@2@@std@@@pecker_sdk@@@2@@5@@pecker_sdk@@QBEPBV?$basic_string@DU?$char_traits@D@std@@V?$allocator@D@2@@std@@ABV34@@Z ; pecker_sdk::pecker_avl_tree_set_container<std::basic_string<char,std::char_traits<char>,std::allocator<char> >,stringcmp_t,pecker_sdk::AVL_node_set<std::basic_string<char,std::char_traits<char>,std::allocator<char> > >,pecker_sdk::pecker_nodes_simple_allocater<pecker_sdk::AVL_node_set<std::basic_string<char,std::char_traits<char>,std::allocator<char> > >,pecker_sdk::pecker_simple_allocator<pecker_sdk::AVL_node_set<std::basic_string<char,std::char_traits<char>,std::allocator<char> > > > > >::find
	mov	DWORD PTR _pfind_value$95886[ebp], eax

; 102  : 			if (null == pfind_value)

	cmp	DWORD PTR _pfind_value$95886[ebp], 0
	jne	SHORT $LN53@avl_tree_c

; 103  : 			{
; 104  : 				std::cout << "find null" << std::endl;

	mov	esi, esp
	mov	eax, DWORD PTR __imp_?endl@std@@YAAAV?$basic_ostream@DU?$char_traits@D@std@@@1@AAV21@@Z
	push	eax
	push	OFFSET ??_C@_09HPBOIEGF@find?5null?$AA@
	mov	ecx, DWORD PTR __imp_?cout@std@@3V?$basic_ostream@DU?$char_traits@D@std@@@1@A
	push	ecx
	call	??$?6U?$char_traits@D@std@@@std@@YAAAV?$basic_ostream@DU?$char_traits@D@std@@@0@AAV10@PBD@Z ; std::operator<<<std::char_traits<char> >
	add	esp, 8
	mov	ecx, eax
	call	DWORD PTR __imp_??6?$basic_ostream@DU?$char_traits@D@std@@@std@@QAEAAV01@P6AAAV01@AAV01@@Z@Z
	cmp	esi, esp
	call	__RTC_CheckEsp

; 105  : 			}
; 106  : 			else

	jmp	SHORT $LN52@avl_tree_c
$LN53@avl_tree_c:

; 107  : 			{
; 108  : 				std::cout << *pfind_value << std::endl;

	mov	esi, esp
	mov	eax, DWORD PTR __imp_?endl@std@@YAAAV?$basic_ostream@DU?$char_traits@D@std@@@1@AAV21@@Z
	push	eax
	mov	ecx, DWORD PTR _pfind_value$95886[ebp]
	push	ecx
	mov	edx, DWORD PTR __imp_?cout@std@@3V?$basic_ostream@DU?$char_traits@D@std@@@1@A
	push	edx
	call	??$?6DU?$char_traits@D@std@@V?$allocator@D@1@@std@@YAAAV?$basic_ostream@DU?$char_traits@D@std@@@0@AAV10@ABV?$basic_string@DU?$char_traits@D@std@@V?$allocator@D@2@@0@@Z ; std::operator<<<char,std::char_traits<char>,std::allocator<char> >
	add	esp, 8
	mov	ecx, eax
	call	DWORD PTR __imp_??6?$basic_ostream@DU?$char_traits@D@std@@@std@@QAEAAV01@P6AAAV01@AAV01@@Z@Z
	cmp	esi, esp
	call	__RTC_CheckEsp
$LN52@avl_tree_c:

; 109  : 			}
; 110  : 		}
; 111  : 		else

	jmp	SHORT $LN51@avl_tree_c
$LN54@avl_tree_c:

; 112  : 		{
; 113  : 			std::cout << "null" << std::endl;

	mov	esi, esp
	mov	eax, DWORD PTR __imp_?endl@std@@YAAAV?$basic_ostream@DU?$char_traits@D@std@@@1@AAV21@@Z
	push	eax
	push	OFFSET ??_C@_04MLLLIHIP@null?$AA@
	mov	ecx, DWORD PTR __imp_?cout@std@@3V?$basic_ostream@DU?$char_traits@D@std@@@1@A
	push	ecx
	call	??$?6U?$char_traits@D@std@@@std@@YAAAV?$basic_ostream@DU?$char_traits@D@std@@@0@AAV10@PBD@Z ; std::operator<<<std::char_traits<char> >
	add	esp, 8
	mov	ecx, eax
	call	DWORD PTR __imp_??6?$basic_ostream@DU?$char_traits@D@std@@@std@@QAEAAV01@P6AAAV01@AAV01@@Z@Z
	cmp	esi, esp
	call	__RTC_CheckEsp

; 114  : 			break;

	jmp	SHORT $LN55@avl_tree_c
$LN51@avl_tree_c:

; 115  : 		}
; 116  : 		array_iterator_strings.increment();

	lea	ecx, DWORD PTR _array_iterator_strings$[ebp]
	call	?increment@?$pecker_array_iterator@V?$pecker_array@V?$basic_string@DU?$char_traits@D@std@@V?$allocator@D@2@@std@@V?$pecker_simple_allocator@V?$basic_string@DU?$char_traits@D@std@@V?$allocator@D@2@@std@@@pecker_sdk@@@pecker_sdk@@@pecker_sdk@@UAEJXZ ; pecker_sdk::pecker_array_iterator<pecker_sdk::pecker_array<std::basic_string<char,std::char_traits<char>,std::allocator<char> >,pecker_sdk::pecker_simple_allocator<std::basic_string<char,std::char_traits<char>,std::allocator<char> > > > >::increment

; 117  : 	}

	jmp	$LN56@avl_tree_c
$LN55@avl_tree_c:

; 118  : 
; 119  : 	array_iterator_strings.init(ITERATOR_INIT_BEGIN_INDEX);

	push	0
	lea	ecx, DWORD PTR _array_iterator_strings$[ebp]
	call	?init@?$pecker_array_iterator@V?$pecker_array@V?$basic_string@DU?$char_traits@D@std@@V?$allocator@D@2@@std@@V?$pecker_simple_allocator@V?$basic_string@DU?$char_traits@D@std@@V?$allocator@D@2@@std@@@pecker_sdk@@@pecker_sdk@@@pecker_sdk@@UAEJW4enumLINEAR_INTERATOR_INIT_TYPE@@@Z ; pecker_sdk::pecker_array_iterator<pecker_sdk::pecker_array<std::basic_string<char,std::char_traits<char>,std::allocator<char> >,pecker_sdk::pecker_simple_allocator<std::basic_string<char,std::char_traits<char>,std::allocator<char> > > > >::init

; 120  : 	std::cout << "inc ....." << std::endl;

	mov	esi, esp
	mov	eax, DWORD PTR __imp_?endl@std@@YAAAV?$basic_ostream@DU?$char_traits@D@std@@@1@AAV21@@Z
	push	eax
	push	OFFSET ??_C@_09OJBDDCJ@inc?5?4?4?4?4?4?$AA@
	mov	ecx, DWORD PTR __imp_?cout@std@@3V?$basic_ostream@DU?$char_traits@D@std@@@1@A
	push	ecx
	call	??$?6U?$char_traits@D@std@@@std@@YAAAV?$basic_ostream@DU?$char_traits@D@std@@@0@AAV10@PBD@Z ; std::operator<<<std::char_traits<char> >
	add	esp, 8
	mov	ecx, eax
	call	DWORD PTR __imp_??6?$basic_ostream@DU?$char_traits@D@std@@@std@@QAEAAV01@P6AAAV01@AAV01@@Z@Z
	cmp	esi, esp
	call	__RTC_CheckEsp
$LN50@avl_tree_c:

; 121  : 	while (1)

	mov	eax, 1
	test	eax, eax
	je	$LN49@avl_tree_c

; 122  : 	{
; 123  : 		const std::string* pvalue = array_strings.get_at(&array_iterator_strings);

	lea	eax, DWORD PTR _array_iterator_strings$[ebp]
	push	eax
	lea	ecx, DWORD PTR _array_strings$[ebp]
	call	?get_at@?$pecker_array@V?$basic_string@DU?$char_traits@D@std@@V?$allocator@D@2@@std@@V?$pecker_simple_allocator@V?$basic_string@DU?$char_traits@D@std@@V?$allocator@D@2@@std@@@pecker_sdk@@@pecker_sdk@@QBEPBV?$basic_string@DU?$char_traits@D@std@@V?$allocator@D@2@@std@@PBV?$pecker_array_iterator@V?$pecker_array@V?$basic_string@DU?$char_traits@D@std@@V?$allocator@D@2@@std@@V?$pecker_simple_allocator@V?$basic_string@DU?$char_traits@D@std@@V?$allocator@D@2@@std@@@pecker_sdk@@@pecker_sdk@@@2@@Z ; pecker_sdk::pecker_array<std::basic_string<char,std::char_traits<char>,std::allocator<char> >,pecker_sdk::pecker_simple_allocator<std::basic_string<char,std::char_traits<char>,std::allocator<char> > > >::get_at
	mov	DWORD PTR _pvalue$95943[ebp], eax

; 124  : 		if (pvalue)

	cmp	DWORD PTR _pvalue$95943[ebp], 0
	je	SHORT $LN48@avl_tree_c

; 125  : 		{
; 126  : 			avl_result res = avl_tree_strings.erase(*pvalue);

	sub	esp, 32					; 00000020H
	mov	ecx, esp
	mov	DWORD PTR $T108115[ebp], esp
	mov	eax, DWORD PTR _pvalue$95943[ebp]
	push	eax
	call	??0?$basic_string@DU?$char_traits@D@std@@V?$allocator@D@2@@std@@QAE@ABV01@@Z ; std::basic_string<char,std::char_traits<char>,std::allocator<char> >::basic_string<char,std::char_traits<char>,std::allocator<char> >
	mov	DWORD PTR tv548[ebp], eax
	lea	ecx, DWORD PTR _avl_tree_strings$[ebp]
	call	?erase@?$pecker_avl_tree_set_container@V?$basic_string@DU?$char_traits@D@std@@V?$allocator@D@2@@std@@Ustringcmp_t@@U?$AVL_node_set@V?$basic_string@DU?$char_traits@D@std@@V?$allocator@D@2@@std@@@pecker_sdk@@V?$pecker_nodes_simple_allocater@U?$AVL_node_set@V?$basic_string@DU?$char_traits@D@std@@V?$allocator@D@2@@std@@@pecker_sdk@@V?$pecker_simple_allocator@U?$AVL_node_set@V?$basic_string@DU?$char_traits@D@std@@V?$allocator@D@2@@std@@@pecker_sdk@@@2@@5@@pecker_sdk@@QAEJV?$basic_string@DU?$char_traits@D@std@@V?$allocator@D@2@@std@@@Z ; pecker_sdk::pecker_avl_tree_set_container<std::basic_string<char,std::char_traits<char>,std::allocator<char> >,stringcmp_t,pecker_sdk::AVL_node_set<std::basic_string<char,std::char_traits<char>,std::allocator<char> > >,pecker_sdk::pecker_nodes_simple_allocater<pecker_sdk::AVL_node_set<std::basic_string<char,std::char_traits<char>,std::allocator<char> > >,pecker_sdk::pecker_simple_allocator<pecker_sdk::AVL_node_set<std::basic_string<char,std::char_traits<char>,std::allocator<char> > > > > >::erase
	mov	DWORD PTR tv549[ebp], eax
	mov	ecx, DWORD PTR tv549[ebp]
	mov	DWORD PTR _res$95945[ebp], ecx

; 127  : 			if (P_OK != res)

	cmp	DWORD PTR _res$95945[ebp], 0
	je	SHORT $LN47@avl_tree_c

; 128  : 			{
; 129  : 				std::cout << "erase error" << std::endl;

	mov	esi, esp
	mov	eax, DWORD PTR __imp_?endl@std@@YAAAV?$basic_ostream@DU?$char_traits@D@std@@@1@AAV21@@Z
	push	eax
	push	OFFSET ??_C@_0M@HGLHBMJP@erase?5error?$AA@
	mov	ecx, DWORD PTR __imp_?cout@std@@3V?$basic_ostream@DU?$char_traits@D@std@@@1@A
	push	ecx
	call	??$?6U?$char_traits@D@std@@@std@@YAAAV?$basic_ostream@DU?$char_traits@D@std@@@0@AAV10@PBD@Z ; std::operator<<<std::char_traits<char> >
	add	esp, 8
	mov	ecx, eax
	call	DWORD PTR __imp_??6?$basic_ostream@DU?$char_traits@D@std@@@std@@QAEAAV01@P6AAAV01@AAV01@@Z@Z
	cmp	esi, esp
	call	__RTC_CheckEsp
$LN47@avl_tree_c:

; 130  : 			}
; 131  : 		}
; 132  : 		else

	jmp	SHORT $LN46@avl_tree_c
$LN48@avl_tree_c:

; 133  : 		{
; 134  : 			std::cout << "null" << std::endl;

	mov	esi, esp
	mov	eax, DWORD PTR __imp_?endl@std@@YAAAV?$basic_ostream@DU?$char_traits@D@std@@@1@AAV21@@Z
	push	eax
	push	OFFSET ??_C@_04MLLLIHIP@null?$AA@
	mov	ecx, DWORD PTR __imp_?cout@std@@3V?$basic_ostream@DU?$char_traits@D@std@@@1@A
	push	ecx
	call	??$?6U?$char_traits@D@std@@@std@@YAAAV?$basic_ostream@DU?$char_traits@D@std@@@0@AAV10@PBD@Z ; std::operator<<<std::char_traits<char> >
	add	esp, 8
	mov	ecx, eax
	call	DWORD PTR __imp_??6?$basic_ostream@DU?$char_traits@D@std@@@std@@QAEAAV01@P6AAAV01@AAV01@@Z@Z
	cmp	esi, esp
	call	__RTC_CheckEsp

; 135  : 			break;

	jmp	SHORT $LN49@avl_tree_c
$LN46@avl_tree_c:

; 136  : 		}
; 137  : 		array_iterator_strings.increment();

	lea	ecx, DWORD PTR _array_iterator_strings$[ebp]
	call	?increment@?$pecker_array_iterator@V?$pecker_array@V?$basic_string@DU?$char_traits@D@std@@V?$allocator@D@2@@std@@V?$pecker_simple_allocator@V?$basic_string@DU?$char_traits@D@std@@V?$allocator@D@2@@std@@@pecker_sdk@@@pecker_sdk@@@pecker_sdk@@UAEJXZ ; pecker_sdk::pecker_array_iterator<pecker_sdk::pecker_array<std::basic_string<char,std::char_traits<char>,std::allocator<char> >,pecker_sdk::pecker_simple_allocator<std::basic_string<char,std::char_traits<char>,std::allocator<char> > > > >::increment

; 138  : 	}

	jmp	$LN50@avl_tree_c
$LN49@avl_tree_c:

; 139  : 
; 140  : 	array_iterator_strings.init(ITERATOR_INIT_BEGIN_INDEX);

	push	0
	lea	ecx, DWORD PTR _array_iterator_strings$[ebp]
	call	?init@?$pecker_array_iterator@V?$pecker_array@V?$basic_string@DU?$char_traits@D@std@@V?$allocator@D@2@@std@@V?$pecker_simple_allocator@V?$basic_string@DU?$char_traits@D@std@@V?$allocator@D@2@@std@@@pecker_sdk@@@pecker_sdk@@@pecker_sdk@@UAEJW4enumLINEAR_INTERATOR_INIT_TYPE@@@Z ; pecker_sdk::pecker_array_iterator<pecker_sdk::pecker_array<std::basic_string<char,std::char_traits<char>,std::allocator<char> >,pecker_sdk::pecker_simple_allocator<std::basic_string<char,std::char_traits<char>,std::allocator<char> > > > >::init

; 141  : 	std::cout << "inc ....." << std::endl;

	mov	esi, esp
	mov	eax, DWORD PTR __imp_?endl@std@@YAAAV?$basic_ostream@DU?$char_traits@D@std@@@1@AAV21@@Z
	push	eax
	push	OFFSET ??_C@_09OJBDDCJ@inc?5?4?4?4?4?4?$AA@
	mov	ecx, DWORD PTR __imp_?cout@std@@3V?$basic_ostream@DU?$char_traits@D@std@@@1@A
	push	ecx
	call	??$?6U?$char_traits@D@std@@@std@@YAAAV?$basic_ostream@DU?$char_traits@D@std@@@0@AAV10@PBD@Z ; std::operator<<<std::char_traits<char> >
	add	esp, 8
	mov	ecx, eax
	call	DWORD PTR __imp_??6?$basic_ostream@DU?$char_traits@D@std@@@std@@QAEAAV01@P6AAAV01@AAV01@@Z@Z
	cmp	esi, esp
	call	__RTC_CheckEsp
$LN45@avl_tree_c:

; 142  : 	while (1)

	mov	eax, 1
	test	eax, eax
	je	$LN44@avl_tree_c

; 143  : 	{
; 144  : 		const std::string* pvalue = array_strings.get_at(&array_iterator_strings);

	lea	eax, DWORD PTR _array_iterator_strings$[ebp]
	push	eax
	lea	ecx, DWORD PTR _array_strings$[ebp]
	call	?get_at@?$pecker_array@V?$basic_string@DU?$char_traits@D@std@@V?$allocator@D@2@@std@@V?$pecker_simple_allocator@V?$basic_string@DU?$char_traits@D@std@@V?$allocator@D@2@@std@@@pecker_sdk@@@pecker_sdk@@QBEPBV?$basic_string@DU?$char_traits@D@std@@V?$allocator@D@2@@std@@PBV?$pecker_array_iterator@V?$pecker_array@V?$basic_string@DU?$char_traits@D@std@@V?$allocator@D@2@@std@@V?$pecker_simple_allocator@V?$basic_string@DU?$char_traits@D@std@@V?$allocator@D@2@@std@@@pecker_sdk@@@pecker_sdk@@@2@@Z ; pecker_sdk::pecker_array<std::basic_string<char,std::char_traits<char>,std::allocator<char> >,pecker_sdk::pecker_simple_allocator<std::basic_string<char,std::char_traits<char>,std::allocator<char> > > >::get_at
	mov	DWORD PTR _pvalue$95965[ebp], eax

; 145  : 		if (pvalue)

	cmp	DWORD PTR _pvalue$95965[ebp], 0
	je	SHORT $LN43@avl_tree_c

; 146  : 		{
; 147  : 			avl_result res = avl_tree_strings.insert(*pvalue);

	mov	eax, DWORD PTR _pvalue$95965[ebp]
	push	eax
	lea	ecx, DWORD PTR _avl_tree_strings$[ebp]
	call	?insert@?$pecker_avl_tree_set_container@V?$basic_string@DU?$char_traits@D@std@@V?$allocator@D@2@@std@@Ustringcmp_t@@U?$AVL_node_set@V?$basic_string@DU?$char_traits@D@std@@V?$allocator@D@2@@std@@@pecker_sdk@@V?$pecker_nodes_simple_allocater@U?$AVL_node_set@V?$basic_string@DU?$char_traits@D@std@@V?$allocator@D@2@@std@@@pecker_sdk@@V?$pecker_simple_allocator@U?$AVL_node_set@V?$basic_string@DU?$char_traits@D@std@@V?$allocator@D@2@@std@@@pecker_sdk@@@2@@5@@pecker_sdk@@QAEJABV?$basic_string@DU?$char_traits@D@std@@V?$allocator@D@2@@std@@@Z ; pecker_sdk::pecker_avl_tree_set_container<std::basic_string<char,std::char_traits<char>,std::allocator<char> >,stringcmp_t,pecker_sdk::AVL_node_set<std::basic_string<char,std::char_traits<char>,std::allocator<char> > >,pecker_sdk::pecker_nodes_simple_allocater<pecker_sdk::AVL_node_set<std::basic_string<char,std::char_traits<char>,std::allocator<char> > >,pecker_sdk::pecker_simple_allocator<pecker_sdk::AVL_node_set<std::basic_string<char,std::char_traits<char>,std::allocator<char> > > > > >::insert
	mov	DWORD PTR _res$95967[ebp], eax

; 148  : 			if (P_OK != res)

	cmp	DWORD PTR _res$95967[ebp], 0
	je	SHORT $LN42@avl_tree_c

; 149  : 			{
; 150  : 				std::cout << "insert error" << std::endl;

	mov	esi, esp
	mov	eax, DWORD PTR __imp_?endl@std@@YAAAV?$basic_ostream@DU?$char_traits@D@std@@@1@AAV21@@Z
	push	eax
	push	OFFSET ??_C@_0N@JFONLCIG@insert?5error?$AA@
	mov	ecx, DWORD PTR __imp_?cout@std@@3V?$basic_ostream@DU?$char_traits@D@std@@@1@A
	push	ecx
	call	??$?6U?$char_traits@D@std@@@std@@YAAAV?$basic_ostream@DU?$char_traits@D@std@@@0@AAV10@PBD@Z ; std::operator<<<std::char_traits<char> >
	add	esp, 8
	mov	ecx, eax
	call	DWORD PTR __imp_??6?$basic_ostream@DU?$char_traits@D@std@@@std@@QAEAAV01@P6AAAV01@AAV01@@Z@Z
	cmp	esi, esp
	call	__RTC_CheckEsp
$LN42@avl_tree_c:

; 151  : 			}
; 152  : 		}
; 153  : 		else

	jmp	SHORT $LN41@avl_tree_c
$LN43@avl_tree_c:

; 154  : 		{
; 155  : 			std::cout << "null" << std::endl;

	mov	esi, esp
	mov	eax, DWORD PTR __imp_?endl@std@@YAAAV?$basic_ostream@DU?$char_traits@D@std@@@1@AAV21@@Z
	push	eax
	push	OFFSET ??_C@_04MLLLIHIP@null?$AA@
	mov	ecx, DWORD PTR __imp_?cout@std@@3V?$basic_ostream@DU?$char_traits@D@std@@@1@A
	push	ecx
	call	??$?6U?$char_traits@D@std@@@std@@YAAAV?$basic_ostream@DU?$char_traits@D@std@@@0@AAV10@PBD@Z ; std::operator<<<std::char_traits<char> >
	add	esp, 8
	mov	ecx, eax
	call	DWORD PTR __imp_??6?$basic_ostream@DU?$char_traits@D@std@@@std@@QAEAAV01@P6AAAV01@AAV01@@Z@Z
	cmp	esi, esp
	call	__RTC_CheckEsp

; 156  : 			break;

	jmp	SHORT $LN44@avl_tree_c
$LN41@avl_tree_c:

; 157  : 		}
; 158  : 		array_iterator_strings.increment();

	lea	ecx, DWORD PTR _array_iterator_strings$[ebp]
	call	?increment@?$pecker_array_iterator@V?$pecker_array@V?$basic_string@DU?$char_traits@D@std@@V?$allocator@D@2@@std@@V?$pecker_simple_allocator@V?$basic_string@DU?$char_traits@D@std@@V?$allocator@D@2@@std@@@pecker_sdk@@@pecker_sdk@@@pecker_sdk@@UAEJXZ ; pecker_sdk::pecker_array_iterator<pecker_sdk::pecker_array<std::basic_string<char,std::char_traits<char>,std::allocator<char> >,pecker_sdk::pecker_simple_allocator<std::basic_string<char,std::char_traits<char>,std::allocator<char> > > > >::increment

; 159  : 	}

	jmp	$LN45@avl_tree_c
$LN44@avl_tree_c:

; 160  : 
; 161  : 	//pecker_avl_tree_inorder_iterator< std::string,stringcmp_t,AVL_node_set< std::string > > tree_iterator_strings(avl_tree_strings.get_root());
; 162  : 	pecker_bst_tree_no_perent_node_inorder_iterator_base< _AVL_node_base > tree_iterator_strings;

	push	0
	lea	ecx, DWORD PTR _tree_iterator_strings$[ebp]
	call	??0?$pecker_bst_tree_no_perent_node_inorder_iterator_base@U_AVL_node_base@pecker_sdk@@V?$pecker_simple_allocator@PBU_AVL_node_base@pecker_sdk@@@2@V?$pecker_simple_allocator@PAPBU_AVL_node_base@pecker_sdk@@@2@@pecker_sdk@@QAE@PBU_AVL_node_base@1@@Z ; pecker_sdk::pecker_bst_tree_no_perent_node_inorder_iterator_base<pecker_sdk::_AVL_node_base,pecker_sdk::pecker_simple_allocator<pecker_sdk::_AVL_node_base const *>,pecker_sdk::pecker_simple_allocator<pecker_sdk::_AVL_node_base const * *> >::pecker_bst_tree_no_perent_node_inorder_iterator_base<pecker_sdk::_AVL_node_base,pecker_sdk::pecker_simple_allocator<pecker_sdk::_AVL_node_base const *>,pecker_sdk::pecker_simple_allocator<pecker_sdk::_AVL_node_base const * *> >
	mov	BYTE PTR __$EHRec$[ebp+8], 6

; 163  : 	avl_tree_strings.get_iterator(&tree_iterator_strings);

	lea	eax, DWORD PTR _tree_iterator_strings$[ebp]
	push	eax
	lea	ecx, DWORD PTR _avl_tree_strings$[ebp]
	call	?get_iterator@?$pecker_avl_tree_set_container@V?$basic_string@DU?$char_traits@D@std@@V?$allocator@D@2@@std@@Ustringcmp_t@@U?$AVL_node_set@V?$basic_string@DU?$char_traits@D@std@@V?$allocator@D@2@@std@@@pecker_sdk@@V?$pecker_nodes_simple_allocater@U?$AVL_node_set@V?$basic_string@DU?$char_traits@D@std@@V?$allocator@D@2@@std@@@pecker_sdk@@V?$pecker_simple_allocator@U?$AVL_node_set@V?$basic_string@DU?$char_traits@D@std@@V?$allocator@D@2@@std@@@pecker_sdk@@@2@@5@@pecker_sdk@@QBEPAU?$Ipecker_bst_tree_iterator@U_AVL_node_base@pecker_sdk@@@2@PAU32@@Z ; pecker_sdk::pecker_avl_tree_set_container<std::basic_string<char,std::char_traits<char>,std::allocator<char> >,stringcmp_t,pecker_sdk::AVL_node_set<std::basic_string<char,std::char_traits<char>,std::allocator<char> > >,pecker_sdk::pecker_nodes_simple_allocater<pecker_sdk::AVL_node_set<std::basic_string<char,std::char_traits<char>,std::allocator<char> > >,pecker_sdk::pecker_simple_allocator<pecker_sdk::AVL_node_set<std::basic_string<char,std::char_traits<char>,std::allocator<char> > > > > >::get_iterator

; 164  : 
; 165  : 	tree_iterator_strings.init();

	lea	ecx, DWORD PTR _tree_iterator_strings$[ebp]
	call	?init@?$pecker_bst_tree_no_perent_node_inorder_iterator_base@U_AVL_node_base@pecker_sdk@@V?$pecker_simple_allocator@PBU_AVL_node_base@pecker_sdk@@@2@V?$pecker_simple_allocator@PAPBU_AVL_node_base@pecker_sdk@@@2@@pecker_sdk@@UAEJXZ ; pecker_sdk::pecker_bst_tree_no_perent_node_inorder_iterator_base<pecker_sdk::_AVL_node_base,pecker_sdk::pecker_simple_allocator<pecker_sdk::_AVL_node_base const *>,pecker_sdk::pecker_simple_allocator<pecker_sdk::_AVL_node_base const * *> >::init

; 166  : 	std::cout << "tree iterator inc ....." << std::endl;

	mov	esi, esp
	mov	eax, DWORD PTR __imp_?endl@std@@YAAAV?$basic_ostream@DU?$char_traits@D@std@@@1@AAV21@@Z
	push	eax
	push	OFFSET ??_C@_0BI@FBDCJJMJ@tree?5iterator?5inc?5?4?4?4?4?4?$AA@
	mov	ecx, DWORD PTR __imp_?cout@std@@3V?$basic_ostream@DU?$char_traits@D@std@@@1@A
	push	ecx
	call	??$?6U?$char_traits@D@std@@@std@@YAAAV?$basic_ostream@DU?$char_traits@D@std@@@0@AAV10@PBD@Z ; std::operator<<<std::char_traits<char> >
	add	esp, 8
	mov	ecx, eax
	call	DWORD PTR __imp_??6?$basic_ostream@DU?$char_traits@D@std@@@std@@QAEAAV01@P6AAAV01@AAV01@@Z@Z
	cmp	esi, esp
	call	__RTC_CheckEsp
$LN40@avl_tree_c:

; 167  : 	while (1)

	mov	eax, 1
	test	eax, eax
	je	$LN39@avl_tree_c

; 168  : 	{
; 169  : 		const std::string* pvalue = avl_tree_strings.get_at(&tree_iterator_strings);

	lea	eax, DWORD PTR _tree_iterator_strings$[ebp]
	push	eax
	lea	ecx, DWORD PTR _avl_tree_strings$[ebp]
	call	?get_at@?$pecker_avl_tree_set_container@V?$basic_string@DU?$char_traits@D@std@@V?$allocator@D@2@@std@@Ustringcmp_t@@U?$AVL_node_set@V?$basic_string@DU?$char_traits@D@std@@V?$allocator@D@2@@std@@@pecker_sdk@@V?$pecker_nodes_simple_allocater@U?$AVL_node_set@V?$basic_string@DU?$char_traits@D@std@@V?$allocator@D@2@@std@@@pecker_sdk@@V?$pecker_simple_allocator@U?$AVL_node_set@V?$basic_string@DU?$char_traits@D@std@@V?$allocator@D@2@@std@@@pecker_sdk@@@2@@5@@pecker_sdk@@QBEPBV?$basic_string@DU?$char_traits@D@std@@V?$allocator@D@2@@std@@PBU?$Ipecker_bst_tree_iterator@U_AVL_node_base@pecker_sdk@@@2@@Z ; pecker_sdk::pecker_avl_tree_set_container<std::basic_string<char,std::char_traits<char>,std::allocator<char> >,stringcmp_t,pecker_sdk::AVL_node_set<std::basic_string<char,std::char_traits<char>,std::allocator<char> > >,pecker_sdk::pecker_nodes_simple_allocater<pecker_sdk::AVL_node_set<std::basic_string<char,std::char_traits<char>,std::allocator<char> > >,pecker_sdk::pecker_simple_allocator<pecker_sdk::AVL_node_set<std::basic_string<char,std::char_traits<char>,std::allocator<char> > > > > >::get_at
	mov	DWORD PTR _pvalue$96144[ebp], eax

; 170  : 		if (pvalue)

	cmp	DWORD PTR _pvalue$96144[ebp], 0
	je	SHORT $LN38@avl_tree_c

; 171  : 		{
; 172  : 			std::cout << *pvalue << std::endl;

	mov	esi, esp
	mov	eax, DWORD PTR __imp_?endl@std@@YAAAV?$basic_ostream@DU?$char_traits@D@std@@@1@AAV21@@Z
	push	eax
	mov	ecx, DWORD PTR _pvalue$96144[ebp]
	push	ecx
	mov	edx, DWORD PTR __imp_?cout@std@@3V?$basic_ostream@DU?$char_traits@D@std@@@1@A
	push	edx
	call	??$?6DU?$char_traits@D@std@@V?$allocator@D@1@@std@@YAAAV?$basic_ostream@DU?$char_traits@D@std@@@0@AAV10@ABV?$basic_string@DU?$char_traits@D@std@@V?$allocator@D@2@@0@@Z ; std::operator<<<char,std::char_traits<char>,std::allocator<char> >
	add	esp, 8
	mov	ecx, eax
	call	DWORD PTR __imp_??6?$basic_ostream@DU?$char_traits@D@std@@@std@@QAEAAV01@P6AAAV01@AAV01@@Z@Z
	cmp	esi, esp
	call	__RTC_CheckEsp

; 173  : 			if ( "yard" == *pvalue)

	mov	eax, DWORD PTR _pvalue$96144[ebp]
	push	eax
	push	OFFSET ??_C@_04BIGBAIKH@yard?$AA@
	call	??$?8DU?$char_traits@D@std@@V?$allocator@D@1@@std@@YA_NPBDABV?$basic_string@DU?$char_traits@D@std@@V?$allocator@D@2@@0@@Z ; std::operator==<char,std::char_traits<char>,std::allocator<char> >
	add	esp, 8
	movzx	ecx, al
	test	ecx, ecx
	je	SHORT $LN37@avl_tree_c

; 174  : 			{
; 175  : 				pvalue = pvalue;

	mov	eax, DWORD PTR _pvalue$96144[ebp]
	mov	DWORD PTR _pvalue$96144[ebp], eax
$LN37@avl_tree_c:

; 176  : 			}
; 177  : 		}
; 178  : 		else

	jmp	SHORT $LN36@avl_tree_c
$LN38@avl_tree_c:

; 179  : 		{
; 180  : 			std::cout << "null" << std::endl;

	mov	esi, esp
	mov	eax, DWORD PTR __imp_?endl@std@@YAAAV?$basic_ostream@DU?$char_traits@D@std@@@1@AAV21@@Z
	push	eax
	push	OFFSET ??_C@_04MLLLIHIP@null?$AA@
	mov	ecx, DWORD PTR __imp_?cout@std@@3V?$basic_ostream@DU?$char_traits@D@std@@@1@A
	push	ecx
	call	??$?6U?$char_traits@D@std@@@std@@YAAAV?$basic_ostream@DU?$char_traits@D@std@@@0@AAV10@PBD@Z ; std::operator<<<std::char_traits<char> >
	add	esp, 8
	mov	ecx, eax
	call	DWORD PTR __imp_??6?$basic_ostream@DU?$char_traits@D@std@@@std@@QAEAAV01@P6AAAV01@AAV01@@Z@Z
	cmp	esi, esp
	call	__RTC_CheckEsp

; 181  : 			break;

	jmp	SHORT $LN39@avl_tree_c
$LN36@avl_tree_c:

; 182  : 		}
; 183  : 
; 184  : 		
; 185  : 		if ( P_OK != tree_iterator_strings.increment())

	lea	ecx, DWORD PTR _tree_iterator_strings$[ebp]
	call	?increment@?$pecker_bst_tree_no_perent_node_inorder_iterator_base@U_AVL_node_base@pecker_sdk@@V?$pecker_simple_allocator@PBU_AVL_node_base@pecker_sdk@@@2@V?$pecker_simple_allocator@PAPBU_AVL_node_base@pecker_sdk@@@2@@pecker_sdk@@UAEJXZ ; pecker_sdk::pecker_bst_tree_no_perent_node_inorder_iterator_base<pecker_sdk::_AVL_node_base,pecker_sdk::pecker_simple_allocator<pecker_sdk::_AVL_node_base const *>,pecker_sdk::pecker_simple_allocator<pecker_sdk::_AVL_node_base const * *> >::increment
	test	eax, eax
	je	SHORT $LN35@avl_tree_c

; 186  : 		{
; 187  : 			break;

	jmp	SHORT $LN39@avl_tree_c
$LN35@avl_tree_c:

; 188  : 		}
; 189  : 	}

	jmp	$LN40@avl_tree_c
$LN39@avl_tree_c:

; 190  : 
; 191  : 	std::cout << std::endl << std::endl << "tree iterator dec ....." << std::endl;

	mov	esi, esp
	mov	eax, DWORD PTR __imp_?endl@std@@YAAAV?$basic_ostream@DU?$char_traits@D@std@@@1@AAV21@@Z
	push	eax
	push	OFFSET ??_C@_0BI@CGJJIMKE@tree?5iterator?5dec?5?4?4?4?4?4?$AA@
	mov	edi, esp
	mov	ecx, DWORD PTR __imp_?endl@std@@YAAAV?$basic_ostream@DU?$char_traits@D@std@@@1@AAV21@@Z
	push	ecx
	mov	ebx, esp
	mov	edx, DWORD PTR __imp_?endl@std@@YAAAV?$basic_ostream@DU?$char_traits@D@std@@@1@AAV21@@Z
	push	edx
	mov	ecx, DWORD PTR __imp_?cout@std@@3V?$basic_ostream@DU?$char_traits@D@std@@@1@A
	call	DWORD PTR __imp_??6?$basic_ostream@DU?$char_traits@D@std@@@std@@QAEAAV01@P6AAAV01@AAV01@@Z@Z
	cmp	ebx, esp
	call	__RTC_CheckEsp
	mov	ecx, eax
	call	DWORD PTR __imp_??6?$basic_ostream@DU?$char_traits@D@std@@@std@@QAEAAV01@P6AAAV01@AAV01@@Z@Z
	cmp	edi, esp
	call	__RTC_CheckEsp
	push	eax
	call	??$?6U?$char_traits@D@std@@@std@@YAAAV?$basic_ostream@DU?$char_traits@D@std@@@0@AAV10@PBD@Z ; std::operator<<<std::char_traits<char> >
	add	esp, 8
	mov	ecx, eax
	call	DWORD PTR __imp_??6?$basic_ostream@DU?$char_traits@D@std@@@std@@QAEAAV01@P6AAAV01@AAV01@@Z@Z
	cmp	esi, esp
	call	__RTC_CheckEsp
$LN34@avl_tree_c:

; 192  : 	while (1)

	mov	eax, 1
	test	eax, eax
	je	$LN33@avl_tree_c

; 193  : 	{
; 194  : 		const std::string* pvalue = avl_tree_strings.get_at(&tree_iterator_strings);

	lea	eax, DWORD PTR _tree_iterator_strings$[ebp]
	push	eax
	lea	ecx, DWORD PTR _avl_tree_strings$[ebp]
	call	?get_at@?$pecker_avl_tree_set_container@V?$basic_string@DU?$char_traits@D@std@@V?$allocator@D@2@@std@@Ustringcmp_t@@U?$AVL_node_set@V?$basic_string@DU?$char_traits@D@std@@V?$allocator@D@2@@std@@@pecker_sdk@@V?$pecker_nodes_simple_allocater@U?$AVL_node_set@V?$basic_string@DU?$char_traits@D@std@@V?$allocator@D@2@@std@@@pecker_sdk@@V?$pecker_simple_allocator@U?$AVL_node_set@V?$basic_string@DU?$char_traits@D@std@@V?$allocator@D@2@@std@@@pecker_sdk@@@2@@5@@pecker_sdk@@QBEPBV?$basic_string@DU?$char_traits@D@std@@V?$allocator@D@2@@std@@PBU?$Ipecker_bst_tree_iterator@U_AVL_node_base@pecker_sdk@@@2@@Z ; pecker_sdk::pecker_avl_tree_set_container<std::basic_string<char,std::char_traits<char>,std::allocator<char> >,stringcmp_t,pecker_sdk::AVL_node_set<std::basic_string<char,std::char_traits<char>,std::allocator<char> > >,pecker_sdk::pecker_nodes_simple_allocater<pecker_sdk::AVL_node_set<std::basic_string<char,std::char_traits<char>,std::allocator<char> > >,pecker_sdk::pecker_simple_allocator<pecker_sdk::AVL_node_set<std::basic_string<char,std::char_traits<char>,std::allocator<char> > > > > >::get_at
	mov	DWORD PTR _pvalue$96192[ebp], eax

; 195  : 		if (pvalue)

	cmp	DWORD PTR _pvalue$96192[ebp], 0
	je	SHORT $LN32@avl_tree_c

; 196  : 		{
; 197  : 			std::cout << *pvalue << std::endl;

	mov	esi, esp
	mov	eax, DWORD PTR __imp_?endl@std@@YAAAV?$basic_ostream@DU?$char_traits@D@std@@@1@AAV21@@Z
	push	eax
	mov	ecx, DWORD PTR _pvalue$96192[ebp]
	push	ecx
	mov	edx, DWORD PTR __imp_?cout@std@@3V?$basic_ostream@DU?$char_traits@D@std@@@1@A
	push	edx
	call	??$?6DU?$char_traits@D@std@@V?$allocator@D@1@@std@@YAAAV?$basic_ostream@DU?$char_traits@D@std@@@0@AAV10@ABV?$basic_string@DU?$char_traits@D@std@@V?$allocator@D@2@@0@@Z ; std::operator<<<char,std::char_traits<char>,std::allocator<char> >
	add	esp, 8
	mov	ecx, eax
	call	DWORD PTR __imp_??6?$basic_ostream@DU?$char_traits@D@std@@@std@@QAEAAV01@P6AAAV01@AAV01@@Z@Z
	cmp	esi, esp
	call	__RTC_CheckEsp

; 198  : 		}
; 199  : 		else

	jmp	SHORT $LN31@avl_tree_c
$LN32@avl_tree_c:

; 200  : 		{
; 201  : 			std::cout << "null" << std::endl;

	mov	esi, esp
	mov	eax, DWORD PTR __imp_?endl@std@@YAAAV?$basic_ostream@DU?$char_traits@D@std@@@1@AAV21@@Z
	push	eax
	push	OFFSET ??_C@_04MLLLIHIP@null?$AA@
	mov	ecx, DWORD PTR __imp_?cout@std@@3V?$basic_ostream@DU?$char_traits@D@std@@@1@A
	push	ecx
	call	??$?6U?$char_traits@D@std@@@std@@YAAAV?$basic_ostream@DU?$char_traits@D@std@@@0@AAV10@PBD@Z ; std::operator<<<std::char_traits<char> >
	add	esp, 8
	mov	ecx, eax
	call	DWORD PTR __imp_??6?$basic_ostream@DU?$char_traits@D@std@@@std@@QAEAAV01@P6AAAV01@AAV01@@Z@Z
	cmp	esi, esp
	call	__RTC_CheckEsp

; 202  : 			break;

	jmp	SHORT $LN33@avl_tree_c
$LN31@avl_tree_c:

; 203  : 		}
; 204  : 		if ( P_OK != tree_iterator_strings.decrement())

	lea	ecx, DWORD PTR _tree_iterator_strings$[ebp]
	call	?decrement@?$pecker_bst_tree_no_perent_node_inorder_iterator_base@U_AVL_node_base@pecker_sdk@@V?$pecker_simple_allocator@PBU_AVL_node_base@pecker_sdk@@@2@V?$pecker_simple_allocator@PAPBU_AVL_node_base@pecker_sdk@@@2@@pecker_sdk@@UAEJXZ ; pecker_sdk::pecker_bst_tree_no_perent_node_inorder_iterator_base<pecker_sdk::_AVL_node_base,pecker_sdk::pecker_simple_allocator<pecker_sdk::_AVL_node_base const *>,pecker_sdk::pecker_simple_allocator<pecker_sdk::_AVL_node_base const * *> >::decrement
	test	eax, eax
	je	SHORT $LN30@avl_tree_c

; 205  : 		{
; 206  : 			break;

	jmp	SHORT $LN33@avl_tree_c
$LN30@avl_tree_c:

; 207  : 		}
; 208  : 	}

	jmp	$LN34@avl_tree_c
$LN33@avl_tree_c:

; 209  : 
; 210  : 	std::cout << "tree iterator inc  && dec....." << std::endl;

	mov	esi, esp
	mov	eax, DWORD PTR __imp_?endl@std@@YAAAV?$basic_ostream@DU?$char_traits@D@std@@@1@AAV21@@Z
	push	eax
	push	OFFSET ??_C@_0BP@MANLILJM@tree?5iterator?5inc?5?5?$CG?$CG?5dec?4?4?4?4?4?$AA@
	mov	ecx, DWORD PTR __imp_?cout@std@@3V?$basic_ostream@DU?$char_traits@D@std@@@1@A
	push	ecx
	call	??$?6U?$char_traits@D@std@@@std@@YAAAV?$basic_ostream@DU?$char_traits@D@std@@@0@AAV10@PBD@Z ; std::operator<<<std::char_traits<char> >
	add	esp, 8
	mov	ecx, eax
	call	DWORD PTR __imp_??6?$basic_ostream@DU?$char_traits@D@std@@@std@@QAEAAV01@P6AAAV01@AAV01@@Z@Z
	cmp	esi, esp
	call	__RTC_CheckEsp

; 211  : 	for (int i=0;i<100;++i)

	mov	DWORD PTR _i$96209[ebp], 0
	jmp	SHORT $LN29@avl_tree_c
$LN28@avl_tree_c:
	mov	eax, DWORD PTR _i$96209[ebp]
	add	eax, 1
	mov	DWORD PTR _i$96209[ebp], eax
$LN29@avl_tree_c:
	cmp	DWORD PTR _i$96209[ebp], 100		; 00000064H
	jge	$LN27@avl_tree_c

; 212  : 	{
; 213  : 		const std::string* pvalue = avl_tree_strings.get_at(&tree_iterator_strings);

	lea	eax, DWORD PTR _tree_iterator_strings$[ebp]
	push	eax
	lea	ecx, DWORD PTR _avl_tree_strings$[ebp]
	call	?get_at@?$pecker_avl_tree_set_container@V?$basic_string@DU?$char_traits@D@std@@V?$allocator@D@2@@std@@Ustringcmp_t@@U?$AVL_node_set@V?$basic_string@DU?$char_traits@D@std@@V?$allocator@D@2@@std@@@pecker_sdk@@V?$pecker_nodes_simple_allocater@U?$AVL_node_set@V?$basic_string@DU?$char_traits@D@std@@V?$allocator@D@2@@std@@@pecker_sdk@@V?$pecker_simple_allocator@U?$AVL_node_set@V?$basic_string@DU?$char_traits@D@std@@V?$allocator@D@2@@std@@@pecker_sdk@@@2@@5@@pecker_sdk@@QBEPBV?$basic_string@DU?$char_traits@D@std@@V?$allocator@D@2@@std@@PBU?$Ipecker_bst_tree_iterator@U_AVL_node_base@pecker_sdk@@@2@@Z ; pecker_sdk::pecker_avl_tree_set_container<std::basic_string<char,std::char_traits<char>,std::allocator<char> >,stringcmp_t,pecker_sdk::AVL_node_set<std::basic_string<char,std::char_traits<char>,std::allocator<char> > >,pecker_sdk::pecker_nodes_simple_allocater<pecker_sdk::AVL_node_set<std::basic_string<char,std::char_traits<char>,std::allocator<char> > >,pecker_sdk::pecker_simple_allocator<pecker_sdk::AVL_node_set<std::basic_string<char,std::char_traits<char>,std::allocator<char> > > > > >::get_at
	mov	DWORD PTR _pvalue$96213[ebp], eax

; 214  : 		if (pvalue)

	cmp	DWORD PTR _pvalue$96213[ebp], 0
	je	SHORT $LN26@avl_tree_c

; 215  : 		{
; 216  : 			std::cout << i << " = " << *pvalue << std::endl;

	mov	esi, esp
	mov	eax, DWORD PTR __imp_?endl@std@@YAAAV?$basic_ostream@DU?$char_traits@D@std@@@1@AAV21@@Z
	push	eax
	mov	ecx, DWORD PTR _pvalue$96213[ebp]
	push	ecx
	push	OFFSET ??_C@_03MHLONNLM@?5?$DN?5?$AA@
	mov	edi, esp
	mov	edx, DWORD PTR _i$96209[ebp]
	push	edx
	mov	ecx, DWORD PTR __imp_?cout@std@@3V?$basic_ostream@DU?$char_traits@D@std@@@1@A
	call	DWORD PTR __imp_??6?$basic_ostream@DU?$char_traits@D@std@@@std@@QAEAAV01@H@Z
	cmp	edi, esp
	call	__RTC_CheckEsp
	push	eax
	call	??$?6U?$char_traits@D@std@@@std@@YAAAV?$basic_ostream@DU?$char_traits@D@std@@@0@AAV10@PBD@Z ; std::operator<<<std::char_traits<char> >
	add	esp, 8
	push	eax
	call	??$?6DU?$char_traits@D@std@@V?$allocator@D@1@@std@@YAAAV?$basic_ostream@DU?$char_traits@D@std@@@0@AAV10@ABV?$basic_string@DU?$char_traits@D@std@@V?$allocator@D@2@@0@@Z ; std::operator<<<char,std::char_traits<char>,std::allocator<char> >
	add	esp, 8
	mov	ecx, eax
	call	DWORD PTR __imp_??6?$basic_ostream@DU?$char_traits@D@std@@@std@@QAEAAV01@P6AAAV01@AAV01@@Z@Z
	cmp	esi, esp
	call	__RTC_CheckEsp

; 217  : 		}
; 218  : 		else

	jmp	SHORT $LN25@avl_tree_c
$LN26@avl_tree_c:

; 219  : 		{
; 220  : 			std::cout << "null" << std::endl;

	mov	esi, esp
	mov	eax, DWORD PTR __imp_?endl@std@@YAAAV?$basic_ostream@DU?$char_traits@D@std@@@1@AAV21@@Z
	push	eax
	push	OFFSET ??_C@_04MLLLIHIP@null?$AA@
	mov	ecx, DWORD PTR __imp_?cout@std@@3V?$basic_ostream@DU?$char_traits@D@std@@@1@A
	push	ecx
	call	??$?6U?$char_traits@D@std@@@std@@YAAAV?$basic_ostream@DU?$char_traits@D@std@@@0@AAV10@PBD@Z ; std::operator<<<std::char_traits<char> >
	add	esp, 8
	mov	ecx, eax
	call	DWORD PTR __imp_??6?$basic_ostream@DU?$char_traits@D@std@@@std@@QAEAAV01@P6AAAV01@AAV01@@Z@Z
	cmp	esi, esp
	call	__RTC_CheckEsp

; 221  : 			break;

	jmp	SHORT $LN27@avl_tree_c
$LN25@avl_tree_c:

; 222  : 		}
; 223  : 		if ( P_OK != tree_iterator_strings.increment())

	lea	ecx, DWORD PTR _tree_iterator_strings$[ebp]
	call	?increment@?$pecker_bst_tree_no_perent_node_inorder_iterator_base@U_AVL_node_base@pecker_sdk@@V?$pecker_simple_allocator@PBU_AVL_node_base@pecker_sdk@@@2@V?$pecker_simple_allocator@PAPBU_AVL_node_base@pecker_sdk@@@2@@pecker_sdk@@UAEJXZ ; pecker_sdk::pecker_bst_tree_no_perent_node_inorder_iterator_base<pecker_sdk::_AVL_node_base,pecker_sdk::pecker_simple_allocator<pecker_sdk::_AVL_node_base const *>,pecker_sdk::pecker_simple_allocator<pecker_sdk::_AVL_node_base const * *> >::increment
	test	eax, eax
	je	SHORT $LN24@avl_tree_c

; 224  : 		{
; 225  : 			break;

	jmp	SHORT $LN27@avl_tree_c
$LN24@avl_tree_c:

; 226  : 		}
; 227  : 	}

	jmp	$LN28@avl_tree_c
$LN27@avl_tree_c:

; 228  : 	for (int i = 0;i<50;++i)

	mov	DWORD PTR _i$96237[ebp], 0
	jmp	SHORT $LN23@avl_tree_c
$LN22@avl_tree_c:
	mov	eax, DWORD PTR _i$96237[ebp]
	add	eax, 1
	mov	DWORD PTR _i$96237[ebp], eax
$LN23@avl_tree_c:
	cmp	DWORD PTR _i$96237[ebp], 50		; 00000032H
	jge	$LN21@avl_tree_c

; 229  : 	{
; 230  : 		const std::string* pvalue = avl_tree_strings.get_at(&tree_iterator_strings);

	lea	eax, DWORD PTR _tree_iterator_strings$[ebp]
	push	eax
	lea	ecx, DWORD PTR _avl_tree_strings$[ebp]
	call	?get_at@?$pecker_avl_tree_set_container@V?$basic_string@DU?$char_traits@D@std@@V?$allocator@D@2@@std@@Ustringcmp_t@@U?$AVL_node_set@V?$basic_string@DU?$char_traits@D@std@@V?$allocator@D@2@@std@@@pecker_sdk@@V?$pecker_nodes_simple_allocater@U?$AVL_node_set@V?$basic_string@DU?$char_traits@D@std@@V?$allocator@D@2@@std@@@pecker_sdk@@V?$pecker_simple_allocator@U?$AVL_node_set@V?$basic_string@DU?$char_traits@D@std@@V?$allocator@D@2@@std@@@pecker_sdk@@@2@@5@@pecker_sdk@@QBEPBV?$basic_string@DU?$char_traits@D@std@@V?$allocator@D@2@@std@@PBU?$Ipecker_bst_tree_iterator@U_AVL_node_base@pecker_sdk@@@2@@Z ; pecker_sdk::pecker_avl_tree_set_container<std::basic_string<char,std::char_traits<char>,std::allocator<char> >,stringcmp_t,pecker_sdk::AVL_node_set<std::basic_string<char,std::char_traits<char>,std::allocator<char> > >,pecker_sdk::pecker_nodes_simple_allocater<pecker_sdk::AVL_node_set<std::basic_string<char,std::char_traits<char>,std::allocator<char> > >,pecker_sdk::pecker_simple_allocator<pecker_sdk::AVL_node_set<std::basic_string<char,std::char_traits<char>,std::allocator<char> > > > > >::get_at
	mov	DWORD PTR _pvalue$96241[ebp], eax

; 231  : 		if (pvalue)

	cmp	DWORD PTR _pvalue$96241[ebp], 0
	je	SHORT $LN20@avl_tree_c

; 232  : 		{
; 233  : 			std::cout << i << " = " << *pvalue << std::endl;

	mov	esi, esp
	mov	eax, DWORD PTR __imp_?endl@std@@YAAAV?$basic_ostream@DU?$char_traits@D@std@@@1@AAV21@@Z
	push	eax
	mov	ecx, DWORD PTR _pvalue$96241[ebp]
	push	ecx
	push	OFFSET ??_C@_03MHLONNLM@?5?$DN?5?$AA@
	mov	edi, esp
	mov	edx, DWORD PTR _i$96237[ebp]
	push	edx
	mov	ecx, DWORD PTR __imp_?cout@std@@3V?$basic_ostream@DU?$char_traits@D@std@@@1@A
	call	DWORD PTR __imp_??6?$basic_ostream@DU?$char_traits@D@std@@@std@@QAEAAV01@H@Z
	cmp	edi, esp
	call	__RTC_CheckEsp
	push	eax
	call	??$?6U?$char_traits@D@std@@@std@@YAAAV?$basic_ostream@DU?$char_traits@D@std@@@0@AAV10@PBD@Z ; std::operator<<<std::char_traits<char> >
	add	esp, 8
	push	eax
	call	??$?6DU?$char_traits@D@std@@V?$allocator@D@1@@std@@YAAAV?$basic_ostream@DU?$char_traits@D@std@@@0@AAV10@ABV?$basic_string@DU?$char_traits@D@std@@V?$allocator@D@2@@0@@Z ; std::operator<<<char,std::char_traits<char>,std::allocator<char> >
	add	esp, 8
	mov	ecx, eax
	call	DWORD PTR __imp_??6?$basic_ostream@DU?$char_traits@D@std@@@std@@QAEAAV01@P6AAAV01@AAV01@@Z@Z
	cmp	esi, esp
	call	__RTC_CheckEsp

; 234  : 		}
; 235  : 		else

	jmp	SHORT $LN19@avl_tree_c
$LN20@avl_tree_c:

; 236  : 		{
; 237  : 			std::cout << "null" << std::endl;

	mov	esi, esp
	mov	eax, DWORD PTR __imp_?endl@std@@YAAAV?$basic_ostream@DU?$char_traits@D@std@@@1@AAV21@@Z
	push	eax
	push	OFFSET ??_C@_04MLLLIHIP@null?$AA@
	mov	ecx, DWORD PTR __imp_?cout@std@@3V?$basic_ostream@DU?$char_traits@D@std@@@1@A
	push	ecx
	call	??$?6U?$char_traits@D@std@@@std@@YAAAV?$basic_ostream@DU?$char_traits@D@std@@@0@AAV10@PBD@Z ; std::operator<<<std::char_traits<char> >
	add	esp, 8
	mov	ecx, eax
	call	DWORD PTR __imp_??6?$basic_ostream@DU?$char_traits@D@std@@@std@@QAEAAV01@P6AAAV01@AAV01@@Z@Z
	cmp	esi, esp
	call	__RTC_CheckEsp

; 238  : 			break;

	jmp	SHORT $LN21@avl_tree_c
$LN19@avl_tree_c:

; 239  : 		}
; 240  : 		if ( P_OK != tree_iterator_strings.decrement())

	lea	ecx, DWORD PTR _tree_iterator_strings$[ebp]
	call	?decrement@?$pecker_bst_tree_no_perent_node_inorder_iterator_base@U_AVL_node_base@pecker_sdk@@V?$pecker_simple_allocator@PBU_AVL_node_base@pecker_sdk@@@2@V?$pecker_simple_allocator@PAPBU_AVL_node_base@pecker_sdk@@@2@@pecker_sdk@@UAEJXZ ; pecker_sdk::pecker_bst_tree_no_perent_node_inorder_iterator_base<pecker_sdk::_AVL_node_base,pecker_sdk::pecker_simple_allocator<pecker_sdk::_AVL_node_base const *>,pecker_sdk::pecker_simple_allocator<pecker_sdk::_AVL_node_base const * *> >::decrement
	test	eax, eax
	je	SHORT $LN18@avl_tree_c

; 241  : 		{
; 242  : 			break;

	jmp	SHORT $LN21@avl_tree_c
$LN18@avl_tree_c:

; 243  : 		}
; 244  : 	}

	jmp	$LN22@avl_tree_c
$LN21@avl_tree_c:

; 245  : 
; 246  : 	//pecker_avl_tree_posorder_iterator_base tree_pos_iterator(avl_tree_strings.get_root());
; 247  : 	//tree_pos_iterator.init();
; 248  : 	pecker_bst_tree_no_perent_node_posorder_iterator_base< _AVL_node_base > tree_pos_iterator;

	push	0
	lea	ecx, DWORD PTR _tree_pos_iterator$[ebp]
	call	??0?$pecker_bst_tree_no_perent_node_posorder_iterator_base@U_AVL_node_base@pecker_sdk@@V?$pecker_simple_allocator@PBU_AVL_node_base@pecker_sdk@@@2@V?$pecker_simple_allocator@PAPBU_AVL_node_base@pecker_sdk@@@2@@pecker_sdk@@QAE@PBU_AVL_node_base@1@@Z ; pecker_sdk::pecker_bst_tree_no_perent_node_posorder_iterator_base<pecker_sdk::_AVL_node_base,pecker_sdk::pecker_simple_allocator<pecker_sdk::_AVL_node_base const *>,pecker_sdk::pecker_simple_allocator<pecker_sdk::_AVL_node_base const * *> >::pecker_bst_tree_no_perent_node_posorder_iterator_base<pecker_sdk::_AVL_node_base,pecker_sdk::pecker_simple_allocator<pecker_sdk::_AVL_node_base const *>,pecker_sdk::pecker_simple_allocator<pecker_sdk::_AVL_node_base const * *> >
	mov	BYTE PTR __$EHRec$[ebp+8], 7

; 249  : 	avl_tree_strings.get_iterator(&tree_pos_iterator);

	lea	eax, DWORD PTR _tree_pos_iterator$[ebp]
	push	eax
	lea	ecx, DWORD PTR _avl_tree_strings$[ebp]
	call	?get_iterator@?$pecker_avl_tree_set_container@V?$basic_string@DU?$char_traits@D@std@@V?$allocator@D@2@@std@@Ustringcmp_t@@U?$AVL_node_set@V?$basic_string@DU?$char_traits@D@std@@V?$allocator@D@2@@std@@@pecker_sdk@@V?$pecker_nodes_simple_allocater@U?$AVL_node_set@V?$basic_string@DU?$char_traits@D@std@@V?$allocator@D@2@@std@@@pecker_sdk@@V?$pecker_simple_allocator@U?$AVL_node_set@V?$basic_string@DU?$char_traits@D@std@@V?$allocator@D@2@@std@@@pecker_sdk@@@2@@5@@pecker_sdk@@QBEPAU?$Ipecker_bst_tree_iterator@U_AVL_node_base@pecker_sdk@@@2@PAU32@@Z ; pecker_sdk::pecker_avl_tree_set_container<std::basic_string<char,std::char_traits<char>,std::allocator<char> >,stringcmp_t,pecker_sdk::AVL_node_set<std::basic_string<char,std::char_traits<char>,std::allocator<char> > >,pecker_sdk::pecker_nodes_simple_allocater<pecker_sdk::AVL_node_set<std::basic_string<char,std::char_traits<char>,std::allocator<char> > >,pecker_sdk::pecker_simple_allocator<pecker_sdk::AVL_node_set<std::basic_string<char,std::char_traits<char>,std::allocator<char> > > > > >::get_iterator

; 250  : 	std::cout << "tree pos iterator inc  && dec....." << std::endl;

	mov	esi, esp
	mov	eax, DWORD PTR __imp_?endl@std@@YAAAV?$basic_ostream@DU?$char_traits@D@std@@@1@AAV21@@Z
	push	eax
	push	OFFSET ??_C@_0CD@OCLOMHFI@tree?5pos?5iterator?5inc?5?5?$CG?$CG?5dec?4?4?4@
	mov	ecx, DWORD PTR __imp_?cout@std@@3V?$basic_ostream@DU?$char_traits@D@std@@@1@A
	push	ecx
	call	??$?6U?$char_traits@D@std@@@std@@YAAAV?$basic_ostream@DU?$char_traits@D@std@@@0@AAV10@PBD@Z ; std::operator<<<std::char_traits<char> >
	add	esp, 8
	mov	ecx, eax
	call	DWORD PTR __imp_??6?$basic_ostream@DU?$char_traits@D@std@@@std@@QAEAAV01@P6AAAV01@AAV01@@Z@Z
	cmp	esi, esp
	call	__RTC_CheckEsp

; 251  : 	for (int i=0;i<50;++i)

	mov	DWORD PTR _i$96310[ebp], 0
	jmp	SHORT $LN17@avl_tree_c
$LN16@avl_tree_c:
	mov	eax, DWORD PTR _i$96310[ebp]
	add	eax, 1
	mov	DWORD PTR _i$96310[ebp], eax
$LN17@avl_tree_c:
	cmp	DWORD PTR _i$96310[ebp], 50		; 00000032H
	jge	$LN15@avl_tree_c

; 252  : 	{
; 253  : 		const std::string* pvalue = avl_tree_strings.get_at(&tree_pos_iterator);

	lea	eax, DWORD PTR _tree_pos_iterator$[ebp]
	push	eax
	lea	ecx, DWORD PTR _avl_tree_strings$[ebp]
	call	?get_at@?$pecker_avl_tree_set_container@V?$basic_string@DU?$char_traits@D@std@@V?$allocator@D@2@@std@@Ustringcmp_t@@U?$AVL_node_set@V?$basic_string@DU?$char_traits@D@std@@V?$allocator@D@2@@std@@@pecker_sdk@@V?$pecker_nodes_simple_allocater@U?$AVL_node_set@V?$basic_string@DU?$char_traits@D@std@@V?$allocator@D@2@@std@@@pecker_sdk@@V?$pecker_simple_allocator@U?$AVL_node_set@V?$basic_string@DU?$char_traits@D@std@@V?$allocator@D@2@@std@@@pecker_sdk@@@2@@5@@pecker_sdk@@QBEPBV?$basic_string@DU?$char_traits@D@std@@V?$allocator@D@2@@std@@PBU?$Ipecker_bst_tree_iterator@U_AVL_node_base@pecker_sdk@@@2@@Z ; pecker_sdk::pecker_avl_tree_set_container<std::basic_string<char,std::char_traits<char>,std::allocator<char> >,stringcmp_t,pecker_sdk::AVL_node_set<std::basic_string<char,std::char_traits<char>,std::allocator<char> > >,pecker_sdk::pecker_nodes_simple_allocater<pecker_sdk::AVL_node_set<std::basic_string<char,std::char_traits<char>,std::allocator<char> > >,pecker_sdk::pecker_simple_allocator<pecker_sdk::AVL_node_set<std::basic_string<char,std::char_traits<char>,std::allocator<char> > > > > >::get_at
	mov	DWORD PTR _pvalue$96314[ebp], eax

; 254  : 		if (pvalue)

	cmp	DWORD PTR _pvalue$96314[ebp], 0
	je	SHORT $LN14@avl_tree_c

; 255  : 		{
; 256  : 			std::cout << i << " = " << *pvalue << std::endl;

	mov	esi, esp
	mov	eax, DWORD PTR __imp_?endl@std@@YAAAV?$basic_ostream@DU?$char_traits@D@std@@@1@AAV21@@Z
	push	eax
	mov	ecx, DWORD PTR _pvalue$96314[ebp]
	push	ecx
	push	OFFSET ??_C@_03MHLONNLM@?5?$DN?5?$AA@
	mov	edi, esp
	mov	edx, DWORD PTR _i$96310[ebp]
	push	edx
	mov	ecx, DWORD PTR __imp_?cout@std@@3V?$basic_ostream@DU?$char_traits@D@std@@@1@A
	call	DWORD PTR __imp_??6?$basic_ostream@DU?$char_traits@D@std@@@std@@QAEAAV01@H@Z
	cmp	edi, esp
	call	__RTC_CheckEsp
	push	eax
	call	??$?6U?$char_traits@D@std@@@std@@YAAAV?$basic_ostream@DU?$char_traits@D@std@@@0@AAV10@PBD@Z ; std::operator<<<std::char_traits<char> >
	add	esp, 8
	push	eax
	call	??$?6DU?$char_traits@D@std@@V?$allocator@D@1@@std@@YAAAV?$basic_ostream@DU?$char_traits@D@std@@@0@AAV10@ABV?$basic_string@DU?$char_traits@D@std@@V?$allocator@D@2@@0@@Z ; std::operator<<<char,std::char_traits<char>,std::allocator<char> >
	add	esp, 8
	mov	ecx, eax
	call	DWORD PTR __imp_??6?$basic_ostream@DU?$char_traits@D@std@@@std@@QAEAAV01@P6AAAV01@AAV01@@Z@Z
	cmp	esi, esp
	call	__RTC_CheckEsp

; 257  : 		}
; 258  : 		else

	jmp	SHORT $LN13@avl_tree_c
$LN14@avl_tree_c:

; 259  : 		{
; 260  : 			std::cout << "null" << std::endl;

	mov	esi, esp
	mov	eax, DWORD PTR __imp_?endl@std@@YAAAV?$basic_ostream@DU?$char_traits@D@std@@@1@AAV21@@Z
	push	eax
	push	OFFSET ??_C@_04MLLLIHIP@null?$AA@
	mov	ecx, DWORD PTR __imp_?cout@std@@3V?$basic_ostream@DU?$char_traits@D@std@@@1@A
	push	ecx
	call	??$?6U?$char_traits@D@std@@@std@@YAAAV?$basic_ostream@DU?$char_traits@D@std@@@0@AAV10@PBD@Z ; std::operator<<<std::char_traits<char> >
	add	esp, 8
	mov	ecx, eax
	call	DWORD PTR __imp_??6?$basic_ostream@DU?$char_traits@D@std@@@std@@QAEAAV01@P6AAAV01@AAV01@@Z@Z
	cmp	esi, esp
	call	__RTC_CheckEsp

; 261  : 			break;

	jmp	SHORT $LN15@avl_tree_c
$LN13@avl_tree_c:

; 262  : 		}
; 263  : 		if ( P_OK != tree_pos_iterator.increment_right())

	lea	ecx, DWORD PTR _tree_pos_iterator$[ebp]
	call	?increment_right@?$pecker_bst_tree_no_perent_node_posorder_iterator_base@U_AVL_node_base@pecker_sdk@@V?$pecker_simple_allocator@PBU_AVL_node_base@pecker_sdk@@@2@V?$pecker_simple_allocator@PAPBU_AVL_node_base@pecker_sdk@@@2@@pecker_sdk@@UAEJXZ ; pecker_sdk::pecker_bst_tree_no_perent_node_posorder_iterator_base<pecker_sdk::_AVL_node_base,pecker_sdk::pecker_simple_allocator<pecker_sdk::_AVL_node_base const *>,pecker_sdk::pecker_simple_allocator<pecker_sdk::_AVL_node_base const * *> >::increment_right
	test	eax, eax
	je	SHORT $LN12@avl_tree_c

; 264  : 		{
; 265  : 			break;

	jmp	SHORT $LN15@avl_tree_c
$LN12@avl_tree_c:

; 266  : 		}
; 267  : 	}

	jmp	$LN16@avl_tree_c
$LN15@avl_tree_c:

; 268  : 
; 269  : 	for (int i=0;i<20;++i)

	mov	DWORD PTR _i$96326[ebp], 0
	jmp	SHORT $LN11@avl_tree_c
$LN10@avl_tree_c:
	mov	eax, DWORD PTR _i$96326[ebp]
	add	eax, 1
	mov	DWORD PTR _i$96326[ebp], eax
$LN11@avl_tree_c:
	cmp	DWORD PTR _i$96326[ebp], 20		; 00000014H
	jge	$LN9@avl_tree_c

; 270  : 	{
; 271  : 		const std::string* pvalue = avl_tree_strings.get_at(&tree_pos_iterator);

	lea	eax, DWORD PTR _tree_pos_iterator$[ebp]
	push	eax
	lea	ecx, DWORD PTR _avl_tree_strings$[ebp]
	call	?get_at@?$pecker_avl_tree_set_container@V?$basic_string@DU?$char_traits@D@std@@V?$allocator@D@2@@std@@Ustringcmp_t@@U?$AVL_node_set@V?$basic_string@DU?$char_traits@D@std@@V?$allocator@D@2@@std@@@pecker_sdk@@V?$pecker_nodes_simple_allocater@U?$AVL_node_set@V?$basic_string@DU?$char_traits@D@std@@V?$allocator@D@2@@std@@@pecker_sdk@@V?$pecker_simple_allocator@U?$AVL_node_set@V?$basic_string@DU?$char_traits@D@std@@V?$allocator@D@2@@std@@@pecker_sdk@@@2@@5@@pecker_sdk@@QBEPBV?$basic_string@DU?$char_traits@D@std@@V?$allocator@D@2@@std@@PBU?$Ipecker_bst_tree_iterator@U_AVL_node_base@pecker_sdk@@@2@@Z ; pecker_sdk::pecker_avl_tree_set_container<std::basic_string<char,std::char_traits<char>,std::allocator<char> >,stringcmp_t,pecker_sdk::AVL_node_set<std::basic_string<char,std::char_traits<char>,std::allocator<char> > >,pecker_sdk::pecker_nodes_simple_allocater<pecker_sdk::AVL_node_set<std::basic_string<char,std::char_traits<char>,std::allocator<char> > >,pecker_sdk::pecker_simple_allocator<pecker_sdk::AVL_node_set<std::basic_string<char,std::char_traits<char>,std::allocator<char> > > > > >::get_at
	mov	DWORD PTR _pvalue$96330[ebp], eax

; 272  : 		if (pvalue)

	cmp	DWORD PTR _pvalue$96330[ebp], 0
	je	SHORT $LN8@avl_tree_c

; 273  : 		{
; 274  : 			std::cout << i << " = " << *pvalue << std::endl;

	mov	esi, esp
	mov	eax, DWORD PTR __imp_?endl@std@@YAAAV?$basic_ostream@DU?$char_traits@D@std@@@1@AAV21@@Z
	push	eax
	mov	ecx, DWORD PTR _pvalue$96330[ebp]
	push	ecx
	push	OFFSET ??_C@_03MHLONNLM@?5?$DN?5?$AA@
	mov	edi, esp
	mov	edx, DWORD PTR _i$96326[ebp]
	push	edx
	mov	ecx, DWORD PTR __imp_?cout@std@@3V?$basic_ostream@DU?$char_traits@D@std@@@1@A
	call	DWORD PTR __imp_??6?$basic_ostream@DU?$char_traits@D@std@@@std@@QAEAAV01@H@Z
	cmp	edi, esp
	call	__RTC_CheckEsp
	push	eax
	call	??$?6U?$char_traits@D@std@@@std@@YAAAV?$basic_ostream@DU?$char_traits@D@std@@@0@AAV10@PBD@Z ; std::operator<<<std::char_traits<char> >
	add	esp, 8
	push	eax
	call	??$?6DU?$char_traits@D@std@@V?$allocator@D@1@@std@@YAAAV?$basic_ostream@DU?$char_traits@D@std@@@0@AAV10@ABV?$basic_string@DU?$char_traits@D@std@@V?$allocator@D@2@@0@@Z ; std::operator<<<char,std::char_traits<char>,std::allocator<char> >
	add	esp, 8
	mov	ecx, eax
	call	DWORD PTR __imp_??6?$basic_ostream@DU?$char_traits@D@std@@@std@@QAEAAV01@P6AAAV01@AAV01@@Z@Z
	cmp	esi, esp
	call	__RTC_CheckEsp

; 275  : 		}
; 276  : 		else

	jmp	SHORT $LN7@avl_tree_c
$LN8@avl_tree_c:

; 277  : 		{
; 278  : 			std::cout << "null" << std::endl;

	mov	esi, esp
	mov	eax, DWORD PTR __imp_?endl@std@@YAAAV?$basic_ostream@DU?$char_traits@D@std@@@1@AAV21@@Z
	push	eax
	push	OFFSET ??_C@_04MLLLIHIP@null?$AA@
	mov	ecx, DWORD PTR __imp_?cout@std@@3V?$basic_ostream@DU?$char_traits@D@std@@@1@A
	push	ecx
	call	??$?6U?$char_traits@D@std@@@std@@YAAAV?$basic_ostream@DU?$char_traits@D@std@@@0@AAV10@PBD@Z ; std::operator<<<std::char_traits<char> >
	add	esp, 8
	mov	ecx, eax
	call	DWORD PTR __imp_??6?$basic_ostream@DU?$char_traits@D@std@@@std@@QAEAAV01@P6AAAV01@AAV01@@Z@Z
	cmp	esi, esp
	call	__RTC_CheckEsp

; 279  : 			break;

	jmp	SHORT $LN9@avl_tree_c
$LN7@avl_tree_c:

; 280  : 		}
; 281  : 		if ( P_OK != tree_pos_iterator.increment_left())

	lea	ecx, DWORD PTR _tree_pos_iterator$[ebp]
	call	?increment_left@?$pecker_bst_tree_no_perent_node_posorder_iterator_base@U_AVL_node_base@pecker_sdk@@V?$pecker_simple_allocator@PBU_AVL_node_base@pecker_sdk@@@2@V?$pecker_simple_allocator@PAPBU_AVL_node_base@pecker_sdk@@@2@@pecker_sdk@@UAEJXZ ; pecker_sdk::pecker_bst_tree_no_perent_node_posorder_iterator_base<pecker_sdk::_AVL_node_base,pecker_sdk::pecker_simple_allocator<pecker_sdk::_AVL_node_base const *>,pecker_sdk::pecker_simple_allocator<pecker_sdk::_AVL_node_base const * *> >::increment_left
	test	eax, eax
	je	SHORT $LN6@avl_tree_c

; 282  : 		{
; 283  : 			break;

	jmp	SHORT $LN9@avl_tree_c
$LN6@avl_tree_c:

; 284  : 		}
; 285  : 	}

	jmp	$LN10@avl_tree_c
$LN9@avl_tree_c:

; 286  : 
; 287  : 
; 288  : 	avl_tree_strings_copy.copy(&avl_tree_strings);

	lea	eax, DWORD PTR _avl_tree_strings$[ebp]
	push	eax
	lea	ecx, DWORD PTR _avl_tree_strings_copy$[ebp]
	call	?copy@?$pecker_avl_tree_set_container@V?$basic_string@DU?$char_traits@D@std@@V?$allocator@D@2@@std@@Ustringcmp_t@@U?$AVL_node_set@V?$basic_string@DU?$char_traits@D@std@@V?$allocator@D@2@@std@@@pecker_sdk@@V?$pecker_nodes_simple_allocater@U?$AVL_node_set@V?$basic_string@DU?$char_traits@D@std@@V?$allocator@D@2@@std@@@pecker_sdk@@V?$pecker_simple_allocator@U?$AVL_node_set@V?$basic_string@DU?$char_traits@D@std@@V?$allocator@D@2@@std@@@pecker_sdk@@@2@@5@@pecker_sdk@@QAEJPBV12@@Z ; pecker_sdk::pecker_avl_tree_set_container<std::basic_string<char,std::char_traits<char>,std::allocator<char> >,stringcmp_t,pecker_sdk::AVL_node_set<std::basic_string<char,std::char_traits<char>,std::allocator<char> > >,pecker_sdk::pecker_nodes_simple_allocater<pecker_sdk::AVL_node_set<std::basic_string<char,std::char_traits<char>,std::allocator<char> > >,pecker_sdk::pecker_simple_allocator<pecker_sdk::AVL_node_set<std::basic_string<char,std::char_traits<char>,std::allocator<char> > > > > >::copy

; 289  : 	avl_tree_strings.clear();

	push	0
	lea	ecx, DWORD PTR _avl_tree_strings$[ebp]
	call	?clear@?$pecker_avl_tree_set_container@V?$basic_string@DU?$char_traits@D@std@@V?$allocator@D@2@@std@@Ustringcmp_t@@U?$AVL_node_set@V?$basic_string@DU?$char_traits@D@std@@V?$allocator@D@2@@std@@@pecker_sdk@@V?$pecker_nodes_simple_allocater@U?$AVL_node_set@V?$basic_string@DU?$char_traits@D@std@@V?$allocator@D@2@@std@@@pecker_sdk@@V?$pecker_simple_allocator@U?$AVL_node_set@V?$basic_string@DU?$char_traits@D@std@@V?$allocator@D@2@@std@@@pecker_sdk@@@2@@5@@pecker_sdk@@QAEJ_N@Z ; pecker_sdk::pecker_avl_tree_set_container<std::basic_string<char,std::char_traits<char>,std::allocator<char> >,stringcmp_t,pecker_sdk::AVL_node_set<std::basic_string<char,std::char_traits<char>,std::allocator<char> > >,pecker_sdk::pecker_nodes_simple_allocater<pecker_sdk::AVL_node_set<std::basic_string<char,std::char_traits<char>,std::allocator<char> > >,pecker_sdk::pecker_simple_allocator<pecker_sdk::AVL_node_set<std::basic_string<char,std::char_traits<char>,std::allocator<char> > > > > >::clear

; 290  : 
; 291  : 	tree_iterator_strings.reinit(avl_tree_strings_copy.get_root());

	push	1
	lea	ecx, DWORD PTR _avl_tree_strings_copy$[ebp]
	call	?get_root@?$pecker_avl_tree_set_container@V?$basic_string@DU?$char_traits@D@std@@V?$allocator@D@2@@std@@Ustringcmp_t@@U?$AVL_node_set@V?$basic_string@DU?$char_traits@D@std@@V?$allocator@D@2@@std@@@pecker_sdk@@V?$pecker_nodes_simple_allocater@U?$AVL_node_set@V?$basic_string@DU?$char_traits@D@std@@V?$allocator@D@2@@std@@@pecker_sdk@@V?$pecker_simple_allocator@U?$AVL_node_set@V?$basic_string@DU?$char_traits@D@std@@V?$allocator@D@2@@std@@@pecker_sdk@@@2@@5@@pecker_sdk@@QBEPBU?$AVL_node_set@V?$basic_string@DU?$char_traits@D@std@@V?$allocator@D@2@@std@@@2@XZ ; pecker_sdk::pecker_avl_tree_set_container<std::basic_string<char,std::char_traits<char>,std::allocator<char> >,stringcmp_t,pecker_sdk::AVL_node_set<std::basic_string<char,std::char_traits<char>,std::allocator<char> > >,pecker_sdk::pecker_nodes_simple_allocater<pecker_sdk::AVL_node_set<std::basic_string<char,std::char_traits<char>,std::allocator<char> > >,pecker_sdk::pecker_simple_allocator<pecker_sdk::AVL_node_set<std::basic_string<char,std::char_traits<char>,std::allocator<char> > > > > >::get_root
	push	eax
	lea	ecx, DWORD PTR _tree_iterator_strings$[ebp]
	call	?reinit@?$pecker_bst_tree_no_perent_node_inorder_iterator_base@U_AVL_node_base@pecker_sdk@@V?$pecker_simple_allocator@PBU_AVL_node_base@pecker_sdk@@@2@V?$pecker_simple_allocator@PAPBU_AVL_node_base@pecker_sdk@@@2@@pecker_sdk@@UAEJPBU_AVL_node_base@2@W4enumTREE_ITERATOR_INIT_TYPE@@@Z ; pecker_sdk::pecker_bst_tree_no_perent_node_inorder_iterator_base<pecker_sdk::_AVL_node_base,pecker_sdk::pecker_simple_allocator<pecker_sdk::_AVL_node_base const *>,pecker_sdk::pecker_simple_allocator<pecker_sdk::_AVL_node_base const * *> >::reinit

; 292  : 	std::cout  << std::endl << std::endl << std::endl << std::endl<< "copy tree iterator inc ....." << std::endl;

	mov	esi, esp
	mov	eax, DWORD PTR __imp_?endl@std@@YAAAV?$basic_ostream@DU?$char_traits@D@std@@@1@AAV21@@Z
	push	eax
	push	OFFSET ??_C@_0BN@NOBDPJD@copy?5tree?5iterator?5inc?5?4?4?4?4?4?$AA@
	mov	edi, esp
	mov	ecx, DWORD PTR __imp_?endl@std@@YAAAV?$basic_ostream@DU?$char_traits@D@std@@@1@AAV21@@Z
	push	ecx
	mov	ebx, esp
	mov	edx, DWORD PTR __imp_?endl@std@@YAAAV?$basic_ostream@DU?$char_traits@D@std@@@1@AAV21@@Z
	push	edx
	mov	eax, esp
	mov	ecx, DWORD PTR __imp_?endl@std@@YAAAV?$basic_ostream@DU?$char_traits@D@std@@@1@AAV21@@Z
	push	ecx
	mov	ecx, esp
	mov	edx, DWORD PTR __imp_?endl@std@@YAAAV?$basic_ostream@DU?$char_traits@D@std@@@1@AAV21@@Z
	push	edx
	mov	DWORD PTR tv861[ebp], ecx
	mov	ecx, DWORD PTR __imp_?cout@std@@3V?$basic_ostream@DU?$char_traits@D@std@@@1@A
	mov	DWORD PTR tv863[ebp], eax
	call	DWORD PTR __imp_??6?$basic_ostream@DU?$char_traits@D@std@@@std@@QAEAAV01@P6AAAV01@AAV01@@Z@Z
	mov	ecx, DWORD PTR tv861[ebp]
	cmp	ecx, esp
	call	__RTC_CheckEsp
	mov	ecx, eax
	call	DWORD PTR __imp_??6?$basic_ostream@DU?$char_traits@D@std@@@std@@QAEAAV01@P6AAAV01@AAV01@@Z@Z
	mov	ecx, DWORD PTR tv863[ebp]
	cmp	ecx, esp
	call	__RTC_CheckEsp
	mov	ecx, eax
	call	DWORD PTR __imp_??6?$basic_ostream@DU?$char_traits@D@std@@@std@@QAEAAV01@P6AAAV01@AAV01@@Z@Z
	cmp	ebx, esp
	call	__RTC_CheckEsp
	mov	ecx, eax
	call	DWORD PTR __imp_??6?$basic_ostream@DU?$char_traits@D@std@@@std@@QAEAAV01@P6AAAV01@AAV01@@Z@Z
	cmp	edi, esp
	call	__RTC_CheckEsp
	push	eax
	call	??$?6U?$char_traits@D@std@@@std@@YAAAV?$basic_ostream@DU?$char_traits@D@std@@@0@AAV10@PBD@Z ; std::operator<<<std::char_traits<char> >
	add	esp, 8
	mov	ecx, eax
	call	DWORD PTR __imp_??6?$basic_ostream@DU?$char_traits@D@std@@@std@@QAEAAV01@P6AAAV01@AAV01@@Z@Z
	cmp	esi, esp
	call	__RTC_CheckEsp
$LN5@avl_tree_c:

; 293  : 
; 294  : 	while (1)

	mov	eax, 1
	test	eax, eax
	je	$LN4@avl_tree_c

; 295  : 	{
; 296  : 		const std::string* pvalue = avl_tree_strings_copy.get_at(&tree_iterator_strings);

	lea	eax, DWORD PTR _tree_iterator_strings$[ebp]
	push	eax
	lea	ecx, DWORD PTR _avl_tree_strings_copy$[ebp]
	call	?get_at@?$pecker_avl_tree_set_container@V?$basic_string@DU?$char_traits@D@std@@V?$allocator@D@2@@std@@Ustringcmp_t@@U?$AVL_node_set@V?$basic_string@DU?$char_traits@D@std@@V?$allocator@D@2@@std@@@pecker_sdk@@V?$pecker_nodes_simple_allocater@U?$AVL_node_set@V?$basic_string@DU?$char_traits@D@std@@V?$allocator@D@2@@std@@@pecker_sdk@@V?$pecker_simple_allocator@U?$AVL_node_set@V?$basic_string@DU?$char_traits@D@std@@V?$allocator@D@2@@std@@@pecker_sdk@@@2@@5@@pecker_sdk@@QBEPBV?$basic_string@DU?$char_traits@D@std@@V?$allocator@D@2@@std@@PBU?$Ipecker_bst_tree_iterator@U_AVL_node_base@pecker_sdk@@@2@@Z ; pecker_sdk::pecker_avl_tree_set_container<std::basic_string<char,std::char_traits<char>,std::allocator<char> >,stringcmp_t,pecker_sdk::AVL_node_set<std::basic_string<char,std::char_traits<char>,std::allocator<char> > >,pecker_sdk::pecker_nodes_simple_allocater<pecker_sdk::AVL_node_set<std::basic_string<char,std::char_traits<char>,std::allocator<char> > >,pecker_sdk::pecker_simple_allocator<pecker_sdk::AVL_node_set<std::basic_string<char,std::char_traits<char>,std::allocator<char> > > > > >::get_at
	mov	DWORD PTR _pvalue$96378[ebp], eax

; 297  : 		if (pvalue)

	cmp	DWORD PTR _pvalue$96378[ebp], 0
	je	SHORT $LN3@avl_tree_c

; 298  : 		{
; 299  : 			std::cout <<*pvalue << std::endl;

	mov	esi, esp
	mov	eax, DWORD PTR __imp_?endl@std@@YAAAV?$basic_ostream@DU?$char_traits@D@std@@@1@AAV21@@Z
	push	eax
	mov	ecx, DWORD PTR _pvalue$96378[ebp]
	push	ecx
	mov	edx, DWORD PTR __imp_?cout@std@@3V?$basic_ostream@DU?$char_traits@D@std@@@1@A
	push	edx
	call	??$?6DU?$char_traits@D@std@@V?$allocator@D@1@@std@@YAAAV?$basic_ostream@DU?$char_traits@D@std@@@0@AAV10@ABV?$basic_string@DU?$char_traits@D@std@@V?$allocator@D@2@@0@@Z ; std::operator<<<char,std::char_traits<char>,std::allocator<char> >
	add	esp, 8
	mov	ecx, eax
	call	DWORD PTR __imp_??6?$basic_ostream@DU?$char_traits@D@std@@@std@@QAEAAV01@P6AAAV01@AAV01@@Z@Z
	cmp	esi, esp
	call	__RTC_CheckEsp

; 300  : 		}
; 301  : 		else

	jmp	SHORT $LN2@avl_tree_c
$LN3@avl_tree_c:

; 302  : 		{
; 303  : 			std::cout << "null" << std::endl;

	mov	esi, esp
	mov	eax, DWORD PTR __imp_?endl@std@@YAAAV?$basic_ostream@DU?$char_traits@D@std@@@1@AAV21@@Z
	push	eax
	push	OFFSET ??_C@_04MLLLIHIP@null?$AA@
	mov	ecx, DWORD PTR __imp_?cout@std@@3V?$basic_ostream@DU?$char_traits@D@std@@@1@A
	push	ecx
	call	??$?6U?$char_traits@D@std@@@std@@YAAAV?$basic_ostream@DU?$char_traits@D@std@@@0@AAV10@PBD@Z ; std::operator<<<std::char_traits<char> >
	add	esp, 8
	mov	ecx, eax
	call	DWORD PTR __imp_??6?$basic_ostream@DU?$char_traits@D@std@@@std@@QAEAAV01@P6AAAV01@AAV01@@Z@Z
	cmp	esi, esp
	call	__RTC_CheckEsp

; 304  : 			break;

	jmp	SHORT $LN4@avl_tree_c
$LN2@avl_tree_c:

; 305  : 		}
; 306  : 		if ( P_OK != tree_iterator_strings.increment())

	lea	ecx, DWORD PTR _tree_iterator_strings$[ebp]
	call	?increment@?$pecker_bst_tree_no_perent_node_inorder_iterator_base@U_AVL_node_base@pecker_sdk@@V?$pecker_simple_allocator@PBU_AVL_node_base@pecker_sdk@@@2@V?$pecker_simple_allocator@PAPBU_AVL_node_base@pecker_sdk@@@2@@pecker_sdk@@UAEJXZ ; pecker_sdk::pecker_bst_tree_no_perent_node_inorder_iterator_base<pecker_sdk::_AVL_node_base,pecker_sdk::pecker_simple_allocator<pecker_sdk::_AVL_node_base const *>,pecker_sdk::pecker_simple_allocator<pecker_sdk::_AVL_node_base const * *> >::increment
	test	eax, eax
	je	SHORT $LN1@avl_tree_c

; 307  : 		{
; 308  : 			break;

	jmp	SHORT $LN4@avl_tree_c
$LN1@avl_tree_c:

; 309  : 		}
; 310  : 	}

	jmp	$LN5@avl_tree_c
$LN4@avl_tree_c:

; 311  : 
; 312  : 	avl_tree_strings_copy.clear();

	push	0
	lea	ecx, DWORD PTR _avl_tree_strings_copy$[ebp]
	call	?clear@?$pecker_avl_tree_set_container@V?$basic_string@DU?$char_traits@D@std@@V?$allocator@D@2@@std@@Ustringcmp_t@@U?$AVL_node_set@V?$basic_string@DU?$char_traits@D@std@@V?$allocator@D@2@@std@@@pecker_sdk@@V?$pecker_nodes_simple_allocater@U?$AVL_node_set@V?$basic_string@DU?$char_traits@D@std@@V?$allocator@D@2@@std@@@pecker_sdk@@V?$pecker_simple_allocator@U?$AVL_node_set@V?$basic_string@DU?$char_traits@D@std@@V?$allocator@D@2@@std@@@pecker_sdk@@@2@@5@@pecker_sdk@@QAEJ_N@Z ; pecker_sdk::pecker_avl_tree_set_container<std::basic_string<char,std::char_traits<char>,std::allocator<char> >,stringcmp_t,pecker_sdk::AVL_node_set<std::basic_string<char,std::char_traits<char>,std::allocator<char> > >,pecker_sdk::pecker_nodes_simple_allocater<pecker_sdk::AVL_node_set<std::basic_string<char,std::char_traits<char>,std::allocator<char> > >,pecker_sdk::pecker_simple_allocator<pecker_sdk::AVL_node_set<std::basic_string<char,std::char_traits<char>,std::allocator<char> > > > > >::clear

; 313  : 
; 314  : 	return 0;

	mov	DWORD PTR $T108116[ebp], 0
	mov	BYTE PTR __$EHRec$[ebp+8], 6
	lea	ecx, DWORD PTR _tree_pos_iterator$[ebp]
	call	??1?$pecker_bst_tree_no_perent_node_posorder_iterator_base@U_AVL_node_base@pecker_sdk@@V?$pecker_simple_allocator@PBU_AVL_node_base@pecker_sdk@@@2@V?$pecker_simple_allocator@PAPBU_AVL_node_base@pecker_sdk@@@2@@pecker_sdk@@UAE@XZ ; pecker_sdk::pecker_bst_tree_no_perent_node_posorder_iterator_base<pecker_sdk::_AVL_node_base,pecker_sdk::pecker_simple_allocator<pecker_sdk::_AVL_node_base const *>,pecker_sdk::pecker_simple_allocator<pecker_sdk::_AVL_node_base const * *> >::~pecker_bst_tree_no_perent_node_posorder_iterator_base<pecker_sdk::_AVL_node_base,pecker_sdk::pecker_simple_allocator<pecker_sdk::_AVL_node_base const *>,pecker_sdk::pecker_simple_allocator<pecker_sdk::_AVL_node_base const * *> >
	mov	BYTE PTR __$EHRec$[ebp+8], 5
	lea	ecx, DWORD PTR _tree_iterator_strings$[ebp]
	call	??1?$pecker_bst_tree_no_perent_node_inorder_iterator_base@U_AVL_node_base@pecker_sdk@@V?$pecker_simple_allocator@PBU_AVL_node_base@pecker_sdk@@@2@V?$pecker_simple_allocator@PAPBU_AVL_node_base@pecker_sdk@@@2@@pecker_sdk@@UAE@XZ ; pecker_sdk::pecker_bst_tree_no_perent_node_inorder_iterator_base<pecker_sdk::_AVL_node_base,pecker_sdk::pecker_simple_allocator<pecker_sdk::_AVL_node_base const *>,pecker_sdk::pecker_simple_allocator<pecker_sdk::_AVL_node_base const * *> >::~pecker_bst_tree_no_perent_node_inorder_iterator_base<pecker_sdk::_AVL_node_base,pecker_sdk::pecker_simple_allocator<pecker_sdk::_AVL_node_base const *>,pecker_sdk::pecker_simple_allocator<pecker_sdk::_AVL_node_base const * *> >
	mov	BYTE PTR __$EHRec$[ebp+8], 3
	lea	ecx, DWORD PTR _array_iterator_strings$[ebp]
	call	??1?$pecker_array_iterator@V?$pecker_array@V?$basic_string@DU?$char_traits@D@std@@V?$allocator@D@2@@std@@V?$pecker_simple_allocator@V?$basic_string@DU?$char_traits@D@std@@V?$allocator@D@2@@std@@@pecker_sdk@@@pecker_sdk@@@pecker_sdk@@UAE@XZ ; pecker_sdk::pecker_array_iterator<pecker_sdk::pecker_array<std::basic_string<char,std::char_traits<char>,std::allocator<char> >,pecker_sdk::pecker_simple_allocator<std::basic_string<char,std::char_traits<char>,std::allocator<char> > > > >::~pecker_array_iterator<pecker_sdk::pecker_array<std::basic_string<char,std::char_traits<char>,std::allocator<char> >,pecker_sdk::pecker_simple_allocator<std::basic_string<char,std::char_traits<char>,std::allocator<char> > > > >
	mov	BYTE PTR __$EHRec$[ebp+8], 2
	lea	ecx, DWORD PTR _myfile$[ebp]
	call	??_D?$basic_ifstream@DU?$char_traits@D@std@@@std@@QAEXXZ
	mov	BYTE PTR __$EHRec$[ebp+8], 1
	lea	ecx, DWORD PTR _array_strings$[ebp]
	call	??1?$pecker_array@V?$basic_string@DU?$char_traits@D@std@@V?$allocator@D@2@@std@@V?$pecker_simple_allocator@V?$basic_string@DU?$char_traits@D@std@@V?$allocator@D@2@@std@@@pecker_sdk@@@pecker_sdk@@UAE@XZ ; pecker_sdk::pecker_array<std::basic_string<char,std::char_traits<char>,std::allocator<char> >,pecker_sdk::pecker_simple_allocator<std::basic_string<char,std::char_traits<char>,std::allocator<char> > > >::~pecker_array<std::basic_string<char,std::char_traits<char>,std::allocator<char> >,pecker_sdk::pecker_simple_allocator<std::basic_string<char,std::char_traits<char>,std::allocator<char> > > >
	mov	BYTE PTR __$EHRec$[ebp+8], 0
	lea	ecx, DWORD PTR _avl_tree_strings_copy$[ebp]
	call	??1?$pecker_avl_tree_set_container@V?$basic_string@DU?$char_traits@D@std@@V?$allocator@D@2@@std@@Ustringcmp_t@@U?$AVL_node_set@V?$basic_string@DU?$char_traits@D@std@@V?$allocator@D@2@@std@@@pecker_sdk@@V?$pecker_nodes_simple_allocater@U?$AVL_node_set@V?$basic_string@DU?$char_traits@D@std@@V?$allocator@D@2@@std@@@pecker_sdk@@V?$pecker_simple_allocator@U?$AVL_node_set@V?$basic_string@DU?$char_traits@D@std@@V?$allocator@D@2@@std@@@pecker_sdk@@@2@@5@@pecker_sdk@@QAE@XZ ; pecker_sdk::pecker_avl_tree_set_container<std::basic_string<char,std::char_traits<char>,std::allocator<char> >,stringcmp_t,pecker_sdk::AVL_node_set<std::basic_string<char,std::char_traits<char>,std::allocator<char> > >,pecker_sdk::pecker_nodes_simple_allocater<pecker_sdk::AVL_node_set<std::basic_string<char,std::char_traits<char>,std::allocator<char> > >,pecker_sdk::pecker_simple_allocator<pecker_sdk::AVL_node_set<std::basic_string<char,std::char_traits<char>,std::allocator<char> > > > > >::~pecker_avl_tree_set_container<std::basic_string<char,std::char_traits<char>,std::allocator<char> >,stringcmp_t,pecker_sdk::AVL_node_set<std::basic_string<char,std::char_traits<char>,std::allocator<char> > >,pecker_sdk::pecker_nodes_simple_allocater<pecker_sdk::AVL_node_set<std::basic_string<char,std::char_traits<char>,std::allocator<char> > >,pecker_sdk::pecker_simple_allocator<pecker_sdk::AVL_node_set<std::basic_string<char,std::char_traits<char>,std::allocator<char> > > > > >
	mov	DWORD PTR __$EHRec$[ebp+8], -1
	lea	ecx, DWORD PTR _avl_tree_strings$[ebp]
	call	??1?$pecker_avl_tree_set_container@V?$basic_string@DU?$char_traits@D@std@@V?$allocator@D@2@@std@@Ustringcmp_t@@U?$AVL_node_set@V?$basic_string@DU?$char_traits@D@std@@V?$allocator@D@2@@std@@@pecker_sdk@@V?$pecker_nodes_simple_allocater@U?$AVL_node_set@V?$basic_string@DU?$char_traits@D@std@@V?$allocator@D@2@@std@@@pecker_sdk@@V?$pecker_simple_allocator@U?$AVL_node_set@V?$basic_string@DU?$char_traits@D@std@@V?$allocator@D@2@@std@@@pecker_sdk@@@2@@5@@pecker_sdk@@QAE@XZ ; pecker_sdk::pecker_avl_tree_set_container<std::basic_string<char,std::char_traits<char>,std::allocator<char> >,stringcmp_t,pecker_sdk::AVL_node_set<std::basic_string<char,std::char_traits<char>,std::allocator<char> > >,pecker_sdk::pecker_nodes_simple_allocater<pecker_sdk::AVL_node_set<std::basic_string<char,std::char_traits<char>,std::allocator<char> > >,pecker_sdk::pecker_simple_allocator<pecker_sdk::AVL_node_set<std::basic_string<char,std::char_traits<char>,std::allocator<char> > > > > >::~pecker_avl_tree_set_container<std::basic_string<char,std::char_traits<char>,std::allocator<char> >,stringcmp_t,pecker_sdk::AVL_node_set<std::basic_string<char,std::char_traits<char>,std::allocator<char> > >,pecker_sdk::pecker_nodes_simple_allocater<pecker_sdk::AVL_node_set<std::basic_string<char,std::char_traits<char>,std::allocator<char> > >,pecker_sdk::pecker_simple_allocator<pecker_sdk::AVL_node_set<std::basic_string<char,std::char_traits<char>,std::allocator<char> > > > > >
	mov	eax, DWORD PTR $T108116[ebp]

; 315  : }

	push	edx
	mov	ecx, ebp
	push	eax
	lea	edx, DWORD PTR $LN86@avl_tree_c
	call	@_RTC_CheckStackVars@8
	pop	eax
	pop	edx
	mov	ecx, DWORD PTR __$EHRec$[ebp]
	mov	DWORD PTR fs:0, ecx
	pop	ecx
	pop	edi
	pop	esi
	pop	ebx
	mov	ecx, DWORD PTR __$ArrayPad$[ebp]
	xor	ecx, ebp
	call	@__security_check_cookie@4
	add	esp, 1864				; 00000748H
	cmp	ebp, esp
	call	__RTC_CheckEsp
	mov	esp, ebp
	pop	ebp
	ret	0
	npad	3
$LN86@avl_tree_c:
	DD	8
	DD	$LN85@avl_tree_c
$LN85@avl_tree_c:
	DD	-32					; ffffffe0H
	DD	12					; 0000000cH
	DD	$LN76@avl_tree_c
	DD	-52					; ffffffccH
	DD	12					; 0000000cH
	DD	$LN77@avl_tree_c
	DD	-80					; ffffffb0H
	DD	20					; 00000014H
	DD	$LN78@avl_tree_c
	DD	-264					; fffffef8H
	DD	176					; 000000b0H
	DD	$LN79@avl_tree_c
	DD	-304					; fffffed0H
	DD	32					; 00000020H
	DD	$LN80@avl_tree_c
	DD	-324					; fffffebcH
	DD	12					; 0000000cH
	DD	$LN81@avl_tree_c
	DD	-964					; fffffc3cH
	DD	536					; 00000218H
	DD	$LN82@avl_tree_c
	DD	-1576					; fffff9d8H
	DD	532					; 00000214H
	DD	$LN83@avl_tree_c
$LN83@avl_tree_c:
	DB	116					; 00000074H
	DB	114					; 00000072H
	DB	101					; 00000065H
	DB	101					; 00000065H
	DB	95					; 0000005fH
	DB	112					; 00000070H
	DB	111					; 0000006fH
	DB	115					; 00000073H
	DB	95					; 0000005fH
	DB	105					; 00000069H
	DB	116					; 00000074H
	DB	101					; 00000065H
	DB	114					; 00000072H
	DB	97					; 00000061H
	DB	116					; 00000074H
	DB	111					; 0000006fH
	DB	114					; 00000072H
	DB	0
$LN82@avl_tree_c:
	DB	116					; 00000074H
	DB	114					; 00000072H
	DB	101					; 00000065H
	DB	101					; 00000065H
	DB	95					; 0000005fH
	DB	105					; 00000069H
	DB	116					; 00000074H
	DB	101					; 00000065H
	DB	114					; 00000072H
	DB	97					; 00000061H
	DB	116					; 00000074H
	DB	111					; 0000006fH
	DB	114					; 00000072H
	DB	95					; 0000005fH
	DB	115					; 00000073H
	DB	116					; 00000074H
	DB	114					; 00000072H
	DB	105					; 00000069H
	DB	110					; 0000006eH
	DB	103					; 00000067H
	DB	115					; 00000073H
	DB	0
$LN81@avl_tree_c:
	DB	97					; 00000061H
	DB	114					; 00000072H
	DB	114					; 00000072H
	DB	97					; 00000061H
	DB	121					; 00000079H
	DB	95					; 0000005fH
	DB	105					; 00000069H
	DB	116					; 00000074H
	DB	101					; 00000065H
	DB	114					; 00000072H
	DB	97					; 00000061H
	DB	116					; 00000074H
	DB	111					; 0000006fH
	DB	114					; 00000072H
	DB	95					; 0000005fH
	DB	115					; 00000073H
	DB	116					; 00000074H
	DB	114					; 00000072H
	DB	105					; 00000069H
	DB	110					; 0000006eH
	DB	103					; 00000067H
	DB	115					; 00000073H
	DB	0
$LN80@avl_tree_c:
	DB	115					; 00000073H
	DB	116					; 00000074H
	DB	114					; 00000072H
	DB	105					; 00000069H
	DB	110					; 0000006eH
	DB	0
$LN79@avl_tree_c:
	DB	109					; 0000006dH
	DB	121					; 00000079H
	DB	102					; 00000066H
	DB	105					; 00000069H
	DB	108					; 0000006cH
	DB	101					; 00000065H
	DB	0
$LN78@avl_tree_c:
	DB	97					; 00000061H
	DB	114					; 00000072H
	DB	114					; 00000072H
	DB	97					; 00000061H
	DB	121					; 00000079H
	DB	95					; 0000005fH
	DB	115					; 00000073H
	DB	116					; 00000074H
	DB	114					; 00000072H
	DB	105					; 00000069H
	DB	110					; 0000006eH
	DB	103					; 00000067H
	DB	115					; 00000073H
	DB	0
$LN77@avl_tree_c:
	DB	97					; 00000061H
	DB	118					; 00000076H
	DB	108					; 0000006cH
	DB	95					; 0000005fH
	DB	116					; 00000074H
	DB	114					; 00000072H
	DB	101					; 00000065H
	DB	101					; 00000065H
	DB	95					; 0000005fH
	DB	115					; 00000073H
	DB	116					; 00000074H
	DB	114					; 00000072H
	DB	105					; 00000069H
	DB	110					; 0000006eH
	DB	103					; 00000067H
	DB	115					; 00000073H
	DB	95					; 0000005fH
	DB	99					; 00000063H
	DB	111					; 0000006fH
	DB	112					; 00000070H
	DB	121					; 00000079H
	DB	0
$LN76@avl_tree_c:
	DB	97					; 00000061H
	DB	118					; 00000076H
	DB	108					; 0000006cH
	DB	95					; 0000005fH
	DB	116					; 00000074H
	DB	114					; 00000072H
	DB	101					; 00000065H
	DB	101					; 00000065H
	DB	95					; 0000005fH
	DB	115					; 00000073H
	DB	116					; 00000074H
	DB	114					; 00000072H
	DB	105					; 00000069H
	DB	110					; 0000006eH
	DB	103					; 00000067H
	DB	115					; 00000073H
	DB	0
_TEXT	ENDS
;	COMDAT text$x
text$x	SEGMENT
__unwindfunclet$?avl_tree_container_test_main@@YAHXZ$0:
	lea	ecx, DWORD PTR _avl_tree_strings$[ebp]
	jmp	??1?$pecker_avl_tree_set_container@V?$basic_string@DU?$char_traits@D@std@@V?$allocator@D@2@@std@@Ustringcmp_t@@U?$AVL_node_set@V?$basic_string@DU?$char_traits@D@std@@V?$allocator@D@2@@std@@@pecker_sdk@@V?$pecker_nodes_simple_allocater@U?$AVL_node_set@V?$basic_string@DU?$char_traits@D@std@@V?$allocator@D@2@@std@@@pecker_sdk@@V?$pecker_simple_allocator@U?$AVL_node_set@V?$basic_string@DU?$char_traits@D@std@@V?$allocator@D@2@@std@@@pecker_sdk@@@2@@5@@pecker_sdk@@QAE@XZ ; pecker_sdk::pecker_avl_tree_set_container<std::basic_string<char,std::char_traits<char>,std::allocator<char> >,stringcmp_t,pecker_sdk::AVL_node_set<std::basic_string<char,std::char_traits<char>,std::allocator<char> > >,pecker_sdk::pecker_nodes_simple_allocater<pecker_sdk::AVL_node_set<std::basic_string<char,std::char_traits<char>,std::allocator<char> > >,pecker_sdk::pecker_simple_allocator<pecker_sdk::AVL_node_set<std::basic_string<char,std::char_traits<char>,std::allocator<char> > > > > >::~pecker_avl_tree_set_container<std::basic_string<char,std::char_traits<char>,std::allocator<char> >,stringcmp_t,pecker_sdk::AVL_node_set<std::basic_string<char,std::char_traits<char>,std::allocator<char> > >,pecker_sdk::pecker_nodes_simple_allocater<pecker_sdk::AVL_node_set<std::basic_string<char,std::char_traits<char>,std::allocator<char> > >,pecker_sdk::pecker_simple_allocator<pecker_sdk::AVL_node_set<std::basic_string<char,std::char_traits<char>,std::allocator<char> > > > > >
__unwindfunclet$?avl_tree_container_test_main@@YAHXZ$1:
	lea	ecx, DWORD PTR _avl_tree_strings_copy$[ebp]
	jmp	??1?$pecker_avl_tree_set_container@V?$basic_string@DU?$char_traits@D@std@@V?$allocator@D@2@@std@@Ustringcmp_t@@U?$AVL_node_set@V?$basic_string@DU?$char_traits@D@std@@V?$allocator@D@2@@std@@@pecker_sdk@@V?$pecker_nodes_simple_allocater@U?$AVL_node_set@V?$basic_string@DU?$char_traits@D@std@@V?$allocator@D@2@@std@@@pecker_sdk@@V?$pecker_simple_allocator@U?$AVL_node_set@V?$basic_string@DU?$char_traits@D@std@@V?$allocator@D@2@@std@@@pecker_sdk@@@2@@5@@pecker_sdk@@QAE@XZ ; pecker_sdk::pecker_avl_tree_set_container<std::basic_string<char,std::char_traits<char>,std::allocator<char> >,stringcmp_t,pecker_sdk::AVL_node_set<std::basic_string<char,std::char_traits<char>,std::allocator<char> > >,pecker_sdk::pecker_nodes_simple_allocater<pecker_sdk::AVL_node_set<std::basic_string<char,std::char_traits<char>,std::allocator<char> > >,pecker_sdk::pecker_simple_allocator<pecker_sdk::AVL_node_set<std::basic_string<char,std::char_traits<char>,std::allocator<char> > > > > >::~pecker_avl_tree_set_container<std::basic_string<char,std::char_traits<char>,std::allocator<char> >,stringcmp_t,pecker_sdk::AVL_node_set<std::basic_string<char,std::char_traits<char>,std::allocator<char> > >,pecker_sdk::pecker_nodes_simple_allocater<pecker_sdk::AVL_node_set<std::basic_string<char,std::char_traits<char>,std::allocator<char> > >,pecker_sdk::pecker_simple_allocator<pecker_sdk::AVL_node_set<std::basic_string<char,std::char_traits<char>,std::allocator<char> > > > > >
__unwindfunclet$?avl_tree_container_test_main@@YAHXZ$2:
	lea	ecx, DWORD PTR _array_strings$[ebp]
	jmp	??1?$pecker_array@V?$basic_string@DU?$char_traits@D@std@@V?$allocator@D@2@@std@@V?$pecker_simple_allocator@V?$basic_string@DU?$char_traits@D@std@@V?$allocator@D@2@@std@@@pecker_sdk@@@pecker_sdk@@UAE@XZ ; pecker_sdk::pecker_array<std::basic_string<char,std::char_traits<char>,std::allocator<char> >,pecker_sdk::pecker_simple_allocator<std::basic_string<char,std::char_traits<char>,std::allocator<char> > > >::~pecker_array<std::basic_string<char,std::char_traits<char>,std::allocator<char> >,pecker_sdk::pecker_simple_allocator<std::basic_string<char,std::char_traits<char>,std::allocator<char> > > >
__unwindfunclet$?avl_tree_container_test_main@@YAHXZ$3:
	lea	ecx, DWORD PTR _myfile$[ebp]
	jmp	??_D?$basic_ifstream@DU?$char_traits@D@std@@@std@@QAEXXZ
__unwindfunclet$?avl_tree_container_test_main@@YAHXZ$4:
	lea	ecx, DWORD PTR _strin$95582[ebp]
	jmp	??1?$basic_string@DU?$char_traits@D@std@@V?$allocator@D@2@@std@@QAE@XZ ; std::basic_string<char,std::char_traits<char>,std::allocator<char> >::~basic_string<char,std::char_traits<char>,std::allocator<char> >
__unwindfunclet$?avl_tree_container_test_main@@YAHXZ$5:
	lea	ecx, DWORD PTR _array_iterator_strings$[ebp]
	jmp	??1?$pecker_array_iterator@V?$pecker_array@V?$basic_string@DU?$char_traits@D@std@@V?$allocator@D@2@@std@@V?$pecker_simple_allocator@V?$basic_string@DU?$char_traits@D@std@@V?$allocator@D@2@@std@@@pecker_sdk@@@pecker_sdk@@@pecker_sdk@@UAE@XZ ; pecker_sdk::pecker_array_iterator<pecker_sdk::pecker_array<std::basic_string<char,std::char_traits<char>,std::allocator<char> >,pecker_sdk::pecker_simple_allocator<std::basic_string<char,std::char_traits<char>,std::allocator<char> > > > >::~pecker_array_iterator<pecker_sdk::pecker_array<std::basic_string<char,std::char_traits<char>,std::allocator<char> >,pecker_sdk::pecker_simple_allocator<std::basic_string<char,std::char_traits<char>,std::allocator<char> > > > >
__unwindfunclet$?avl_tree_container_test_main@@YAHXZ$7:
	lea	ecx, DWORD PTR _tree_iterator_strings$[ebp]
	jmp	??1?$pecker_bst_tree_no_perent_node_inorder_iterator_base@U_AVL_node_base@pecker_sdk@@V?$pecker_simple_allocator@PBU_AVL_node_base@pecker_sdk@@@2@V?$pecker_simple_allocator@PAPBU_AVL_node_base@pecker_sdk@@@2@@pecker_sdk@@UAE@XZ ; pecker_sdk::pecker_bst_tree_no_perent_node_inorder_iterator_base<pecker_sdk::_AVL_node_base,pecker_sdk::pecker_simple_allocator<pecker_sdk::_AVL_node_base const *>,pecker_sdk::pecker_simple_allocator<pecker_sdk::_AVL_node_base const * *> >::~pecker_bst_tree_no_perent_node_inorder_iterator_base<pecker_sdk::_AVL_node_base,pecker_sdk::pecker_simple_allocator<pecker_sdk::_AVL_node_base const *>,pecker_sdk::pecker_simple_allocator<pecker_sdk::_AVL_node_base const * *> >
__unwindfunclet$?avl_tree_container_test_main@@YAHXZ$8:
	lea	ecx, DWORD PTR _tree_pos_iterator$[ebp]
	jmp	??1?$pecker_bst_tree_no_perent_node_posorder_iterator_base@U_AVL_node_base@pecker_sdk@@V?$pecker_simple_allocator@PBU_AVL_node_base@pecker_sdk@@@2@V?$pecker_simple_allocator@PAPBU_AVL_node_base@pecker_sdk@@@2@@pecker_sdk@@UAE@XZ ; pecker_sdk::pecker_bst_tree_no_perent_node_posorder_iterator_base<pecker_sdk::_AVL_node_base,pecker_sdk::pecker_simple_allocator<pecker_sdk::_AVL_node_base const *>,pecker_sdk::pecker_simple_allocator<pecker_sdk::_AVL_node_base const * *> >::~pecker_bst_tree_no_perent_node_posorder_iterator_base<pecker_sdk::_AVL_node_base,pecker_sdk::pecker_simple_allocator<pecker_sdk::_AVL_node_base const *>,pecker_sdk::pecker_simple_allocator<pecker_sdk::_AVL_node_base const * *> >
__ehhandler$?avl_tree_container_test_main@@YAHXZ:
	mov	edx, DWORD PTR [esp+8]
	lea	eax, DWORD PTR [edx+12]
	mov	ecx, DWORD PTR [edx-1868]
	xor	ecx, eax
	call	@__security_check_cookie@4
	mov	ecx, DWORD PTR [edx-4]
	xor	ecx, eax
	call	@__security_check_cookie@4
	mov	eax, OFFSET __ehfuncinfo$?avl_tree_container_test_main@@YAHXZ
	jmp	___CxxFrameHandler3
text$x	ENDS
?avl_tree_container_test_main@@YAHXZ ENDP		; avl_tree_container_test_main
PUBLIC	??1?$basic_ifstream@DU?$char_traits@D@std@@@std@@UAE@XZ ; std::basic_ifstream<char,std::char_traits<char> >::~basic_ifstream<char,std::char_traits<char> >
EXTRN	__imp_??1?$basic_ios@DU?$char_traits@D@std@@@std@@UAE@XZ:PROC
; Function compile flags: /Odtp /RTCsu /ZI
;	COMDAT ??_D?$basic_ifstream@DU?$char_traits@D@std@@@std@@QAEXXZ
_TEXT	SEGMENT
_this$ = -8						; size = 4
??_D?$basic_ifstream@DU?$char_traits@D@std@@@std@@QAEXXZ PROC ; std::basic_ifstream<char,std::char_traits<char> >::`vbase destructor', COMDAT
; _this$ = ecx
	push	ebp
	mov	ebp, esp
	sub	esp, 204				; 000000ccH
	push	ebx
	push	esi
	push	edi
	push	ecx
	lea	edi, DWORD PTR [ebp-204]
	mov	ecx, 51					; 00000033H
	mov	eax, -858993460				; ccccccccH
	rep stosd
	pop	ecx
	mov	DWORD PTR _this$[ebp], ecx
	mov	ecx, DWORD PTR _this$[ebp]
	add	ecx, 104				; 00000068H
	call	??1?$basic_ifstream@DU?$char_traits@D@std@@@std@@UAE@XZ ; std::basic_ifstream<char,std::char_traits<char> >::~basic_ifstream<char,std::char_traits<char> >
	mov	ecx, DWORD PTR _this$[ebp]
	add	ecx, 104				; 00000068H
	mov	esi, esp
	call	DWORD PTR __imp_??1?$basic_ios@DU?$char_traits@D@std@@@std@@UAE@XZ
	cmp	esi, esp
	call	__RTC_CheckEsp
	pop	edi
	pop	esi
	pop	ebx
	add	esp, 204				; 000000ccH
	cmp	ebp, esp
	call	__RTC_CheckEsp
	mov	esp, ebp
	pop	ebp
	ret	0
??_D?$basic_ifstream@DU?$char_traits@D@std@@@std@@QAEXXZ ENDP ; std::basic_ifstream<char,std::char_traits<char> >::`vbase destructor'
_TEXT	ENDS
PUBLIC	?avl_map_time@@YAHAAV?$pecker_array@V?$basic_string@DU?$char_traits@D@std@@V?$allocator@D@2@@std@@V?$pecker_simple_allocator@V?$basic_string@DU?$char_traits@D@std@@V?$allocator@D@2@@std@@@pecker_sdk@@@pecker_sdk@@@Z ; avl_map_time
PUBLIC	?stl_map_time@@YAHAAV?$pecker_array@V?$basic_string@DU?$char_traits@D@std@@V?$allocator@D@2@@std@@V?$pecker_simple_allocator@V?$basic_string@DU?$char_traits@D@std@@V?$allocator@D@2@@std@@@pecker_sdk@@@pecker_sdk@@@Z ; stl_map_time
PUBLIC	??_C@_06MHHPCNKI@?4?4?4?4?4?4?$AA@		; `string'
PUBLIC	??_C@_07NDMNFNNL@?4?4?4?4?4?4?4?$AA@		; `string'
PUBLIC	??_C@_0BC@FKDLNFED@load?5file?5to?5mem?5?$AA@	; `string'
PUBLIC	??_C@_0BC@HPIJKFHN@read?5file?5time?5?$DN?5?$AA@ ; `string'
PUBLIC	__$ArrayPad$
PUBLIC	?avl_stl_map_cmp@@YAHH@Z			; avl_stl_map_cmp
EXTRN	__imp_??6?$basic_ostream@DU?$char_traits@D@std@@@std@@QAEAAV01@N@Z:PROC
EXTRN	__imp__QueryPerformanceCounter@4:PROC
EXTRN	__imp__QueryPerformanceFrequency@4:PROC
EXTRN	__fltused:DWORD
;	COMDAT ??_C@_06MHHPCNKI@?4?4?4?4?4?4?$AA@
CONST	SEGMENT
??_C@_06MHHPCNKI@?4?4?4?4?4?4?$AA@ DB '......', 00H	; `string'
CONST	ENDS
;	COMDAT ??_C@_07NDMNFNNL@?4?4?4?4?4?4?4?$AA@
CONST	SEGMENT
??_C@_07NDMNFNNL@?4?4?4?4?4?4?4?$AA@ DB '.......', 00H	; `string'
CONST	ENDS
;	COMDAT ??_C@_0BC@FKDLNFED@load?5file?5to?5mem?5?$AA@
CONST	SEGMENT
??_C@_0BC@FKDLNFED@load?5file?5to?5mem?5?$AA@ DB 'load file to mem ', 00H ; `string'
CONST	ENDS
;	COMDAT ??_C@_0BC@HPIJKFHN@read?5file?5time?5?$DN?5?$AA@
CONST	SEGMENT
??_C@_0BC@HPIJKFHN@read?5file?5time?5?$DN?5?$AA@ DB 'read file time = ', 00H ; `string'
CONST	ENDS
;	COMDAT xdata$x
xdata$x	SEGMENT
__unwindtable$?avl_stl_map_cmp@@YAHH@Z DD 0ffffffffH
	DD	FLAT:__unwindfunclet$?avl_stl_map_cmp@@YAHH@Z$0
	DD	00H
	DD	FLAT:__unwindfunclet$?avl_stl_map_cmp@@YAHH@Z$1
	DD	01H
	DD	FLAT:__unwindfunclet$?avl_stl_map_cmp@@YAHH@Z$2
	DD	01H
	DD	FLAT:__unwindfunclet$?avl_stl_map_cmp@@YAHH@Z$3
__ehfuncinfo$?avl_stl_map_cmp@@YAHH@Z DD 019930522H
	DD	04H
	DD	FLAT:__unwindtable$?avl_stl_map_cmp@@YAHH@Z
	DD	2 DUP(00H)
	DD	2 DUP(00H)
	DD	00H
	DD	01H
; Function compile flags: /Odtp /RTCsu /ZI
xdata$x	ENDS
;	COMDAT ?avl_stl_map_cmp@@YAHH@Z
_TEXT	SEGMENT
tv284 = -628						; size = 8
tv247 = -628						; size = 8
$T108162 = -616						; size = 4
_i$96467 = -412						; size = 4
_strin$96455 = -400					; size = 32
_strin$96425 = -360					; size = 32
_myfile$ = -320						; size = 176
_dfEscapeTime$ = -136					; size = 8
_dfFreq$ = -120						; size = 8
_dfMinus$ = -104					; size = 8
_QPartStopTick$ = -88					; size = 8
_QPartStartTick$ = -72					; size = 8
_litmp$ = -56						; size = 8
_array$ = -40						; size = 20
__$ArrayPad$ = -16					; size = 4
__$EHRec$ = -12						; size = 12
_itime$ = 8						; size = 4
?avl_stl_map_cmp@@YAHH@Z PROC				; avl_stl_map_cmp, COMDAT

; 321  : {

	push	ebp
	mov	ebp, esp
	push	-1
	push	__ehhandler$?avl_stl_map_cmp@@YAHH@Z
	mov	eax, DWORD PTR fs:0
	push	eax
	sub	esp, 616				; 00000268H
	push	ebx
	push	esi
	push	edi
	lea	edi, DWORD PTR [ebp-628]
	mov	ecx, 154				; 0000009aH
	mov	eax, -858993460				; ccccccccH
	rep stosd
	mov	eax, DWORD PTR ___security_cookie
	xor	eax, ebp
	mov	DWORD PTR __$ArrayPad$[ebp], eax
	push	eax
	lea	eax, DWORD PTR __$EHRec$[ebp]
	mov	DWORD PTR fs:0, eax

; 322  : 	pecker_array< std::string > array;

	push	16					; 00000010H
	lea	ecx, DWORD PTR _array$[ebp]
	call	??0?$pecker_array@V?$basic_string@DU?$char_traits@D@std@@V?$allocator@D@2@@std@@V?$pecker_simple_allocator@V?$basic_string@DU?$char_traits@D@std@@V?$allocator@D@2@@std@@@pecker_sdk@@@pecker_sdk@@QAE@H@Z ; pecker_sdk::pecker_array<std::basic_string<char,std::char_traits<char>,std::allocator<char> >,pecker_sdk::pecker_simple_allocator<std::basic_string<char,std::char_traits<char>,std::allocator<char> > > >::pecker_array<std::basic_string<char,std::char_traits<char>,std::allocator<char> >,pecker_sdk::pecker_simple_allocator<std::basic_string<char,std::char_traits<char>,std::allocator<char> > > >
	mov	DWORD PTR __$EHRec$[ebp+8], 0

; 323  : 	array.init(100000,256);

	push	256					; 00000100H
	push	100000					; 000186a0H
	lea	ecx, DWORD PTR _array$[ebp]
	call	?init@?$pecker_array@V?$basic_string@DU?$char_traits@D@std@@V?$allocator@D@2@@std@@V?$pecker_simple_allocator@V?$basic_string@DU?$char_traits@D@std@@V?$allocator@D@2@@std@@@pecker_sdk@@@pecker_sdk@@QAEJHH@Z ; pecker_sdk::pecker_array<std::basic_string<char,std::char_traits<char>,std::allocator<char> >,pecker_sdk::pecker_simple_allocator<std::basic_string<char,std::char_traits<char>,std::allocator<char> > > >::init

; 324  : 	LARGE_INTEGER litmp; 
; 325  : 	LONGLONG QPartStartTick,QPartStopTick;
; 326  : 	double dfMinus, dfFreq, dfEscapeTime;
; 327  : 	QueryPerformanceFrequency(&litmp);

	mov	esi, esp
	lea	eax, DWORD PTR _litmp$[ebp]
	push	eax
	call	DWORD PTR __imp__QueryPerformanceFrequency@4
	cmp	esi, esp
	call	__RTC_CheckEsp

; 328  : 	dfFreq = (double)litmp.QuadPart;   // 

	fild	QWORD PTR _litmp$[ebp]
	fstp	QWORD PTR _dfFreq$[ebp]

; 329  : 	std::ifstream myfile;

	push	1
	lea	ecx, DWORD PTR _myfile$[ebp]
	call	??0?$basic_ifstream@DU?$char_traits@D@std@@@std@@QAE@XZ ; std::basic_ifstream<char,std::char_traits<char> >::basic_ifstream<char,std::char_traits<char> >
	mov	BYTE PTR __$EHRec$[ebp+8], 1

; 330  : 
; 331  : 	myfile.close();

	lea	ecx, DWORD PTR _myfile$[ebp]
	call	?close@?$basic_ifstream@DU?$char_traits@D@std@@@std@@QAEXXZ ; std::basic_ifstream<char,std::char_traits<char> >::close

; 332  : 	myfile.open("inputaddsearch.txt");

	push	64					; 00000040H
	push	1
	push	OFFSET ??_C@_0BD@PHDOHNMM@inputaddsearch?4txt?$AA@
	lea	ecx, DWORD PTR _myfile$[ebp]
	call	?open@?$basic_ifstream@DU?$char_traits@D@std@@@std@@QAEXPBDHH@Z ; std::basic_ifstream<char,std::char_traits<char> >::open

; 333  : 
; 334  : 	QueryPerformanceCounter(&litmp);

	mov	esi, esp
	lea	eax, DWORD PTR _litmp$[ebp]
	push	eax
	call	DWORD PTR __imp__QueryPerformanceCounter@4
	cmp	esi, esp
	call	__RTC_CheckEsp

; 335  : 	QPartStartTick = litmp.QuadPart;               // 

	mov	eax, DWORD PTR _litmp$[ebp]
	mov	DWORD PTR _QPartStartTick$[ebp], eax
	mov	ecx, DWORD PTR _litmp$[ebp+4]
	mov	DWORD PTR _QPartStartTick$[ebp+4], ecx
$LN9@avl_stl_ma:

; 336  : 	while(1)

	mov	eax, 1
	test	eax, eax
	je	SHORT $LN8@avl_stl_ma

; 337  : 	{
; 338  : 		if (myfile.eof())

	mov	eax, DWORD PTR _myfile$[ebp]
	mov	ecx, DWORD PTR [eax+4]
	lea	ecx, DWORD PTR _myfile$[ebp+ecx]
	mov	esi, esp
	call	DWORD PTR __imp_?eof@ios_base@std@@QBE_NXZ
	cmp	esi, esp
	call	__RTC_CheckEsp
	movzx	edx, al
	test	edx, edx
	je	SHORT $LN7@avl_stl_ma

; 339  : 			break;

	jmp	SHORT $LN8@avl_stl_ma
$LN7@avl_stl_ma:

; 340  : 
; 341  : 		std::string strin;

	lea	ecx, DWORD PTR _strin$96425[ebp]
	call	??0?$basic_string@DU?$char_traits@D@std@@V?$allocator@D@2@@std@@QAE@XZ ; std::basic_string<char,std::char_traits<char>,std::allocator<char> >::basic_string<char,std::char_traits<char>,std::allocator<char> >
	mov	BYTE PTR __$EHRec$[ebp+8], 2

; 342  : 		myfile >> strin;

	lea	eax, DWORD PTR _strin$96425[ebp]
	push	eax
	lea	ecx, DWORD PTR _myfile$[ebp]
	push	ecx
	call	??$?5DU?$char_traits@D@std@@V?$allocator@D@1@@std@@YAAAV?$basic_istream@DU?$char_traits@D@std@@@0@AAV10@AAV?$basic_string@DU?$char_traits@D@std@@V?$allocator@D@2@@0@@Z ; std::operator>><char,std::char_traits<char>,std::allocator<char> >
	add	esp, 8

; 343  : 	}

	mov	BYTE PTR __$EHRec$[ebp+8], 1
	lea	ecx, DWORD PTR _strin$96425[ebp]
	call	??1?$basic_string@DU?$char_traits@D@std@@V?$allocator@D@2@@std@@QAE@XZ ; std::basic_string<char,std::char_traits<char>,std::allocator<char> >::~basic_string<char,std::char_traits<char>,std::allocator<char> >
	jmp	SHORT $LN9@avl_stl_ma
$LN8@avl_stl_ma:

; 344  : 	QueryPerformanceCounter(&litmp);

	mov	esi, esp
	lea	eax, DWORD PTR _litmp$[ebp]
	push	eax
	call	DWORD PTR __imp__QueryPerformanceCounter@4
	cmp	esi, esp
	call	__RTC_CheckEsp

; 345  : 	QPartStopTick = litmp.QuadPart;   //

	mov	eax, DWORD PTR _litmp$[ebp]
	mov	DWORD PTR _QPartStopTick$[ebp], eax
	mov	ecx, DWORD PTR _litmp$[ebp+4]
	mov	DWORD PTR _QPartStopTick$[ebp+4], ecx

; 346  : 	dfMinus = (double)(QPartStopTick-QPartStartTick);

	mov	eax, DWORD PTR _QPartStopTick$[ebp]
	sub	eax, DWORD PTR _QPartStartTick$[ebp]
	mov	ecx, DWORD PTR _QPartStopTick$[ebp+4]
	sbb	ecx, DWORD PTR _QPartStartTick$[ebp+4]
	mov	DWORD PTR tv247[ebp], eax
	mov	DWORD PTR tv247[ebp+4], ecx
	fild	QWORD PTR tv247[ebp]
	fstp	QWORD PTR _dfMinus$[ebp]

; 347  : 	dfEscapeTime = dfMinus / dfFreq;    // 

	fld	QWORD PTR _dfMinus$[ebp]
	fdiv	QWORD PTR _dfFreq$[ebp]
	fstp	QWORD PTR _dfEscapeTime$[ebp]

; 348  : 
; 349  : 	std::cout << "read file time = " << dfEscapeTime << std::endl;

	mov	esi, esp
	mov	eax, DWORD PTR __imp_?endl@std@@YAAAV?$basic_ostream@DU?$char_traits@D@std@@@1@AAV21@@Z
	push	eax
	mov	edi, esp
	sub	esp, 8
	fld	QWORD PTR _dfEscapeTime$[ebp]
	fstp	QWORD PTR [esp]
	push	OFFSET ??_C@_0BC@HPIJKFHN@read?5file?5time?5?$DN?5?$AA@
	mov	ecx, DWORD PTR __imp_?cout@std@@3V?$basic_ostream@DU?$char_traits@D@std@@@1@A
	push	ecx
	call	??$?6U?$char_traits@D@std@@@std@@YAAAV?$basic_ostream@DU?$char_traits@D@std@@@0@AAV10@PBD@Z ; std::operator<<<std::char_traits<char> >
	add	esp, 8
	mov	ecx, eax
	call	DWORD PTR __imp_??6?$basic_ostream@DU?$char_traits@D@std@@@std@@QAEAAV01@N@Z
	cmp	edi, esp
	call	__RTC_CheckEsp
	mov	ecx, eax
	call	DWORD PTR __imp_??6?$basic_ostream@DU?$char_traits@D@std@@@std@@QAEAAV01@P6AAAV01@AAV01@@Z@Z
	cmp	esi, esp
	call	__RTC_CheckEsp

; 350  : 
; 351  : 	myfile.close();

	lea	ecx, DWORD PTR _myfile$[ebp]
	call	?close@?$basic_ifstream@DU?$char_traits@D@std@@@std@@QAEXXZ ; std::basic_ifstream<char,std::char_traits<char> >::close

; 352  : 	myfile.open("inputaddsearch.txt");

	push	64					; 00000040H
	push	1
	push	OFFSET ??_C@_0BD@PHDOHNMM@inputaddsearch?4txt?$AA@
	lea	ecx, DWORD PTR _myfile$[ebp]
	call	?open@?$basic_ifstream@DU?$char_traits@D@std@@@std@@QAEXPBDHH@Z ; std::basic_ifstream<char,std::char_traits<char> >::open

; 353  : 
; 354  : 	QueryPerformanceCounter(&litmp);

	mov	esi, esp
	lea	eax, DWORD PTR _litmp$[ebp]
	push	eax
	call	DWORD PTR __imp__QueryPerformanceCounter@4
	cmp	esi, esp
	call	__RTC_CheckEsp

; 355  : 	QPartStartTick = litmp.QuadPart;

	mov	eax, DWORD PTR _litmp$[ebp]
	mov	DWORD PTR _QPartStartTick$[ebp], eax
	mov	ecx, DWORD PTR _litmp$[ebp+4]
	mov	DWORD PTR _QPartStartTick$[ebp+4], ecx
$LN6@avl_stl_ma:

; 356  : 	while(1)

	mov	eax, 1
	test	eax, eax
	je	SHORT $LN5@avl_stl_ma

; 357  : 	{
; 358  : 		if (myfile.eof())

	mov	eax, DWORD PTR _myfile$[ebp]
	mov	ecx, DWORD PTR [eax+4]
	lea	ecx, DWORD PTR _myfile$[ebp+ecx]
	mov	esi, esp
	call	DWORD PTR __imp_?eof@ios_base@std@@QBE_NXZ
	cmp	esi, esp
	call	__RTC_CheckEsp
	movzx	edx, al
	test	edx, edx
	je	SHORT $LN4@avl_stl_ma

; 359  : 			break;

	jmp	SHORT $LN5@avl_stl_ma
$LN4@avl_stl_ma:

; 360  : 
; 361  : 		std::string strin;

	lea	ecx, DWORD PTR _strin$96455[ebp]
	call	??0?$basic_string@DU?$char_traits@D@std@@V?$allocator@D@2@@std@@QAE@XZ ; std::basic_string<char,std::char_traits<char>,std::allocator<char> >::basic_string<char,std::char_traits<char>,std::allocator<char> >
	mov	BYTE PTR __$EHRec$[ebp+8], 3

; 362  : 		myfile >> strin;

	lea	eax, DWORD PTR _strin$96455[ebp]
	push	eax
	lea	ecx, DWORD PTR _myfile$[ebp]
	push	ecx
	call	??$?5DU?$char_traits@D@std@@V?$allocator@D@1@@std@@YAAAV?$basic_istream@DU?$char_traits@D@std@@@0@AAV10@AAV?$basic_string@DU?$char_traits@D@std@@V?$allocator@D@2@@0@@Z ; std::operator>><char,std::char_traits<char>,std::allocator<char> >
	add	esp, 8

; 363  : 
; 364  : 		array.push(strin);

	lea	eax, DWORD PTR _strin$96455[ebp]
	push	eax
	lea	ecx, DWORD PTR _array$[ebp]
	call	?push@?$pecker_array@V?$basic_string@DU?$char_traits@D@std@@V?$allocator@D@2@@std@@V?$pecker_simple_allocator@V?$basic_string@DU?$char_traits@D@std@@V?$allocator@D@2@@std@@@pecker_sdk@@@pecker_sdk@@QAEJABV?$basic_string@DU?$char_traits@D@std@@V?$allocator@D@2@@std@@@Z ; pecker_sdk::pecker_array<std::basic_string<char,std::char_traits<char>,std::allocator<char> >,pecker_sdk::pecker_simple_allocator<std::basic_string<char,std::char_traits<char>,std::allocator<char> > > >::push

; 365  : 	}

	mov	BYTE PTR __$EHRec$[ebp+8], 1
	lea	ecx, DWORD PTR _strin$96455[ebp]
	call	??1?$basic_string@DU?$char_traits@D@std@@V?$allocator@D@2@@std@@QAE@XZ ; std::basic_string<char,std::char_traits<char>,std::allocator<char> >::~basic_string<char,std::char_traits<char>,std::allocator<char> >
	jmp	SHORT $LN6@avl_stl_ma
$LN5@avl_stl_ma:

; 366  : 	QueryPerformanceCounter(&litmp);

	mov	esi, esp
	lea	eax, DWORD PTR _litmp$[ebp]
	push	eax
	call	DWORD PTR __imp__QueryPerformanceCounter@4
	cmp	esi, esp
	call	__RTC_CheckEsp

; 367  : 	QPartStopTick = litmp.QuadPart;   //

	mov	eax, DWORD PTR _litmp$[ebp]
	mov	DWORD PTR _QPartStopTick$[ebp], eax
	mov	ecx, DWORD PTR _litmp$[ebp+4]
	mov	DWORD PTR _QPartStopTick$[ebp+4], ecx

; 368  : 	dfMinus = (double)(QPartStopTick-QPartStartTick);

	mov	eax, DWORD PTR _QPartStopTick$[ebp]
	sub	eax, DWORD PTR _QPartStartTick$[ebp]
	mov	ecx, DWORD PTR _QPartStopTick$[ebp+4]
	sbb	ecx, DWORD PTR _QPartStartTick$[ebp+4]
	mov	DWORD PTR tv284[ebp], eax
	mov	DWORD PTR tv284[ebp+4], ecx
	fild	QWORD PTR tv284[ebp]
	fstp	QWORD PTR _dfMinus$[ebp]

; 369  : 	dfEscapeTime = dfMinus / dfFreq;    // 

	fld	QWORD PTR _dfMinus$[ebp]
	fdiv	QWORD PTR _dfFreq$[ebp]
	fstp	QWORD PTR _dfEscapeTime$[ebp]

; 370  : 	std::cout << "load file to mem "<< dfEscapeTime << std::endl;

	mov	esi, esp
	mov	eax, DWORD PTR __imp_?endl@std@@YAAAV?$basic_ostream@DU?$char_traits@D@std@@@1@AAV21@@Z
	push	eax
	mov	edi, esp
	sub	esp, 8
	fld	QWORD PTR _dfEscapeTime$[ebp]
	fstp	QWORD PTR [esp]
	push	OFFSET ??_C@_0BC@FKDLNFED@load?5file?5to?5mem?5?$AA@
	mov	ecx, DWORD PTR __imp_?cout@std@@3V?$basic_ostream@DU?$char_traits@D@std@@@1@A
	push	ecx
	call	??$?6U?$char_traits@D@std@@@std@@YAAAV?$basic_ostream@DU?$char_traits@D@std@@@0@AAV10@PBD@Z ; std::operator<<<std::char_traits<char> >
	add	esp, 8
	mov	ecx, eax
	call	DWORD PTR __imp_??6?$basic_ostream@DU?$char_traits@D@std@@@std@@QAEAAV01@N@Z
	cmp	edi, esp
	call	__RTC_CheckEsp
	mov	ecx, eax
	call	DWORD PTR __imp_??6?$basic_ostream@DU?$char_traits@D@std@@@std@@QAEAAV01@P6AAAV01@AAV01@@Z@Z
	cmp	esi, esp
	call	__RTC_CheckEsp

; 371  : 	std::cout << "......." << std::endl;

	mov	esi, esp
	mov	eax, DWORD PTR __imp_?endl@std@@YAAAV?$basic_ostream@DU?$char_traits@D@std@@@1@AAV21@@Z
	push	eax
	push	OFFSET ??_C@_07NDMNFNNL@?4?4?4?4?4?4?4?$AA@
	mov	ecx, DWORD PTR __imp_?cout@std@@3V?$basic_ostream@DU?$char_traits@D@std@@@1@A
	push	ecx
	call	??$?6U?$char_traits@D@std@@@std@@YAAAV?$basic_ostream@DU?$char_traits@D@std@@@0@AAV10@PBD@Z ; std::operator<<<std::char_traits<char> >
	add	esp, 8
	mov	ecx, eax
	call	DWORD PTR __imp_??6?$basic_ostream@DU?$char_traits@D@std@@@std@@QAEAAV01@P6AAAV01@AAV01@@Z@Z
	cmp	esi, esp
	call	__RTC_CheckEsp

; 372  : 
; 373  : 	for (int i=0;i<itime;++i)

	mov	DWORD PTR _i$96467[ebp], 0
	jmp	SHORT $LN3@avl_stl_ma
$LN2@avl_stl_ma:
	mov	eax, DWORD PTR _i$96467[ebp]
	add	eax, 1
	mov	DWORD PTR _i$96467[ebp], eax
$LN3@avl_stl_ma:
	mov	eax, DWORD PTR _i$96467[ebp]
	cmp	eax, DWORD PTR _itime$[ebp]
	jge	$LN1@avl_stl_ma

; 374  : 	{
; 375  : 		std::cout << "......." << i << "......"<< std::endl;

	mov	esi, esp
	mov	eax, DWORD PTR __imp_?endl@std@@YAAAV?$basic_ostream@DU?$char_traits@D@std@@@1@AAV21@@Z
	push	eax
	push	OFFSET ??_C@_06MHHPCNKI@?4?4?4?4?4?4?$AA@
	mov	edi, esp
	mov	ecx, DWORD PTR _i$96467[ebp]
	push	ecx
	push	OFFSET ??_C@_07NDMNFNNL@?4?4?4?4?4?4?4?$AA@
	mov	edx, DWORD PTR __imp_?cout@std@@3V?$basic_ostream@DU?$char_traits@D@std@@@1@A
	push	edx
	call	??$?6U?$char_traits@D@std@@@std@@YAAAV?$basic_ostream@DU?$char_traits@D@std@@@0@AAV10@PBD@Z ; std::operator<<<std::char_traits<char> >
	add	esp, 8
	mov	ecx, eax
	call	DWORD PTR __imp_??6?$basic_ostream@DU?$char_traits@D@std@@@std@@QAEAAV01@H@Z
	cmp	edi, esp
	call	__RTC_CheckEsp
	push	eax
	call	??$?6U?$char_traits@D@std@@@std@@YAAAV?$basic_ostream@DU?$char_traits@D@std@@@0@AAV10@PBD@Z ; std::operator<<<std::char_traits<char> >
	add	esp, 8
	mov	ecx, eax
	call	DWORD PTR __imp_??6?$basic_ostream@DU?$char_traits@D@std@@@std@@QAEAAV01@P6AAAV01@AAV01@@Z@Z
	cmp	esi, esp
	call	__RTC_CheckEsp

; 376  : 		stl_map_time(array);

	lea	eax, DWORD PTR _array$[ebp]
	push	eax
	call	?stl_map_time@@YAHAAV?$pecker_array@V?$basic_string@DU?$char_traits@D@std@@V?$allocator@D@2@@std@@V?$pecker_simple_allocator@V?$basic_string@DU?$char_traits@D@std@@V?$allocator@D@2@@std@@@pecker_sdk@@@pecker_sdk@@@Z ; stl_map_time
	add	esp, 4

; 377  : 		avl_map_time(array);

	lea	eax, DWORD PTR _array$[ebp]
	push	eax
	call	?avl_map_time@@YAHAAV?$pecker_array@V?$basic_string@DU?$char_traits@D@std@@V?$allocator@D@2@@std@@V?$pecker_simple_allocator@V?$basic_string@DU?$char_traits@D@std@@V?$allocator@D@2@@std@@@pecker_sdk@@@pecker_sdk@@@Z ; avl_map_time
	add	esp, 4

; 378  : 		std::cout << "......." << std::endl;

	mov	esi, esp
	mov	eax, DWORD PTR __imp_?endl@std@@YAAAV?$basic_ostream@DU?$char_traits@D@std@@@1@AAV21@@Z
	push	eax
	push	OFFSET ??_C@_07NDMNFNNL@?4?4?4?4?4?4?4?$AA@
	mov	ecx, DWORD PTR __imp_?cout@std@@3V?$basic_ostream@DU?$char_traits@D@std@@@1@A
	push	ecx
	call	??$?6U?$char_traits@D@std@@@std@@YAAAV?$basic_ostream@DU?$char_traits@D@std@@@0@AAV10@PBD@Z ; std::operator<<<std::char_traits<char> >
	add	esp, 8
	mov	ecx, eax
	call	DWORD PTR __imp_??6?$basic_ostream@DU?$char_traits@D@std@@@std@@QAEAAV01@P6AAAV01@AAV01@@Z@Z
	cmp	esi, esp
	call	__RTC_CheckEsp

; 379  : 	}

	jmp	$LN2@avl_stl_ma
$LN1@avl_stl_ma:

; 380  : 	return 0;

	mov	DWORD PTR $T108162[ebp], 0
	mov	BYTE PTR __$EHRec$[ebp+8], 0
	lea	ecx, DWORD PTR _myfile$[ebp]
	call	??_D?$basic_ifstream@DU?$char_traits@D@std@@@std@@QAEXXZ
	mov	DWORD PTR __$EHRec$[ebp+8], -1
	lea	ecx, DWORD PTR _array$[ebp]
	call	??1?$pecker_array@V?$basic_string@DU?$char_traits@D@std@@V?$allocator@D@2@@std@@V?$pecker_simple_allocator@V?$basic_string@DU?$char_traits@D@std@@V?$allocator@D@2@@std@@@pecker_sdk@@@pecker_sdk@@UAE@XZ ; pecker_sdk::pecker_array<std::basic_string<char,std::char_traits<char>,std::allocator<char> >,pecker_sdk::pecker_simple_allocator<std::basic_string<char,std::char_traits<char>,std::allocator<char> > > >::~pecker_array<std::basic_string<char,std::char_traits<char>,std::allocator<char> >,pecker_sdk::pecker_simple_allocator<std::basic_string<char,std::char_traits<char>,std::allocator<char> > > >
	mov	eax, DWORD PTR $T108162[ebp]

; 381  : }

	push	edx
	mov	ecx, ebp
	push	eax
	lea	edx, DWORD PTR $LN23@avl_stl_ma
	call	@_RTC_CheckStackVars@8
	pop	eax
	pop	edx
	mov	ecx, DWORD PTR __$EHRec$[ebp]
	mov	DWORD PTR fs:0, ecx
	pop	ecx
	pop	edi
	pop	esi
	pop	ebx
	mov	ecx, DWORD PTR __$ArrayPad$[ebp]
	xor	ecx, ebp
	call	@__security_check_cookie@4
	add	esp, 628				; 00000274H
	cmp	ebp, esp
	call	__RTC_CheckEsp
	mov	esp, ebp
	pop	ebp
	ret	0
$LN23@avl_stl_ma:
	DD	5
	DD	$LN22@avl_stl_ma
$LN22@avl_stl_ma:
	DD	-40					; ffffffd8H
	DD	20					; 00000014H
	DD	$LN16@avl_stl_ma
	DD	-56					; ffffffc8H
	DD	8
	DD	$LN17@avl_stl_ma
	DD	-320					; fffffec0H
	DD	176					; 000000b0H
	DD	$LN18@avl_stl_ma
	DD	-360					; fffffe98H
	DD	32					; 00000020H
	DD	$LN19@avl_stl_ma
	DD	-400					; fffffe70H
	DD	32					; 00000020H
	DD	$LN20@avl_stl_ma
$LN20@avl_stl_ma:
	DB	115					; 00000073H
	DB	116					; 00000074H
	DB	114					; 00000072H
	DB	105					; 00000069H
	DB	110					; 0000006eH
	DB	0
$LN19@avl_stl_ma:
	DB	115					; 00000073H
	DB	116					; 00000074H
	DB	114					; 00000072H
	DB	105					; 00000069H
	DB	110					; 0000006eH
	DB	0
$LN18@avl_stl_ma:
	DB	109					; 0000006dH
	DB	121					; 00000079H
	DB	102					; 00000066H
	DB	105					; 00000069H
	DB	108					; 0000006cH
	DB	101					; 00000065H
	DB	0
$LN17@avl_stl_ma:
	DB	108					; 0000006cH
	DB	105					; 00000069H
	DB	116					; 00000074H
	DB	109					; 0000006dH
	DB	112					; 00000070H
	DB	0
$LN16@avl_stl_ma:
	DB	97					; 00000061H
	DB	114					; 00000072H
	DB	114					; 00000072H
	DB	97					; 00000061H
	DB	121					; 00000079H
	DB	0
_TEXT	ENDS
;	COMDAT text$x
text$x	SEGMENT
__unwindfunclet$?avl_stl_map_cmp@@YAHH@Z$0:
	lea	ecx, DWORD PTR _array$[ebp]
	jmp	??1?$pecker_array@V?$basic_string@DU?$char_traits@D@std@@V?$allocator@D@2@@std@@V?$pecker_simple_allocator@V?$basic_string@DU?$char_traits@D@std@@V?$allocator@D@2@@std@@@pecker_sdk@@@pecker_sdk@@UAE@XZ ; pecker_sdk::pecker_array<std::basic_string<char,std::char_traits<char>,std::allocator<char> >,pecker_sdk::pecker_simple_allocator<std::basic_string<char,std::char_traits<char>,std::allocator<char> > > >::~pecker_array<std::basic_string<char,std::char_traits<char>,std::allocator<char> >,pecker_sdk::pecker_simple_allocator<std::basic_string<char,std::char_traits<char>,std::allocator<char> > > >
__unwindfunclet$?avl_stl_map_cmp@@YAHH@Z$1:
	lea	ecx, DWORD PTR _myfile$[ebp]
	jmp	??_D?$basic_ifstream@DU?$char_traits@D@std@@@std@@QAEXXZ
__unwindfunclet$?avl_stl_map_cmp@@YAHH@Z$2:
	lea	ecx, DWORD PTR _strin$96425[ebp]
	jmp	??1?$basic_string@DU?$char_traits@D@std@@V?$allocator@D@2@@std@@QAE@XZ ; std::basic_string<char,std::char_traits<char>,std::allocator<char> >::~basic_string<char,std::char_traits<char>,std::allocator<char> >
__unwindfunclet$?avl_stl_map_cmp@@YAHH@Z$3:
	lea	ecx, DWORD PTR _strin$96455[ebp]
	jmp	??1?$basic_string@DU?$char_traits@D@std@@V?$allocator@D@2@@std@@QAE@XZ ; std::basic_string<char,std::char_traits<char>,std::allocator<char> >::~basic_string<char,std::char_traits<char>,std::allocator<char> >
__ehhandler$?avl_stl_map_cmp@@YAHH@Z:
	mov	edx, DWORD PTR [esp+8]
	lea	eax, DWORD PTR [edx+12]
	mov	ecx, DWORD PTR [edx-632]
	xor	ecx, eax
	call	@__security_check_cookie@4
	mov	ecx, DWORD PTR [edx-4]
	xor	ecx, eax
	call	@__security_check_cookie@4
	mov	eax, OFFSET __ehfuncinfo$?avl_stl_map_cmp@@YAHH@Z
	jmp	___CxxFrameHandler3
text$x	ENDS
?avl_stl_map_cmp@@YAHH@Z ENDP				; avl_stl_map_cmp
PUBLIC	??1?$pecker_avl_tree_map_container@V?$basic_string@DU?$char_traits@D@std@@V?$allocator@D@2@@std@@HUstringcmp_t@@U?$AVL_node_map@V?$basic_string@DU?$char_traits@D@std@@V?$allocator@D@2@@std@@H@pecker_sdk@@V?$pecker_nodes_simple_allocater@U?$AVL_node_map@V?$basic_string@DU?$char_traits@D@std@@V?$allocator@D@2@@std@@H@pecker_sdk@@V?$pecker_simple_allocator@U?$AVL_node_map@V?$basic_string@DU?$char_traits@D@std@@V?$allocator@D@2@@std@@H@pecker_sdk@@@2@@5@@pecker_sdk@@QAE@XZ ; pecker_sdk::pecker_avl_tree_map_container<std::basic_string<char,std::char_traits<char>,std::allocator<char> >,int,stringcmp_t,pecker_sdk::AVL_node_map<std::basic_string<char,std::char_traits<char>,std::allocator<char> >,int>,pecker_sdk::pecker_nodes_simple_allocater<pecker_sdk::AVL_node_map<std::basic_string<char,std::char_traits<char>,std::allocator<char> >,int>,pecker_sdk::pecker_simple_allocator<pecker_sdk::AVL_node_map<std::basic_string<char,std::char_traits<char>,std::allocator<char> >,int> > > >::~pecker_avl_tree_map_container<std::basic_string<char,std::char_traits<char>,std::allocator<char> >,int,stringcmp_t,pecker_sdk::AVL_node_map<std::basic_string<char,std::char_traits<char>,std::allocator<char> >,int>,pecker_sdk::pecker_nodes_simple_allocater<pecker_sdk::AVL_node_map<std::basic_string<char,std::char_traits<char>,std::allocator<char> >,int>,pecker_sdk::pecker_simple_allocator<pecker_sdk::AVL_node_map<std::basic_string<char,std::char_traits<char>,std::allocator<char> >,int> > > >
PUBLIC	??_C@_0L@CEHAFBLM@avl?5erase?5?$AA@		; `string'
PUBLIC	?erase@?$pecker_avl_tree_map_container@V?$basic_string@DU?$char_traits@D@std@@V?$allocator@D@2@@std@@HUstringcmp_t@@U?$AVL_node_map@V?$basic_string@DU?$char_traits@D@std@@V?$allocator@D@2@@std@@H@pecker_sdk@@V?$pecker_nodes_simple_allocater@U?$AVL_node_map@V?$basic_string@DU?$char_traits@D@std@@V?$allocator@D@2@@std@@H@pecker_sdk@@V?$pecker_simple_allocator@U?$AVL_node_map@V?$basic_string@DU?$char_traits@D@std@@V?$allocator@D@2@@std@@H@pecker_sdk@@@2@@5@@pecker_sdk@@QAEJV?$basic_string@DU?$char_traits@D@std@@V?$allocator@D@2@@std@@@Z ; pecker_sdk::pecker_avl_tree_map_container<std::basic_string<char,std::char_traits<char>,std::allocator<char> >,int,stringcmp_t,pecker_sdk::AVL_node_map<std::basic_string<char,std::char_traits<char>,std::allocator<char> >,int>,pecker_sdk::pecker_nodes_simple_allocater<pecker_sdk::AVL_node_map<std::basic_string<char,std::char_traits<char>,std::allocator<char> >,int>,pecker_sdk::pecker_simple_allocator<pecker_sdk::AVL_node_map<std::basic_string<char,std::char_traits<char>,std::allocator<char> >,int> > > >::erase
PUBLIC	??_C@_09KCDMPAOF@avl?5find?5?$AA@		; `string'
PUBLIC	?find@?$pecker_avl_tree_map_container@V?$basic_string@DU?$char_traits@D@std@@V?$allocator@D@2@@std@@HUstringcmp_t@@U?$AVL_node_map@V?$basic_string@DU?$char_traits@D@std@@V?$allocator@D@2@@std@@H@pecker_sdk@@V?$pecker_nodes_simple_allocater@U?$AVL_node_map@V?$basic_string@DU?$char_traits@D@std@@V?$allocator@D@2@@std@@H@pecker_sdk@@V?$pecker_simple_allocator@U?$AVL_node_map@V?$basic_string@DU?$char_traits@D@std@@V?$allocator@D@2@@std@@H@pecker_sdk@@@2@@5@@pecker_sdk@@QBEPBHABV?$basic_string@DU?$char_traits@D@std@@V?$allocator@D@2@@std@@@Z ; pecker_sdk::pecker_avl_tree_map_container<std::basic_string<char,std::char_traits<char>,std::allocator<char> >,int,stringcmp_t,pecker_sdk::AVL_node_map<std::basic_string<char,std::char_traits<char>,std::allocator<char> >,int>,pecker_sdk::pecker_nodes_simple_allocater<pecker_sdk::AVL_node_map<std::basic_string<char,std::char_traits<char>,std::allocator<char> >,int>,pecker_sdk::pecker_simple_allocator<pecker_sdk::AVL_node_map<std::basic_string<char,std::char_traits<char>,std::allocator<char> >,int> > > >::find
PUBLIC	??_C@_0M@KHGDGAFJ@avl?5insert?5?$AA@		; `string'
PUBLIC	??_C@_0BB@OBGNNHNG@avl?5insert?5error?$AA@	; `string'
PUBLIC	?insert@?$pecker_avl_tree_map_container@V?$basic_string@DU?$char_traits@D@std@@V?$allocator@D@2@@std@@HUstringcmp_t@@U?$AVL_node_map@V?$basic_string@DU?$char_traits@D@std@@V?$allocator@D@2@@std@@H@pecker_sdk@@V?$pecker_nodes_simple_allocater@U?$AVL_node_map@V?$basic_string@DU?$char_traits@D@std@@V?$allocator@D@2@@std@@H@pecker_sdk@@V?$pecker_simple_allocator@U?$AVL_node_map@V?$basic_string@DU?$char_traits@D@std@@V?$allocator@D@2@@std@@H@pecker_sdk@@@2@@5@@pecker_sdk@@QAEJABV?$basic_string@DU?$char_traits@D@std@@V?$allocator@D@2@@std@@H@Z ; pecker_sdk::pecker_avl_tree_map_container<std::basic_string<char,std::char_traits<char>,std::allocator<char> >,int,stringcmp_t,pecker_sdk::AVL_node_map<std::basic_string<char,std::char_traits<char>,std::allocator<char> >,int>,pecker_sdk::pecker_nodes_simple_allocater<pecker_sdk::AVL_node_map<std::basic_string<char,std::char_traits<char>,std::allocator<char> >,int>,pecker_sdk::pecker_simple_allocator<pecker_sdk::AVL_node_map<std::basic_string<char,std::char_traits<char>,std::allocator<char> >,int> > > >::insert
PUBLIC	??0?$pecker_avl_tree_map_container@V?$basic_string@DU?$char_traits@D@std@@V?$allocator@D@2@@std@@HUstringcmp_t@@U?$AVL_node_map@V?$basic_string@DU?$char_traits@D@std@@V?$allocator@D@2@@std@@H@pecker_sdk@@V?$pecker_nodes_simple_allocater@U?$AVL_node_map@V?$basic_string@DU?$char_traits@D@std@@V?$allocator@D@2@@std@@H@pecker_sdk@@V?$pecker_simple_allocator@U?$AVL_node_map@V?$basic_string@DU?$char_traits@D@std@@V?$allocator@D@2@@std@@H@pecker_sdk@@@2@@5@@pecker_sdk@@QAE@XZ ; pecker_sdk::pecker_avl_tree_map_container<std::basic_string<char,std::char_traits<char>,std::allocator<char> >,int,stringcmp_t,pecker_sdk::AVL_node_map<std::basic_string<char,std::char_traits<char>,std::allocator<char> >,int>,pecker_sdk::pecker_nodes_simple_allocater<pecker_sdk::AVL_node_map<std::basic_string<char,std::char_traits<char>,std::allocator<char> >,int>,pecker_sdk::pecker_simple_allocator<pecker_sdk::AVL_node_map<std::basic_string<char,std::char_traits<char>,std::allocator<char> >,int> > > >::pecker_avl_tree_map_container<std::basic_string<char,std::char_traits<char>,std::allocator<char> >,int,stringcmp_t,pecker_sdk::AVL_node_map<std::basic_string<char,std::char_traits<char>,std::allocator<char> >,int>,pecker_sdk::pecker_nodes_simple_allocater<pecker_sdk::AVL_node_map<std::basic_string<char,std::char_traits<char>,std::allocator<char> >,int>,pecker_sdk::pecker_simple_allocator<pecker_sdk::AVL_node_map<std::basic_string<char,std::char_traits<char>,std::allocator<char> >,int> > > >
;	COMDAT ??_C@_0L@CEHAFBLM@avl?5erase?5?$AA@
CONST	SEGMENT
??_C@_0L@CEHAFBLM@avl?5erase?5?$AA@ DB 'avl erase ', 00H ; `string'
CONST	ENDS
;	COMDAT ??_C@_09KCDMPAOF@avl?5find?5?$AA@
CONST	SEGMENT
??_C@_09KCDMPAOF@avl?5find?5?$AA@ DB 'avl find ', 00H	; `string'
CONST	ENDS
;	COMDAT ??_C@_0M@KHGDGAFJ@avl?5insert?5?$AA@
CONST	SEGMENT
??_C@_0M@KHGDGAFJ@avl?5insert?5?$AA@ DB 'avl insert ', 00H ; `string'
CONST	ENDS
;	COMDAT ??_C@_0BB@OBGNNHNG@avl?5insert?5error?$AA@
CONST	SEGMENT
??_C@_0BB@OBGNNHNG@avl?5insert?5error?$AA@ DB 'avl insert error', 00H ; `string'
CONST	ENDS
;	COMDAT xdata$x
xdata$x	SEGMENT
__unwindtable$?avl_map_time@@YAHAAV?$pecker_array@V?$basic_string@DU?$char_traits@D@std@@V?$allocator@D@2@@std@@V?$pecker_simple_allocator@V?$basic_string@DU?$char_traits@D@std@@V?$allocator@D@2@@std@@@pecker_sdk@@@pecker_sdk@@@Z DD 0ffffffffH
	DD	FLAT:__unwindfunclet$?avl_map_time@@YAHAAV?$pecker_array@V?$basic_string@DU?$char_traits@D@std@@V?$allocator@D@2@@std@@V?$pecker_simple_allocator@V?$basic_string@DU?$char_traits@D@std@@V?$allocator@D@2@@std@@@pecker_sdk@@@pecker_sdk@@@Z$0
	DD	00H
	DD	FLAT:__unwindfunclet$?avl_map_time@@YAHAAV?$pecker_array@V?$basic_string@DU?$char_traits@D@std@@V?$allocator@D@2@@std@@V?$pecker_simple_allocator@V?$basic_string@DU?$char_traits@D@std@@V?$allocator@D@2@@std@@@pecker_sdk@@@pecker_sdk@@@Z$1
__ehfuncinfo$?avl_map_time@@YAHAAV?$pecker_array@V?$basic_string@DU?$char_traits@D@std@@V?$allocator@D@2@@std@@V?$pecker_simple_allocator@V?$basic_string@DU?$char_traits@D@std@@V?$allocator@D@2@@std@@@pecker_sdk@@@pecker_sdk@@@Z DD 019930522H
	DD	02H
	DD	FLAT:__unwindtable$?avl_map_time@@YAHAAV?$pecker_array@V?$basic_string@DU?$char_traits@D@std@@V?$allocator@D@2@@std@@V?$pecker_simple_allocator@V?$basic_string@DU?$char_traits@D@std@@V?$allocator@D@2@@std@@@pecker_sdk@@@pecker_sdk@@@Z
	DD	2 DUP(00H)
	DD	2 DUP(00H)
	DD	00H
	DD	01H
; Function compile flags: /Odtp /RTCsu /ZI
xdata$x	ENDS
;	COMDAT ?avl_map_time@@YAHAAV?$pecker_array@V?$basic_string@DU?$char_traits@D@std@@V?$allocator@D@2@@std@@V?$pecker_simple_allocator@V?$basic_string@DU?$char_traits@D@std@@V?$allocator@D@2@@std@@@pecker_sdk@@@pecker_sdk@@@Z
_TEXT	SEGMENT
tv339 = -420						; size = 8
tv295 = -420						; size = 8
tv256 = -420						; size = 8
tv220 = -420						; size = 4
tv219 = -416						; size = 4
$T108183 = -408						; size = 4
$T108184 = -396						; size = 4
_pvalue$96659 = -192					; size = 4
_pvalue$96642 = -180					; size = 4
_pvalue$96624 = -168					; size = 4
_icount$ = -156						; size = 4
_dfEscapeTime$ = -144					; size = 8
_dfFreq$ = -128						; size = 8
_dfMinus$ = -112					; size = 8
_QPartStopTick$ = -96					; size = 8
_QPartStartTick$ = -80					; size = 8
_litmp$ = -64						; size = 8
_avl_tree_strings_map$ = -48				; size = 12
_array_iterator1$ = -28					; size = 12
__$EHRec$ = -12						; size = 12
_array$ = 8						; size = 4
?avl_map_time@@YAHAAV?$pecker_array@V?$basic_string@DU?$char_traits@D@std@@V?$allocator@D@2@@std@@V?$pecker_simple_allocator@V?$basic_string@DU?$char_traits@D@std@@V?$allocator@D@2@@std@@@pecker_sdk@@@pecker_sdk@@@Z PROC ; avl_map_time, COMDAT

; 383  : {

	push	ebp
	mov	ebp, esp
	push	-1
	push	__ehhandler$?avl_map_time@@YAHAAV?$pecker_array@V?$basic_string@DU?$char_traits@D@std@@V?$allocator@D@2@@std@@V?$pecker_simple_allocator@V?$basic_string@DU?$char_traits@D@std@@V?$allocator@D@2@@std@@@pecker_sdk@@@pecker_sdk@@@Z
	mov	eax, DWORD PTR fs:0
	push	eax
	sub	esp, 408				; 00000198H
	push	ebx
	push	esi
	push	edi
	lea	edi, DWORD PTR [ebp-420]
	mov	ecx, 102				; 00000066H
	mov	eax, -858993460				; ccccccccH
	rep stosd
	mov	eax, DWORD PTR ___security_cookie
	xor	eax, ebp
	push	eax
	lea	eax, DWORD PTR __$EHRec$[ebp]
	mov	DWORD PTR fs:0, eax

; 384  : 	pecker_array_iterator< pecker_array<std::string> >array_iterator1;

	push	0
	lea	ecx, DWORD PTR _array_iterator1$[ebp]
	call	??0?$pecker_array_iterator@V?$pecker_array@V?$basic_string@DU?$char_traits@D@std@@V?$allocator@D@2@@std@@V?$pecker_simple_allocator@V?$basic_string@DU?$char_traits@D@std@@V?$allocator@D@2@@std@@@pecker_sdk@@@pecker_sdk@@@pecker_sdk@@QAE@PBV?$pecker_array@V?$basic_string@DU?$char_traits@D@std@@V?$allocator@D@2@@std@@V?$pecker_simple_allocator@V?$basic_string@DU?$char_traits@D@std@@V?$allocator@D@2@@std@@@pecker_sdk@@@1@@Z ; pecker_sdk::pecker_array_iterator<pecker_sdk::pecker_array<std::basic_string<char,std::char_traits<char>,std::allocator<char> >,pecker_sdk::pecker_simple_allocator<std::basic_string<char,std::char_traits<char>,std::allocator<char> > > > >::pecker_array_iterator<pecker_sdk::pecker_array<std::basic_string<char,std::char_traits<char>,std::allocator<char> >,pecker_sdk::pecker_simple_allocator<std::basic_string<char,std::char_traits<char>,std::allocator<char> > > > >
	mov	DWORD PTR __$EHRec$[ebp+8], 0

; 385  : 	array.get_iterator(&array_iterator1);

	lea	eax, DWORD PTR _array_iterator1$[ebp]
	push	eax
	mov	ecx, DWORD PTR _array$[ebp]
	call	?get_iterator@?$pecker_array@V?$basic_string@DU?$char_traits@D@std@@V?$allocator@D@2@@std@@V?$pecker_simple_allocator@V?$basic_string@DU?$char_traits@D@std@@V?$allocator@D@2@@std@@@pecker_sdk@@@pecker_sdk@@QBEPAV?$pecker_array_iterator@V?$pecker_array@V?$basic_string@DU?$char_traits@D@std@@V?$allocator@D@2@@std@@V?$pecker_simple_allocator@V?$basic_string@DU?$char_traits@D@std@@V?$allocator@D@2@@std@@@pecker_sdk@@@pecker_sdk@@@2@PAV32@@Z ; pecker_sdk::pecker_array<std::basic_string<char,std::char_traits<char>,std::allocator<char> >,pecker_sdk::pecker_simple_allocator<std::basic_string<char,std::char_traits<char>,std::allocator<char> > > >::get_iterator

; 386  : 
; 387  : 	pecker_avl_tree_map_container< std::string,int,stringcmp_t,AVL_node_map< std::string,int >,pecker_nodes_simple_allocater< AVL_node_map< std::string,int > > > avl_tree_strings_map;

	lea	ecx, DWORD PTR _avl_tree_strings_map$[ebp]
	call	??0?$pecker_avl_tree_map_container@V?$basic_string@DU?$char_traits@D@std@@V?$allocator@D@2@@std@@HUstringcmp_t@@U?$AVL_node_map@V?$basic_string@DU?$char_traits@D@std@@V?$allocator@D@2@@std@@H@pecker_sdk@@V?$pecker_nodes_simple_allocater@U?$AVL_node_map@V?$basic_string@DU?$char_traits@D@std@@V?$allocator@D@2@@std@@H@pecker_sdk@@V?$pecker_simple_allocator@U?$AVL_node_map@V?$basic_string@DU?$char_traits@D@std@@V?$allocator@D@2@@std@@H@pecker_sdk@@@2@@5@@pecker_sdk@@QAE@XZ ; pecker_sdk::pecker_avl_tree_map_container<std::basic_string<char,std::char_traits<char>,std::allocator<char> >,int,stringcmp_t,pecker_sdk::AVL_node_map<std::basic_string<char,std::char_traits<char>,std::allocator<char> >,int>,pecker_sdk::pecker_nodes_simple_allocater<pecker_sdk::AVL_node_map<std::basic_string<char,std::char_traits<char>,std::allocator<char> >,int>,pecker_sdk::pecker_simple_allocator<pecker_sdk::AVL_node_map<std::basic_string<char,std::char_traits<char>,std::allocator<char> >,int> > > >::pecker_avl_tree_map_container<std::basic_string<char,std::char_traits<char>,std::allocator<char> >,int,stringcmp_t,pecker_sdk::AVL_node_map<std::basic_string<char,std::char_traits<char>,std::allocator<char> >,int>,pecker_sdk::pecker_nodes_simple_allocater<pecker_sdk::AVL_node_map<std::basic_string<char,std::char_traits<char>,std::allocator<char> >,int>,pecker_sdk::pecker_simple_allocator<pecker_sdk::AVL_node_map<std::basic_string<char,std::char_traits<char>,std::allocator<char> >,int> > > >
	mov	BYTE PTR __$EHRec$[ebp+8], 1

; 388  : 
; 389  : 	std::cout << "......." << std::endl;

	mov	esi, esp
	mov	eax, DWORD PTR __imp_?endl@std@@YAAAV?$basic_ostream@DU?$char_traits@D@std@@@1@AAV21@@Z
	push	eax
	push	OFFSET ??_C@_07NDMNFNNL@?4?4?4?4?4?4?4?$AA@
	mov	ecx, DWORD PTR __imp_?cout@std@@3V?$basic_ostream@DU?$char_traits@D@std@@@1@A
	push	ecx
	call	??$?6U?$char_traits@D@std@@@std@@YAAAV?$basic_ostream@DU?$char_traits@D@std@@@0@AAV10@PBD@Z ; std::operator<<<std::char_traits<char> >
	add	esp, 8
	mov	ecx, eax
	call	DWORD PTR __imp_??6?$basic_ostream@DU?$char_traits@D@std@@@std@@QAEAAV01@P6AAAV01@AAV01@@Z@Z
	cmp	esi, esp
	call	__RTC_CheckEsp

; 390  : 
; 391  : 	LARGE_INTEGER litmp; 
; 392  : 	LONGLONG QPartStartTick,QPartStopTick;
; 393  : 	double dfMinus, dfFreq, dfEscapeTime;
; 394  : 	QueryPerformanceFrequency(&litmp);

	mov	esi, esp
	lea	eax, DWORD PTR _litmp$[ebp]
	push	eax
	call	DWORD PTR __imp__QueryPerformanceFrequency@4
	cmp	esi, esp
	call	__RTC_CheckEsp

; 395  : 	dfFreq = (double)litmp.QuadPart;   // 

	fild	QWORD PTR _litmp$[ebp]
	fstp	QWORD PTR _dfFreq$[ebp]

; 396  : 	array_iterator1.init(ITERATOR_INIT_BEGIN_INDEX);

	push	0
	lea	ecx, DWORD PTR _array_iterator1$[ebp]
	call	?init@?$pecker_array_iterator@V?$pecker_array@V?$basic_string@DU?$char_traits@D@std@@V?$allocator@D@2@@std@@V?$pecker_simple_allocator@V?$basic_string@DU?$char_traits@D@std@@V?$allocator@D@2@@std@@@pecker_sdk@@@pecker_sdk@@@pecker_sdk@@UAEJW4enumLINEAR_INTERATOR_INIT_TYPE@@@Z ; pecker_sdk::pecker_array_iterator<pecker_sdk::pecker_array<std::basic_string<char,std::char_traits<char>,std::allocator<char> >,pecker_sdk::pecker_simple_allocator<std::basic_string<char,std::char_traits<char>,std::allocator<char> > > > >::init

; 397  : 	int icount = 0;

	mov	DWORD PTR _icount$[ebp], 0

; 398  : 
; 399  : 	QueryPerformanceCounter(&litmp);

	mov	esi, esp
	lea	eax, DWORD PTR _litmp$[ebp]
	push	eax
	call	DWORD PTR __imp__QueryPerformanceCounter@4
	cmp	esi, esp
	call	__RTC_CheckEsp

; 400  : 	QPartStartTick = litmp.QuadPart;

	mov	eax, DWORD PTR _litmp$[ebp]
	mov	DWORD PTR _QPartStartTick$[ebp], eax
	mov	ecx, DWORD PTR _litmp$[ebp+4]
	mov	DWORD PTR _QPartStartTick$[ebp+4], ecx
$LN15@avl_map_ti:

; 401  : 	while (1)

	mov	eax, 1
	test	eax, eax
	je	SHORT $LN14@avl_map_ti

; 402  : 	{
; 403  : 		const std::string* pvalue = array.get_at(&array_iterator1);

	lea	eax, DWORD PTR _array_iterator1$[ebp]
	push	eax
	mov	ecx, DWORD PTR _array$[ebp]
	call	?get_at@?$pecker_array@V?$basic_string@DU?$char_traits@D@std@@V?$allocator@D@2@@std@@V?$pecker_simple_allocator@V?$basic_string@DU?$char_traits@D@std@@V?$allocator@D@2@@std@@@pecker_sdk@@@pecker_sdk@@QBEPBV?$basic_string@DU?$char_traits@D@std@@V?$allocator@D@2@@std@@PBV?$pecker_array_iterator@V?$pecker_array@V?$basic_string@DU?$char_traits@D@std@@V?$allocator@D@2@@std@@V?$pecker_simple_allocator@V?$basic_string@DU?$char_traits@D@std@@V?$allocator@D@2@@std@@@pecker_sdk@@@pecker_sdk@@@2@@Z ; pecker_sdk::pecker_array<std::basic_string<char,std::char_traits<char>,std::allocator<char> >,pecker_sdk::pecker_simple_allocator<std::basic_string<char,std::char_traits<char>,std::allocator<char> > > >::get_at
	mov	DWORD PTR _pvalue$96624[ebp], eax

; 404  : 		if (pvalue)

	cmp	DWORD PTR _pvalue$96624[ebp], 0
	je	SHORT $LN13@avl_map_ti

; 405  : 		{
; 406  : 			//std::cout << *pvalue << ",";
; 407  : 			if (P_OK != avl_tree_strings_map.insert(*pvalue,icount))

	mov	eax, DWORD PTR _icount$[ebp]
	push	eax
	mov	ecx, DWORD PTR _pvalue$96624[ebp]
	push	ecx
	lea	ecx, DWORD PTR _avl_tree_strings_map$[ebp]
	call	?insert@?$pecker_avl_tree_map_container@V?$basic_string@DU?$char_traits@D@std@@V?$allocator@D@2@@std@@HUstringcmp_t@@U?$AVL_node_map@V?$basic_string@DU?$char_traits@D@std@@V?$allocator@D@2@@std@@H@pecker_sdk@@V?$pecker_nodes_simple_allocater@U?$AVL_node_map@V?$basic_string@DU?$char_traits@D@std@@V?$allocator@D@2@@std@@H@pecker_sdk@@V?$pecker_simple_allocator@U?$AVL_node_map@V?$basic_string@DU?$char_traits@D@std@@V?$allocator@D@2@@std@@H@pecker_sdk@@@2@@5@@pecker_sdk@@QAEJABV?$basic_string@DU?$char_traits@D@std@@V?$allocator@D@2@@std@@H@Z ; pecker_sdk::pecker_avl_tree_map_container<std::basic_string<char,std::char_traits<char>,std::allocator<char> >,int,stringcmp_t,pecker_sdk::AVL_node_map<std::basic_string<char,std::char_traits<char>,std::allocator<char> >,int>,pecker_sdk::pecker_nodes_simple_allocater<pecker_sdk::AVL_node_map<std::basic_string<char,std::char_traits<char>,std::allocator<char> >,int>,pecker_sdk::pecker_simple_allocator<pecker_sdk::AVL_node_map<std::basic_string<char,std::char_traits<char>,std::allocator<char> >,int> > > >::insert
	test	eax, eax
	je	SHORT $LN12@avl_map_ti

; 408  : 			{
; 409  : 				std::cout << "avl insert error" << std::endl;

	mov	esi, esp
	mov	eax, DWORD PTR __imp_?endl@std@@YAAAV?$basic_ostream@DU?$char_traits@D@std@@@1@AAV21@@Z
	push	eax
	push	OFFSET ??_C@_0BB@OBGNNHNG@avl?5insert?5error?$AA@
	mov	ecx, DWORD PTR __imp_?cout@std@@3V?$basic_ostream@DU?$char_traits@D@std@@@1@A
	push	ecx
	call	??$?6U?$char_traits@D@std@@@std@@YAAAV?$basic_ostream@DU?$char_traits@D@std@@@0@AAV10@PBD@Z ; std::operator<<<std::char_traits<char> >
	add	esp, 8
	mov	ecx, eax
	call	DWORD PTR __imp_??6?$basic_ostream@DU?$char_traits@D@std@@@std@@QAEAAV01@P6AAAV01@AAV01@@Z@Z
	cmp	esi, esp
	call	__RTC_CheckEsp
$LN12@avl_map_ti:

; 410  : 			}
; 411  : 		}
; 412  : 		else

	jmp	SHORT $LN11@avl_map_ti
$LN13@avl_map_ti:

; 413  : 		{
; 414  : 			//std::cout << "null" << std::endl;
; 415  : 			break;

	jmp	SHORT $LN14@avl_map_ti
$LN11@avl_map_ti:

; 416  : 		}
; 417  : 		array_iterator1.increment();

	lea	ecx, DWORD PTR _array_iterator1$[ebp]
	call	?increment@?$pecker_array_iterator@V?$pecker_array@V?$basic_string@DU?$char_traits@D@std@@V?$allocator@D@2@@std@@V?$pecker_simple_allocator@V?$basic_string@DU?$char_traits@D@std@@V?$allocator@D@2@@std@@@pecker_sdk@@@pecker_sdk@@@pecker_sdk@@UAEJXZ ; pecker_sdk::pecker_array_iterator<pecker_sdk::pecker_array<std::basic_string<char,std::char_traits<char>,std::allocator<char> >,pecker_sdk::pecker_simple_allocator<std::basic_string<char,std::char_traits<char>,std::allocator<char> > > > >::increment

; 418  : 	}

	jmp	SHORT $LN15@avl_map_ti
$LN14@avl_map_ti:

; 419  : 	QueryPerformanceCounter(&litmp);

	mov	esi, esp
	lea	eax, DWORD PTR _litmp$[ebp]
	push	eax
	call	DWORD PTR __imp__QueryPerformanceCounter@4
	cmp	esi, esp
	call	__RTC_CheckEsp

; 420  : 	QPartStopTick = litmp.QuadPart;   //

	mov	eax, DWORD PTR _litmp$[ebp]
	mov	DWORD PTR _QPartStopTick$[ebp], eax
	mov	ecx, DWORD PTR _litmp$[ebp+4]
	mov	DWORD PTR _QPartStopTick$[ebp+4], ecx

; 421  : 	dfMinus = (double)(QPartStopTick-QPartStartTick);

	mov	eax, DWORD PTR _QPartStopTick$[ebp]
	sub	eax, DWORD PTR _QPartStartTick$[ebp]
	mov	ecx, DWORD PTR _QPartStopTick$[ebp+4]
	sbb	ecx, DWORD PTR _QPartStartTick$[ebp+4]
	mov	DWORD PTR tv256[ebp], eax
	mov	DWORD PTR tv256[ebp+4], ecx
	fild	QWORD PTR tv256[ebp]
	fstp	QWORD PTR _dfMinus$[ebp]

; 422  : 	dfEscapeTime = dfMinus / dfFreq;    // 

	fld	QWORD PTR _dfMinus$[ebp]
	fdiv	QWORD PTR _dfFreq$[ebp]
	fstp	QWORD PTR _dfEscapeTime$[ebp]

; 423  : 	std::cout << "avl insert "<< dfEscapeTime << std::endl;

	mov	esi, esp
	mov	eax, DWORD PTR __imp_?endl@std@@YAAAV?$basic_ostream@DU?$char_traits@D@std@@@1@AAV21@@Z
	push	eax
	mov	edi, esp
	sub	esp, 8
	fld	QWORD PTR _dfEscapeTime$[ebp]
	fstp	QWORD PTR [esp]
	push	OFFSET ??_C@_0M@KHGDGAFJ@avl?5insert?5?$AA@
	mov	ecx, DWORD PTR __imp_?cout@std@@3V?$basic_ostream@DU?$char_traits@D@std@@@1@A
	push	ecx
	call	??$?6U?$char_traits@D@std@@@std@@YAAAV?$basic_ostream@DU?$char_traits@D@std@@@0@AAV10@PBD@Z ; std::operator<<<std::char_traits<char> >
	add	esp, 8
	mov	ecx, eax
	call	DWORD PTR __imp_??6?$basic_ostream@DU?$char_traits@D@std@@@std@@QAEAAV01@N@Z
	cmp	edi, esp
	call	__RTC_CheckEsp
	mov	ecx, eax
	call	DWORD PTR __imp_??6?$basic_ostream@DU?$char_traits@D@std@@@std@@QAEAAV01@P6AAAV01@AAV01@@Z@Z
	cmp	esi, esp
	call	__RTC_CheckEsp

; 424  : 
; 425  : 	array_iterator1.init(ITERATOR_INIT_BEGIN_INDEX);

	push	0
	lea	ecx, DWORD PTR _array_iterator1$[ebp]
	call	?init@?$pecker_array_iterator@V?$pecker_array@V?$basic_string@DU?$char_traits@D@std@@V?$allocator@D@2@@std@@V?$pecker_simple_allocator@V?$basic_string@DU?$char_traits@D@std@@V?$allocator@D@2@@std@@@pecker_sdk@@@pecker_sdk@@@pecker_sdk@@UAEJW4enumLINEAR_INTERATOR_INIT_TYPE@@@Z ; pecker_sdk::pecker_array_iterator<pecker_sdk::pecker_array<std::basic_string<char,std::char_traits<char>,std::allocator<char> >,pecker_sdk::pecker_simple_allocator<std::basic_string<char,std::char_traits<char>,std::allocator<char> > > > >::init

; 426  : 
; 427  : 	QueryPerformanceCounter(&litmp);

	mov	esi, esp
	lea	eax, DWORD PTR _litmp$[ebp]
	push	eax
	call	DWORD PTR __imp__QueryPerformanceCounter@4
	cmp	esi, esp
	call	__RTC_CheckEsp

; 428  : 	QPartStartTick = litmp.QuadPart;

	mov	eax, DWORD PTR _litmp$[ebp]
	mov	DWORD PTR _QPartStartTick$[ebp], eax
	mov	ecx, DWORD PTR _litmp$[ebp+4]
	mov	DWORD PTR _QPartStartTick$[ebp+4], ecx
$LN10@avl_map_ti:

; 429  : 	while (1)

	mov	eax, 1
	test	eax, eax
	je	SHORT $LN9@avl_map_ti

; 430  : 	{
; 431  : 		const std::string* pvalue = array.get_at(&array_iterator1);

	lea	eax, DWORD PTR _array_iterator1$[ebp]
	push	eax
	mov	ecx, DWORD PTR _array$[ebp]
	call	?get_at@?$pecker_array@V?$basic_string@DU?$char_traits@D@std@@V?$allocator@D@2@@std@@V?$pecker_simple_allocator@V?$basic_string@DU?$char_traits@D@std@@V?$allocator@D@2@@std@@@pecker_sdk@@@pecker_sdk@@QBEPBV?$basic_string@DU?$char_traits@D@std@@V?$allocator@D@2@@std@@PBV?$pecker_array_iterator@V?$pecker_array@V?$basic_string@DU?$char_traits@D@std@@V?$allocator@D@2@@std@@V?$pecker_simple_allocator@V?$basic_string@DU?$char_traits@D@std@@V?$allocator@D@2@@std@@@pecker_sdk@@@pecker_sdk@@@2@@Z ; pecker_sdk::pecker_array<std::basic_string<char,std::char_traits<char>,std::allocator<char> >,pecker_sdk::pecker_simple_allocator<std::basic_string<char,std::char_traits<char>,std::allocator<char> > > >::get_at
	mov	DWORD PTR _pvalue$96642[ebp], eax

; 432  : 		if (pvalue)

	cmp	DWORD PTR _pvalue$96642[ebp], 0
	je	SHORT $LN8@avl_map_ti

; 433  : 		{
; 434  : 			//std::cout << *pvalue << ",";
; 435  : 			//avl_tree_strings_map.find(*pvalue); // release,
; 436  : 			if (null == avl_tree_strings_map.find(*pvalue))

	mov	eax, DWORD PTR _pvalue$96642[ebp]
	push	eax
	lea	ecx, DWORD PTR _avl_tree_strings_map$[ebp]
	call	?find@?$pecker_avl_tree_map_container@V?$basic_string@DU?$char_traits@D@std@@V?$allocator@D@2@@std@@HUstringcmp_t@@U?$AVL_node_map@V?$basic_string@DU?$char_traits@D@std@@V?$allocator@D@2@@std@@H@pecker_sdk@@V?$pecker_nodes_simple_allocater@U?$AVL_node_map@V?$basic_string@DU?$char_traits@D@std@@V?$allocator@D@2@@std@@H@pecker_sdk@@V?$pecker_simple_allocator@U?$AVL_node_map@V?$basic_string@DU?$char_traits@D@std@@V?$allocator@D@2@@std@@H@pecker_sdk@@@2@@5@@pecker_sdk@@QBEPBHABV?$basic_string@DU?$char_traits@D@std@@V?$allocator@D@2@@std@@@Z ; pecker_sdk::pecker_avl_tree_map_container<std::basic_string<char,std::char_traits<char>,std::allocator<char> >,int,stringcmp_t,pecker_sdk::AVL_node_map<std::basic_string<char,std::char_traits<char>,std::allocator<char> >,int>,pecker_sdk::pecker_nodes_simple_allocater<pecker_sdk::AVL_node_map<std::basic_string<char,std::char_traits<char>,std::allocator<char> >,int>,pecker_sdk::pecker_simple_allocator<pecker_sdk::AVL_node_map<std::basic_string<char,std::char_traits<char>,std::allocator<char> >,int> > > >::find
	test	eax, eax
	jne	SHORT $LN7@avl_map_ti

; 437  : 			{
; 438  : 				std::cout << "find null" << std::endl;

	mov	esi, esp
	mov	eax, DWORD PTR __imp_?endl@std@@YAAAV?$basic_ostream@DU?$char_traits@D@std@@@1@AAV21@@Z
	push	eax
	push	OFFSET ??_C@_09HPBOIEGF@find?5null?$AA@
	mov	ecx, DWORD PTR __imp_?cout@std@@3V?$basic_ostream@DU?$char_traits@D@std@@@1@A
	push	ecx
	call	??$?6U?$char_traits@D@std@@@std@@YAAAV?$basic_ostream@DU?$char_traits@D@std@@@0@AAV10@PBD@Z ; std::operator<<<std::char_traits<char> >
	add	esp, 8
	mov	ecx, eax
	call	DWORD PTR __imp_??6?$basic_ostream@DU?$char_traits@D@std@@@std@@QAEAAV01@P6AAAV01@AAV01@@Z@Z
	cmp	esi, esp
	call	__RTC_CheckEsp
$LN7@avl_map_ti:

; 439  : 			}
; 440  : 		}
; 441  : 		else

	jmp	SHORT $LN6@avl_map_ti
$LN8@avl_map_ti:

; 442  : 		{
; 443  : 			//std::cout << "null" << std::endl;
; 444  : 			break;

	jmp	SHORT $LN9@avl_map_ti
$LN6@avl_map_ti:

; 445  : 		}
; 446  : 		array_iterator1.increment();

	lea	ecx, DWORD PTR _array_iterator1$[ebp]
	call	?increment@?$pecker_array_iterator@V?$pecker_array@V?$basic_string@DU?$char_traits@D@std@@V?$allocator@D@2@@std@@V?$pecker_simple_allocator@V?$basic_string@DU?$char_traits@D@std@@V?$allocator@D@2@@std@@@pecker_sdk@@@pecker_sdk@@@pecker_sdk@@UAEJXZ ; pecker_sdk::pecker_array_iterator<pecker_sdk::pecker_array<std::basic_string<char,std::char_traits<char>,std::allocator<char> >,pecker_sdk::pecker_simple_allocator<std::basic_string<char,std::char_traits<char>,std::allocator<char> > > > >::increment

; 447  : 	}

	jmp	SHORT $LN10@avl_map_ti
$LN9@avl_map_ti:

; 448  : 	QueryPerformanceCounter(&litmp);

	mov	esi, esp
	lea	eax, DWORD PTR _litmp$[ebp]
	push	eax
	call	DWORD PTR __imp__QueryPerformanceCounter@4
	cmp	esi, esp
	call	__RTC_CheckEsp

; 449  : 	QPartStopTick = litmp.QuadPart;   //

	mov	eax, DWORD PTR _litmp$[ebp]
	mov	DWORD PTR _QPartStopTick$[ebp], eax
	mov	ecx, DWORD PTR _litmp$[ebp+4]
	mov	DWORD PTR _QPartStopTick$[ebp+4], ecx

; 450  : 	dfMinus = (double)(QPartStopTick-QPartStartTick);

	mov	eax, DWORD PTR _QPartStopTick$[ebp]
	sub	eax, DWORD PTR _QPartStartTick$[ebp]
	mov	ecx, DWORD PTR _QPartStopTick$[ebp+4]
	sbb	ecx, DWORD PTR _QPartStartTick$[ebp+4]
	mov	DWORD PTR tv295[ebp], eax
	mov	DWORD PTR tv295[ebp+4], ecx
	fild	QWORD PTR tv295[ebp]
	fstp	QWORD PTR _dfMinus$[ebp]

; 451  : 	dfEscapeTime = dfMinus / dfFreq;    // 

	fld	QWORD PTR _dfMinus$[ebp]
	fdiv	QWORD PTR _dfFreq$[ebp]
	fstp	QWORD PTR _dfEscapeTime$[ebp]

; 452  : 	std::cout << "avl find "<< dfEscapeTime << std::endl;

	mov	esi, esp
	mov	eax, DWORD PTR __imp_?endl@std@@YAAAV?$basic_ostream@DU?$char_traits@D@std@@@1@AAV21@@Z
	push	eax
	mov	edi, esp
	sub	esp, 8
	fld	QWORD PTR _dfEscapeTime$[ebp]
	fstp	QWORD PTR [esp]
	push	OFFSET ??_C@_09KCDMPAOF@avl?5find?5?$AA@
	mov	ecx, DWORD PTR __imp_?cout@std@@3V?$basic_ostream@DU?$char_traits@D@std@@@1@A
	push	ecx
	call	??$?6U?$char_traits@D@std@@@std@@YAAAV?$basic_ostream@DU?$char_traits@D@std@@@0@AAV10@PBD@Z ; std::operator<<<std::char_traits<char> >
	add	esp, 8
	mov	ecx, eax
	call	DWORD PTR __imp_??6?$basic_ostream@DU?$char_traits@D@std@@@std@@QAEAAV01@N@Z
	cmp	edi, esp
	call	__RTC_CheckEsp
	mov	ecx, eax
	call	DWORD PTR __imp_??6?$basic_ostream@DU?$char_traits@D@std@@@std@@QAEAAV01@P6AAAV01@AAV01@@Z@Z
	cmp	esi, esp
	call	__RTC_CheckEsp

; 453  : 
; 454  : 	array_iterator1.init(ITERATOR_INIT_BEGIN_INDEX);

	push	0
	lea	ecx, DWORD PTR _array_iterator1$[ebp]
	call	?init@?$pecker_array_iterator@V?$pecker_array@V?$basic_string@DU?$char_traits@D@std@@V?$allocator@D@2@@std@@V?$pecker_simple_allocator@V?$basic_string@DU?$char_traits@D@std@@V?$allocator@D@2@@std@@@pecker_sdk@@@pecker_sdk@@@pecker_sdk@@UAEJW4enumLINEAR_INTERATOR_INIT_TYPE@@@Z ; pecker_sdk::pecker_array_iterator<pecker_sdk::pecker_array<std::basic_string<char,std::char_traits<char>,std::allocator<char> >,pecker_sdk::pecker_simple_allocator<std::basic_string<char,std::char_traits<char>,std::allocator<char> > > > >::init

; 455  : 
; 456  : 	QueryPerformanceCounter(&litmp);

	mov	esi, esp
	lea	eax, DWORD PTR _litmp$[ebp]
	push	eax
	call	DWORD PTR __imp__QueryPerformanceCounter@4
	cmp	esi, esp
	call	__RTC_CheckEsp

; 457  : 	QPartStartTick = litmp.QuadPart;

	mov	eax, DWORD PTR _litmp$[ebp]
	mov	DWORD PTR _QPartStartTick$[ebp], eax
	mov	ecx, DWORD PTR _litmp$[ebp+4]
	mov	DWORD PTR _QPartStartTick$[ebp+4], ecx
$LN5@avl_map_ti:

; 458  : 	while (1)

	mov	eax, 1
	test	eax, eax
	je	$LN4@avl_map_ti

; 459  : 	{
; 460  : 		const std::string* pvalue = array.get_at(&array_iterator1);

	lea	eax, DWORD PTR _array_iterator1$[ebp]
	push	eax
	mov	ecx, DWORD PTR _array$[ebp]
	call	?get_at@?$pecker_array@V?$basic_string@DU?$char_traits@D@std@@V?$allocator@D@2@@std@@V?$pecker_simple_allocator@V?$basic_string@DU?$char_traits@D@std@@V?$allocator@D@2@@std@@@pecker_sdk@@@pecker_sdk@@QBEPBV?$basic_string@DU?$char_traits@D@std@@V?$allocator@D@2@@std@@PBV?$pecker_array_iterator@V?$pecker_array@V?$basic_string@DU?$char_traits@D@std@@V?$allocator@D@2@@std@@V?$pecker_simple_allocator@V?$basic_string@DU?$char_traits@D@std@@V?$allocator@D@2@@std@@@pecker_sdk@@@pecker_sdk@@@2@@Z ; pecker_sdk::pecker_array<std::basic_string<char,std::char_traits<char>,std::allocator<char> >,pecker_sdk::pecker_simple_allocator<std::basic_string<char,std::char_traits<char>,std::allocator<char> > > >::get_at
	mov	DWORD PTR _pvalue$96659[ebp], eax

; 461  : 		if (pvalue)

	cmp	DWORD PTR _pvalue$96659[ebp], 0
	je	SHORT $LN3@avl_map_ti

; 462  : 		{
; 463  : 			//std::cout << *pvalue << ",";
; 464  : 			if (P_OK != avl_tree_strings_map.erase(*pvalue))

	sub	esp, 32					; 00000020H
	mov	ecx, esp
	mov	DWORD PTR $T108183[ebp], esp
	mov	eax, DWORD PTR _pvalue$96659[ebp]
	push	eax
	call	??0?$basic_string@DU?$char_traits@D@std@@V?$allocator@D@2@@std@@QAE@ABV01@@Z ; std::basic_string<char,std::char_traits<char>,std::allocator<char> >::basic_string<char,std::char_traits<char>,std::allocator<char> >
	mov	DWORD PTR tv219[ebp], eax
	lea	ecx, DWORD PTR _avl_tree_strings_map$[ebp]
	call	?erase@?$pecker_avl_tree_map_container@V?$basic_string@DU?$char_traits@D@std@@V?$allocator@D@2@@std@@HUstringcmp_t@@U?$AVL_node_map@V?$basic_string@DU?$char_traits@D@std@@V?$allocator@D@2@@std@@H@pecker_sdk@@V?$pecker_nodes_simple_allocater@U?$AVL_node_map@V?$basic_string@DU?$char_traits@D@std@@V?$allocator@D@2@@std@@H@pecker_sdk@@V?$pecker_simple_allocator@U?$AVL_node_map@V?$basic_string@DU?$char_traits@D@std@@V?$allocator@D@2@@std@@H@pecker_sdk@@@2@@5@@pecker_sdk@@QAEJV?$basic_string@DU?$char_traits@D@std@@V?$allocator@D@2@@std@@@Z ; pecker_sdk::pecker_avl_tree_map_container<std::basic_string<char,std::char_traits<char>,std::allocator<char> >,int,stringcmp_t,pecker_sdk::AVL_node_map<std::basic_string<char,std::char_traits<char>,std::allocator<char> >,int>,pecker_sdk::pecker_nodes_simple_allocater<pecker_sdk::AVL_node_map<std::basic_string<char,std::char_traits<char>,std::allocator<char> >,int>,pecker_sdk::pecker_simple_allocator<pecker_sdk::AVL_node_map<std::basic_string<char,std::char_traits<char>,std::allocator<char> >,int> > > >::erase
	mov	DWORD PTR tv220[ebp], eax
	cmp	DWORD PTR tv220[ebp], 0
	je	SHORT $LN2@avl_map_ti

; 465  : 			{
; 466  : 				std::cout << "erase error" << std::endl;

	mov	esi, esp
	mov	eax, DWORD PTR __imp_?endl@std@@YAAAV?$basic_ostream@DU?$char_traits@D@std@@@1@AAV21@@Z
	push	eax
	push	OFFSET ??_C@_0M@HGLHBMJP@erase?5error?$AA@
	mov	ecx, DWORD PTR __imp_?cout@std@@3V?$basic_ostream@DU?$char_traits@D@std@@@1@A
	push	ecx
	call	??$?6U?$char_traits@D@std@@@std@@YAAAV?$basic_ostream@DU?$char_traits@D@std@@@0@AAV10@PBD@Z ; std::operator<<<std::char_traits<char> >
	add	esp, 8
	mov	ecx, eax
	call	DWORD PTR __imp_??6?$basic_ostream@DU?$char_traits@D@std@@@std@@QAEAAV01@P6AAAV01@AAV01@@Z@Z
	cmp	esi, esp
	call	__RTC_CheckEsp
$LN2@avl_map_ti:

; 467  : 			}
; 468  : 		}
; 469  : 		else

	jmp	SHORT $LN1@avl_map_ti
$LN3@avl_map_ti:

; 470  : 		{
; 471  : 			//std::cout << "null" << std::endl;
; 472  : 			break;

	jmp	SHORT $LN4@avl_map_ti
$LN1@avl_map_ti:

; 473  : 		}
; 474  : 		array_iterator1.increment();

	lea	ecx, DWORD PTR _array_iterator1$[ebp]
	call	?increment@?$pecker_array_iterator@V?$pecker_array@V?$basic_string@DU?$char_traits@D@std@@V?$allocator@D@2@@std@@V?$pecker_simple_allocator@V?$basic_string@DU?$char_traits@D@std@@V?$allocator@D@2@@std@@@pecker_sdk@@@pecker_sdk@@@pecker_sdk@@UAEJXZ ; pecker_sdk::pecker_array_iterator<pecker_sdk::pecker_array<std::basic_string<char,std::char_traits<char>,std::allocator<char> >,pecker_sdk::pecker_simple_allocator<std::basic_string<char,std::char_traits<char>,std::allocator<char> > > > >::increment

; 475  : 	}

	jmp	$LN5@avl_map_ti
$LN4@avl_map_ti:

; 476  : 	QueryPerformanceCounter(&litmp);

	mov	esi, esp
	lea	eax, DWORD PTR _litmp$[ebp]
	push	eax
	call	DWORD PTR __imp__QueryPerformanceCounter@4
	cmp	esi, esp
	call	__RTC_CheckEsp

; 477  : 	QPartStopTick = litmp.QuadPart;   //

	mov	eax, DWORD PTR _litmp$[ebp]
	mov	DWORD PTR _QPartStopTick$[ebp], eax
	mov	ecx, DWORD PTR _litmp$[ebp+4]
	mov	DWORD PTR _QPartStopTick$[ebp+4], ecx

; 478  : 	dfMinus = (double)(QPartStopTick-QPartStartTick);

	mov	eax, DWORD PTR _QPartStopTick$[ebp]
	sub	eax, DWORD PTR _QPartStartTick$[ebp]
	mov	ecx, DWORD PTR _QPartStopTick$[ebp+4]
	sbb	ecx, DWORD PTR _QPartStartTick$[ebp+4]
	mov	DWORD PTR tv339[ebp], eax
	mov	DWORD PTR tv339[ebp+4], ecx
	fild	QWORD PTR tv339[ebp]
	fstp	QWORD PTR _dfMinus$[ebp]

; 479  : 	dfEscapeTime = dfMinus / dfFreq;    // 

	fld	QWORD PTR _dfMinus$[ebp]
	fdiv	QWORD PTR _dfFreq$[ebp]
	fstp	QWORD PTR _dfEscapeTime$[ebp]

; 480  : 	std::cout << "avl erase "<< dfEscapeTime << std::endl;

	mov	esi, esp
	mov	eax, DWORD PTR __imp_?endl@std@@YAAAV?$basic_ostream@DU?$char_traits@D@std@@@1@AAV21@@Z
	push	eax
	mov	edi, esp
	sub	esp, 8
	fld	QWORD PTR _dfEscapeTime$[ebp]
	fstp	QWORD PTR [esp]
	push	OFFSET ??_C@_0L@CEHAFBLM@avl?5erase?5?$AA@
	mov	ecx, DWORD PTR __imp_?cout@std@@3V?$basic_ostream@DU?$char_traits@D@std@@@1@A
	push	ecx
	call	??$?6U?$char_traits@D@std@@@std@@YAAAV?$basic_ostream@DU?$char_traits@D@std@@@0@AAV10@PBD@Z ; std::operator<<<std::char_traits<char> >
	add	esp, 8
	mov	ecx, eax
	call	DWORD PTR __imp_??6?$basic_ostream@DU?$char_traits@D@std@@@std@@QAEAAV01@N@Z
	cmp	edi, esp
	call	__RTC_CheckEsp
	mov	ecx, eax
	call	DWORD PTR __imp_??6?$basic_ostream@DU?$char_traits@D@std@@@std@@QAEAAV01@P6AAAV01@AAV01@@Z@Z
	cmp	esi, esp
	call	__RTC_CheckEsp

; 481  : 	return 0;

	mov	DWORD PTR $T108184[ebp], 0
	mov	BYTE PTR __$EHRec$[ebp+8], 0
	lea	ecx, DWORD PTR _avl_tree_strings_map$[ebp]
	call	??1?$pecker_avl_tree_map_container@V?$basic_string@DU?$char_traits@D@std@@V?$allocator@D@2@@std@@HUstringcmp_t@@U?$AVL_node_map@V?$basic_string@DU?$char_traits@D@std@@V?$allocator@D@2@@std@@H@pecker_sdk@@V?$pecker_nodes_simple_allocater@U?$AVL_node_map@V?$basic_string@DU?$char_traits@D@std@@V?$allocator@D@2@@std@@H@pecker_sdk@@V?$pecker_simple_allocator@U?$AVL_node_map@V?$basic_string@DU?$char_traits@D@std@@V?$allocator@D@2@@std@@H@pecker_sdk@@@2@@5@@pecker_sdk@@QAE@XZ ; pecker_sdk::pecker_avl_tree_map_container<std::basic_string<char,std::char_traits<char>,std::allocator<char> >,int,stringcmp_t,pecker_sdk::AVL_node_map<std::basic_string<char,std::char_traits<char>,std::allocator<char> >,int>,pecker_sdk::pecker_nodes_simple_allocater<pecker_sdk::AVL_node_map<std::basic_string<char,std::char_traits<char>,std::allocator<char> >,int>,pecker_sdk::pecker_simple_allocator<pecker_sdk::AVL_node_map<std::basic_string<char,std::char_traits<char>,std::allocator<char> >,int> > > >::~pecker_avl_tree_map_container<std::basic_string<char,std::char_traits<char>,std::allocator<char> >,int,stringcmp_t,pecker_sdk::AVL_node_map<std::basic_string<char,std::char_traits<char>,std::allocator<char> >,int>,pecker_sdk::pecker_nodes_simple_allocater<pecker_sdk::AVL_node_map<std::basic_string<char,std::char_traits<char>,std::allocator<char> >,int>,pecker_sdk::pecker_simple_allocator<pecker_sdk::AVL_node_map<std::basic_string<char,std::char_traits<char>,std::allocator<char> >,int> > > >
	mov	DWORD PTR __$EHRec$[ebp+8], -1
	lea	ecx, DWORD PTR _array_iterator1$[ebp]
	call	??1?$pecker_array_iterator@V?$pecker_array@V?$basic_string@DU?$char_traits@D@std@@V?$allocator@D@2@@std@@V?$pecker_simple_allocator@V?$basic_string@DU?$char_traits@D@std@@V?$allocator@D@2@@std@@@pecker_sdk@@@pecker_sdk@@@pecker_sdk@@UAE@XZ ; pecker_sdk::pecker_array_iterator<pecker_sdk::pecker_array<std::basic_string<char,std::char_traits<char>,std::allocator<char> >,pecker_sdk::pecker_simple_allocator<std::basic_string<char,std::char_traits<char>,std::allocator<char> > > > >::~pecker_array_iterator<pecker_sdk::pecker_array<std::basic_string<char,std::char_traits<char>,std::allocator<char> >,pecker_sdk::pecker_simple_allocator<std::basic_string<char,std::char_traits<char>,std::allocator<char> > > > >
	mov	eax, DWORD PTR $T108184[ebp]

; 482  : }

	push	edx
	mov	ecx, ebp
	push	eax
	lea	edx, DWORD PTR $LN26@avl_map_ti
	call	@_RTC_CheckStackVars@8
	pop	eax
	pop	edx
	mov	ecx, DWORD PTR __$EHRec$[ebp]
	mov	DWORD PTR fs:0, ecx
	pop	ecx
	pop	edi
	pop	esi
	pop	ebx
	add	esp, 420				; 000001a4H
	cmp	ebp, esp
	call	__RTC_CheckEsp
	mov	esp, ebp
	pop	ebp
	ret	0
	npad	3
$LN26@avl_map_ti:
	DD	3
	DD	$LN25@avl_map_ti
$LN25@avl_map_ti:
	DD	-28					; ffffffe4H
	DD	12					; 0000000cH
	DD	$LN21@avl_map_ti
	DD	-48					; ffffffd0H
	DD	12					; 0000000cH
	DD	$LN22@avl_map_ti
	DD	-64					; ffffffc0H
	DD	8
	DD	$LN23@avl_map_ti
$LN23@avl_map_ti:
	DB	108					; 0000006cH
	DB	105					; 00000069H
	DB	116					; 00000074H
	DB	109					; 0000006dH
	DB	112					; 00000070H
	DB	0
$LN22@avl_map_ti:
	DB	97					; 00000061H
	DB	118					; 00000076H
	DB	108					; 0000006cH
	DB	95					; 0000005fH
	DB	116					; 00000074H
	DB	114					; 00000072H
	DB	101					; 00000065H
	DB	101					; 00000065H
	DB	95					; 0000005fH
	DB	115					; 00000073H
	DB	116					; 00000074H
	DB	114					; 00000072H
	DB	105					; 00000069H
	DB	110					; 0000006eH
	DB	103					; 00000067H
	DB	115					; 00000073H
	DB	95					; 0000005fH
	DB	109					; 0000006dH
	DB	97					; 00000061H
	DB	112					; 00000070H
	DB	0
$LN21@avl_map_ti:
	DB	97					; 00000061H
	DB	114					; 00000072H
	DB	114					; 00000072H
	DB	97					; 00000061H
	DB	121					; 00000079H
	DB	95					; 0000005fH
	DB	105					; 00000069H
	DB	116					; 00000074H
	DB	101					; 00000065H
	DB	114					; 00000072H
	DB	97					; 00000061H
	DB	116					; 00000074H
	DB	111					; 0000006fH
	DB	114					; 00000072H
	DB	49					; 00000031H
	DB	0
_TEXT	ENDS
;	COMDAT text$x
text$x	SEGMENT
__unwindfunclet$?avl_map_time@@YAHAAV?$pecker_array@V?$basic_string@DU?$char_traits@D@std@@V?$allocator@D@2@@std@@V?$pecker_simple_allocator@V?$basic_string@DU?$char_traits@D@std@@V?$allocator@D@2@@std@@@pecker_sdk@@@pecker_sdk@@@Z$0:
	lea	ecx, DWORD PTR _array_iterator1$[ebp]
	jmp	??1?$pecker_array_iterator@V?$pecker_array@V?$basic_string@DU?$char_traits@D@std@@V?$allocator@D@2@@std@@V?$pecker_simple_allocator@V?$basic_string@DU?$char_traits@D@std@@V?$allocator@D@2@@std@@@pecker_sdk@@@pecker_sdk@@@pecker_sdk@@UAE@XZ ; pecker_sdk::pecker_array_iterator<pecker_sdk::pecker_array<std::basic_string<char,std::char_traits<char>,std::allocator<char> >,pecker_sdk::pecker_simple_allocator<std::basic_string<char,std::char_traits<char>,std::allocator<char> > > > >::~pecker_array_iterator<pecker_sdk::pecker_array<std::basic_string<char,std::char_traits<char>,std::allocator<char> >,pecker_sdk::pecker_simple_allocator<std::basic_string<char,std::char_traits<char>,std::allocator<char> > > > >
__unwindfunclet$?avl_map_time@@YAHAAV?$pecker_array@V?$basic_string@DU?$char_traits@D@std@@V?$allocator@D@2@@std@@V?$pecker_simple_allocator@V?$basic_string@DU?$char_traits@D@std@@V?$allocator@D@2@@std@@@pecker_sdk@@@pecker_sdk@@@Z$1:
	lea	ecx, DWORD PTR _avl_tree_strings_map$[ebp]
	jmp	??1?$pecker_avl_tree_map_container@V?$basic_string@DU?$char_traits@D@std@@V?$allocator@D@2@@std@@HUstringcmp_t@@U?$AVL_node_map@V?$basic_string@DU?$char_traits@D@std@@V?$allocator@D@2@@std@@H@pecker_sdk@@V?$pecker_nodes_simple_allocater@U?$AVL_node_map@V?$basic_string@DU?$char_traits@D@std@@V?$allocator@D@2@@std@@H@pecker_sdk@@V?$pecker_simple_allocator@U?$AVL_node_map@V?$basic_string@DU?$char_traits@D@std@@V?$allocator@D@2@@std@@H@pecker_sdk@@@2@@5@@pecker_sdk@@QAE@XZ ; pecker_sdk::pecker_avl_tree_map_container<std::basic_string<char,std::char_traits<char>,std::allocator<char> >,int,stringcmp_t,pecker_sdk::AVL_node_map<std::basic_string<char,std::char_traits<char>,std::allocator<char> >,int>,pecker_sdk::pecker_nodes_simple_allocater<pecker_sdk::AVL_node_map<std::basic_string<char,std::char_traits<char>,std::allocator<char> >,int>,pecker_sdk::pecker_simple_allocator<pecker_sdk::AVL_node_map<std::basic_string<char,std::char_traits<char>,std::allocator<char> >,int> > > >::~pecker_avl_tree_map_container<std::basic_string<char,std::char_traits<char>,std::allocator<char> >,int,stringcmp_t,pecker_sdk::AVL_node_map<std::basic_string<char,std::char_traits<char>,std::allocator<char> >,int>,pecker_sdk::pecker_nodes_simple_allocater<pecker_sdk::AVL_node_map<std::basic_string<char,std::char_traits<char>,std::allocator<char> >,int>,pecker_sdk::pecker_simple_allocator<pecker_sdk::AVL_node_map<std::basic_string<char,std::char_traits<char>,std::allocator<char> >,int> > > >
__ehhandler$?avl_map_time@@YAHAAV?$pecker_array@V?$basic_string@DU?$char_traits@D@std@@V?$allocator@D@2@@std@@V?$pecker_simple_allocator@V?$basic_string@DU?$char_traits@D@std@@V?$allocator@D@2@@std@@@pecker_sdk@@@pecker_sdk@@@Z:
	mov	edx, DWORD PTR [esp+8]
	lea	eax, DWORD PTR [edx+12]
	mov	ecx, DWORD PTR [edx-424]
	xor	ecx, eax
	call	@__security_check_cookie@4
	mov	eax, OFFSET __ehfuncinfo$?avl_map_time@@YAHAAV?$pecker_array@V?$basic_string@DU?$char_traits@D@std@@V?$allocator@D@2@@std@@V?$pecker_simple_allocator@V?$basic_string@DU?$char_traits@D@std@@V?$allocator@D@2@@std@@@pecker_sdk@@@pecker_sdk@@@Z
	jmp	___CxxFrameHandler3
text$x	ENDS
?avl_map_time@@YAHAAV?$pecker_array@V?$basic_string@DU?$char_traits@D@std@@V?$allocator@D@2@@std@@V?$pecker_simple_allocator@V?$basic_string@DU?$char_traits@D@std@@V?$allocator@D@2@@std@@@pecker_sdk@@@pecker_sdk@@@Z ENDP ; avl_map_time
PUBLIC	??1?$map@V?$basic_string@DU?$char_traits@D@std@@V?$allocator@D@2@@std@@HU?$less@V?$basic_string@DU?$char_traits@D@std@@V?$allocator@D@2@@std@@@2@V?$allocator@U?$pair@$$CBV?$basic_string@DU?$char_traits@D@std@@V?$allocator@D@2@@std@@H@std@@@2@@std@@QAE@XZ ; std::map<std::basic_string<char,std::char_traits<char>,std::allocator<char> >,int,std::less<std::basic_string<char,std::char_traits<char>,std::allocator<char> > >,std::allocator<std::pair<std::basic_string<char,std::char_traits<char>,std::allocator<char> > const ,int> > >::~map<std::basic_string<char,std::char_traits<char>,std::allocator<char> >,int,std::less<std::basic_string<char,std::char_traits<char>,std::allocator<char> > >,std::allocator<std::pair<std::basic_string<char,std::char_traits<char>,std::allocator<char> > const ,int> > >
PUBLIC	??_C@_0P@HFCCGOFC@stl?5map?5erase?5?$AA@	; `string'
PUBLIC	?erase@?$_Tree@V?$_Tmap_traits@V?$basic_string@DU?$char_traits@D@std@@V?$allocator@D@2@@std@@HU?$less@V?$basic_string@DU?$char_traits@D@std@@V?$allocator@D@2@@std@@@2@V?$allocator@U?$pair@$$CBV?$basic_string@DU?$char_traits@D@std@@V?$allocator@D@2@@std@@H@std@@@2@$0A@@std@@@std@@QAEIABV?$basic_string@DU?$char_traits@D@std@@V?$allocator@D@2@@2@@Z ; std::_Tree<std::_Tmap_traits<std::basic_string<char,std::char_traits<char>,std::allocator<char> >,int,std::less<std::basic_string<char,std::char_traits<char>,std::allocator<char> > >,std::allocator<std::pair<std::basic_string<char,std::char_traits<char>,std::allocator<char> > const ,int> >,0> >::erase
PUBLIC	??_C@_0O@COADCENE@stl?5map?5find?5?$AA@		; `string'
PUBLIC	??1?$_Tree_iterator@V?$_Tree_val@V?$_Tmap_traits@V?$basic_string@DU?$char_traits@D@std@@V?$allocator@D@2@@std@@HU?$less@V?$basic_string@DU?$char_traits@D@std@@V?$allocator@D@2@@std@@@2@V?$allocator@U?$pair@$$CBV?$basic_string@DU?$char_traits@D@std@@V?$allocator@D@2@@std@@H@std@@@2@$0A@@std@@@std@@@std@@QAE@XZ ; std::_Tree_iterator<std::_Tree_val<std::_Tmap_traits<std::basic_string<char,std::char_traits<char>,std::allocator<char> >,int,std::less<std::basic_string<char,std::char_traits<char>,std::allocator<char> > >,std::allocator<std::pair<std::basic_string<char,std::char_traits<char>,std::allocator<char> > const ,int> >,0> > >::~_Tree_iterator<std::_Tree_val<std::_Tmap_traits<std::basic_string<char,std::char_traits<char>,std::allocator<char> >,int,std::less<std::basic_string<char,std::char_traits<char>,std::allocator<char> > >,std::allocator<std::pair<std::basic_string<char,std::char_traits<char>,std::allocator<char> > const ,int> >,0> > >
PUBLIC	?find@?$_Tree@V?$_Tmap_traits@V?$basic_string@DU?$char_traits@D@std@@V?$allocator@D@2@@std@@HU?$less@V?$basic_string@DU?$char_traits@D@std@@V?$allocator@D@2@@std@@@2@V?$allocator@U?$pair@$$CBV?$basic_string@DU?$char_traits@D@std@@V?$allocator@D@2@@std@@H@std@@@2@$0A@@std@@@std@@QAE?AV?$_Tree_iterator@V?$_Tree_val@V?$_Tmap_traits@V?$basic_string@DU?$char_traits@D@std@@V?$allocator@D@2@@std@@HU?$less@V?$basic_string@DU?$char_traits@D@std@@V?$allocator@D@2@@std@@@2@V?$allocator@U?$pair@$$CBV?$basic_string@DU?$char_traits@D@std@@V?$allocator@D@2@@std@@H@std@@@2@$0A@@std@@@std@@@2@ABV?$basic_string@DU?$char_traits@D@std@@V?$allocator@D@2@@2@@Z ; std::_Tree<std::_Tmap_traits<std::basic_string<char,std::char_traits<char>,std::allocator<char> >,int,std::less<std::basic_string<char,std::char_traits<char>,std::allocator<char> > >,std::allocator<std::pair<std::basic_string<char,std::char_traits<char>,std::allocator<char> > const ,int> >,0> >::find
PUBLIC	??_C@_0BA@OAIAPNBJ@stl?5map?5insert?5?$AA@	; `string'
PUBLIC	??1?$pair@$$CBV?$basic_string@DU?$char_traits@D@std@@V?$allocator@D@2@@std@@H@std@@QAE@XZ ; std::pair<std::basic_string<char,std::char_traits<char>,std::allocator<char> > const ,int>::~pair<std::basic_string<char,std::char_traits<char>,std::allocator<char> > const ,int>
PUBLIC	??1?$pair@V?$_Tree_iterator@V?$_Tree_val@V?$_Tmap_traits@V?$basic_string@DU?$char_traits@D@std@@V?$allocator@D@2@@std@@HU?$less@V?$basic_string@DU?$char_traits@D@std@@V?$allocator@D@2@@std@@@2@V?$allocator@U?$pair@$$CBV?$basic_string@DU?$char_traits@D@std@@V?$allocator@D@2@@std@@H@std@@@2@$0A@@std@@@std@@@std@@_N@std@@QAE@XZ ; std::pair<std::_Tree_iterator<std::_Tree_val<std::_Tmap_traits<std::basic_string<char,std::char_traits<char>,std::allocator<char> >,int,std::less<std::basic_string<char,std::char_traits<char>,std::allocator<char> > >,std::allocator<std::pair<std::basic_string<char,std::char_traits<char>,std::allocator<char> > const ,int> >,0> > >,bool>::~pair<std::_Tree_iterator<std::_Tree_val<std::_Tmap_traits<std::basic_string<char,std::char_traits<char>,std::allocator<char> >,int,std::less<std::basic_string<char,std::char_traits<char>,std::allocator<char> > >,std::allocator<std::pair<std::basic_string<char,std::char_traits<char>,std::allocator<char> > const ,int> >,0> > >,bool>
PUBLIC	??$insert@U?$pair@$$CBV?$basic_string@DU?$char_traits@D@std@@V?$allocator@D@2@@std@@H@std@@@?$_Tree@V?$_Tmap_traits@V?$basic_string@DU?$char_traits@D@std@@V?$allocator@D@2@@std@@HU?$less@V?$basic_string@DU?$char_traits@D@std@@V?$allocator@D@2@@std@@@2@V?$allocator@U?$pair@$$CBV?$basic_string@DU?$char_traits@D@std@@V?$allocator@D@2@@std@@H@std@@@2@$0A@@std@@@std@@QAE?AU?$pair@V?$_Tree_iterator@V?$_Tree_val@V?$_Tmap_traits@V?$basic_string@DU?$char_traits@D@std@@V?$allocator@D@2@@std@@HU?$less@V?$basic_string@DU?$char_traits@D@std@@V?$allocator@D@2@@std@@@2@V?$allocator@U?$pair@$$CBV?$basic_string@DU?$char_traits@D@std@@V?$allocator@D@2@@std@@H@std@@@2@$0A@@std@@@std@@@std@@_N@1@$$QAU?$pair@$$CBV?$basic_string@DU?$char_traits@D@std@@V?$allocator@D@2@@std@@H@1@@Z ; std::_Tree<std::_Tmap_traits<std::basic_string<char,std::char_traits<char>,std::allocator<char> >,int,std::less<std::basic_string<char,std::char_traits<char>,std::allocator<char> > >,std::allocator<std::pair<std::basic_string<char,std::char_traits<char>,std::allocator<char> > const ,int> >,0> >::insert<std::pair<std::basic_string<char,std::char_traits<char>,std::allocator<char> > const ,int> >
PUBLIC	??$?0ABV?$basic_string@DU?$char_traits@D@std@@V?$allocator@D@2@@std@@AAH@?$pair@$$CBV?$basic_string@DU?$char_traits@D@std@@V?$allocator@D@2@@std@@H@std@@QAE@ABV?$basic_string@DU?$char_traits@D@std@@V?$allocator@D@2@@1@AAH@Z ; std::pair<std::basic_string<char,std::char_traits<char>,std::allocator<char> > const ,int>::pair<std::basic_string<char,std::char_traits<char>,std::allocator<char> > const ,int><std::basic_string<char,std::char_traits<char>,std::allocator<char> > const &,int &>
PUBLIC	??0?$map@V?$basic_string@DU?$char_traits@D@std@@V?$allocator@D@2@@std@@HU?$less@V?$basic_string@DU?$char_traits@D@std@@V?$allocator@D@2@@std@@@2@V?$allocator@U?$pair@$$CBV?$basic_string@DU?$char_traits@D@std@@V?$allocator@D@2@@std@@H@std@@@2@@std@@QAE@XZ ; std::map<std::basic_string<char,std::char_traits<char>,std::allocator<char> >,int,std::less<std::basic_string<char,std::char_traits<char>,std::allocator<char> > >,std::allocator<std::pair<std::basic_string<char,std::char_traits<char>,std::allocator<char> > const ,int> > >::map<std::basic_string<char,std::char_traits<char>,std::allocator<char> >,int,std::less<std::basic_string<char,std::char_traits<char>,std::allocator<char> > >,std::allocator<std::pair<std::basic_string<char,std::char_traits<char>,std::allocator<char> > const ,int> > >
PUBLIC	__$ArrayPad$
;	COMDAT ??_C@_0P@HFCCGOFC@stl?5map?5erase?5?$AA@
CONST	SEGMENT
??_C@_0P@HFCCGOFC@stl?5map?5erase?5?$AA@ DB 'stl map erase ', 00H ; `string'
CONST	ENDS
;	COMDAT ??_C@_0O@COADCENE@stl?5map?5find?5?$AA@
CONST	SEGMENT
??_C@_0O@COADCENE@stl?5map?5find?5?$AA@ DB 'stl map find ', 00H ; `string'
CONST	ENDS
;	COMDAT ??_C@_0BA@OAIAPNBJ@stl?5map?5insert?5?$AA@
CONST	SEGMENT
??_C@_0BA@OAIAPNBJ@stl?5map?5insert?5?$AA@ DB 'stl map insert ', 00H ; `string'
CONST	ENDS
;	COMDAT xdata$x
xdata$x	SEGMENT
__unwindtable$?stl_map_time@@YAHAAV?$pecker_array@V?$basic_string@DU?$char_traits@D@std@@V?$allocator@D@2@@std@@V?$pecker_simple_allocator@V?$basic_string@DU?$char_traits@D@std@@V?$allocator@D@2@@std@@@pecker_sdk@@@pecker_sdk@@@Z DD 0ffffffffH
	DD	FLAT:__unwindfunclet$?stl_map_time@@YAHAAV?$pecker_array@V?$basic_string@DU?$char_traits@D@std@@V?$allocator@D@2@@std@@V?$pecker_simple_allocator@V?$basic_string@DU?$char_traits@D@std@@V?$allocator@D@2@@std@@@pecker_sdk@@@pecker_sdk@@@Z$0
	DD	00H
	DD	FLAT:__unwindfunclet$?stl_map_time@@YAHAAV?$pecker_array@V?$basic_string@DU?$char_traits@D@std@@V?$allocator@D@2@@std@@V?$pecker_simple_allocator@V?$basic_string@DU?$char_traits@D@std@@V?$allocator@D@2@@std@@@pecker_sdk@@@pecker_sdk@@@Z$1
	DD	01H
	DD	FLAT:__unwindfunclet$?stl_map_time@@YAHAAV?$pecker_array@V?$basic_string@DU?$char_traits@D@std@@V?$allocator@D@2@@std@@V?$pecker_simple_allocator@V?$basic_string@DU?$char_traits@D@std@@V?$allocator@D@2@@std@@@pecker_sdk@@@pecker_sdk@@@Z$2
__ehfuncinfo$?stl_map_time@@YAHAAV?$pecker_array@V?$basic_string@DU?$char_traits@D@std@@V?$allocator@D@2@@std@@V?$pecker_simple_allocator@V?$basic_string@DU?$char_traits@D@std@@V?$allocator@D@2@@std@@@pecker_sdk@@@pecker_sdk@@@Z DD 019930522H
	DD	03H
	DD	FLAT:__unwindtable$?stl_map_time@@YAHAAV?$pecker_array@V?$basic_string@DU?$char_traits@D@std@@V?$allocator@D@2@@std@@V?$pecker_simple_allocator@V?$basic_string@DU?$char_traits@D@std@@V?$allocator@D@2@@std@@@pecker_sdk@@@pecker_sdk@@@Z
	DD	2 DUP(00H)
	DD	2 DUP(00H)
	DD	00H
	DD	01H
; Function compile flags: /Odtp /RTCsu /ZI
xdata$x	ENDS
;	COMDAT ?stl_map_time@@YAHAAV?$pecker_array@V?$basic_string@DU?$char_traits@D@std@@V?$allocator@D@2@@std@@V?$pecker_simple_allocator@V?$basic_string@DU?$char_traits@D@std@@V?$allocator@D@2@@std@@@pecker_sdk@@@pecker_sdk@@@Z
_TEXT	SEGMENT
tv311 = -508						; size = 8
tv278 = -508						; size = 8
tv244 = -508						; size = 8
tv208 = -508						; size = 4
tv71 = -504						; size = 4
$T97475 = -496						; size = 36
$T108202 = -452						; size = 16
$T108203 = -428						; size = 12
$T108204 = -408						; size = 4
_pvalue$97806 = -204					; size = 4
_pvalue$97793 = -192					; size = 4
_pvalue$97307 = -180					; size = 4
_icount$ = -168						; size = 4
_dfEscapeTime$ = -156					; size = 8
_dfFreq$ = -140						; size = 8
_dfMinus$ = -124					; size = 8
_QPartStopTick$ = -108					; size = 8
_QPartStartTick$ = -92					; size = 8
_litmp$ = -76						; size = 8
_stl_string_map$ = -60					; size = 20
_array_iterator1$ = -32					; size = 12
__$ArrayPad$ = -16					; size = 4
__$EHRec$ = -12						; size = 12
_array$ = 8						; size = 4
?stl_map_time@@YAHAAV?$pecker_array@V?$basic_string@DU?$char_traits@D@std@@V?$allocator@D@2@@std@@V?$pecker_simple_allocator@V?$basic_string@DU?$char_traits@D@std@@V?$allocator@D@2@@std@@@pecker_sdk@@@pecker_sdk@@@Z PROC ; stl_map_time, COMDAT

; 485  : {

	push	ebp
	mov	ebp, esp
	push	-1
	push	__ehhandler$?stl_map_time@@YAHAAV?$pecker_array@V?$basic_string@DU?$char_traits@D@std@@V?$allocator@D@2@@std@@V?$pecker_simple_allocator@V?$basic_string@DU?$char_traits@D@std@@V?$allocator@D@2@@std@@@pecker_sdk@@@pecker_sdk@@@Z
	mov	eax, DWORD PTR fs:0
	push	eax
	sub	esp, 496				; 000001f0H
	push	ebx
	push	esi
	push	edi
	lea	edi, DWORD PTR [ebp-508]
	mov	ecx, 124				; 0000007cH
	mov	eax, -858993460				; ccccccccH
	rep stosd
	mov	eax, DWORD PTR ___security_cookie
	xor	eax, ebp
	mov	DWORD PTR __$ArrayPad$[ebp], eax
	push	eax
	lea	eax, DWORD PTR __$EHRec$[ebp]
	mov	DWORD PTR fs:0, eax

; 486  : 	pecker_array_iterator< pecker_array<std::string> >array_iterator1;

	push	0
	lea	ecx, DWORD PTR _array_iterator1$[ebp]
	call	??0?$pecker_array_iterator@V?$pecker_array@V?$basic_string@DU?$char_traits@D@std@@V?$allocator@D@2@@std@@V?$pecker_simple_allocator@V?$basic_string@DU?$char_traits@D@std@@V?$allocator@D@2@@std@@@pecker_sdk@@@pecker_sdk@@@pecker_sdk@@QAE@PBV?$pecker_array@V?$basic_string@DU?$char_traits@D@std@@V?$allocator@D@2@@std@@V?$pecker_simple_allocator@V?$basic_string@DU?$char_traits@D@std@@V?$allocator@D@2@@std@@@pecker_sdk@@@1@@Z ; pecker_sdk::pecker_array_iterator<pecker_sdk::pecker_array<std::basic_string<char,std::char_traits<char>,std::allocator<char> >,pecker_sdk::pecker_simple_allocator<std::basic_string<char,std::char_traits<char>,std::allocator<char> > > > >::pecker_array_iterator<pecker_sdk::pecker_array<std::basic_string<char,std::char_traits<char>,std::allocator<char> >,pecker_sdk::pecker_simple_allocator<std::basic_string<char,std::char_traits<char>,std::allocator<char> > > > >
	mov	DWORD PTR __$EHRec$[ebp+8], 0

; 487  : 	array.get_iterator(&array_iterator1);

	lea	eax, DWORD PTR _array_iterator1$[ebp]
	push	eax
	mov	ecx, DWORD PTR _array$[ebp]
	call	?get_iterator@?$pecker_array@V?$basic_string@DU?$char_traits@D@std@@V?$allocator@D@2@@std@@V?$pecker_simple_allocator@V?$basic_string@DU?$char_traits@D@std@@V?$allocator@D@2@@std@@@pecker_sdk@@@pecker_sdk@@QBEPAV?$pecker_array_iterator@V?$pecker_array@V?$basic_string@DU?$char_traits@D@std@@V?$allocator@D@2@@std@@V?$pecker_simple_allocator@V?$basic_string@DU?$char_traits@D@std@@V?$allocator@D@2@@std@@@pecker_sdk@@@pecker_sdk@@@2@PAV32@@Z ; pecker_sdk::pecker_array<std::basic_string<char,std::char_traits<char>,std::allocator<char> >,pecker_sdk::pecker_simple_allocator<std::basic_string<char,std::char_traits<char>,std::allocator<char> > > >::get_iterator

; 488  : 	std::map<std::string,int> stl_string_map;

	lea	ecx, DWORD PTR _stl_string_map$[ebp]
	call	??0?$map@V?$basic_string@DU?$char_traits@D@std@@V?$allocator@D@2@@std@@HU?$less@V?$basic_string@DU?$char_traits@D@std@@V?$allocator@D@2@@std@@@2@V?$allocator@U?$pair@$$CBV?$basic_string@DU?$char_traits@D@std@@V?$allocator@D@2@@std@@H@std@@@2@@std@@QAE@XZ ; std::map<std::basic_string<char,std::char_traits<char>,std::allocator<char> >,int,std::less<std::basic_string<char,std::char_traits<char>,std::allocator<char> > >,std::allocator<std::pair<std::basic_string<char,std::char_traits<char>,std::allocator<char> > const ,int> > >::map<std::basic_string<char,std::char_traits<char>,std::allocator<char> >,int,std::less<std::basic_string<char,std::char_traits<char>,std::allocator<char> > >,std::allocator<std::pair<std::basic_string<char,std::char_traits<char>,std::allocator<char> > const ,int> > >
	mov	BYTE PTR __$EHRec$[ebp+8], 1

; 489  : 
; 490  : 	LARGE_INTEGER litmp; 
; 491  : 	LONGLONG QPartStartTick,QPartStopTick;
; 492  : 	double dfMinus, dfFreq, dfEscapeTime;
; 493  : 	QueryPerformanceFrequency(&litmp);

	mov	esi, esp
	lea	eax, DWORD PTR _litmp$[ebp]
	push	eax
	call	DWORD PTR __imp__QueryPerformanceFrequency@4
	cmp	esi, esp
	call	__RTC_CheckEsp

; 494  : 	dfFreq = (double)litmp.QuadPart;   // 

	fild	QWORD PTR _litmp$[ebp]
	fstp	QWORD PTR _dfFreq$[ebp]

; 495  : 	array_iterator1.init(ITERATOR_INIT_BEGIN_INDEX);

	push	0
	lea	ecx, DWORD PTR _array_iterator1$[ebp]
	call	?init@?$pecker_array_iterator@V?$pecker_array@V?$basic_string@DU?$char_traits@D@std@@V?$allocator@D@2@@std@@V?$pecker_simple_allocator@V?$basic_string@DU?$char_traits@D@std@@V?$allocator@D@2@@std@@@pecker_sdk@@@pecker_sdk@@@pecker_sdk@@UAEJW4enumLINEAR_INTERATOR_INIT_TYPE@@@Z ; pecker_sdk::pecker_array_iterator<pecker_sdk::pecker_array<std::basic_string<char,std::char_traits<char>,std::allocator<char> >,pecker_sdk::pecker_simple_allocator<std::basic_string<char,std::char_traits<char>,std::allocator<char> > > > >::init

; 496  : 	int icount = 0;

	mov	DWORD PTR _icount$[ebp], 0

; 497  : 
; 498  : 	std::cout << "......." << std::endl;

	mov	esi, esp
	mov	eax, DWORD PTR __imp_?endl@std@@YAAAV?$basic_ostream@DU?$char_traits@D@std@@@1@AAV21@@Z
	push	eax
	push	OFFSET ??_C@_07NDMNFNNL@?4?4?4?4?4?4?4?$AA@
	mov	ecx, DWORD PTR __imp_?cout@std@@3V?$basic_ostream@DU?$char_traits@D@std@@@1@A
	push	ecx
	call	??$?6U?$char_traits@D@std@@@std@@YAAAV?$basic_ostream@DU?$char_traits@D@std@@@0@AAV10@PBD@Z ; std::operator<<<std::char_traits<char> >
	add	esp, 8
	mov	ecx, eax
	call	DWORD PTR __imp_??6?$basic_ostream@DU?$char_traits@D@std@@@std@@QAEAAV01@P6AAAV01@AAV01@@Z@Z
	cmp	esi, esp
	call	__RTC_CheckEsp

; 499  : 	QueryPerformanceCounter(&litmp);

	mov	esi, esp
	lea	eax, DWORD PTR _litmp$[ebp]
	push	eax
	call	DWORD PTR __imp__QueryPerformanceCounter@4
	cmp	esi, esp
	call	__RTC_CheckEsp

; 500  : 	QPartStartTick = litmp.QuadPart;

	mov	eax, DWORD PTR _litmp$[ebp]
	mov	DWORD PTR _QPartStartTick$[ebp], eax
	mov	ecx, DWORD PTR _litmp$[ebp+4]
	mov	DWORD PTR _QPartStartTick$[ebp+4], ecx
$LN12@stl_map_ti:

; 501  : 	while (1)

	mov	eax, 1
	test	eax, eax
	je	$LN11@stl_map_ti

; 502  : 	{
; 503  : 		const std::string* pvalue = array.get_at(&array_iterator1);

	lea	eax, DWORD PTR _array_iterator1$[ebp]
	push	eax
	mov	ecx, DWORD PTR _array$[ebp]
	call	?get_at@?$pecker_array@V?$basic_string@DU?$char_traits@D@std@@V?$allocator@D@2@@std@@V?$pecker_simple_allocator@V?$basic_string@DU?$char_traits@D@std@@V?$allocator@D@2@@std@@@pecker_sdk@@@pecker_sdk@@QBEPBV?$basic_string@DU?$char_traits@D@std@@V?$allocator@D@2@@std@@PBV?$pecker_array_iterator@V?$pecker_array@V?$basic_string@DU?$char_traits@D@std@@V?$allocator@D@2@@std@@V?$pecker_simple_allocator@V?$basic_string@DU?$char_traits@D@std@@V?$allocator@D@2@@std@@@pecker_sdk@@@pecker_sdk@@@2@@Z ; pecker_sdk::pecker_array<std::basic_string<char,std::char_traits<char>,std::allocator<char> >,pecker_sdk::pecker_simple_allocator<std::basic_string<char,std::char_traits<char>,std::allocator<char> > > >::get_at
	mov	DWORD PTR _pvalue$97307[ebp], eax

; 504  : 		if (pvalue)

	cmp	DWORD PTR _pvalue$97307[ebp], 0
	je	SHORT $LN10@stl_map_ti

; 505  : 		{
; 506  : 			//std::cout << *pvalue << ",";
; 507  : 			stl_string_map.insert(std::map<std::string , int >::value_type( *pvalue,icount));

	lea	eax, DWORD PTR _icount$[ebp]
	push	eax
	mov	ecx, DWORD PTR _pvalue$97307[ebp]
	push	ecx
	lea	ecx, DWORD PTR $T97475[ebp]
	call	??$?0ABV?$basic_string@DU?$char_traits@D@std@@V?$allocator@D@2@@std@@AAH@?$pair@$$CBV?$basic_string@DU?$char_traits@D@std@@V?$allocator@D@2@@std@@H@std@@QAE@ABV?$basic_string@DU?$char_traits@D@std@@V?$allocator@D@2@@1@AAH@Z ; std::pair<std::basic_string<char,std::char_traits<char>,std::allocator<char> > const ,int>::pair<std::basic_string<char,std::char_traits<char>,std::allocator<char> > const ,int><std::basic_string<char,std::char_traits<char>,std::allocator<char> > const &,int &>
	mov	DWORD PTR tv71[ebp], eax
	mov	edx, DWORD PTR tv71[ebp]
	mov	DWORD PTR tv208[ebp], edx
	mov	BYTE PTR __$EHRec$[ebp+8], 2
	mov	eax, DWORD PTR tv208[ebp]
	push	eax
	lea	ecx, DWORD PTR $T108202[ebp]
	push	ecx
	lea	ecx, DWORD PTR _stl_string_map$[ebp]
	call	??$insert@U?$pair@$$CBV?$basic_string@DU?$char_traits@D@std@@V?$allocator@D@2@@std@@H@std@@@?$_Tree@V?$_Tmap_traits@V?$basic_string@DU?$char_traits@D@std@@V?$allocator@D@2@@std@@HU?$less@V?$basic_string@DU?$char_traits@D@std@@V?$allocator@D@2@@std@@@2@V?$allocator@U?$pair@$$CBV?$basic_string@DU?$char_traits@D@std@@V?$allocator@D@2@@std@@H@std@@@2@$0A@@std@@@std@@QAE?AU?$pair@V?$_Tree_iterator@V?$_Tree_val@V?$_Tmap_traits@V?$basic_string@DU?$char_traits@D@std@@V?$allocator@D@2@@std@@HU?$less@V?$basic_string@DU?$char_traits@D@std@@V?$allocator@D@2@@std@@@2@V?$allocator@U?$pair@$$CBV?$basic_string@DU?$char_traits@D@std@@V?$allocator@D@2@@std@@H@std@@@2@$0A@@std@@@std@@@std@@_N@1@$$QAU?$pair@$$CBV?$basic_string@DU?$char_traits@D@std@@V?$allocator@D@2@@std@@H@1@@Z ; std::_Tree<std::_Tmap_traits<std::basic_string<char,std::char_traits<char>,std::allocator<char> >,int,std::less<std::basic_string<char,std::char_traits<char>,std::allocator<char> > >,std::allocator<std::pair<std::basic_string<char,std::char_traits<char>,std::allocator<char> > const ,int> >,0> >::insert<std::pair<std::basic_string<char,std::char_traits<char>,std::allocator<char> > const ,int> >
	lea	ecx, DWORD PTR $T108202[ebp]
	call	??1?$pair@V?$_Tree_iterator@V?$_Tree_val@V?$_Tmap_traits@V?$basic_string@DU?$char_traits@D@std@@V?$allocator@D@2@@std@@HU?$less@V?$basic_string@DU?$char_traits@D@std@@V?$allocator@D@2@@std@@@2@V?$allocator@U?$pair@$$CBV?$basic_string@DU?$char_traits@D@std@@V?$allocator@D@2@@std@@H@std@@@2@$0A@@std@@@std@@@std@@_N@std@@QAE@XZ
	mov	BYTE PTR __$EHRec$[ebp+8], 1
	lea	ecx, DWORD PTR $T97475[ebp]
	call	??1?$pair@$$CBV?$basic_string@DU?$char_traits@D@std@@V?$allocator@D@2@@std@@H@std@@QAE@XZ

; 508  : 		}
; 509  : 		else

	jmp	SHORT $LN9@stl_map_ti
$LN10@stl_map_ti:

; 510  : 		{
; 511  : 			//std::cout << "null" << std::endl;
; 512  : 			break;

	jmp	SHORT $LN11@stl_map_ti
$LN9@stl_map_ti:

; 513  : 		}
; 514  : 		array_iterator1.increment();

	lea	ecx, DWORD PTR _array_iterator1$[ebp]
	call	?increment@?$pecker_array_iterator@V?$pecker_array@V?$basic_string@DU?$char_traits@D@std@@V?$allocator@D@2@@std@@V?$pecker_simple_allocator@V?$basic_string@DU?$char_traits@D@std@@V?$allocator@D@2@@std@@@pecker_sdk@@@pecker_sdk@@@pecker_sdk@@UAEJXZ ; pecker_sdk::pecker_array_iterator<pecker_sdk::pecker_array<std::basic_string<char,std::char_traits<char>,std::allocator<char> >,pecker_sdk::pecker_simple_allocator<std::basic_string<char,std::char_traits<char>,std::allocator<char> > > > >::increment

; 515  : 	}

	jmp	$LN12@stl_map_ti
$LN11@stl_map_ti:

; 516  : 	QueryPerformanceCounter(&litmp);

	mov	esi, esp
	lea	eax, DWORD PTR _litmp$[ebp]
	push	eax
	call	DWORD PTR __imp__QueryPerformanceCounter@4
	cmp	esi, esp
	call	__RTC_CheckEsp

; 517  : 	QPartStopTick = litmp.QuadPart;   //

	mov	eax, DWORD PTR _litmp$[ebp]
	mov	DWORD PTR _QPartStopTick$[ebp], eax
	mov	ecx, DWORD PTR _litmp$[ebp+4]
	mov	DWORD PTR _QPartStopTick$[ebp+4], ecx

; 518  : 	dfMinus = (double)(QPartStopTick-QPartStartTick);

	mov	eax, DWORD PTR _QPartStopTick$[ebp]
	sub	eax, DWORD PTR _QPartStartTick$[ebp]
	mov	ecx, DWORD PTR _QPartStopTick$[ebp+4]
	sbb	ecx, DWORD PTR _QPartStartTick$[ebp+4]
	mov	DWORD PTR tv244[ebp], eax
	mov	DWORD PTR tv244[ebp+4], ecx
	fild	QWORD PTR tv244[ebp]
	fstp	QWORD PTR _dfMinus$[ebp]

; 519  : 	dfEscapeTime = dfMinus / dfFreq;    // 

	fld	QWORD PTR _dfMinus$[ebp]
	fdiv	QWORD PTR _dfFreq$[ebp]
	fstp	QWORD PTR _dfEscapeTime$[ebp]

; 520  : 	std::cout << "stl map insert "<< dfEscapeTime << std::endl;

	mov	esi, esp
	mov	eax, DWORD PTR __imp_?endl@std@@YAAAV?$basic_ostream@DU?$char_traits@D@std@@@1@AAV21@@Z
	push	eax
	mov	edi, esp
	sub	esp, 8
	fld	QWORD PTR _dfEscapeTime$[ebp]
	fstp	QWORD PTR [esp]
	push	OFFSET ??_C@_0BA@OAIAPNBJ@stl?5map?5insert?5?$AA@
	mov	ecx, DWORD PTR __imp_?cout@std@@3V?$basic_ostream@DU?$char_traits@D@std@@@1@A
	push	ecx
	call	??$?6U?$char_traits@D@std@@@std@@YAAAV?$basic_ostream@DU?$char_traits@D@std@@@0@AAV10@PBD@Z ; std::operator<<<std::char_traits<char> >
	add	esp, 8
	mov	ecx, eax
	call	DWORD PTR __imp_??6?$basic_ostream@DU?$char_traits@D@std@@@std@@QAEAAV01@N@Z
	cmp	edi, esp
	call	__RTC_CheckEsp
	mov	ecx, eax
	call	DWORD PTR __imp_??6?$basic_ostream@DU?$char_traits@D@std@@@std@@QAEAAV01@P6AAAV01@AAV01@@Z@Z
	cmp	esi, esp
	call	__RTC_CheckEsp

; 521  : 
; 522  : 	array_iterator1.init(ITERATOR_INIT_BEGIN_INDEX);

	push	0
	lea	ecx, DWORD PTR _array_iterator1$[ebp]
	call	?init@?$pecker_array_iterator@V?$pecker_array@V?$basic_string@DU?$char_traits@D@std@@V?$allocator@D@2@@std@@V?$pecker_simple_allocator@V?$basic_string@DU?$char_traits@D@std@@V?$allocator@D@2@@std@@@pecker_sdk@@@pecker_sdk@@@pecker_sdk@@UAEJW4enumLINEAR_INTERATOR_INIT_TYPE@@@Z ; pecker_sdk::pecker_array_iterator<pecker_sdk::pecker_array<std::basic_string<char,std::char_traits<char>,std::allocator<char> >,pecker_sdk::pecker_simple_allocator<std::basic_string<char,std::char_traits<char>,std::allocator<char> > > > >::init

; 523  : 
; 524  : 
; 525  : 	QueryPerformanceCounter(&litmp);

	mov	esi, esp
	lea	eax, DWORD PTR _litmp$[ebp]
	push	eax
	call	DWORD PTR __imp__QueryPerformanceCounter@4
	cmp	esi, esp
	call	__RTC_CheckEsp

; 526  : 	QPartStartTick = litmp.QuadPart;

	mov	eax, DWORD PTR _litmp$[ebp]
	mov	DWORD PTR _QPartStartTick$[ebp], eax
	mov	ecx, DWORD PTR _litmp$[ebp+4]
	mov	DWORD PTR _QPartStartTick$[ebp+4], ecx
$LN8@stl_map_ti:

; 527  : 	while (1)

	mov	eax, 1
	test	eax, eax
	je	SHORT $LN7@stl_map_ti

; 528  : 	{
; 529  : 		const std::string* pvalue = array.get_at(&array_iterator1);

	lea	eax, DWORD PTR _array_iterator1$[ebp]
	push	eax
	mov	ecx, DWORD PTR _array$[ebp]
	call	?get_at@?$pecker_array@V?$basic_string@DU?$char_traits@D@std@@V?$allocator@D@2@@std@@V?$pecker_simple_allocator@V?$basic_string@DU?$char_traits@D@std@@V?$allocator@D@2@@std@@@pecker_sdk@@@pecker_sdk@@QBEPBV?$basic_string@DU?$char_traits@D@std@@V?$allocator@D@2@@std@@PBV?$pecker_array_iterator@V?$pecker_array@V?$basic_string@DU?$char_traits@D@std@@V?$allocator@D@2@@std@@V?$pecker_simple_allocator@V?$basic_string@DU?$char_traits@D@std@@V?$allocator@D@2@@std@@@pecker_sdk@@@pecker_sdk@@@2@@Z ; pecker_sdk::pecker_array<std::basic_string<char,std::char_traits<char>,std::allocator<char> >,pecker_sdk::pecker_simple_allocator<std::basic_string<char,std::char_traits<char>,std::allocator<char> > > >::get_at
	mov	DWORD PTR _pvalue$97793[ebp], eax

; 530  : 		if (pvalue)

	cmp	DWORD PTR _pvalue$97793[ebp], 0
	je	SHORT $LN6@stl_map_ti

; 531  : 		{
; 532  : 			//std::cout << *pvalue << ",";
; 533  : 			stl_string_map.find(*pvalue);

	mov	eax, DWORD PTR _pvalue$97793[ebp]
	push	eax
	lea	ecx, DWORD PTR $T108203[ebp]
	push	ecx
	lea	ecx, DWORD PTR _stl_string_map$[ebp]
	call	?find@?$_Tree@V?$_Tmap_traits@V?$basic_string@DU?$char_traits@D@std@@V?$allocator@D@2@@std@@HU?$less@V?$basic_string@DU?$char_traits@D@std@@V?$allocator@D@2@@std@@@2@V?$allocator@U?$pair@$$CBV?$basic_string@DU?$char_traits@D@std@@V?$allocator@D@2@@std@@H@std@@@2@$0A@@std@@@std@@QAE?AV?$_Tree_iterator@V?$_Tree_val@V?$_Tmap_traits@V?$basic_string@DU?$char_traits@D@std@@V?$allocator@D@2@@std@@HU?$less@V?$basic_string@DU?$char_traits@D@std@@V?$allocator@D@2@@std@@@2@V?$allocator@U?$pair@$$CBV?$basic_string@DU?$char_traits@D@std@@V?$allocator@D@2@@std@@H@std@@@2@$0A@@std@@@std@@@2@ABV?$basic_string@DU?$char_traits@D@std@@V?$allocator@D@2@@2@@Z ; std::_Tree<std::_Tmap_traits<std::basic_string<char,std::char_traits<char>,std::allocator<char> >,int,std::less<std::basic_string<char,std::char_traits<char>,std::allocator<char> > >,std::allocator<std::pair<std::basic_string<char,std::char_traits<char>,std::allocator<char> > const ,int> >,0> >::find
	lea	ecx, DWORD PTR $T108203[ebp]
	call	??1?$_Tree_iterator@V?$_Tree_val@V?$_Tmap_traits@V?$basic_string@DU?$char_traits@D@std@@V?$allocator@D@2@@std@@HU?$less@V?$basic_string@DU?$char_traits@D@std@@V?$allocator@D@2@@std@@@2@V?$allocator@U?$pair@$$CBV?$basic_string@DU?$char_traits@D@std@@V?$allocator@D@2@@std@@H@std@@@2@$0A@@std@@@std@@@std@@QAE@XZ

; 534  : 		}
; 535  : 		else

	jmp	SHORT $LN5@stl_map_ti
$LN6@stl_map_ti:

; 536  : 		{
; 537  : 			//std::cout << "null" << std::endl;
; 538  : 			break;

	jmp	SHORT $LN7@stl_map_ti
$LN5@stl_map_ti:

; 539  : 		}
; 540  : 		array_iterator1.increment();

	lea	ecx, DWORD PTR _array_iterator1$[ebp]
	call	?increment@?$pecker_array_iterator@V?$pecker_array@V?$basic_string@DU?$char_traits@D@std@@V?$allocator@D@2@@std@@V?$pecker_simple_allocator@V?$basic_string@DU?$char_traits@D@std@@V?$allocator@D@2@@std@@@pecker_sdk@@@pecker_sdk@@@pecker_sdk@@UAEJXZ ; pecker_sdk::pecker_array_iterator<pecker_sdk::pecker_array<std::basic_string<char,std::char_traits<char>,std::allocator<char> >,pecker_sdk::pecker_simple_allocator<std::basic_string<char,std::char_traits<char>,std::allocator<char> > > > >::increment

; 541  : 	}

	jmp	SHORT $LN8@stl_map_ti
$LN7@stl_map_ti:

; 542  : 	QueryPerformanceCounter(&litmp);

	mov	esi, esp
	lea	eax, DWORD PTR _litmp$[ebp]
	push	eax
	call	DWORD PTR __imp__QueryPerformanceCounter@4
	cmp	esi, esp
	call	__RTC_CheckEsp

; 543  : 	QPartStopTick = litmp.QuadPart;   //

	mov	eax, DWORD PTR _litmp$[ebp]
	mov	DWORD PTR _QPartStopTick$[ebp], eax
	mov	ecx, DWORD PTR _litmp$[ebp+4]
	mov	DWORD PTR _QPartStopTick$[ebp+4], ecx

; 544  : 	dfMinus = (double)(QPartStopTick-QPartStartTick);

	mov	eax, DWORD PTR _QPartStopTick$[ebp]
	sub	eax, DWORD PTR _QPartStartTick$[ebp]
	mov	ecx, DWORD PTR _QPartStopTick$[ebp+4]
	sbb	ecx, DWORD PTR _QPartStartTick$[ebp+4]
	mov	DWORD PTR tv278[ebp], eax
	mov	DWORD PTR tv278[ebp+4], ecx
	fild	QWORD PTR tv278[ebp]
	fstp	QWORD PTR _dfMinus$[ebp]

; 545  : 	dfEscapeTime = dfMinus / dfFreq;    // 

	fld	QWORD PTR _dfMinus$[ebp]
	fdiv	QWORD PTR _dfFreq$[ebp]
	fstp	QWORD PTR _dfEscapeTime$[ebp]

; 546  : 	std::cout << "stl map find "<< dfEscapeTime << std::endl;

	mov	esi, esp
	mov	eax, DWORD PTR __imp_?endl@std@@YAAAV?$basic_ostream@DU?$char_traits@D@std@@@1@AAV21@@Z
	push	eax
	mov	edi, esp
	sub	esp, 8
	fld	QWORD PTR _dfEscapeTime$[ebp]
	fstp	QWORD PTR [esp]
	push	OFFSET ??_C@_0O@COADCENE@stl?5map?5find?5?$AA@
	mov	ecx, DWORD PTR __imp_?cout@std@@3V?$basic_ostream@DU?$char_traits@D@std@@@1@A
	push	ecx
	call	??$?6U?$char_traits@D@std@@@std@@YAAAV?$basic_ostream@DU?$char_traits@D@std@@@0@AAV10@PBD@Z ; std::operator<<<std::char_traits<char> >
	add	esp, 8
	mov	ecx, eax
	call	DWORD PTR __imp_??6?$basic_ostream@DU?$char_traits@D@std@@@std@@QAEAAV01@N@Z
	cmp	edi, esp
	call	__RTC_CheckEsp
	mov	ecx, eax
	call	DWORD PTR __imp_??6?$basic_ostream@DU?$char_traits@D@std@@@std@@QAEAAV01@P6AAAV01@AAV01@@Z@Z
	cmp	esi, esp
	call	__RTC_CheckEsp

; 547  : 
; 548  : 	array_iterator1.init(ITERATOR_INIT_BEGIN_INDEX);

	push	0
	lea	ecx, DWORD PTR _array_iterator1$[ebp]
	call	?init@?$pecker_array_iterator@V?$pecker_array@V?$basic_string@DU?$char_traits@D@std@@V?$allocator@D@2@@std@@V?$pecker_simple_allocator@V?$basic_string@DU?$char_traits@D@std@@V?$allocator@D@2@@std@@@pecker_sdk@@@pecker_sdk@@@pecker_sdk@@UAEJW4enumLINEAR_INTERATOR_INIT_TYPE@@@Z ; pecker_sdk::pecker_array_iterator<pecker_sdk::pecker_array<std::basic_string<char,std::char_traits<char>,std::allocator<char> >,pecker_sdk::pecker_simple_allocator<std::basic_string<char,std::char_traits<char>,std::allocator<char> > > > >::init

; 549  : 
; 550  : 	QueryPerformanceCounter(&litmp);

	mov	esi, esp
	lea	eax, DWORD PTR _litmp$[ebp]
	push	eax
	call	DWORD PTR __imp__QueryPerformanceCounter@4
	cmp	esi, esp
	call	__RTC_CheckEsp

; 551  : 	QPartStartTick = litmp.QuadPart;

	mov	eax, DWORD PTR _litmp$[ebp]
	mov	DWORD PTR _QPartStartTick$[ebp], eax
	mov	ecx, DWORD PTR _litmp$[ebp+4]
	mov	DWORD PTR _QPartStartTick$[ebp+4], ecx
$LN4@stl_map_ti:

; 552  : 	while (1)

	mov	eax, 1
	test	eax, eax
	je	SHORT $LN3@stl_map_ti

; 553  : 	{
; 554  : 		const std::string* pvalue = array.get_at(&array_iterator1);

	lea	eax, DWORD PTR _array_iterator1$[ebp]
	push	eax
	mov	ecx, DWORD PTR _array$[ebp]
	call	?get_at@?$pecker_array@V?$basic_string@DU?$char_traits@D@std@@V?$allocator@D@2@@std@@V?$pecker_simple_allocator@V?$basic_string@DU?$char_traits@D@std@@V?$allocator@D@2@@std@@@pecker_sdk@@@pecker_sdk@@QBEPBV?$basic_string@DU?$char_traits@D@std@@V?$allocator@D@2@@std@@PBV?$pecker_array_iterator@V?$pecker_array@V?$basic_string@DU?$char_traits@D@std@@V?$allocator@D@2@@std@@V?$pecker_simple_allocator@V?$basic_string@DU?$char_traits@D@std@@V?$allocator@D@2@@std@@@pecker_sdk@@@pecker_sdk@@@2@@Z ; pecker_sdk::pecker_array<std::basic_string<char,std::char_traits<char>,std::allocator<char> >,pecker_sdk::pecker_simple_allocator<std::basic_string<char,std::char_traits<char>,std::allocator<char> > > >::get_at
	mov	DWORD PTR _pvalue$97806[ebp], eax

; 555  : 		if (pvalue)

	cmp	DWORD PTR _pvalue$97806[ebp], 0
	je	SHORT $LN2@stl_map_ti

; 556  : 		{
; 557  : 			//std::cout << *pvalue << ",";
; 558  : 			stl_string_map.erase(*pvalue);

	mov	eax, DWORD PTR _pvalue$97806[ebp]
	push	eax
	lea	ecx, DWORD PTR _stl_string_map$[ebp]
	call	?erase@?$_Tree@V?$_Tmap_traits@V?$basic_string@DU?$char_traits@D@std@@V?$allocator@D@2@@std@@HU?$less@V?$basic_string@DU?$char_traits@D@std@@V?$allocator@D@2@@std@@@2@V?$allocator@U?$pair@$$CBV?$basic_string@DU?$char_traits@D@std@@V?$allocator@D@2@@std@@H@std@@@2@$0A@@std@@@std@@QAEIABV?$basic_string@DU?$char_traits@D@std@@V?$allocator@D@2@@2@@Z ; std::_Tree<std::_Tmap_traits<std::basic_string<char,std::char_traits<char>,std::allocator<char> >,int,std::less<std::basic_string<char,std::char_traits<char>,std::allocator<char> > >,std::allocator<std::pair<std::basic_string<char,std::char_traits<char>,std::allocator<char> > const ,int> >,0> >::erase

; 559  : 		}
; 560  : 		else

	jmp	SHORT $LN1@stl_map_ti
$LN2@stl_map_ti:

; 561  : 		{
; 562  : 			//std::cout << "null" << std::endl;
; 563  : 			break;

	jmp	SHORT $LN3@stl_map_ti
$LN1@stl_map_ti:

; 564  : 		}
; 565  : 		array_iterator1.increment();

	lea	ecx, DWORD PTR _array_iterator1$[ebp]
	call	?increment@?$pecker_array_iterator@V?$pecker_array@V?$basic_string@DU?$char_traits@D@std@@V?$allocator@D@2@@std@@V?$pecker_simple_allocator@V?$basic_string@DU?$char_traits@D@std@@V?$allocator@D@2@@std@@@pecker_sdk@@@pecker_sdk@@@pecker_sdk@@UAEJXZ ; pecker_sdk::pecker_array_iterator<pecker_sdk::pecker_array<std::basic_string<char,std::char_traits<char>,std::allocator<char> >,pecker_sdk::pecker_simple_allocator<std::basic_string<char,std::char_traits<char>,std::allocator<char> > > > >::increment

; 566  : 	}

	jmp	SHORT $LN4@stl_map_ti
$LN3@stl_map_ti:

; 567  : 	QueryPerformanceCounter(&litmp);

	mov	esi, esp
	lea	eax, DWORD PTR _litmp$[ebp]
	push	eax
	call	DWORD PTR __imp__QueryPerformanceCounter@4
	cmp	esi, esp
	call	__RTC_CheckEsp

; 568  : 	QPartStopTick = litmp.QuadPart;   //

	mov	eax, DWORD PTR _litmp$[ebp]
	mov	DWORD PTR _QPartStopTick$[ebp], eax
	mov	ecx, DWORD PTR _litmp$[ebp+4]
	mov	DWORD PTR _QPartStopTick$[ebp+4], ecx

; 569  : 	dfMinus = (double)(QPartStopTick-QPartStartTick);

	mov	eax, DWORD PTR _QPartStopTick$[ebp]
	sub	eax, DWORD PTR _QPartStartTick$[ebp]
	mov	ecx, DWORD PTR _QPartStopTick$[ebp+4]
	sbb	ecx, DWORD PTR _QPartStartTick$[ebp+4]
	mov	DWORD PTR tv311[ebp], eax
	mov	DWORD PTR tv311[ebp+4], ecx
	fild	QWORD PTR tv311[ebp]
	fstp	QWORD PTR _dfMinus$[ebp]

; 570  : 	dfEscapeTime = dfMinus / dfFreq;    // 

	fld	QWORD PTR _dfMinus$[ebp]
	fdiv	QWORD PTR _dfFreq$[ebp]
	fstp	QWORD PTR _dfEscapeTime$[ebp]

; 571  : 	std::cout << "stl map erase "<< dfEscapeTime << std::endl;

	mov	esi, esp
	mov	eax, DWORD PTR __imp_?endl@std@@YAAAV?$basic_ostream@DU?$char_traits@D@std@@@1@AAV21@@Z
	push	eax
	mov	edi, esp
	sub	esp, 8
	fld	QWORD PTR _dfEscapeTime$[ebp]
	fstp	QWORD PTR [esp]
	push	OFFSET ??_C@_0P@HFCCGOFC@stl?5map?5erase?5?$AA@
	mov	ecx, DWORD PTR __imp_?cout@std@@3V?$basic_ostream@DU?$char_traits@D@std@@@1@A
	push	ecx
	call	??$?6U?$char_traits@D@std@@@std@@YAAAV?$basic_ostream@DU?$char_traits@D@std@@@0@AAV10@PBD@Z ; std::operator<<<std::char_traits<char> >
	add	esp, 8
	mov	ecx, eax
	call	DWORD PTR __imp_??6?$basic_ostream@DU?$char_traits@D@std@@@std@@QAEAAV01@N@Z
	cmp	edi, esp
	call	__RTC_CheckEsp
	mov	ecx, eax
	call	DWORD PTR __imp_??6?$basic_ostream@DU?$char_traits@D@std@@@std@@QAEAAV01@P6AAAV01@AAV01@@Z@Z
	cmp	esi, esp
	call	__RTC_CheckEsp

; 572  : 	return 0;

	mov	DWORD PTR $T108204[ebp], 0
	mov	BYTE PTR __$EHRec$[ebp+8], 0
	lea	ecx, DWORD PTR _stl_string_map$[ebp]
	call	??1?$map@V?$basic_string@DU?$char_traits@D@std@@V?$allocator@D@2@@std@@HU?$less@V?$basic_string@DU?$char_traits@D@std@@V?$allocator@D@2@@std@@@2@V?$allocator@U?$pair@$$CBV?$basic_string@DU?$char_traits@D@std@@V?$allocator@D@2@@std@@H@std@@@2@@std@@QAE@XZ
	mov	DWORD PTR __$EHRec$[ebp+8], -1
	lea	ecx, DWORD PTR _array_iterator1$[ebp]
	call	??1?$pecker_array_iterator@V?$pecker_array@V?$basic_string@DU?$char_traits@D@std@@V?$allocator@D@2@@std@@V?$pecker_simple_allocator@V?$basic_string@DU?$char_traits@D@std@@V?$allocator@D@2@@std@@@pecker_sdk@@@pecker_sdk@@@pecker_sdk@@UAE@XZ ; pecker_sdk::pecker_array_iterator<pecker_sdk::pecker_array<std::basic_string<char,std::char_traits<char>,std::allocator<char> >,pecker_sdk::pecker_simple_allocator<std::basic_string<char,std::char_traits<char>,std::allocator<char> > > > >::~pecker_array_iterator<pecker_sdk::pecker_array<std::basic_string<char,std::char_traits<char>,std::allocator<char> >,pecker_sdk::pecker_simple_allocator<std::basic_string<char,std::char_traits<char>,std::allocator<char> > > > >
	mov	eax, DWORD PTR $T108204[ebp]

; 573  : }

	push	edx
	mov	ecx, ebp
	push	eax
	lea	edx, DWORD PTR $LN26@stl_map_ti
	call	@_RTC_CheckStackVars@8
	pop	eax
	pop	edx
	mov	ecx, DWORD PTR __$EHRec$[ebp]
	mov	DWORD PTR fs:0, ecx
	pop	ecx
	pop	edi
	pop	esi
	pop	ebx
	mov	ecx, DWORD PTR __$ArrayPad$[ebp]
	xor	ecx, ebp
	call	@__security_check_cookie@4
	add	esp, 508				; 000001fcH
	cmp	ebp, esp
	call	__RTC_CheckEsp
	mov	esp, ebp
	pop	ebp
	ret	0
	npad	1
$LN26@stl_map_ti:
	DD	4
	DD	$LN25@stl_map_ti
$LN25@stl_map_ti:
	DD	-32					; ffffffe0H
	DD	12					; 0000000cH
	DD	$LN20@stl_map_ti
	DD	-60					; ffffffc4H
	DD	20					; 00000014H
	DD	$LN21@stl_map_ti
	DD	-76					; ffffffb4H
	DD	8
	DD	$LN22@stl_map_ti
	DD	-168					; ffffff58H
	DD	4
	DD	$LN23@stl_map_ti
$LN23@stl_map_ti:
	DB	105					; 00000069H
	DB	99					; 00000063H
	DB	111					; 0000006fH
	DB	117					; 00000075H
	DB	110					; 0000006eH
	DB	116					; 00000074H
	DB	0
$LN22@stl_map_ti:
	DB	108					; 0000006cH
	DB	105					; 00000069H
	DB	116					; 00000074H
	DB	109					; 0000006dH
	DB	112					; 00000070H
	DB	0
$LN21@stl_map_ti:
	DB	115					; 00000073H
	DB	116					; 00000074H
	DB	108					; 0000006cH
	DB	95					; 0000005fH
	DB	115					; 00000073H
	DB	116					; 00000074H
	DB	114					; 00000072H
	DB	105					; 00000069H
	DB	110					; 0000006eH
	DB	103					; 00000067H
	DB	95					; 0000005fH
	DB	109					; 0000006dH
	DB	97					; 00000061H
	DB	112					; 00000070H
	DB	0
$LN20@stl_map_ti:
	DB	97					; 00000061H
	DB	114					; 00000072H
	DB	114					; 00000072H
	DB	97					; 00000061H
	DB	121					; 00000079H
	DB	95					; 0000005fH
	DB	105					; 00000069H
	DB	116					; 00000074H
	DB	101					; 00000065H
	DB	114					; 00000072H
	DB	97					; 00000061H
	DB	116					; 00000074H
	DB	111					; 0000006fH
	DB	114					; 00000072H
	DB	49					; 00000031H
	DB	0
_TEXT	ENDS
;	COMDAT text$x
text$x	SEGMENT
__unwindfunclet$?stl_map_time@@YAHAAV?$pecker_array@V?$basic_string@DU?$char_traits@D@std@@V?$allocator@D@2@@std@@V?$pecker_simple_allocator@V?$basic_string@DU?$char_traits@D@std@@V?$allocator@D@2@@std@@@pecker_sdk@@@pecker_sdk@@@Z$0:
	lea	ecx, DWORD PTR _array_iterator1$[ebp]
	jmp	??1?$pecker_array_iterator@V?$pecker_array@V?$basic_string@DU?$char_traits@D@std@@V?$allocator@D@2@@std@@V?$pecker_simple_allocator@V?$basic_string@DU?$char_traits@D@std@@V?$allocator@D@2@@std@@@pecker_sdk@@@pecker_sdk@@@pecker_sdk@@UAE@XZ ; pecker_sdk::pecker_array_iterator<pecker_sdk::pecker_array<std::basic_string<char,std::char_traits<char>,std::allocator<char> >,pecker_sdk::pecker_simple_allocator<std::basic_string<char,std::char_traits<char>,std::allocator<char> > > > >::~pecker_array_iterator<pecker_sdk::pecker_array<std::basic_string<char,std::char_traits<char>,std::allocator<char> >,pecker_sdk::pecker_simple_allocator<std::basic_string<char,std::char_traits<char>,std::allocator<char> > > > >
__unwindfunclet$?stl_map_time@@YAHAAV?$pecker_array@V?$basic_string@DU?$char_traits@D@std@@V?$allocator@D@2@@std@@V?$pecker_simple_allocator@V?$basic_string@DU?$char_traits@D@std@@V?$allocator@D@2@@std@@@pecker_sdk@@@pecker_sdk@@@Z$1:
	lea	ecx, DWORD PTR _stl_string_map$[ebp]
	jmp	??1?$map@V?$basic_string@DU?$char_traits@D@std@@V?$allocator@D@2@@std@@HU?$less@V?$basic_string@DU?$char_traits@D@std@@V?$allocator@D@2@@std@@@2@V?$allocator@U?$pair@$$CBV?$basic_string@DU?$char_traits@D@std@@V?$allocator@D@2@@std@@H@std@@@2@@std@@QAE@XZ
__unwindfunclet$?stl_map_time@@YAHAAV?$pecker_array@V?$basic_string@DU?$char_traits@D@std@@V?$allocator@D@2@@std@@V?$pecker_simple_allocator@V?$basic_string@DU?$char_traits@D@std@@V?$allocator@D@2@@std@@@pecker_sdk@@@pecker_sdk@@@Z$2:
	lea	ecx, DWORD PTR $T97475[ebp]
	jmp	??1?$pair@$$CBV?$basic_string@DU?$char_traits@D@std@@V?$allocator@D@2@@std@@H@std@@QAE@XZ
