; Listing generated by Microsoft (R) Optimizing Compiler Version 16.00.40219.01 

	TITLE	F:\codes\pecker_framework_git\pecker_src\pecker_framework\bst_iterator_test.cpp
	.686P
	.XMM
	include listing.inc
	.model	flat

INCLUDELIB MSVCRTD
INCLUDELIB OLDNAMES

PUBLIC	??_C@_0M@KCDMBJCC@null?5string?$AA@		; `string'
PUBLIC	?get_data@?$pecker_share_string_base_t@DU?$pecker_value_compare@D@pecker_sdk@@V?$pecker_simple_allocator@D@2@$0BA@@pecker_sdk@@QBEPBDXZ ; pecker_sdk::pecker_share_string_base_t<char,pecker_sdk::pecker_value_compare<char>,pecker_sdk::pecker_simple_allocator<char>,16>::get_data
PUBLIC	??_C@_08MMDHJMFI@?$CF?$CF?$CFd?4?$CFds?$AA@	; `string'
PUBLIC	?get_string_length@?$pecker_share_string_base_t@DU?$pecker_value_compare@D@pecker_sdk@@V?$pecker_simple_allocator@D@2@$0BA@@pecker_sdk@@QBEHXZ ; pecker_sdk::pecker_share_string_base_t<char,pecker_sdk::pecker_value_compare<char>,pecker_sdk::pecker_simple_allocator<char>,16>::get_string_length
PUBLIC	?print_pecker_string@@YAXABV?$pecker_share_string_base_t@DU?$pecker_value_compare@D@pecker_sdk@@V?$pecker_simple_allocator@D@2@$0BA@@pecker_sdk@@@Z ; print_pecker_string
EXTRN	__imp__printf:PROC
EXTRN	__imp__sprintf:PROC
EXTRN	__RTC_CheckEsp:PROC
EXTRN	__RTC_Shutdown:PROC
EXTRN	__RTC_InitBase:PROC
_BSS	SEGMENT
?logifo@?4??print_pecker_string@@YAXABV?$pecker_share_string_base_t@DU?$pecker_value_compare@D@pecker_sdk@@V?$pecker_simple_allocator@D@2@$0BA@@pecker_sdk@@@Z@4PADA DB 032H DUP (?) ; `print_pecker_string'::`5'::logifo
_BSS	ENDS
;	COMDAT ??_C@_0M@KCDMBJCC@null?5string?$AA@
; File f:\codes\pecker_framework_git\pecker_src\pecker_framework\bst_iterator_test.cpp
CONST	SEGMENT
??_C@_0M@KCDMBJCC@null?5string?$AA@ DB 'null string', 00H ; `string'
CONST	ENDS
;	COMDAT ??_C@_08MMDHJMFI@?$CF?$CF?$CFd?4?$CFds?$AA@
CONST	SEGMENT
??_C@_08MMDHJMFI@?$CF?$CF?$CFd?4?$CFds?$AA@ DB '%%%d.%ds', 00H ; `string'
CONST	ENDS
;	COMDAT rtc$TMZ
rtc$TMZ	SEGMENT
__RTC_Shutdown.rtc$TMZ DD FLAT:__RTC_Shutdown
rtc$TMZ	ENDS
;	COMDAT rtc$IMZ
rtc$IMZ	SEGMENT
__RTC_InitBase.rtc$IMZ DD FLAT:__RTC_InitBase
; Function compile flags: /Odtp /RTCsu /ZI
rtc$IMZ	ENDS
;	COMDAT ?print_pecker_string@@YAXABV?$pecker_share_string_base_t@DU?$pecker_value_compare@D@pecker_sdk@@V?$pecker_simple_allocator@D@2@$0BA@@pecker_sdk@@@Z
_TEXT	SEGMENT
_string_$ = 8						; size = 4
?print_pecker_string@@YAXABV?$pecker_share_string_base_t@DU?$pecker_value_compare@D@pecker_sdk@@V?$pecker_simple_allocator@D@2@$0BA@@pecker_sdk@@@Z PROC ; print_pecker_string, COMDAT

; 24   : {

	push	ebp
	mov	ebp, esp
	sub	esp, 192				; 000000c0H
	push	ebx
	push	esi
	push	edi
	lea	edi, DWORD PTR [ebp-192]
	mov	ecx, 48					; 00000030H
	mov	eax, -858993460				; ccccccccH
	rep stosd

; 25   : 	if (string_.get_string_length() > 0)

	mov	ecx, DWORD PTR _string_$[ebp]
	call	?get_string_length@?$pecker_share_string_base_t@DU?$pecker_value_compare@D@pecker_sdk@@V?$pecker_simple_allocator@D@2@$0BA@@pecker_sdk@@QBEHXZ ; pecker_sdk::pecker_share_string_base_t<char,pecker_sdk::pecker_value_compare<char>,pecker_sdk::pecker_simple_allocator<char>,16>::get_string_length
	test	eax, eax
	jle	SHORT $LN2@print_peck

; 26   : 	{
; 27   : 		//if (0 == string_.compare("direct",6))
; 28   : 		//{
; 29   : 		//	int i=0;
; 30   : 		//	i=i;
; 31   : 		//}
; 32   : 		static char logifo[50];
; 33   : 		sprintf(logifo,"%%%d.%ds",string_.get_string_length(),string_.get_string_length());

	mov	ecx, DWORD PTR _string_$[ebp]
	call	?get_string_length@?$pecker_share_string_base_t@DU?$pecker_value_compare@D@pecker_sdk@@V?$pecker_simple_allocator@D@2@$0BA@@pecker_sdk@@QBEHXZ ; pecker_sdk::pecker_share_string_base_t<char,pecker_sdk::pecker_value_compare<char>,pecker_sdk::pecker_simple_allocator<char>,16>::get_string_length
	mov	esi, esp
	push	eax
	mov	ecx, DWORD PTR _string_$[ebp]
	call	?get_string_length@?$pecker_share_string_base_t@DU?$pecker_value_compare@D@pecker_sdk@@V?$pecker_simple_allocator@D@2@$0BA@@pecker_sdk@@QBEHXZ ; pecker_sdk::pecker_share_string_base_t<char,pecker_sdk::pecker_value_compare<char>,pecker_sdk::pecker_simple_allocator<char>,16>::get_string_length
	push	eax
	push	OFFSET ??_C@_08MMDHJMFI@?$CF?$CF?$CFd?4?$CFds?$AA@
	push	OFFSET ?logifo@?4??print_pecker_string@@YAXABV?$pecker_share_string_base_t@DU?$pecker_value_compare@D@pecker_sdk@@V?$pecker_simple_allocator@D@2@$0BA@@pecker_sdk@@@Z@4PADA
	call	DWORD PTR __imp__sprintf
	add	esp, 16					; 00000010H
	cmp	esi, esp
	call	__RTC_CheckEsp

; 34   : 		PECKER_LOG_(logifo,string_.get_data());

	mov	ecx, DWORD PTR _string_$[ebp]
	call	?get_data@?$pecker_share_string_base_t@DU?$pecker_value_compare@D@pecker_sdk@@V?$pecker_simple_allocator@D@2@$0BA@@pecker_sdk@@QBEPBDXZ ; pecker_sdk::pecker_share_string_base_t<char,pecker_sdk::pecker_value_compare<char>,pecker_sdk::pecker_simple_allocator<char>,16>::get_data
	mov	esi, esp
	push	eax
	push	OFFSET ?logifo@?4??print_pecker_string@@YAXABV?$pecker_share_string_base_t@DU?$pecker_value_compare@D@pecker_sdk@@V?$pecker_simple_allocator@D@2@$0BA@@pecker_sdk@@@Z@4PADA
	call	DWORD PTR __imp__printf
	add	esp, 8
	cmp	esi, esp
	call	__RTC_CheckEsp

; 35   : 	}
; 36   : 	else

	jmp	SHORT $LN3@print_peck
$LN2@print_peck:

; 37   : 	{
; 38   : 		PECKER_LOG_("null string",0);

	mov	esi, esp
	push	0
	push	OFFSET ??_C@_0M@KCDMBJCC@null?5string?$AA@
	call	DWORD PTR __imp__printf
	add	esp, 8
	cmp	esi, esp
	call	__RTC_CheckEsp
$LN3@print_peck:

; 39   : 	}
; 40   : }

	pop	edi
	pop	esi
	pop	ebx
	add	esp, 192				; 000000c0H
	cmp	ebp, esp
	call	__RTC_CheckEsp
	mov	esp, ebp
	pop	ebp
	ret	0
?print_pecker_string@@YAXABV?$pecker_share_string_base_t@DU?$pecker_value_compare@D@pecker_sdk@@V?$pecker_simple_allocator@D@2@$0BA@@pecker_sdk@@@Z ENDP ; print_pecker_string
_TEXT	ENDS
PUBLIC	??1?$pecker_share_string_base_t@DU?$pecker_value_compare@D@pecker_sdk@@V?$pecker_simple_allocator@D@2@$0BA@@pecker_sdk@@QAE@XZ ; pecker_sdk::pecker_share_string_base_t<char,pecker_sdk::pecker_value_compare<char>,pecker_sdk::pecker_simple_allocator<char>,16>::~pecker_share_string_base_t<char,pecker_sdk::pecker_value_compare<char>,pecker_sdk::pecker_simple_allocator<char>,16>
PUBLIC	?push@?$pecker_array@V?$pecker_share_string_base_t@DU?$pecker_value_compare@D@pecker_sdk@@V?$pecker_simple_allocator@D@2@$0BA@@pecker_sdk@@V?$pecker_simple_allocator@V?$pecker_share_string_base_t@DU?$pecker_value_compare@D@pecker_sdk@@V?$pecker_simple_allocator@D@2@$0BA@@pecker_sdk@@@2@@pecker_sdk@@QAEJABV?$pecker_share_string_base_t@DU?$pecker_value_compare@D@pecker_sdk@@V?$pecker_simple_allocator@D@2@$0BA@@2@@Z ; pecker_sdk::pecker_array<pecker_sdk::pecker_share_string_base_t<char,pecker_sdk::pecker_value_compare<char>,pecker_sdk::pecker_simple_allocator<char>,16>,pecker_sdk::pecker_simple_allocator<pecker_sdk::pecker_share_string_base_t<char,pecker_sdk::pecker_value_compare<char>,pecker_sdk::pecker_simple_allocator<char>,16> > >::push
PUBLIC	?init@?$pecker_share_string_base_t@DU?$pecker_value_compare@D@pecker_sdk@@V?$pecker_simple_allocator@D@2@$0BA@@pecker_sdk@@QAEJPBDH_N@Z ; pecker_sdk::pecker_share_string_base_t<char,pecker_sdk::pecker_value_compare<char>,pecker_sdk::pecker_simple_allocator<char>,16>::init
PUBLIC	??0?$pecker_share_string_base_t@DU?$pecker_value_compare@D@pecker_sdk@@V?$pecker_simple_allocator@D@2@$0BA@@pecker_sdk@@QAE@XZ ; pecker_sdk::pecker_share_string_base_t<char,pecker_sdk::pecker_value_compare<char>,pecker_sdk::pecker_simple_allocator<char>,16>::pecker_share_string_base_t<char,pecker_sdk::pecker_value_compare<char>,pecker_sdk::pecker_simple_allocator<char>,16>
PUBLIC	??_C@_0BD@PHDOHNMM@inputaddsearch?4txt?$AA@	; `string'
PUBLIC	?init@?$pecker_array@V?$pecker_share_string_base_t@DU?$pecker_value_compare@D@pecker_sdk@@V?$pecker_simple_allocator@D@2@$0BA@@pecker_sdk@@V?$pecker_simple_allocator@V?$pecker_share_string_base_t@DU?$pecker_value_compare@D@pecker_sdk@@V?$pecker_simple_allocator@D@2@$0BA@@pecker_sdk@@@2@@pecker_sdk@@QAEJHH@Z ; pecker_sdk::pecker_array<pecker_sdk::pecker_share_string_base_t<char,pecker_sdk::pecker_value_compare<char>,pecker_sdk::pecker_simple_allocator<char>,16>,pecker_sdk::pecker_simple_allocator<pecker_sdk::pecker_share_string_base_t<char,pecker_sdk::pecker_value_compare<char>,pecker_sdk::pecker_simple_allocator<char>,16> > >::init
PUBLIC	?clear@?$pecker_array@V?$pecker_share_string_base_t@DU?$pecker_value_compare@D@pecker_sdk@@V?$pecker_simple_allocator@D@2@$0BA@@pecker_sdk@@V?$pecker_simple_allocator@V?$pecker_share_string_base_t@DU?$pecker_value_compare@D@pecker_sdk@@V?$pecker_simple_allocator@D@2@$0BA@@pecker_sdk@@@2@@pecker_sdk@@QAEJ_N@Z ; pecker_sdk::pecker_array<pecker_sdk::pecker_share_string_base_t<char,pecker_sdk::pecker_value_compare<char>,pecker_sdk::pecker_simple_allocator<char>,16>,pecker_sdk::pecker_simple_allocator<pecker_sdk::pecker_share_string_base_t<char,pecker_sdk::pecker_value_compare<char>,pecker_sdk::pecker_simple_allocator<char>,16> > >::clear
PUBLIC	__$ArrayPad$
PUBLIC	?init_input_data@@YAXAAV?$pecker_array@V?$pecker_share_string_base_t@DU?$pecker_value_compare@D@pecker_sdk@@V?$pecker_simple_allocator@D@2@$0BA@@pecker_sdk@@V?$pecker_simple_allocator@V?$pecker_share_string_base_t@DU?$pecker_value_compare@D@pecker_sdk@@V?$pecker_simple_allocator@D@2@$0BA@@pecker_sdk@@@2@@pecker_sdk@@@Z ; init_input_data
EXTRN	??1pecker_file_io_base@pecker_sdk@@UAE@XZ:PROC	; pecker_sdk::pecker_file_io_base::~pecker_file_io_base
EXTRN	??1pecker_read_stream_form_memery@pecker_sdk@@UAE@XZ:PROC ; pecker_sdk::pecker_read_stream_form_memery::~pecker_read_stream_form_memery
EXTRN	?read_chars@pecker_read_stream_form_memery@pecker_sdk@@UAEHPADH@Z:PROC ; pecker_sdk::pecker_read_stream_form_memery::read_chars
EXTRN	?bind_read_buffer@pecker_read_stream_form_memery@pecker_sdk@@QAEJPBDH@Z:PROC ; pecker_sdk::pecker_read_stream_form_memery::bind_read_buffer
EXTRN	?read_to_memery@pecker_file_io_base@pecker_sdk@@UAEAAU_st_stringchars@2@AAU32@IJ@Z:PROC ; pecker_sdk::pecker_file_io_base::read_to_memery
EXTRN	??_U@YAPAXI@Z:PROC				; operator new[]
EXTRN	?get_file_size@pecker_file_io_base@pecker_sdk@@UAEHXZ:PROC ; pecker_sdk::pecker_file_io_base::get_file_size
EXTRN	??0pecker_read_stream_form_memery@pecker_sdk@@QAE@XZ:PROC ; pecker_sdk::pecker_read_stream_form_memery::pecker_read_stream_form_memery
EXTRN	?open@pecker_file_io_base@pecker_sdk@@UAEJPBDHJ@Z:PROC ; pecker_sdk::pecker_file_io_base::open
EXTRN	_strlen:PROC
EXTRN	??0pecker_file_io_base@pecker_sdk@@QAE@XZ:PROC	; pecker_sdk::pecker_file_io_base::pecker_file_io_base
EXTRN	___security_cookie:DWORD
EXTRN	___CxxFrameHandler3:PROC
EXTRN	@__security_check_cookie@4:PROC
EXTRN	@_RTC_CheckStackVars@8:PROC
_BSS	SEGMENT
	ALIGN	4

?string_buff@?4??init_input_data@@YAXAAV?$pecker_array@V?$pecker_share_string_base_t@DU?$pecker_value_compare@D@pecker_sdk@@V?$pecker_simple_allocator@D@2@$0BA@@pecker_sdk@@V?$pecker_simple_allocator@V?$pecker_share_string_base_t@DU?$pecker_value_compare@D@pecker_sdk@@V?$pecker_simple_allocator@D@2@$0BA@@pecker_sdk@@@2@@pecker_sdk@@@Z@4PADA DB 01000H DUP (?) ; `init_input_data'::`5'::string_buff
_BSS	ENDS
;	COMDAT ??_C@_0BD@PHDOHNMM@inputaddsearch?4txt?$AA@
CONST	SEGMENT
??_C@_0BD@PHDOHNMM@inputaddsearch?4txt?$AA@ DB 'inputaddsearch.txt', 00H ; `string'
CONST	ENDS
;	COMDAT xdata$x
xdata$x	SEGMENT
__unwindtable$?init_input_data@@YAXAAV?$pecker_array@V?$pecker_share_string_base_t@DU?$pecker_value_compare@D@pecker_sdk@@V?$pecker_simple_allocator@D@2@$0BA@@pecker_sdk@@V?$pecker_simple_allocator@V?$pecker_share_string_base_t@DU?$pecker_value_compare@D@pecker_sdk@@V?$pecker_simple_allocator@D@2@$0BA@@pecker_sdk@@@2@@pecker_sdk@@@Z DD 0ffffffffH
	DD	FLAT:__unwindfunclet$?init_input_data@@YAXAAV?$pecker_array@V?$pecker_share_string_base_t@DU?$pecker_value_compare@D@pecker_sdk@@V?$pecker_simple_allocator@D@2@$0BA@@pecker_sdk@@V?$pecker_simple_allocator@V?$pecker_share_string_base_t@DU?$pecker_value_compare@D@pecker_sdk@@V?$pecker_simple_allocator@D@2@$0BA@@pecker_sdk@@@2@@pecker_sdk@@@Z$0
	DD	00H
	DD	FLAT:__unwindfunclet$?init_input_data@@YAXAAV?$pecker_array@V?$pecker_share_string_base_t@DU?$pecker_value_compare@D@pecker_sdk@@V?$pecker_simple_allocator@D@2@$0BA@@pecker_sdk@@V?$pecker_simple_allocator@V?$pecker_share_string_base_t@DU?$pecker_value_compare@D@pecker_sdk@@V?$pecker_simple_allocator@D@2@$0BA@@pecker_sdk@@@2@@pecker_sdk@@@Z$1
	DD	01H
	DD	FLAT:__unwindfunclet$?init_input_data@@YAXAAV?$pecker_array@V?$pecker_share_string_base_t@DU?$pecker_value_compare@D@pecker_sdk@@V?$pecker_simple_allocator@D@2@$0BA@@pecker_sdk@@V?$pecker_simple_allocator@V?$pecker_share_string_base_t@DU?$pecker_value_compare@D@pecker_sdk@@V?$pecker_simple_allocator@D@2@$0BA@@pecker_sdk@@@2@@pecker_sdk@@@Z$2
__ehfuncinfo$?init_input_data@@YAXAAV?$pecker_array@V?$pecker_share_string_base_t@DU?$pecker_value_compare@D@pecker_sdk@@V?$pecker_simple_allocator@D@2@$0BA@@pecker_sdk@@V?$pecker_simple_allocator@V?$pecker_share_string_base_t@DU?$pecker_value_compare@D@pecker_sdk@@V?$pecker_simple_allocator@D@2@$0BA@@pecker_sdk@@@2@@pecker_sdk@@@Z DD 019930522H
	DD	03H
	DD	FLAT:__unwindtable$?init_input_data@@YAXAAV?$pecker_array@V?$pecker_share_string_base_t@DU?$pecker_value_compare@D@pecker_sdk@@V?$pecker_simple_allocator@D@2@$0BA@@pecker_sdk@@V?$pecker_simple_allocator@V?$pecker_share_string_base_t@DU?$pecker_value_compare@D@pecker_sdk@@V?$pecker_simple_allocator@D@2@$0BA@@pecker_sdk@@@2@@pecker_sdk@@@Z
	DD	2 DUP(00H)
	DD	2 DUP(00H)
	DD	00H
	DD	01H
; Function compile flags: /Odtp /RTCsu /ZI
xdata$x	ENDS
;	COMDAT ?init_input_data@@YAXAAV?$pecker_array@V?$pecker_share_string_base_t@DU?$pecker_value_compare@D@pecker_sdk@@V?$pecker_simple_allocator@D@2@$0BA@@pecker_sdk@@V?$pecker_simple_allocator@V?$pecker_share_string_base_t@DU?$pecker_value_compare@D@pecker_sdk@@V?$pecker_simple_allocator@D@2@$0BA@@pecker_sdk@@@2@@pecker_sdk@@@Z
_TEXT	SEGMENT
$T73383 = -364						; size = 4
_iread$69550 = -160					; size = 4
_strin$ = -148						; size = 36
_read_buffer$ = -104					; size = 8
_read_stream$ = -88					; size = 40
_pFILE_BUFF$ = -40					; size = 4
_myfile$ = -28						; size = 8
__$ArrayPad$ = -16					; size = 4
__$EHRec$ = -12						; size = 12
_array$ = 8						; size = 4
?init_input_data@@YAXAAV?$pecker_array@V?$pecker_share_string_base_t@DU?$pecker_value_compare@D@pecker_sdk@@V?$pecker_simple_allocator@D@2@$0BA@@pecker_sdk@@V?$pecker_simple_allocator@V?$pecker_share_string_base_t@DU?$pecker_value_compare@D@pecker_sdk@@V?$pecker_simple_allocator@D@2@$0BA@@pecker_sdk@@@2@@pecker_sdk@@@Z PROC ; init_input_data, COMDAT

; 45   : {

	push	ebp
	mov	ebp, esp
	push	-1
	push	__ehhandler$?init_input_data@@YAXAAV?$pecker_array@V?$pecker_share_string_base_t@DU?$pecker_value_compare@D@pecker_sdk@@V?$pecker_simple_allocator@D@2@$0BA@@pecker_sdk@@V?$pecker_simple_allocator@V?$pecker_share_string_base_t@DU?$pecker_value_compare@D@pecker_sdk@@V?$pecker_simple_allocator@D@2@$0BA@@pecker_sdk@@@2@@pecker_sdk@@@Z
	mov	eax, DWORD PTR fs:0
	push	eax
	sub	esp, 356				; 00000164H
	push	ebx
	push	esi
	push	edi
	lea	edi, DWORD PTR [ebp-368]
	mov	ecx, 89					; 00000059H
	mov	eax, -858993460				; ccccccccH
	rep stosd
	mov	eax, DWORD PTR ___security_cookie
	xor	eax, ebp
	mov	DWORD PTR __$ArrayPad$[ebp], eax
	push	eax
	lea	eax, DWORD PTR __$EHRec$[ebp]
	mov	DWORD PTR fs:0, eax

; 46   : 	array.clear();

	push	0
	mov	ecx, DWORD PTR _array$[ebp]
	call	?clear@?$pecker_array@V?$pecker_share_string_base_t@DU?$pecker_value_compare@D@pecker_sdk@@V?$pecker_simple_allocator@D@2@$0BA@@pecker_sdk@@V?$pecker_simple_allocator@V?$pecker_share_string_base_t@DU?$pecker_value_compare@D@pecker_sdk@@V?$pecker_simple_allocator@D@2@$0BA@@pecker_sdk@@@2@@pecker_sdk@@QAEJ_N@Z ; pecker_sdk::pecker_array<pecker_sdk::pecker_share_string_base_t<char,pecker_sdk::pecker_value_compare<char>,pecker_sdk::pecker_simple_allocator<char>,16>,pecker_sdk::pecker_simple_allocator<pecker_sdk::pecker_share_string_base_t<char,pecker_sdk::pecker_value_compare<char>,pecker_sdk::pecker_simple_allocator<char>,16> > >::clear

; 47   : 	array.init(1000000,256);

	push	256					; 00000100H
	push	1000000					; 000f4240H
	mov	ecx, DWORD PTR _array$[ebp]
	call	?init@?$pecker_array@V?$pecker_share_string_base_t@DU?$pecker_value_compare@D@pecker_sdk@@V?$pecker_simple_allocator@D@2@$0BA@@pecker_sdk@@V?$pecker_simple_allocator@V?$pecker_share_string_base_t@DU?$pecker_value_compare@D@pecker_sdk@@V?$pecker_simple_allocator@D@2@$0BA@@pecker_sdk@@@2@@pecker_sdk@@QAEJHH@Z ; pecker_sdk::pecker_array<pecker_sdk::pecker_share_string_base_t<char,pecker_sdk::pecker_value_compare<char>,pecker_sdk::pecker_simple_allocator<char>,16>,pecker_sdk::pecker_simple_allocator<pecker_sdk::pecker_share_string_base_t<char,pecker_sdk::pecker_value_compare<char>,pecker_sdk::pecker_simple_allocator<char>,16> > >::init

; 48   : 	pecker_file_io_base myfile;

	lea	ecx, DWORD PTR _myfile$[ebp]
	call	??0pecker_file_io_base@pecker_sdk@@QAE@XZ ; pecker_sdk::pecker_file_io_base::pecker_file_io_base
	mov	DWORD PTR __$EHRec$[ebp+8], 0

; 49   : 	myfile.open("inputaddsearch.txt",strlen("inputaddsearch.txt"),PF_FILE_READ_ONLY);

	push	2
	push	OFFSET ??_C@_0BD@PHDOHNMM@inputaddsearch?4txt?$AA@
	call	_strlen
	add	esp, 4
	push	eax
	push	OFFSET ??_C@_0BD@PHDOHNMM@inputaddsearch?4txt?$AA@
	lea	ecx, DWORD PTR _myfile$[ebp]
	call	?open@pecker_file_io_base@pecker_sdk@@UAEJPBDHJ@Z ; pecker_sdk::pecker_file_io_base::open

; 50   : 	Char* pFILE_BUFF = null;

	mov	DWORD PTR _pFILE_BUFF$[ebp], 0

; 51   : 	pecker_read_stream_form_memery read_stream;

	lea	ecx, DWORD PTR _read_stream$[ebp]
	call	??0pecker_read_stream_form_memery@pecker_sdk@@QAE@XZ ; pecker_sdk::pecker_read_stream_form_memery::pecker_read_stream_form_memery
	mov	BYTE PTR __$EHRec$[ebp+8], 1

; 52   : 	Bytes read_buffer = {null,0};

	mov	DWORD PTR _read_buffer$[ebp], 0
	mov	DWORD PTR _read_buffer$[ebp+4], 0

; 53   : 	if (myfile.get_file_size() > 0)

	lea	ecx, DWORD PTR _myfile$[ebp]
	call	?get_file_size@pecker_file_io_base@pecker_sdk@@UAEHXZ ; pecker_sdk::pecker_file_io_base::get_file_size
	test	eax, eax
	jle	SHORT $LN4@init_input

; 54   : 	{
; 55   : 		pFILE_BUFF = new Char[myfile.get_file_size()];

	lea	ecx, DWORD PTR _myfile$[ebp]
	call	?get_file_size@pecker_file_io_base@pecker_sdk@@UAEHXZ ; pecker_sdk::pecker_file_io_base::get_file_size
	push	eax
	call	??_U@YAPAXI@Z				; operator new[]
	add	esp, 4
	mov	DWORD PTR $T73383[ebp], eax
	mov	eax, DWORD PTR $T73383[ebp]
	mov	DWORD PTR _pFILE_BUFF$[ebp], eax

; 56   : 		read_buffer._M_buffer = pFILE_BUFF;

	mov	eax, DWORD PTR _pFILE_BUFF$[ebp]
	mov	DWORD PTR _read_buffer$[ebp], eax

; 57   : 		read_buffer._M_buffer_size = myfile.get_file_size();

	lea	ecx, DWORD PTR _myfile$[ebp]
	call	?get_file_size@pecker_file_io_base@pecker_sdk@@UAEHXZ ; pecker_sdk::pecker_file_io_base::get_file_size
	mov	DWORD PTR _read_buffer$[ebp+4], eax

; 58   : 		myfile.read_to_memery(read_buffer);

	push	0
	push	0
	lea	eax, DWORD PTR _read_buffer$[ebp]
	push	eax
	lea	ecx, DWORD PTR _myfile$[ebp]
	call	?read_to_memery@pecker_file_io_base@pecker_sdk@@UAEAAU_st_stringchars@2@AAU32@IJ@Z ; pecker_sdk::pecker_file_io_base::read_to_memery

; 59   : 		read_stream.bind_read_buffer(read_buffer._M_buffer,read_buffer._M_buffer_size);

	mov	eax, DWORD PTR _read_buffer$[ebp+4]
	push	eax
	mov	ecx, DWORD PTR _read_buffer$[ebp]
	push	ecx
	lea	ecx, DWORD PTR _read_stream$[ebp]
	call	?bind_read_buffer@pecker_read_stream_form_memery@pecker_sdk@@QAEJPBDH@Z ; pecker_sdk::pecker_read_stream_form_memery::bind_read_buffer
$LN4@init_input:

; 60   : 
; 61   : 	}
; 62   : 
; 63   : 
; 64   : 	static Char string_buff[4096];
; 65   : 
; 66   : 	String_base strin;

	lea	ecx, DWORD PTR _strin$[ebp]
	call	??0?$pecker_share_string_base_t@DU?$pecker_value_compare@D@pecker_sdk@@V?$pecker_simple_allocator@D@2@$0BA@@pecker_sdk@@QAE@XZ ; pecker_sdk::pecker_share_string_base_t<char,pecker_sdk::pecker_value_compare<char>,pecker_sdk::pecker_simple_allocator<char>,16>::pecker_share_string_base_t<char,pecker_sdk::pecker_value_compare<char>,pecker_sdk::pecker_simple_allocator<char>,16>
	mov	BYTE PTR __$EHRec$[ebp+8], 2
$LN3@init_input:

; 67   : 
; 68   : 	while(1)

	mov	eax, 1
	test	eax, eax
	je	SHORT $LN2@init_input

; 69   : 	{
; 70   : 		int iread = read_stream.read_chars(string_buff,4096);

	push	4096					; 00001000H
	push	OFFSET ?string_buff@?4??init_input_data@@YAXAAV?$pecker_array@V?$pecker_share_string_base_t@DU?$pecker_value_compare@D@pecker_sdk@@V?$pecker_simple_allocator@D@2@$0BA@@pecker_sdk@@V?$pecker_simple_allocator@V?$pecker_share_string_base_t@DU?$pecker_value_compare@D@pecker_sdk@@V?$pecker_simple_allocator@D@2@$0BA@@pecker_sdk@@@2@@pecker_sdk@@@Z@4PADA
	lea	ecx, DWORD PTR _read_stream$[ebp]
	call	?read_chars@pecker_read_stream_form_memery@pecker_sdk@@UAEHPADH@Z ; pecker_sdk::pecker_read_stream_form_memery::read_chars
	mov	DWORD PTR _iread$69550[ebp], eax

; 71   : 
; 72   : 		if (0 == iread)

	cmp	DWORD PTR _iread$69550[ebp], 0
	jne	SHORT $LN1@init_input

; 73   : 		{
; 74   : 			break;

	jmp	SHORT $LN2@init_input
$LN1@init_input:

; 75   : 		}
; 76   : 		strin.init(string_buff,iread);

	push	0
	mov	eax, DWORD PTR _iread$69550[ebp]
	push	eax
	push	OFFSET ?string_buff@?4??init_input_data@@YAXAAV?$pecker_array@V?$pecker_share_string_base_t@DU?$pecker_value_compare@D@pecker_sdk@@V?$pecker_simple_allocator@D@2@$0BA@@pecker_sdk@@V?$pecker_simple_allocator@V?$pecker_share_string_base_t@DU?$pecker_value_compare@D@pecker_sdk@@V?$pecker_simple_allocator@D@2@$0BA@@pecker_sdk@@@2@@pecker_sdk@@@Z@4PADA
	lea	ecx, DWORD PTR _strin$[ebp]
	call	?init@?$pecker_share_string_base_t@DU?$pecker_value_compare@D@pecker_sdk@@V?$pecker_simple_allocator@D@2@$0BA@@pecker_sdk@@QAEJPBDH_N@Z ; pecker_sdk::pecker_share_string_base_t<char,pecker_sdk::pecker_value_compare<char>,pecker_sdk::pecker_simple_allocator<char>,16>::init

; 77   : 		array.push(strin);

	lea	eax, DWORD PTR _strin$[ebp]
	push	eax
	mov	ecx, DWORD PTR _array$[ebp]
	call	?push@?$pecker_array@V?$pecker_share_string_base_t@DU?$pecker_value_compare@D@pecker_sdk@@V?$pecker_simple_allocator@D@2@$0BA@@pecker_sdk@@V?$pecker_simple_allocator@V?$pecker_share_string_base_t@DU?$pecker_value_compare@D@pecker_sdk@@V?$pecker_simple_allocator@D@2@$0BA@@pecker_sdk@@@2@@pecker_sdk@@QAEJABV?$pecker_share_string_base_t@DU?$pecker_value_compare@D@pecker_sdk@@V?$pecker_simple_allocator@D@2@$0BA@@2@@Z ; pecker_sdk::pecker_array<pecker_sdk::pecker_share_string_base_t<char,pecker_sdk::pecker_value_compare<char>,pecker_sdk::pecker_simple_allocator<char>,16>,pecker_sdk::pecker_simple_allocator<pecker_sdk::pecker_share_string_base_t<char,pecker_sdk::pecker_value_compare<char>,pecker_sdk::pecker_simple_allocator<char>,16> > >::push

; 78   : 	}

	jmp	SHORT $LN3@init_input
$LN2@init_input:

; 79   : }

	mov	BYTE PTR __$EHRec$[ebp+8], 1
	lea	ecx, DWORD PTR _strin$[ebp]
	call	??1?$pecker_share_string_base_t@DU?$pecker_value_compare@D@pecker_sdk@@V?$pecker_simple_allocator@D@2@$0BA@@pecker_sdk@@QAE@XZ ; pecker_sdk::pecker_share_string_base_t<char,pecker_sdk::pecker_value_compare<char>,pecker_sdk::pecker_simple_allocator<char>,16>::~pecker_share_string_base_t<char,pecker_sdk::pecker_value_compare<char>,pecker_sdk::pecker_simple_allocator<char>,16>
	mov	BYTE PTR __$EHRec$[ebp+8], 0
	lea	ecx, DWORD PTR _read_stream$[ebp]
	call	??1pecker_read_stream_form_memery@pecker_sdk@@UAE@XZ ; pecker_sdk::pecker_read_stream_form_memery::~pecker_read_stream_form_memery
	mov	DWORD PTR __$EHRec$[ebp+8], -1
	lea	ecx, DWORD PTR _myfile$[ebp]
	call	??1pecker_file_io_base@pecker_sdk@@UAE@XZ ; pecker_sdk::pecker_file_io_base::~pecker_file_io_base
	push	edx
	mov	ecx, ebp
	push	eax
	lea	edx, DWORD PTR $LN16@init_input
	call	@_RTC_CheckStackVars@8
	pop	eax
	pop	edx
	mov	ecx, DWORD PTR __$EHRec$[ebp]
	mov	DWORD PTR fs:0, ecx
	pop	ecx
	pop	edi
	pop	esi
	pop	ebx
	mov	ecx, DWORD PTR __$ArrayPad$[ebp]
	xor	ecx, ebp
	call	@__security_check_cookie@4
	add	esp, 368				; 00000170H
	cmp	ebp, esp
	call	__RTC_CheckEsp
	mov	esp, ebp
	pop	ebp
	ret	0
	npad	1
$LN16@init_input:
	DD	4
	DD	$LN15@init_input
$LN15@init_input:
	DD	-28					; ffffffe4H
	DD	8
	DD	$LN10@init_input
	DD	-88					; ffffffa8H
	DD	40					; 00000028H
	DD	$LN11@init_input
	DD	-104					; ffffff98H
	DD	8
	DD	$LN12@init_input
	DD	-148					; ffffff6cH
	DD	36					; 00000024H
	DD	$LN13@init_input
$LN13@init_input:
	DB	115					; 00000073H
	DB	116					; 00000074H
	DB	114					; 00000072H
	DB	105					; 00000069H
	DB	110					; 0000006eH
	DB	0
$LN12@init_input:
	DB	114					; 00000072H
	DB	101					; 00000065H
	DB	97					; 00000061H
	DB	100					; 00000064H
	DB	95					; 0000005fH
	DB	98					; 00000062H
	DB	117					; 00000075H
	DB	102					; 00000066H
	DB	102					; 00000066H
	DB	101					; 00000065H
	DB	114					; 00000072H
	DB	0
$LN11@init_input:
	DB	114					; 00000072H
	DB	101					; 00000065H
	DB	97					; 00000061H
	DB	100					; 00000064H
	DB	95					; 0000005fH
	DB	115					; 00000073H
	DB	116					; 00000074H
	DB	114					; 00000072H
	DB	101					; 00000065H
	DB	97					; 00000061H
	DB	109					; 0000006dH
	DB	0
$LN10@init_input:
	DB	109					; 0000006dH
	DB	121					; 00000079H
	DB	102					; 00000066H
	DB	105					; 00000069H
	DB	108					; 0000006cH
	DB	101					; 00000065H
	DB	0
_TEXT	ENDS
;	COMDAT text$x
text$x	SEGMENT
__unwindfunclet$?init_input_data@@YAXAAV?$pecker_array@V?$pecker_share_string_base_t@DU?$pecker_value_compare@D@pecker_sdk@@V?$pecker_simple_allocator@D@2@$0BA@@pecker_sdk@@V?$pecker_simple_allocator@V?$pecker_share_string_base_t@DU?$pecker_value_compare@D@pecker_sdk@@V?$pecker_simple_allocator@D@2@$0BA@@pecker_sdk@@@2@@pecker_sdk@@@Z$0:
	lea	ecx, DWORD PTR _myfile$[ebp]
	jmp	??1pecker_file_io_base@pecker_sdk@@UAE@XZ ; pecker_sdk::pecker_file_io_base::~pecker_file_io_base
__unwindfunclet$?init_input_data@@YAXAAV?$pecker_array@V?$pecker_share_string_base_t@DU?$pecker_value_compare@D@pecker_sdk@@V?$pecker_simple_allocator@D@2@$0BA@@pecker_sdk@@V?$pecker_simple_allocator@V?$pecker_share_string_base_t@DU?$pecker_value_compare@D@pecker_sdk@@V?$pecker_simple_allocator@D@2@$0BA@@pecker_sdk@@@2@@pecker_sdk@@@Z$1:
	lea	ecx, DWORD PTR _read_stream$[ebp]
	jmp	??1pecker_read_stream_form_memery@pecker_sdk@@UAE@XZ ; pecker_sdk::pecker_read_stream_form_memery::~pecker_read_stream_form_memery
__unwindfunclet$?init_input_data@@YAXAAV?$pecker_array@V?$pecker_share_string_base_t@DU?$pecker_value_compare@D@pecker_sdk@@V?$pecker_simple_allocator@D@2@$0BA@@pecker_sdk@@V?$pecker_simple_allocator@V?$pecker_share_string_base_t@DU?$pecker_value_compare@D@pecker_sdk@@V?$pecker_simple_allocator@D@2@$0BA@@pecker_sdk@@@2@@pecker_sdk@@@Z$2:
	lea	ecx, DWORD PTR _strin$[ebp]
	jmp	??1?$pecker_share_string_base_t@DU?$pecker_value_compare@D@pecker_sdk@@V?$pecker_simple_allocator@D@2@$0BA@@pecker_sdk@@QAE@XZ ; pecker_sdk::pecker_share_string_base_t<char,pecker_sdk::pecker_value_compare<char>,pecker_sdk::pecker_simple_allocator<char>,16>::~pecker_share_string_base_t<char,pecker_sdk::pecker_value_compare<char>,pecker_sdk::pecker_simple_allocator<char>,16>
__ehhandler$?init_input_data@@YAXAAV?$pecker_array@V?$pecker_share_string_base_t@DU?$pecker_value_compare@D@pecker_sdk@@V?$pecker_simple_allocator@D@2@$0BA@@pecker_sdk@@V?$pecker_simple_allocator@V?$pecker_share_string_base_t@DU?$pecker_value_compare@D@pecker_sdk@@V?$pecker_simple_allocator@D@2@$0BA@@pecker_sdk@@@2@@pecker_sdk@@@Z:
	mov	edx, DWORD PTR [esp+8]
	lea	eax, DWORD PTR [edx+12]
	mov	ecx, DWORD PTR [edx-372]
	xor	ecx, eax
	call	@__security_check_cookie@4
	mov	ecx, DWORD PTR [edx-4]
	xor	ecx, eax
	call	@__security_check_cookie@4
	mov	eax, OFFSET __ehfuncinfo$?init_input_data@@YAXAAV?$pecker_array@V?$pecker_share_string_base_t@DU?$pecker_value_compare@D@pecker_sdk@@V?$pecker_simple_allocator@D@2@$0BA@@pecker_sdk@@V?$pecker_simple_allocator@V?$pecker_share_string_base_t@DU?$pecker_value_compare@D@pecker_sdk@@V?$pecker_simple_allocator@D@2@$0BA@@pecker_sdk@@@2@@pecker_sdk@@@Z
	jmp	___CxxFrameHandler3
text$x	ENDS
?init_input_data@@YAXAAV?$pecker_array@V?$pecker_share_string_base_t@DU?$pecker_value_compare@D@pecker_sdk@@V?$pecker_simple_allocator@D@2@$0BA@@pecker_sdk@@V?$pecker_simple_allocator@V?$pecker_share_string_base_t@DU?$pecker_value_compare@D@pecker_sdk@@V?$pecker_simple_allocator@D@2@$0BA@@pecker_sdk@@@2@@pecker_sdk@@@Z ENDP ; init_input_data
PUBLIC	??_C@_0BD@FPMNKMEE@input_itr_data?4txt?$AA@	; `string'
PUBLIC	__$ArrayPad$
PUBLIC	?init_input_data2@@YAXAAV?$pecker_array@V?$pecker_share_string_base_t@DU?$pecker_value_compare@D@pecker_sdk@@V?$pecker_simple_allocator@D@2@$0BA@@pecker_sdk@@V?$pecker_simple_allocator@V?$pecker_share_string_base_t@DU?$pecker_value_compare@D@pecker_sdk@@V?$pecker_simple_allocator@D@2@$0BA@@pecker_sdk@@@2@@pecker_sdk@@@Z ; init_input_data2
_BSS	SEGMENT
?string_buff@?4??init_input_data2@@YAXAAV?$pecker_array@V?$pecker_share_string_base_t@DU?$pecker_value_compare@D@pecker_sdk@@V?$pecker_simple_allocator@D@2@$0BA@@pecker_sdk@@V?$pecker_simple_allocator@V?$pecker_share_string_base_t@DU?$pecker_value_compare@D@pecker_sdk@@V?$pecker_simple_allocator@D@2@$0BA@@pecker_sdk@@@2@@pecker_sdk@@@Z@4PADA DB 01000H DUP (?) ; `init_input_data2'::`5'::string_buff
_BSS	ENDS
;	COMDAT ??_C@_0BD@FPMNKMEE@input_itr_data?4txt?$AA@
CONST	SEGMENT
??_C@_0BD@FPMNKMEE@input_itr_data?4txt?$AA@ DB 'input_itr_data.txt', 00H ; `string'
CONST	ENDS
;	COMDAT xdata$x
xdata$x	SEGMENT
__unwindtable$?init_input_data2@@YAXAAV?$pecker_array@V?$pecker_share_string_base_t@DU?$pecker_value_compare@D@pecker_sdk@@V?$pecker_simple_allocator@D@2@$0BA@@pecker_sdk@@V?$pecker_simple_allocator@V?$pecker_share_string_base_t@DU?$pecker_value_compare@D@pecker_sdk@@V?$pecker_simple_allocator@D@2@$0BA@@pecker_sdk@@@2@@pecker_sdk@@@Z DD 0ffffffffH
	DD	FLAT:__unwindfunclet$?init_input_data2@@YAXAAV?$pecker_array@V?$pecker_share_string_base_t@DU?$pecker_value_compare@D@pecker_sdk@@V?$pecker_simple_allocator@D@2@$0BA@@pecker_sdk@@V?$pecker_simple_allocator@V?$pecker_share_string_base_t@DU?$pecker_value_compare@D@pecker_sdk@@V?$pecker_simple_allocator@D@2@$0BA@@pecker_sdk@@@2@@pecker_sdk@@@Z$0
	DD	00H
	DD	FLAT:__unwindfunclet$?init_input_data2@@YAXAAV?$pecker_array@V?$pecker_share_string_base_t@DU?$pecker_value_compare@D@pecker_sdk@@V?$pecker_simple_allocator@D@2@$0BA@@pecker_sdk@@V?$pecker_simple_allocator@V?$pecker_share_string_base_t@DU?$pecker_value_compare@D@pecker_sdk@@V?$pecker_simple_allocator@D@2@$0BA@@pecker_sdk@@@2@@pecker_sdk@@@Z$1
	DD	01H
	DD	FLAT:__unwindfunclet$?init_input_data2@@YAXAAV?$pecker_array@V?$pecker_share_string_base_t@DU?$pecker_value_compare@D@pecker_sdk@@V?$pecker_simple_allocator@D@2@$0BA@@pecker_sdk@@V?$pecker_simple_allocator@V?$pecker_share_string_base_t@DU?$pecker_value_compare@D@pecker_sdk@@V?$pecker_simple_allocator@D@2@$0BA@@pecker_sdk@@@2@@pecker_sdk@@@Z$2
__ehfuncinfo$?init_input_data2@@YAXAAV?$pecker_array@V?$pecker_share_string_base_t@DU?$pecker_value_compare@D@pecker_sdk@@V?$pecker_simple_allocator@D@2@$0BA@@pecker_sdk@@V?$pecker_simple_allocator@V?$pecker_share_string_base_t@DU?$pecker_value_compare@D@pecker_sdk@@V?$pecker_simple_allocator@D@2@$0BA@@pecker_sdk@@@2@@pecker_sdk@@@Z DD 019930522H
	DD	03H
	DD	FLAT:__unwindtable$?init_input_data2@@YAXAAV?$pecker_array@V?$pecker_share_string_base_t@DU?$pecker_value_compare@D@pecker_sdk@@V?$pecker_simple_allocator@D@2@$0BA@@pecker_sdk@@V?$pecker_simple_allocator@V?$pecker_share_string_base_t@DU?$pecker_value_compare@D@pecker_sdk@@V?$pecker_simple_allocator@D@2@$0BA@@pecker_sdk@@@2@@pecker_sdk@@@Z
	DD	2 DUP(00H)
	DD	2 DUP(00H)
	DD	00H
	DD	01H
; Function compile flags: /Odtp /RTCsu /ZI
xdata$x	ENDS
;	COMDAT ?init_input_data2@@YAXAAV?$pecker_array@V?$pecker_share_string_base_t@DU?$pecker_value_compare@D@pecker_sdk@@V?$pecker_simple_allocator@D@2@$0BA@@pecker_sdk@@V?$pecker_simple_allocator@V?$pecker_share_string_base_t@DU?$pecker_value_compare@D@pecker_sdk@@V?$pecker_simple_allocator@D@2@$0BA@@pecker_sdk@@@2@@pecker_sdk@@@Z
_TEXT	SEGMENT
$T73408 = -364						; size = 4
_iread$69573 = -160					; size = 4
_strin$ = -148						; size = 36
_read_buffer$ = -104					; size = 8
_read_stream$ = -88					; size = 40
_pFILE_BUFF$ = -40					; size = 4
_myfile$ = -28						; size = 8
__$ArrayPad$ = -16					; size = 4
__$EHRec$ = -12						; size = 12
_array$ = 8						; size = 4
?init_input_data2@@YAXAAV?$pecker_array@V?$pecker_share_string_base_t@DU?$pecker_value_compare@D@pecker_sdk@@V?$pecker_simple_allocator@D@2@$0BA@@pecker_sdk@@V?$pecker_simple_allocator@V?$pecker_share_string_base_t@DU?$pecker_value_compare@D@pecker_sdk@@V?$pecker_simple_allocator@D@2@$0BA@@pecker_sdk@@@2@@pecker_sdk@@@Z PROC ; init_input_data2, COMDAT

; 82   : {

	push	ebp
	mov	ebp, esp
	push	-1
	push	__ehhandler$?init_input_data2@@YAXAAV?$pecker_array@V?$pecker_share_string_base_t@DU?$pecker_value_compare@D@pecker_sdk@@V?$pecker_simple_allocator@D@2@$0BA@@pecker_sdk@@V?$pecker_simple_allocator@V?$pecker_share_string_base_t@DU?$pecker_value_compare@D@pecker_sdk@@V?$pecker_simple_allocator@D@2@$0BA@@pecker_sdk@@@2@@pecker_sdk@@@Z
	mov	eax, DWORD PTR fs:0
	push	eax
	sub	esp, 356				; 00000164H
	push	ebx
	push	esi
	push	edi
	lea	edi, DWORD PTR [ebp-368]
	mov	ecx, 89					; 00000059H
	mov	eax, -858993460				; ccccccccH
	rep stosd
	mov	eax, DWORD PTR ___security_cookie
	xor	eax, ebp
	mov	DWORD PTR __$ArrayPad$[ebp], eax
	push	eax
	lea	eax, DWORD PTR __$EHRec$[ebp]
	mov	DWORD PTR fs:0, eax

; 83   : 	array.clear();

	push	0
	mov	ecx, DWORD PTR _array$[ebp]
	call	?clear@?$pecker_array@V?$pecker_share_string_base_t@DU?$pecker_value_compare@D@pecker_sdk@@V?$pecker_simple_allocator@D@2@$0BA@@pecker_sdk@@V?$pecker_simple_allocator@V?$pecker_share_string_base_t@DU?$pecker_value_compare@D@pecker_sdk@@V?$pecker_simple_allocator@D@2@$0BA@@pecker_sdk@@@2@@pecker_sdk@@QAEJ_N@Z ; pecker_sdk::pecker_array<pecker_sdk::pecker_share_string_base_t<char,pecker_sdk::pecker_value_compare<char>,pecker_sdk::pecker_simple_allocator<char>,16>,pecker_sdk::pecker_simple_allocator<pecker_sdk::pecker_share_string_base_t<char,pecker_sdk::pecker_value_compare<char>,pecker_sdk::pecker_simple_allocator<char>,16> > >::clear

; 84   : 	array.init(1000000,256);

	push	256					; 00000100H
	push	1000000					; 000f4240H
	mov	ecx, DWORD PTR _array$[ebp]
	call	?init@?$pecker_array@V?$pecker_share_string_base_t@DU?$pecker_value_compare@D@pecker_sdk@@V?$pecker_simple_allocator@D@2@$0BA@@pecker_sdk@@V?$pecker_simple_allocator@V?$pecker_share_string_base_t@DU?$pecker_value_compare@D@pecker_sdk@@V?$pecker_simple_allocator@D@2@$0BA@@pecker_sdk@@@2@@pecker_sdk@@QAEJHH@Z ; pecker_sdk::pecker_array<pecker_sdk::pecker_share_string_base_t<char,pecker_sdk::pecker_value_compare<char>,pecker_sdk::pecker_simple_allocator<char>,16>,pecker_sdk::pecker_simple_allocator<pecker_sdk::pecker_share_string_base_t<char,pecker_sdk::pecker_value_compare<char>,pecker_sdk::pecker_simple_allocator<char>,16> > >::init

; 85   : 	pecker_file_io_base myfile;

	lea	ecx, DWORD PTR _myfile$[ebp]
	call	??0pecker_file_io_base@pecker_sdk@@QAE@XZ ; pecker_sdk::pecker_file_io_base::pecker_file_io_base
	mov	DWORD PTR __$EHRec$[ebp+8], 0

; 86   : 	myfile.open("input_itr_data.txt",strlen("input_itr_data.txt"),PF_FILE_READ_ONLY);

	push	2
	push	OFFSET ??_C@_0BD@FPMNKMEE@input_itr_data?4txt?$AA@
	call	_strlen
	add	esp, 4
	push	eax
	push	OFFSET ??_C@_0BD@FPMNKMEE@input_itr_data?4txt?$AA@
	lea	ecx, DWORD PTR _myfile$[ebp]
	call	?open@pecker_file_io_base@pecker_sdk@@UAEJPBDHJ@Z ; pecker_sdk::pecker_file_io_base::open

; 87   : 	Char* pFILE_BUFF = null;

	mov	DWORD PTR _pFILE_BUFF$[ebp], 0

; 88   : 	pecker_read_stream_form_memery read_stream;

	lea	ecx, DWORD PTR _read_stream$[ebp]
	call	??0pecker_read_stream_form_memery@pecker_sdk@@QAE@XZ ; pecker_sdk::pecker_read_stream_form_memery::pecker_read_stream_form_memery
	mov	BYTE PTR __$EHRec$[ebp+8], 1

; 89   : 	Bytes read_buffer = {null,0};

	mov	DWORD PTR _read_buffer$[ebp], 0
	mov	DWORD PTR _read_buffer$[ebp+4], 0

; 90   : 	if (myfile.get_file_size() > 0)

	lea	ecx, DWORD PTR _myfile$[ebp]
	call	?get_file_size@pecker_file_io_base@pecker_sdk@@UAEHXZ ; pecker_sdk::pecker_file_io_base::get_file_size
	test	eax, eax
	jle	SHORT $LN4@init_input@2

; 91   : 	{
; 92   : 		pFILE_BUFF = new Char[myfile.get_file_size()];

	lea	ecx, DWORD PTR _myfile$[ebp]
	call	?get_file_size@pecker_file_io_base@pecker_sdk@@UAEHXZ ; pecker_sdk::pecker_file_io_base::get_file_size
	push	eax
	call	??_U@YAPAXI@Z				; operator new[]
	add	esp, 4
	mov	DWORD PTR $T73408[ebp], eax
	mov	eax, DWORD PTR $T73408[ebp]
	mov	DWORD PTR _pFILE_BUFF$[ebp], eax

; 93   : 		read_buffer._M_buffer = pFILE_BUFF;

	mov	eax, DWORD PTR _pFILE_BUFF$[ebp]
	mov	DWORD PTR _read_buffer$[ebp], eax

; 94   : 		read_buffer._M_buffer_size = myfile.get_file_size();

	lea	ecx, DWORD PTR _myfile$[ebp]
	call	?get_file_size@pecker_file_io_base@pecker_sdk@@UAEHXZ ; pecker_sdk::pecker_file_io_base::get_file_size
	mov	DWORD PTR _read_buffer$[ebp+4], eax

; 95   : 		myfile.read_to_memery(read_buffer);

	push	0
	push	0
	lea	eax, DWORD PTR _read_buffer$[ebp]
	push	eax
	lea	ecx, DWORD PTR _myfile$[ebp]
	call	?read_to_memery@pecker_file_io_base@pecker_sdk@@UAEAAU_st_stringchars@2@AAU32@IJ@Z ; pecker_sdk::pecker_file_io_base::read_to_memery

; 96   : 		read_stream.bind_read_buffer(read_buffer._M_buffer,read_buffer._M_buffer_size);

	mov	eax, DWORD PTR _read_buffer$[ebp+4]
	push	eax
	mov	ecx, DWORD PTR _read_buffer$[ebp]
	push	ecx
	lea	ecx, DWORD PTR _read_stream$[ebp]
	call	?bind_read_buffer@pecker_read_stream_form_memery@pecker_sdk@@QAEJPBDH@Z ; pecker_sdk::pecker_read_stream_form_memery::bind_read_buffer
$LN4@init_input@2:

; 97   : 
; 98   : 	}
; 99   : 
; 100  : 
; 101  : 	static Char string_buff[4096];
; 102  : 
; 103  : 	String_base strin;

	lea	ecx, DWORD PTR _strin$[ebp]
	call	??0?$pecker_share_string_base_t@DU?$pecker_value_compare@D@pecker_sdk@@V?$pecker_simple_allocator@D@2@$0BA@@pecker_sdk@@QAE@XZ ; pecker_sdk::pecker_share_string_base_t<char,pecker_sdk::pecker_value_compare<char>,pecker_sdk::pecker_simple_allocator<char>,16>::pecker_share_string_base_t<char,pecker_sdk::pecker_value_compare<char>,pecker_sdk::pecker_simple_allocator<char>,16>
	mov	BYTE PTR __$EHRec$[ebp+8], 2
$LN3@init_input@2:

; 104  : 
; 105  : 	while(1)

	mov	eax, 1
	test	eax, eax
	je	SHORT $LN2@init_input@2

; 106  : 	{
; 107  : 		int iread = read_stream.read_chars(string_buff,4096);

	push	4096					; 00001000H
	push	OFFSET ?string_buff@?4??init_input_data2@@YAXAAV?$pecker_array@V?$pecker_share_string_base_t@DU?$pecker_value_compare@D@pecker_sdk@@V?$pecker_simple_allocator@D@2@$0BA@@pecker_sdk@@V?$pecker_simple_allocator@V?$pecker_share_string_base_t@DU?$pecker_value_compare@D@pecker_sdk@@V?$pecker_simple_allocator@D@2@$0BA@@pecker_sdk@@@2@@pecker_sdk@@@Z@4PADA
	lea	ecx, DWORD PTR _read_stream$[ebp]
	call	?read_chars@pecker_read_stream_form_memery@pecker_sdk@@UAEHPADH@Z ; pecker_sdk::pecker_read_stream_form_memery::read_chars
	mov	DWORD PTR _iread$69573[ebp], eax

; 108  : 
; 109  : 		if (0 == iread)

	cmp	DWORD PTR _iread$69573[ebp], 0
	jne	SHORT $LN1@init_input@2

; 110  : 		{
; 111  : 			break;

	jmp	SHORT $LN2@init_input@2
$LN1@init_input@2:

; 112  : 		}
; 113  : 		strin.init(string_buff,iread);

	push	0
	mov	eax, DWORD PTR _iread$69573[ebp]
	push	eax
	push	OFFSET ?string_buff@?4??init_input_data2@@YAXAAV?$pecker_array@V?$pecker_share_string_base_t@DU?$pecker_value_compare@D@pecker_sdk@@V?$pecker_simple_allocator@D@2@$0BA@@pecker_sdk@@V?$pecker_simple_allocator@V?$pecker_share_string_base_t@DU?$pecker_value_compare@D@pecker_sdk@@V?$pecker_simple_allocator@D@2@$0BA@@pecker_sdk@@@2@@pecker_sdk@@@Z@4PADA
	lea	ecx, DWORD PTR _strin$[ebp]
	call	?init@?$pecker_share_string_base_t@DU?$pecker_value_compare@D@pecker_sdk@@V?$pecker_simple_allocator@D@2@$0BA@@pecker_sdk@@QAEJPBDH_N@Z ; pecker_sdk::pecker_share_string_base_t<char,pecker_sdk::pecker_value_compare<char>,pecker_sdk::pecker_simple_allocator<char>,16>::init

; 114  : 		array.push(strin);

	lea	eax, DWORD PTR _strin$[ebp]
	push	eax
	mov	ecx, DWORD PTR _array$[ebp]
	call	?push@?$pecker_array@V?$pecker_share_string_base_t@DU?$pecker_value_compare@D@pecker_sdk@@V?$pecker_simple_allocator@D@2@$0BA@@pecker_sdk@@V?$pecker_simple_allocator@V?$pecker_share_string_base_t@DU?$pecker_value_compare@D@pecker_sdk@@V?$pecker_simple_allocator@D@2@$0BA@@pecker_sdk@@@2@@pecker_sdk@@QAEJABV?$pecker_share_string_base_t@DU?$pecker_value_compare@D@pecker_sdk@@V?$pecker_simple_allocator@D@2@$0BA@@2@@Z ; pecker_sdk::pecker_array<pecker_sdk::pecker_share_string_base_t<char,pecker_sdk::pecker_value_compare<char>,pecker_sdk::pecker_simple_allocator<char>,16>,pecker_sdk::pecker_simple_allocator<pecker_sdk::pecker_share_string_base_t<char,pecker_sdk::pecker_value_compare<char>,pecker_sdk::pecker_simple_allocator<char>,16> > >::push

; 115  : 	}

	jmp	SHORT $LN3@init_input@2
$LN2@init_input@2:

; 116  : }

	mov	BYTE PTR __$EHRec$[ebp+8], 1
	lea	ecx, DWORD PTR _strin$[ebp]
	call	??1?$pecker_share_string_base_t@DU?$pecker_value_compare@D@pecker_sdk@@V?$pecker_simple_allocator@D@2@$0BA@@pecker_sdk@@QAE@XZ ; pecker_sdk::pecker_share_string_base_t<char,pecker_sdk::pecker_value_compare<char>,pecker_sdk::pecker_simple_allocator<char>,16>::~pecker_share_string_base_t<char,pecker_sdk::pecker_value_compare<char>,pecker_sdk::pecker_simple_allocator<char>,16>
	mov	BYTE PTR __$EHRec$[ebp+8], 0
	lea	ecx, DWORD PTR _read_stream$[ebp]
	call	??1pecker_read_stream_form_memery@pecker_sdk@@UAE@XZ ; pecker_sdk::pecker_read_stream_form_memery::~pecker_read_stream_form_memery
	mov	DWORD PTR __$EHRec$[ebp+8], -1
	lea	ecx, DWORD PTR _myfile$[ebp]
	call	??1pecker_file_io_base@pecker_sdk@@UAE@XZ ; pecker_sdk::pecker_file_io_base::~pecker_file_io_base
	push	edx
	mov	ecx, ebp
	push	eax
	lea	edx, DWORD PTR $LN16@init_input@2
	call	@_RTC_CheckStackVars@8
	pop	eax
	pop	edx
	mov	ecx, DWORD PTR __$EHRec$[ebp]
	mov	DWORD PTR fs:0, ecx
	pop	ecx
	pop	edi
	pop	esi
	pop	ebx
	mov	ecx, DWORD PTR __$ArrayPad$[ebp]
	xor	ecx, ebp
	call	@__security_check_cookie@4
	add	esp, 368				; 00000170H
	cmp	ebp, esp
	call	__RTC_CheckEsp
	mov	esp, ebp
	pop	ebp
	ret	0
	npad	1
$LN16@init_input@2:
	DD	4
	DD	$LN15@init_input@2
$LN15@init_input@2:
	DD	-28					; ffffffe4H
	DD	8
	DD	$LN10@init_input@2
	DD	-88					; ffffffa8H
	DD	40					; 00000028H
	DD	$LN11@init_input@2
	DD	-104					; ffffff98H
	DD	8
	DD	$LN12@init_input@2
	DD	-148					; ffffff6cH
	DD	36					; 00000024H
	DD	$LN13@init_input@2
$LN13@init_input@2:
	DB	115					; 00000073H
	DB	116					; 00000074H
	DB	114					; 00000072H
	DB	105					; 00000069H
	DB	110					; 0000006eH
	DB	0
$LN12@init_input@2:
	DB	114					; 00000072H
	DB	101					; 00000065H
	DB	97					; 00000061H
	DB	100					; 00000064H
	DB	95					; 0000005fH
	DB	98					; 00000062H
	DB	117					; 00000075H
	DB	102					; 00000066H
	DB	102					; 00000066H
	DB	101					; 00000065H
	DB	114					; 00000072H
	DB	0
$LN11@init_input@2:
	DB	114					; 00000072H
	DB	101					; 00000065H
	DB	97					; 00000061H
	DB	100					; 00000064H
	DB	95					; 0000005fH
	DB	115					; 00000073H
	DB	116					; 00000074H
	DB	114					; 00000072H
	DB	101					; 00000065H
	DB	97					; 00000061H
	DB	109					; 0000006dH
	DB	0
$LN10@init_input@2:
	DB	109					; 0000006dH
	DB	121					; 00000079H
	DB	102					; 00000066H
	DB	105					; 00000069H
	DB	108					; 0000006cH
	DB	101					; 00000065H
	DB	0
_TEXT	ENDS
;	COMDAT text$x
text$x	SEGMENT
__unwindfunclet$?init_input_data2@@YAXAAV?$pecker_array@V?$pecker_share_string_base_t@DU?$pecker_value_compare@D@pecker_sdk@@V?$pecker_simple_allocator@D@2@$0BA@@pecker_sdk@@V?$pecker_simple_allocator@V?$pecker_share_string_base_t@DU?$pecker_value_compare@D@pecker_sdk@@V?$pecker_simple_allocator@D@2@$0BA@@pecker_sdk@@@2@@pecker_sdk@@@Z$0:
	lea	ecx, DWORD PTR _myfile$[ebp]
	jmp	??1pecker_file_io_base@pecker_sdk@@UAE@XZ ; pecker_sdk::pecker_file_io_base::~pecker_file_io_base
__unwindfunclet$?init_input_data2@@YAXAAV?$pecker_array@V?$pecker_share_string_base_t@DU?$pecker_value_compare@D@pecker_sdk@@V?$pecker_simple_allocator@D@2@$0BA@@pecker_sdk@@V?$pecker_simple_allocator@V?$pecker_share_string_base_t@DU?$pecker_value_compare@D@pecker_sdk@@V?$pecker_simple_allocator@D@2@$0BA@@pecker_sdk@@@2@@pecker_sdk@@@Z$1:
	lea	ecx, DWORD PTR _read_stream$[ebp]
	jmp	??1pecker_read_stream_form_memery@pecker_sdk@@UAE@XZ ; pecker_sdk::pecker_read_stream_form_memery::~pecker_read_stream_form_memery
__unwindfunclet$?init_input_data2@@YAXAAV?$pecker_array@V?$pecker_share_string_base_t@DU?$pecker_value_compare@D@pecker_sdk@@V?$pecker_simple_allocator@D@2@$0BA@@pecker_sdk@@V?$pecker_simple_allocator@V?$pecker_share_string_base_t@DU?$pecker_value_compare@D@pecker_sdk@@V?$pecker_simple_allocator@D@2@$0BA@@pecker_sdk@@@2@@pecker_sdk@@@Z$2:
	lea	ecx, DWORD PTR _strin$[ebp]
	jmp	??1?$pecker_share_string_base_t@DU?$pecker_value_compare@D@pecker_sdk@@V?$pecker_simple_allocator@D@2@$0BA@@pecker_sdk@@QAE@XZ ; pecker_sdk::pecker_share_string_base_t<char,pecker_sdk::pecker_value_compare<char>,pecker_sdk::pecker_simple_allocator<char>,16>::~pecker_share_string_base_t<char,pecker_sdk::pecker_value_compare<char>,pecker_sdk::pecker_simple_allocator<char>,16>
__ehhandler$?init_input_data2@@YAXAAV?$pecker_array@V?$pecker_share_string_base_t@DU?$pecker_value_compare@D@pecker_sdk@@V?$pecker_simple_allocator@D@2@$0BA@@pecker_sdk@@V?$pecker_simple_allocator@V?$pecker_share_string_base_t@DU?$pecker_value_compare@D@pecker_sdk@@V?$pecker_simple_allocator@D@2@$0BA@@pecker_sdk@@@2@@pecker_sdk@@@Z:
	mov	edx, DWORD PTR [esp+8]
	lea	eax, DWORD PTR [edx+12]
	mov	ecx, DWORD PTR [edx-372]
	xor	ecx, eax
	call	@__security_check_cookie@4
	mov	ecx, DWORD PTR [edx-4]
	xor	ecx, eax
	call	@__security_check_cookie@4
	mov	eax, OFFSET __ehfuncinfo$?init_input_data2@@YAXAAV?$pecker_array@V?$pecker_share_string_base_t@DU?$pecker_value_compare@D@pecker_sdk@@V?$pecker_simple_allocator@D@2@$0BA@@pecker_sdk@@V?$pecker_simple_allocator@V?$pecker_share_string_base_t@DU?$pecker_value_compare@D@pecker_sdk@@V?$pecker_simple_allocator@D@2@$0BA@@pecker_sdk@@@2@@pecker_sdk@@@Z
	jmp	___CxxFrameHandler3
text$x	ENDS
?init_input_data2@@YAXAAV?$pecker_array@V?$pecker_share_string_base_t@DU?$pecker_value_compare@D@pecker_sdk@@V?$pecker_simple_allocator@D@2@$0BA@@pecker_sdk@@V?$pecker_simple_allocator@V?$pecker_share_string_base_t@DU?$pecker_value_compare@D@pecker_sdk@@V?$pecker_simple_allocator@D@2@$0BA@@pecker_sdk@@@2@@pecker_sdk@@@Z ENDP ; init_input_data2
PUBLIC	??1?$pecker_btst_map_container@DV?$pecker_share_string_base_t@DU?$pecker_value_compare@D@pecker_sdk@@V?$pecker_simple_allocator@D@2@$0BA@@pecker_sdk@@DU?$pecker_tst_map_node@DDU?$pecker_value_compare@D@pecker_sdk@@V?$pecker_simple_allocator@D@2@U_AVL_node_base@2@@2@V?$pecker_nodes_simple_allocater@U?$pecker_tst_map_node@DDU?$pecker_value_compare@D@pecker_sdk@@V?$pecker_simple_allocator@D@2@U_AVL_node_base@2@@pecker_sdk@@V?$pecker_simple_allocator@U?$pecker_tst_map_node@DDU?$pecker_value_compare@D@pecker_sdk@@V?$pecker_simple_allocator@D@2@U_AVL_node_base@2@@pecker_sdk@@@2@@2@@pecker_sdk@@QAE@XZ ; pecker_sdk::pecker_btst_map_container<char,pecker_sdk::pecker_share_string_base_t<char,pecker_sdk::pecker_value_compare<char>,pecker_sdk::pecker_simple_allocator<char>,16>,char,pecker_sdk::pecker_tst_map_node<char,char,pecker_sdk::pecker_value_compare<char>,pecker_sdk::pecker_simple_allocator<char>,pecker_sdk::_AVL_node_base>,pecker_sdk::pecker_nodes_simple_allocater<pecker_sdk::pecker_tst_map_node<char,char,pecker_sdk::pecker_value_compare<char>,pecker_sdk::pecker_simple_allocator<char>,pecker_sdk::_AVL_node_base>,pecker_sdk::pecker_simple_allocator<pecker_sdk::pecker_tst_map_node<char,char,pecker_sdk::pecker_value_compare<char>,pecker_sdk::pecker_simple_allocator<char>,pecker_sdk::_AVL_node_base> > > >::~pecker_btst_map_container<char,pecker_sdk::pecker_share_string_base_t<char,pecker_sdk::pecker_value_compare<char>,pecker_sdk::pecker_simple_allocator<char>,16>,char,pecker_sdk::pecker_tst_map_node<char,char,pecker_sdk::pecker_value_compare<char>,pecker_sdk::pecker_simple_allocator<char>,pecker_sdk::_AVL_node_base>,pecker_sdk::pecker_nodes_simple_allocater<pecker_sdk::pecker_tst_map_node<char,char,pecker_sdk::pecker_value_compare<char>,pecker_sdk::pecker_simple_allocator<char>,pecker_sdk::_AVL_node_base>,pecker_sdk::pecker_simple_allocator<pecker_sdk::pecker_tst_map_node<char,char,pecker_sdk::pecker_value_compare<char>,pecker_sdk::pecker_simple_allocator<char>,pecker_sdk::_AVL_node_base> > > >
PUBLIC	??1?$pecker_array@V?$pecker_share_string_base_t@DU?$pecker_value_compare@D@pecker_sdk@@V?$pecker_simple_allocator@D@2@$0BA@@pecker_sdk@@V?$pecker_simple_allocator@V?$pecker_share_string_base_t@DU?$pecker_value_compare@D@pecker_sdk@@V?$pecker_simple_allocator@D@2@$0BA@@pecker_sdk@@@2@@pecker_sdk@@UAE@XZ ; pecker_sdk::pecker_array<pecker_sdk::pecker_share_string_base_t<char,pecker_sdk::pecker_value_compare<char>,pecker_sdk::pecker_simple_allocator<char>,16>,pecker_sdk::pecker_simple_allocator<pecker_sdk::pecker_share_string_base_t<char,pecker_sdk::pecker_value_compare<char>,pecker_sdk::pecker_simple_allocator<char>,16> > >::~pecker_array<pecker_sdk::pecker_share_string_base_t<char,pecker_sdk::pecker_value_compare<char>,pecker_sdk::pecker_simple_allocator<char>,16>,pecker_sdk::pecker_simple_allocator<pecker_sdk::pecker_share_string_base_t<char,pecker_sdk::pecker_value_compare<char>,pecker_sdk::pecker_simple_allocator<char>,16> > >
PUBLIC	??1?$pecker_tst_tree_no_perent_node_inorder_iterator_base@U?$pecker_tst_map_node@DDU?$pecker_value_compare@D@pecker_sdk@@V?$pecker_simple_allocator@D@2@U_AVL_node_base@2@@pecker_sdk@@V?$pecker_simple_allocator@PBU?$pecker_tst_map_node@DDU?$pecker_value_compare@D@pecker_sdk@@V?$pecker_simple_allocator@D@2@U_AVL_node_base@2@@pecker_sdk@@@2@V?$pecker_simple_allocator@PAPBU?$pecker_tst_map_node@DDU?$pecker_value_compare@D@pecker_sdk@@V?$pecker_simple_allocator@D@2@U_AVL_node_base@2@@pecker_sdk@@@2@@pecker_sdk@@UAE@XZ ; pecker_sdk::pecker_tst_tree_no_perent_node_inorder_iterator_base<pecker_sdk::pecker_tst_map_node<char,char,pecker_sdk::pecker_value_compare<char>,pecker_sdk::pecker_simple_allocator<char>,pecker_sdk::_AVL_node_base>,pecker_sdk::pecker_simple_allocator<pecker_sdk::pecker_tst_map_node<char,char,pecker_sdk::pecker_value_compare<char>,pecker_sdk::pecker_simple_allocator<char>,pecker_sdk::_AVL_node_base> const *>,pecker_sdk::pecker_simple_allocator<pecker_sdk::pecker_tst_map_node<char,char,pecker_sdk::pecker_value_compare<char>,pecker_sdk::pecker_simple_allocator<char>,pecker_sdk::_AVL_node_base> const * *> >::~pecker_tst_tree_no_perent_node_inorder_iterator_base<pecker_sdk::pecker_tst_map_node<char,char,pecker_sdk::pecker_value_compare<char>,pecker_sdk::pecker_simple_allocator<char>,pecker_sdk::_AVL_node_base>,pecker_sdk::pecker_simple_allocator<pecker_sdk::pecker_tst_map_node<char,char,pecker_sdk::pecker_value_compare<char>,pecker_sdk::pecker_simple_allocator<char>,pecker_sdk::_AVL_node_base> const *>,pecker_sdk::pecker_simple_allocator<pecker_sdk::pecker_tst_map_node<char,char,pecker_sdk::pecker_value_compare<char>,pecker_sdk::pecker_simple_allocator<char>,pecker_sdk::_AVL_node_base> const * *> >
PUBLIC	??1?$pecker_array_iterator@V?$pecker_array@V?$pecker_share_string_base_t@DU?$pecker_value_compare@D@pecker_sdk@@V?$pecker_simple_allocator@D@2@$0BA@@pecker_sdk@@V?$pecker_simple_allocator@V?$pecker_share_string_base_t@DU?$pecker_value_compare@D@pecker_sdk@@V?$pecker_simple_allocator@D@2@$0BA@@pecker_sdk@@@2@@pecker_sdk@@@pecker_sdk@@UAE@XZ ; pecker_sdk::pecker_array_iterator<pecker_sdk::pecker_array<pecker_sdk::pecker_share_string_base_t<char,pecker_sdk::pecker_value_compare<char>,pecker_sdk::pecker_simple_allocator<char>,16>,pecker_sdk::pecker_simple_allocator<pecker_sdk::pecker_share_string_base_t<char,pecker_sdk::pecker_value_compare<char>,pecker_sdk::pecker_simple_allocator<char>,16> > > >::~pecker_array_iterator<pecker_sdk::pecker_array<pecker_sdk::pecker_share_string_base_t<char,pecker_sdk::pecker_value_compare<char>,pecker_sdk::pecker_simple_allocator<char>,16>,pecker_sdk::pecker_simple_allocator<pecker_sdk::pecker_share_string_base_t<char,pecker_sdk::pecker_value_compare<char>,pecker_sdk::pecker_simple_allocator<char>,16> > > >
PUBLIC	?increment@?$pecker_tst_tree_no_perent_node_inorder_iterator_base@U?$pecker_tst_map_node@DDU?$pecker_value_compare@D@pecker_sdk@@V?$pecker_simple_allocator@D@2@U_AVL_node_base@2@@pecker_sdk@@V?$pecker_simple_allocator@PBU?$pecker_tst_map_node@DDU?$pecker_value_compare@D@pecker_sdk@@V?$pecker_simple_allocator@D@2@U_AVL_node_base@2@@pecker_sdk@@@2@V?$pecker_simple_allocator@PAPBU?$pecker_tst_map_node@DDU?$pecker_value_compare@D@pecker_sdk@@V?$pecker_simple_allocator@D@2@U_AVL_node_base@2@@pecker_sdk@@@2@@pecker_sdk@@UAEJXZ ; pecker_sdk::pecker_tst_tree_no_perent_node_inorder_iterator_base<pecker_sdk::pecker_tst_map_node<char,char,pecker_sdk::pecker_value_compare<char>,pecker_sdk::pecker_simple_allocator<char>,pecker_sdk::_AVL_node_base>,pecker_sdk::pecker_simple_allocator<pecker_sdk::pecker_tst_map_node<char,char,pecker_sdk::pecker_value_compare<char>,pecker_sdk::pecker_simple_allocator<char>,pecker_sdk::_AVL_node_base> const *>,pecker_sdk::pecker_simple_allocator<pecker_sdk::pecker_tst_map_node<char,char,pecker_sdk::pecker_value_compare<char>,pecker_sdk::pecker_simple_allocator<char>,pecker_sdk::_AVL_node_base> const * *> >::increment
PUBLIC	?get_key@?$pecker_btst_map_container@DV?$pecker_share_string_base_t@DU?$pecker_value_compare@D@pecker_sdk@@V?$pecker_simple_allocator@D@2@$0BA@@pecker_sdk@@DU?$pecker_tst_map_node@DDU?$pecker_value_compare@D@pecker_sdk@@V?$pecker_simple_allocator@D@2@U_AVL_node_base@2@@2@V?$pecker_nodes_simple_allocater@U?$pecker_tst_map_node@DDU?$pecker_value_compare@D@pecker_sdk@@V?$pecker_simple_allocator@D@2@U_AVL_node_base@2@@pecker_sdk@@V?$pecker_simple_allocator@U?$pecker_tst_map_node@DDU?$pecker_value_compare@D@pecker_sdk@@V?$pecker_simple_allocator@D@2@U_AVL_node_base@2@@pecker_sdk@@@2@@2@@pecker_sdk@@QBE?AV?$pecker_share_string_base_t@DU?$pecker_value_compare@D@pecker_sdk@@V?$pecker_simple_allocator@D@2@$0BA@@2@PBU?$Ipecker_bst_tree_iterator@U?$pecker_tst_map_node@DDU?$pecker_value_compare@D@pecker_sdk@@V?$pecker_simple_allocator@D@2@U_AVL_node_base@2@@pecker_sdk@@@2@@Z ; pecker_sdk::pecker_btst_map_container<char,pecker_sdk::pecker_share_string_base_t<char,pecker_sdk::pecker_value_compare<char>,pecker_sdk::pecker_simple_allocator<char>,16>,char,pecker_sdk::pecker_tst_map_node<char,char,pecker_sdk::pecker_value_compare<char>,pecker_sdk::pecker_simple_allocator<char>,pecker_sdk::_AVL_node_base>,pecker_sdk::pecker_nodes_simple_allocater<pecker_sdk::pecker_tst_map_node<char,char,pecker_sdk::pecker_value_compare<char>,pecker_sdk::pecker_simple_allocator<char>,pecker_sdk::_AVL_node_base>,pecker_sdk::pecker_simple_allocator<pecker_sdk::pecker_tst_map_node<char,char,pecker_sdk::pecker_value_compare<char>,pecker_sdk::pecker_simple_allocator<char>,pecker_sdk::_AVL_node_base> > > >::get_key
PUBLIC	??_C@_05KFNCDNJC@?$CF05d?5?$AA@			; `string'
PUBLIC	?get_current_node@?$pecker_tst_tree_no_perent_node_inorder_iterator_base@U?$pecker_tst_map_node@DDU?$pecker_value_compare@D@pecker_sdk@@V?$pecker_simple_allocator@D@2@U_AVL_node_base@2@@pecker_sdk@@V?$pecker_simple_allocator@PBU?$pecker_tst_map_node@DDU?$pecker_value_compare@D@pecker_sdk@@V?$pecker_simple_allocator@D@2@U_AVL_node_base@2@@pecker_sdk@@@2@V?$pecker_simple_allocator@PAPBU?$pecker_tst_map_node@DDU?$pecker_value_compare@D@pecker_sdk@@V?$pecker_simple_allocator@D@2@U_AVL_node_base@2@@pecker_sdk@@@2@@pecker_sdk@@UBEPBU?$pecker_tst_map_node@DDU?$pecker_value_compare@D@pecker_sdk@@V?$pecker_simple_allocator@D@2@U_AVL_node_base@2@@2@XZ ; pecker_sdk::pecker_tst_tree_no_perent_node_inorder_iterator_base<pecker_sdk::pecker_tst_map_node<char,char,pecker_sdk::pecker_value_compare<char>,pecker_sdk::pecker_simple_allocator<char>,pecker_sdk::_AVL_node_base>,pecker_sdk::pecker_simple_allocator<pecker_sdk::pecker_tst_map_node<char,char,pecker_sdk::pecker_value_compare<char>,pecker_sdk::pecker_simple_allocator<char>,pecker_sdk::_AVL_node_base> const *>,pecker_sdk::pecker_simple_allocator<pecker_sdk::pecker_tst_map_node<char,char,pecker_sdk::pecker_value_compare<char>,pecker_sdk::pecker_simple_allocator<char>,pecker_sdk::_AVL_node_base> const * *> >::get_current_node
PUBLIC	??_C@_0M@EPOJEJMO@?6increment?6?$AA@		; `string'
PUBLIC	?init@?$pecker_tst_tree_no_perent_node_inorder_iterator_base@U?$pecker_tst_map_node@DDU?$pecker_value_compare@D@pecker_sdk@@V?$pecker_simple_allocator@D@2@U_AVL_node_base@2@@pecker_sdk@@V?$pecker_simple_allocator@PBU?$pecker_tst_map_node@DDU?$pecker_value_compare@D@pecker_sdk@@V?$pecker_simple_allocator@D@2@U_AVL_node_base@2@@pecker_sdk@@@2@V?$pecker_simple_allocator@PAPBU?$pecker_tst_map_node@DDU?$pecker_value_compare@D@pecker_sdk@@V?$pecker_simple_allocator@D@2@U_AVL_node_base@2@@pecker_sdk@@@2@@pecker_sdk@@UAEJW4enumTREE_ITERATOR_INIT_TYPE@@@Z ; pecker_sdk::pecker_tst_tree_no_perent_node_inorder_iterator_base<pecker_sdk::pecker_tst_map_node<char,char,pecker_sdk::pecker_value_compare<char>,pecker_sdk::pecker_simple_allocator<char>,pecker_sdk::_AVL_node_base>,pecker_sdk::pecker_simple_allocator<pecker_sdk::pecker_tst_map_node<char,char,pecker_sdk::pecker_value_compare<char>,pecker_sdk::pecker_simple_allocator<char>,pecker_sdk::_AVL_node_base> const *>,pecker_sdk::pecker_simple_allocator<pecker_sdk::pecker_tst_map_node<char,char,pecker_sdk::pecker_value_compare<char>,pecker_sdk::pecker_simple_allocator<char>,pecker_sdk::_AVL_node_base> const * *> >::init
PUBLIC	?get_iterator@?$pecker_btst_map_container@DV?$pecker_share_string_base_t@DU?$pecker_value_compare@D@pecker_sdk@@V?$pecker_simple_allocator@D@2@$0BA@@pecker_sdk@@DU?$pecker_tst_map_node@DDU?$pecker_value_compare@D@pecker_sdk@@V?$pecker_simple_allocator@D@2@U_AVL_node_base@2@@2@V?$pecker_nodes_simple_allocater@U?$pecker_tst_map_node@DDU?$pecker_value_compare@D@pecker_sdk@@V?$pecker_simple_allocator@D@2@U_AVL_node_base@2@@pecker_sdk@@V?$pecker_simple_allocator@U?$pecker_tst_map_node@DDU?$pecker_value_compare@D@pecker_sdk@@V?$pecker_simple_allocator@D@2@U_AVL_node_base@2@@pecker_sdk@@@2@@2@@pecker_sdk@@QBEPAU?$Ipecker_bst_tree_iterator@U?$pecker_tst_map_node@DDU?$pecker_value_compare@D@pecker_sdk@@V?$pecker_simple_allocator@D@2@U_AVL_node_base@2@@pecker_sdk@@@2@PAU32@@Z ; pecker_sdk::pecker_btst_map_container<char,pecker_sdk::pecker_share_string_base_t<char,pecker_sdk::pecker_value_compare<char>,pecker_sdk::pecker_simple_allocator<char>,16>,char,pecker_sdk::pecker_tst_map_node<char,char,pecker_sdk::pecker_value_compare<char>,pecker_sdk::pecker_simple_allocator<char>,pecker_sdk::_AVL_node_base>,pecker_sdk::pecker_nodes_simple_allocater<pecker_sdk::pecker_tst_map_node<char,char,pecker_sdk::pecker_value_compare<char>,pecker_sdk::pecker_simple_allocator<char>,pecker_sdk::_AVL_node_base>,pecker_sdk::pecker_simple_allocator<pecker_sdk::pecker_tst_map_node<char,char,pecker_sdk::pecker_value_compare<char>,pecker_sdk::pecker_simple_allocator<char>,pecker_sdk::_AVL_node_base> > > >::get_iterator
PUBLIC	?increment@?$pecker_array_iterator@V?$pecker_array@V?$pecker_share_string_base_t@DU?$pecker_value_compare@D@pecker_sdk@@V?$pecker_simple_allocator@D@2@$0BA@@pecker_sdk@@V?$pecker_simple_allocator@V?$pecker_share_string_base_t@DU?$pecker_value_compare@D@pecker_sdk@@V?$pecker_simple_allocator@D@2@$0BA@@pecker_sdk@@@2@@pecker_sdk@@@pecker_sdk@@UAEJXZ ; pecker_sdk::pecker_array_iterator<pecker_sdk::pecker_array<pecker_sdk::pecker_share_string_base_t<char,pecker_sdk::pecker_value_compare<char>,pecker_sdk::pecker_simple_allocator<char>,16>,pecker_sdk::pecker_simple_allocator<pecker_sdk::pecker_share_string_base_t<char,pecker_sdk::pecker_value_compare<char>,pecker_sdk::pecker_simple_allocator<char>,16> > > >::increment
PUBLIC	??_C@_01EEMJAFIK@?6?$AA@			; `string'
PUBLIC	??_C@_0BB@PDCACMPJ@tst?5insert?5error?$AA@	; `string'
PUBLIC	??_C@_0M@ONMFDOOB@ERROR_INFO?5?$AA@		; `string'
PUBLIC	?insert@?$pecker_btst_map_container@DV?$pecker_share_string_base_t@DU?$pecker_value_compare@D@pecker_sdk@@V?$pecker_simple_allocator@D@2@$0BA@@pecker_sdk@@DU?$pecker_tst_map_node@DDU?$pecker_value_compare@D@pecker_sdk@@V?$pecker_simple_allocator@D@2@U_AVL_node_base@2@@2@V?$pecker_nodes_simple_allocater@U?$pecker_tst_map_node@DDU?$pecker_value_compare@D@pecker_sdk@@V?$pecker_simple_allocator@D@2@U_AVL_node_base@2@@pecker_sdk@@V?$pecker_simple_allocator@U?$pecker_tst_map_node@DDU?$pecker_value_compare@D@pecker_sdk@@V?$pecker_simple_allocator@D@2@U_AVL_node_base@2@@pecker_sdk@@@2@@2@@pecker_sdk@@QAEJABV?$pecker_share_string_base_t@DU?$pecker_value_compare@D@pecker_sdk@@V?$pecker_simple_allocator@D@2@$0BA@@2@ABD@Z ; pecker_sdk::pecker_btst_map_container<char,pecker_sdk::pecker_share_string_base_t<char,pecker_sdk::pecker_value_compare<char>,pecker_sdk::pecker_simple_allocator<char>,16>,char,pecker_sdk::pecker_tst_map_node<char,char,pecker_sdk::pecker_value_compare<char>,pecker_sdk::pecker_simple_allocator<char>,pecker_sdk::_AVL_node_base>,pecker_sdk::pecker_nodes_simple_allocater<pecker_sdk::pecker_tst_map_node<char,char,pecker_sdk::pecker_value_compare<char>,pecker_sdk::pecker_simple_allocator<char>,pecker_sdk::_AVL_node_base>,pecker_sdk::pecker_simple_allocator<pecker_sdk::pecker_tst_map_node<char,char,pecker_sdk::pecker_value_compare<char>,pecker_sdk::pecker_simple_allocator<char>,pecker_sdk::_AVL_node_base> > > >::insert
PUBLIC	?get_at@?$pecker_array@V?$pecker_share_string_base_t@DU?$pecker_value_compare@D@pecker_sdk@@V?$pecker_simple_allocator@D@2@$0BA@@pecker_sdk@@V?$pecker_simple_allocator@V?$pecker_share_string_base_t@DU?$pecker_value_compare@D@pecker_sdk@@V?$pecker_simple_allocator@D@2@$0BA@@pecker_sdk@@@2@@pecker_sdk@@QBEPBV?$pecker_share_string_base_t@DU?$pecker_value_compare@D@pecker_sdk@@V?$pecker_simple_allocator@D@2@$0BA@@2@PBV?$pecker_array_iterator@V?$pecker_array@V?$pecker_share_string_base_t@DU?$pecker_value_compare@D@pecker_sdk@@V?$pecker_simple_allocator@D@2@$0BA@@pecker_sdk@@V?$pecker_simple_allocator@V?$pecker_share_string_base_t@DU?$pecker_value_compare@D@pecker_sdk@@V?$pecker_simple_allocator@D@2@$0BA@@pecker_sdk@@@2@@pecker_sdk@@@2@@Z ; pecker_sdk::pecker_array<pecker_sdk::pecker_share_string_base_t<char,pecker_sdk::pecker_value_compare<char>,pecker_sdk::pecker_simple_allocator<char>,16>,pecker_sdk::pecker_simple_allocator<pecker_sdk::pecker_share_string_base_t<char,pecker_sdk::pecker_value_compare<char>,pecker_sdk::pecker_simple_allocator<char>,16> > >::get_at
PUBLIC	?init@?$pecker_array_iterator@V?$pecker_array@V?$pecker_share_string_base_t@DU?$pecker_value_compare@D@pecker_sdk@@V?$pecker_simple_allocator@D@2@$0BA@@pecker_sdk@@V?$pecker_simple_allocator@V?$pecker_share_string_base_t@DU?$pecker_value_compare@D@pecker_sdk@@V?$pecker_simple_allocator@D@2@$0BA@@pecker_sdk@@@2@@pecker_sdk@@@pecker_sdk@@UAEJW4enumLINEAR_INTERATOR_INIT_TYPE@@@Z ; pecker_sdk::pecker_array_iterator<pecker_sdk::pecker_array<pecker_sdk::pecker_share_string_base_t<char,pecker_sdk::pecker_value_compare<char>,pecker_sdk::pecker_simple_allocator<char>,16>,pecker_sdk::pecker_simple_allocator<pecker_sdk::pecker_share_string_base_t<char,pecker_sdk::pecker_value_compare<char>,pecker_sdk::pecker_simple_allocator<char>,16> > > >::init
PUBLIC	?get_iterator@?$pecker_array@V?$pecker_share_string_base_t@DU?$pecker_value_compare@D@pecker_sdk@@V?$pecker_simple_allocator@D@2@$0BA@@pecker_sdk@@V?$pecker_simple_allocator@V?$pecker_share_string_base_t@DU?$pecker_value_compare@D@pecker_sdk@@V?$pecker_simple_allocator@D@2@$0BA@@pecker_sdk@@@2@@pecker_sdk@@QBEPAV?$pecker_array_iterator@V?$pecker_array@V?$pecker_share_string_base_t@DU?$pecker_value_compare@D@pecker_sdk@@V?$pecker_simple_allocator@D@2@$0BA@@pecker_sdk@@V?$pecker_simple_allocator@V?$pecker_share_string_base_t@DU?$pecker_value_compare@D@pecker_sdk@@V?$pecker_simple_allocator@D@2@$0BA@@pecker_sdk@@@2@@pecker_sdk@@@2@PAV32@@Z ; pecker_sdk::pecker_array<pecker_sdk::pecker_share_string_base_t<char,pecker_sdk::pecker_value_compare<char>,pecker_sdk::pecker_simple_allocator<char>,16>,pecker_sdk::pecker_simple_allocator<pecker_sdk::pecker_share_string_base_t<char,pecker_sdk::pecker_value_compare<char>,pecker_sdk::pecker_simple_allocator<char>,16> > >::get_iterator
PUBLIC	??0?$pecker_array_iterator@V?$pecker_array@V?$pecker_share_string_base_t@DU?$pecker_value_compare@D@pecker_sdk@@V?$pecker_simple_allocator@D@2@$0BA@@pecker_sdk@@V?$pecker_simple_allocator@V?$pecker_share_string_base_t@DU?$pecker_value_compare@D@pecker_sdk@@V?$pecker_simple_allocator@D@2@$0BA@@pecker_sdk@@@2@@pecker_sdk@@@pecker_sdk@@QAE@PBV?$pecker_array@V?$pecker_share_string_base_t@DU?$pecker_value_compare@D@pecker_sdk@@V?$pecker_simple_allocator@D@2@$0BA@@pecker_sdk@@V?$pecker_simple_allocator@V?$pecker_share_string_base_t@DU?$pecker_value_compare@D@pecker_sdk@@V?$pecker_simple_allocator@D@2@$0BA@@pecker_sdk@@@2@@1@@Z ; pecker_sdk::pecker_array_iterator<pecker_sdk::pecker_array<pecker_sdk::pecker_share_string_base_t<char,pecker_sdk::pecker_value_compare<char>,pecker_sdk::pecker_simple_allocator<char>,16>,pecker_sdk::pecker_simple_allocator<pecker_sdk::pecker_share_string_base_t<char,pecker_sdk::pecker_value_compare<char>,pecker_sdk::pecker_simple_allocator<char>,16> > > >::pecker_array_iterator<pecker_sdk::pecker_array<pecker_sdk::pecker_share_string_base_t<char,pecker_sdk::pecker_value_compare<char>,pecker_sdk::pecker_simple_allocator<char>,16>,pecker_sdk::pecker_simple_allocator<pecker_sdk::pecker_share_string_base_t<char,pecker_sdk::pecker_value_compare<char>,pecker_sdk::pecker_simple_allocator<char>,16> > > >
PUBLIC	??0?$pecker_tst_tree_no_perent_node_inorder_iterator_base@U?$pecker_tst_map_node@DDU?$pecker_value_compare@D@pecker_sdk@@V?$pecker_simple_allocator@D@2@U_AVL_node_base@2@@pecker_sdk@@V?$pecker_simple_allocator@PBU?$pecker_tst_map_node@DDU?$pecker_value_compare@D@pecker_sdk@@V?$pecker_simple_allocator@D@2@U_AVL_node_base@2@@pecker_sdk@@@2@V?$pecker_simple_allocator@PAPBU?$pecker_tst_map_node@DDU?$pecker_value_compare@D@pecker_sdk@@V?$pecker_simple_allocator@D@2@U_AVL_node_base@2@@pecker_sdk@@@2@@pecker_sdk@@QAE@PBU?$pecker_tst_map_node@DDU?$pecker_value_compare@D@pecker_sdk@@V?$pecker_simple_allocator@D@2@U_AVL_node_base@2@@1@@Z ; pecker_sdk::pecker_tst_tree_no_perent_node_inorder_iterator_base<pecker_sdk::pecker_tst_map_node<char,char,pecker_sdk::pecker_value_compare<char>,pecker_sdk::pecker_simple_allocator<char>,pecker_sdk::_AVL_node_base>,pecker_sdk::pecker_simple_allocator<pecker_sdk::pecker_tst_map_node<char,char,pecker_sdk::pecker_value_compare<char>,pecker_sdk::pecker_simple_allocator<char>,pecker_sdk::_AVL_node_base> const *>,pecker_sdk::pecker_simple_allocator<pecker_sdk::pecker_tst_map_node<char,char,pecker_sdk::pecker_value_compare<char>,pecker_sdk::pecker_simple_allocator<char>,pecker_sdk::_AVL_node_base> const * *> >::pecker_tst_tree_no_perent_node_inorder_iterator_base<pecker_sdk::pecker_tst_map_node<char,char,pecker_sdk::pecker_value_compare<char>,pecker_sdk::pecker_simple_allocator<char>,pecker_sdk::_AVL_node_base>,pecker_sdk::pecker_simple_allocator<pecker_sdk::pecker_tst_map_node<char,char,pecker_sdk::pecker_value_compare<char>,pecker_sdk::pecker_simple_allocator<char>,pecker_sdk::_AVL_node_base> const *>,pecker_sdk::pecker_simple_allocator<pecker_sdk::pecker_tst_map_node<char,char,pecker_sdk::pecker_value_compare<char>,pecker_sdk::pecker_simple_allocator<char>,pecker_sdk::_AVL_node_base> const * *> >
PUBLIC	??0?$pecker_array@V?$pecker_share_string_base_t@DU?$pecker_value_compare@D@pecker_sdk@@V?$pecker_simple_allocator@D@2@$0BA@@pecker_sdk@@V?$pecker_simple_allocator@V?$pecker_share_string_base_t@DU?$pecker_value_compare@D@pecker_sdk@@V?$pecker_simple_allocator@D@2@$0BA@@pecker_sdk@@@2@@pecker_sdk@@QAE@H@Z ; pecker_sdk::pecker_array<pecker_sdk::pecker_share_string_base_t<char,pecker_sdk::pecker_value_compare<char>,pecker_sdk::pecker_simple_allocator<char>,16>,pecker_sdk::pecker_simple_allocator<pecker_sdk::pecker_share_string_base_t<char,pecker_sdk::pecker_value_compare<char>,pecker_sdk::pecker_simple_allocator<char>,16> > >::pecker_array<pecker_sdk::pecker_share_string_base_t<char,pecker_sdk::pecker_value_compare<char>,pecker_sdk::pecker_simple_allocator<char>,16>,pecker_sdk::pecker_simple_allocator<pecker_sdk::pecker_share_string_base_t<char,pecker_sdk::pecker_value_compare<char>,pecker_sdk::pecker_simple_allocator<char>,16> > >
PUBLIC	??0?$pecker_btst_map_container@DV?$pecker_share_string_base_t@DU?$pecker_value_compare@D@pecker_sdk@@V?$pecker_simple_allocator@D@2@$0BA@@pecker_sdk@@DU?$pecker_tst_map_node@DDU?$pecker_value_compare@D@pecker_sdk@@V?$pecker_simple_allocator@D@2@U_AVL_node_base@2@@2@V?$pecker_nodes_simple_allocater@U?$pecker_tst_map_node@DDU?$pecker_value_compare@D@pecker_sdk@@V?$pecker_simple_allocator@D@2@U_AVL_node_base@2@@pecker_sdk@@V?$pecker_simple_allocator@U?$pecker_tst_map_node@DDU?$pecker_value_compare@D@pecker_sdk@@V?$pecker_simple_allocator@D@2@U_AVL_node_base@2@@pecker_sdk@@@2@@2@@pecker_sdk@@QAE@XZ ; pecker_sdk::pecker_btst_map_container<char,pecker_sdk::pecker_share_string_base_t<char,pecker_sdk::pecker_value_compare<char>,pecker_sdk::pecker_simple_allocator<char>,16>,char,pecker_sdk::pecker_tst_map_node<char,char,pecker_sdk::pecker_value_compare<char>,pecker_sdk::pecker_simple_allocator<char>,pecker_sdk::_AVL_node_base>,pecker_sdk::pecker_nodes_simple_allocater<pecker_sdk::pecker_tst_map_node<char,char,pecker_sdk::pecker_value_compare<char>,pecker_sdk::pecker_simple_allocator<char>,pecker_sdk::_AVL_node_base>,pecker_sdk::pecker_simple_allocator<pecker_sdk::pecker_tst_map_node<char,char,pecker_sdk::pecker_value_compare<char>,pecker_sdk::pecker_simple_allocator<char>,pecker_sdk::_AVL_node_base> > > >::pecker_btst_map_container<char,pecker_sdk::pecker_share_string_base_t<char,pecker_sdk::pecker_value_compare<char>,pecker_sdk::pecker_simple_allocator<char>,16>,char,pecker_sdk::pecker_tst_map_node<char,char,pecker_sdk::pecker_value_compare<char>,pecker_sdk::pecker_simple_allocator<char>,pecker_sdk::_AVL_node_base>,pecker_sdk::pecker_nodes_simple_allocater<pecker_sdk::pecker_tst_map_node<char,char,pecker_sdk::pecker_value_compare<char>,pecker_sdk::pecker_simple_allocator<char>,pecker_sdk::_AVL_node_base>,pecker_sdk::pecker_simple_allocator<pecker_sdk::pecker_tst_map_node<char,char,pecker_sdk::pecker_value_compare<char>,pecker_sdk::pecker_simple_allocator<char>,pecker_sdk::_AVL_node_base> > > >
PUBLIC	__$ArrayPad$
PUBLIC	?tst_iterator_test_value@@YAXXZ			; tst_iterator_test_value
;	COMDAT ??_C@_05KFNCDNJC@?$CF05d?5?$AA@
CONST	SEGMENT
??_C@_05KFNCDNJC@?$CF05d?5?$AA@ DB '%05d ', 00H		; `string'
CONST	ENDS
;	COMDAT ??_C@_0M@EPOJEJMO@?6increment?6?$AA@
CONST	SEGMENT
??_C@_0M@EPOJEJMO@?6increment?6?$AA@ DB 0aH, 'increment', 0aH, 00H ; `string'
CONST	ENDS
;	COMDAT ??_C@_01EEMJAFIK@?6?$AA@
CONST	SEGMENT
??_C@_01EEMJAFIK@?6?$AA@ DB 0aH, 00H			; `string'
CONST	ENDS
;	COMDAT ??_C@_0BB@PDCACMPJ@tst?5insert?5error?$AA@
CONST	SEGMENT
??_C@_0BB@PDCACMPJ@tst?5insert?5error?$AA@ DB 'tst insert error', 00H ; `string'
CONST	ENDS
;	COMDAT ??_C@_0M@ONMFDOOB@ERROR_INFO?5?$AA@
CONST	SEGMENT
??_C@_0M@ONMFDOOB@ERROR_INFO?5?$AA@ DB 'ERROR_INFO ', 00H ; `string'
CONST	ENDS
;	COMDAT xdata$x
xdata$x	SEGMENT
__ehfuncinfo$?tst_iterator_test_value@@YAXXZ DD 019930522H
	DD	05H
	DD	FLAT:__unwindtable$?tst_iterator_test_value@@YAXXZ
	DD	2 DUP(00H)
	DD	2 DUP(00H)
	DD	00H
	DD	01H
__unwindtable$?tst_iterator_test_value@@YAXXZ DD 0ffffffffH
	DD	FLAT:__unwindfunclet$?tst_iterator_test_value@@YAXXZ$0
	DD	00H
	DD	FLAT:__unwindfunclet$?tst_iterator_test_value@@YAXXZ$1
	DD	01H
	DD	FLAT:__unwindfunclet$?tst_iterator_test_value@@YAXXZ$2
	DD	02H
	DD	FLAT:__unwindfunclet$?tst_iterator_test_value@@YAXXZ$3
	DD	03H
	DD	FLAT:__unwindfunclet$?tst_iterator_test_value@@YAXXZ$4
; Function compile flags: /Odtp /RTCsu /ZI
xdata$x	ENDS
;	COMDAT ?tst_iterator_test_value@@YAXXZ
_TEXT	SEGMENT
tv175 = -924						; size = 4
tv77 = -920						; size = 4
$T70004 = -912						; size = 36
$T73427 = -865						; size = 1
_res$69968 = -664					; size = 4
_pvalue$69966 = -652					; size = 4
_icount$ = -640						; size = 4
_array_iterator1$ = -628				; size = 12
_inorder_iterator$ = -608				; size = 536
_array$ = -64						; size = 20
_tst_map$ = -36						; size = 16
__$ArrayPad$ = -16					; size = 4
__$EHRec$ = -12						; size = 12
?tst_iterator_test_value@@YAXXZ PROC			; tst_iterator_test_value, COMDAT

; 119  : {

	push	ebp
	mov	ebp, esp
	push	-1
	push	__ehhandler$?tst_iterator_test_value@@YAXXZ
	mov	eax, DWORD PTR fs:0
	push	eax
	sub	esp, 912				; 00000390H
	push	ebx
	push	esi
	push	edi
	lea	edi, DWORD PTR [ebp-924]
	mov	ecx, 228				; 000000e4H
	mov	eax, -858993460				; ccccccccH
	rep stosd
	mov	eax, DWORD PTR ___security_cookie
	xor	eax, ebp
	mov	DWORD PTR __$ArrayPad$[ebp], eax
	push	eax
	lea	eax, DWORD PTR __$EHRec$[ebp]
	mov	DWORD PTR fs:0, eax

; 120  : 	BTSTree tst_map;

	lea	ecx, DWORD PTR _tst_map$[ebp]
	call	??0?$pecker_btst_map_container@DV?$pecker_share_string_base_t@DU?$pecker_value_compare@D@pecker_sdk@@V?$pecker_simple_allocator@D@2@$0BA@@pecker_sdk@@DU?$pecker_tst_map_node@DDU?$pecker_value_compare@D@pecker_sdk@@V?$pecker_simple_allocator@D@2@U_AVL_node_base@2@@2@V?$pecker_nodes_simple_allocater@U?$pecker_tst_map_node@DDU?$pecker_value_compare@D@pecker_sdk@@V?$pecker_simple_allocator@D@2@U_AVL_node_base@2@@pecker_sdk@@V?$pecker_simple_allocator@U?$pecker_tst_map_node@DDU?$pecker_value_compare@D@pecker_sdk@@V?$pecker_simple_allocator@D@2@U_AVL_node_base@2@@pecker_sdk@@@2@@2@@pecker_sdk@@QAE@XZ ; pecker_sdk::pecker_btst_map_container<char,pecker_sdk::pecker_share_string_base_t<char,pecker_sdk::pecker_value_compare<char>,pecker_sdk::pecker_simple_allocator<char>,16>,char,pecker_sdk::pecker_tst_map_node<char,char,pecker_sdk::pecker_value_compare<char>,pecker_sdk::pecker_simple_allocator<char>,pecker_sdk::_AVL_node_base>,pecker_sdk::pecker_nodes_simple_allocater<pecker_sdk::pecker_tst_map_node<char,char,pecker_sdk::pecker_value_compare<char>,pecker_sdk::pecker_simple_allocator<char>,pecker_sdk::_AVL_node_base>,pecker_sdk::pecker_simple_allocator<pecker_sdk::pecker_tst_map_node<char,char,pecker_sdk::pecker_value_compare<char>,pecker_sdk::pecker_simple_allocator<char>,pecker_sdk::_AVL_node_base> > > >::pecker_btst_map_container<char,pecker_sdk::pecker_share_string_base_t<char,pecker_sdk::pecker_value_compare<char>,pecker_sdk::pecker_simple_allocator<char>,16>,char,pecker_sdk::pecker_tst_map_node<char,char,pecker_sdk::pecker_value_compare<char>,pecker_sdk::pecker_simple_allocator<char>,pecker_sdk::_AVL_node_base>,pecker_sdk::pecker_nodes_simple_allocater<pecker_sdk::pecker_tst_map_node<char,char,pecker_sdk::pecker_value_compare<char>,pecker_sdk::pecker_simple_allocator<char>,pecker_sdk::_AVL_node_base>,pecker_sdk::pecker_simple_allocator<pecker_sdk::pecker_tst_map_node<char,char,pecker_sdk::pecker_value_compare<char>,pecker_sdk::pecker_simple_allocator<char>,pecker_sdk::_AVL_node_base> > > >
	mov	DWORD PTR __$EHRec$[ebp+8], 0

; 121  : 	pecker_array< String_base > array;

	push	16					; 00000010H
	lea	ecx, DWORD PTR _array$[ebp]
	call	??0?$pecker_array@V?$pecker_share_string_base_t@DU?$pecker_value_compare@D@pecker_sdk@@V?$pecker_simple_allocator@D@2@$0BA@@pecker_sdk@@V?$pecker_simple_allocator@V?$pecker_share_string_base_t@DU?$pecker_value_compare@D@pecker_sdk@@V?$pecker_simple_allocator@D@2@$0BA@@pecker_sdk@@@2@@pecker_sdk@@QAE@H@Z ; pecker_sdk::pecker_array<pecker_sdk::pecker_share_string_base_t<char,pecker_sdk::pecker_value_compare<char>,pecker_sdk::pecker_simple_allocator<char>,16>,pecker_sdk::pecker_simple_allocator<pecker_sdk::pecker_share_string_base_t<char,pecker_sdk::pecker_value_compare<char>,pecker_sdk::pecker_simple_allocator<char>,16> > >::pecker_array<pecker_sdk::pecker_share_string_base_t<char,pecker_sdk::pecker_value_compare<char>,pecker_sdk::pecker_simple_allocator<char>,16>,pecker_sdk::pecker_simple_allocator<pecker_sdk::pecker_share_string_base_t<char,pecker_sdk::pecker_value_compare<char>,pecker_sdk::pecker_simple_allocator<char>,16> > >
	mov	BYTE PTR __$EHRec$[ebp+8], 1

; 122  : 	_TST_inorder_iterator inorder_iterator;

	push	0
	lea	ecx, DWORD PTR _inorder_iterator$[ebp]
	call	??0?$pecker_tst_tree_no_perent_node_inorder_iterator_base@U?$pecker_tst_map_node@DDU?$pecker_value_compare@D@pecker_sdk@@V?$pecker_simple_allocator@D@2@U_AVL_node_base@2@@pecker_sdk@@V?$pecker_simple_allocator@PBU?$pecker_tst_map_node@DDU?$pecker_value_compare@D@pecker_sdk@@V?$pecker_simple_allocator@D@2@U_AVL_node_base@2@@pecker_sdk@@@2@V?$pecker_simple_allocator@PAPBU?$pecker_tst_map_node@DDU?$pecker_value_compare@D@pecker_sdk@@V?$pecker_simple_allocator@D@2@U_AVL_node_base@2@@pecker_sdk@@@2@@pecker_sdk@@QAE@PBU?$pecker_tst_map_node@DDU?$pecker_value_compare@D@pecker_sdk@@V?$pecker_simple_allocator@D@2@U_AVL_node_base@2@@1@@Z ; pecker_sdk::pecker_tst_tree_no_perent_node_inorder_iterator_base<pecker_sdk::pecker_tst_map_node<char,char,pecker_sdk::pecker_value_compare<char>,pecker_sdk::pecker_simple_allocator<char>,pecker_sdk::_AVL_node_base>,pecker_sdk::pecker_simple_allocator<pecker_sdk::pecker_tst_map_node<char,char,pecker_sdk::pecker_value_compare<char>,pecker_sdk::pecker_simple_allocator<char>,pecker_sdk::_AVL_node_base> const *>,pecker_sdk::pecker_simple_allocator<pecker_sdk::pecker_tst_map_node<char,char,pecker_sdk::pecker_value_compare<char>,pecker_sdk::pecker_simple_allocator<char>,pecker_sdk::_AVL_node_base> const * *> >::pecker_tst_tree_no_perent_node_inorder_iterator_base<pecker_sdk::pecker_tst_map_node<char,char,pecker_sdk::pecker_value_compare<char>,pecker_sdk::pecker_simple_allocator<char>,pecker_sdk::_AVL_node_base>,pecker_sdk::pecker_simple_allocator<pecker_sdk::pecker_tst_map_node<char,char,pecker_sdk::pecker_value_compare<char>,pecker_sdk::pecker_simple_allocator<char>,pecker_sdk::_AVL_node_base> const *>,pecker_sdk::pecker_simple_allocator<pecker_sdk::pecker_tst_map_node<char,char,pecker_sdk::pecker_value_compare<char>,pecker_sdk::pecker_simple_allocator<char>,pecker_sdk::_AVL_node_base> const * *> >
	mov	BYTE PTR __$EHRec$[ebp+8], 2

; 123  : 
; 124  : 	init_input_data(array);

	lea	eax, DWORD PTR _array$[ebp]
	push	eax
	call	?init_input_data@@YAXAAV?$pecker_array@V?$pecker_share_string_base_t@DU?$pecker_value_compare@D@pecker_sdk@@V?$pecker_simple_allocator@D@2@$0BA@@pecker_sdk@@V?$pecker_simple_allocator@V?$pecker_share_string_base_t@DU?$pecker_value_compare@D@pecker_sdk@@V?$pecker_simple_allocator@D@2@$0BA@@pecker_sdk@@@2@@pecker_sdk@@@Z ; init_input_data
	add	esp, 4

; 125  : 	pecker_array_iterator< pecker_array<String_base> >array_iterator1;

	push	0
	lea	ecx, DWORD PTR _array_iterator1$[ebp]
	call	??0?$pecker_array_iterator@V?$pecker_array@V?$pecker_share_string_base_t@DU?$pecker_value_compare@D@pecker_sdk@@V?$pecker_simple_allocator@D@2@$0BA@@pecker_sdk@@V?$pecker_simple_allocator@V?$pecker_share_string_base_t@DU?$pecker_value_compare@D@pecker_sdk@@V?$pecker_simple_allocator@D@2@$0BA@@pecker_sdk@@@2@@pecker_sdk@@@pecker_sdk@@QAE@PBV?$pecker_array@V?$pecker_share_string_base_t@DU?$pecker_value_compare@D@pecker_sdk@@V?$pecker_simple_allocator@D@2@$0BA@@pecker_sdk@@V?$pecker_simple_allocator@V?$pecker_share_string_base_t@DU?$pecker_value_compare@D@pecker_sdk@@V?$pecker_simple_allocator@D@2@$0BA@@pecker_sdk@@@2@@1@@Z ; pecker_sdk::pecker_array_iterator<pecker_sdk::pecker_array<pecker_sdk::pecker_share_string_base_t<char,pecker_sdk::pecker_value_compare<char>,pecker_sdk::pecker_simple_allocator<char>,16>,pecker_sdk::pecker_simple_allocator<pecker_sdk::pecker_share_string_base_t<char,pecker_sdk::pecker_value_compare<char>,pecker_sdk::pecker_simple_allocator<char>,16> > > >::pecker_array_iterator<pecker_sdk::pecker_array<pecker_sdk::pecker_share_string_base_t<char,pecker_sdk::pecker_value_compare<char>,pecker_sdk::pecker_simple_allocator<char>,16>,pecker_sdk::pecker_simple_allocator<pecker_sdk::pecker_share_string_base_t<char,pecker_sdk::pecker_value_compare<char>,pecker_sdk::pecker_simple_allocator<char>,16> > > >
	mov	BYTE PTR __$EHRec$[ebp+8], 3

; 126  : 	array.get_iterator(&array_iterator1);

	lea	eax, DWORD PTR _array_iterator1$[ebp]
	push	eax
	lea	ecx, DWORD PTR _array$[ebp]
	call	?get_iterator@?$pecker_array@V?$pecker_share_string_base_t@DU?$pecker_value_compare@D@pecker_sdk@@V?$pecker_simple_allocator@D@2@$0BA@@pecker_sdk@@V?$pecker_simple_allocator@V?$pecker_share_string_base_t@DU?$pecker_value_compare@D@pecker_sdk@@V?$pecker_simple_allocator@D@2@$0BA@@pecker_sdk@@@2@@pecker_sdk@@QBEPAV?$pecker_array_iterator@V?$pecker_array@V?$pecker_share_string_base_t@DU?$pecker_value_compare@D@pecker_sdk@@V?$pecker_simple_allocator@D@2@$0BA@@pecker_sdk@@V?$pecker_simple_allocator@V?$pecker_share_string_base_t@DU?$pecker_value_compare@D@pecker_sdk@@V?$pecker_simple_allocator@D@2@$0BA@@pecker_sdk@@@2@@pecker_sdk@@@2@PAV32@@Z ; pecker_sdk::pecker_array<pecker_sdk::pecker_share_string_base_t<char,pecker_sdk::pecker_value_compare<char>,pecker_sdk::pecker_simple_allocator<char>,16>,pecker_sdk::pecker_simple_allocator<pecker_sdk::pecker_share_string_base_t<char,pecker_sdk::pecker_value_compare<char>,pecker_sdk::pecker_simple_allocator<char>,16> > >::get_iterator

; 127  : 	array_iterator1.init(ITERATOR_INIT_BEGIN_INDEX);

	push	0
	lea	ecx, DWORD PTR _array_iterator1$[ebp]
	call	?init@?$pecker_array_iterator@V?$pecker_array@V?$pecker_share_string_base_t@DU?$pecker_value_compare@D@pecker_sdk@@V?$pecker_simple_allocator@D@2@$0BA@@pecker_sdk@@V?$pecker_simple_allocator@V?$pecker_share_string_base_t@DU?$pecker_value_compare@D@pecker_sdk@@V?$pecker_simple_allocator@D@2@$0BA@@pecker_sdk@@@2@@pecker_sdk@@@pecker_sdk@@UAEJW4enumLINEAR_INTERATOR_INIT_TYPE@@@Z ; pecker_sdk::pecker_array_iterator<pecker_sdk::pecker_array<pecker_sdk::pecker_share_string_base_t<char,pecker_sdk::pecker_value_compare<char>,pecker_sdk::pecker_simple_allocator<char>,16>,pecker_sdk::pecker_simple_allocator<pecker_sdk::pecker_share_string_base_t<char,pecker_sdk::pecker_value_compare<char>,pecker_sdk::pecker_simple_allocator<char>,16> > > >::init

; 128  : 	int icount = 0;

	mov	DWORD PTR _icount$[ebp], 0
$LN9@tst_iterat:

; 129  : 	while (1)

	mov	eax, 1
	test	eax, eax
	je	$LN8@tst_iterat

; 130  : 	{
; 131  : 		const String_base* pvalue = array.get_at(&array_iterator1);

	lea	eax, DWORD PTR _array_iterator1$[ebp]
	push	eax
	lea	ecx, DWORD PTR _array$[ebp]
	call	?get_at@?$pecker_array@V?$pecker_share_string_base_t@DU?$pecker_value_compare@D@pecker_sdk@@V?$pecker_simple_allocator@D@2@$0BA@@pecker_sdk@@V?$pecker_simple_allocator@V?$pecker_share_string_base_t@DU?$pecker_value_compare@D@pecker_sdk@@V?$pecker_simple_allocator@D@2@$0BA@@pecker_sdk@@@2@@pecker_sdk@@QBEPBV?$pecker_share_string_base_t@DU?$pecker_value_compare@D@pecker_sdk@@V?$pecker_simple_allocator@D@2@$0BA@@2@PBV?$pecker_array_iterator@V?$pecker_array@V?$pecker_share_string_base_t@DU?$pecker_value_compare@D@pecker_sdk@@V?$pecker_simple_allocator@D@2@$0BA@@pecker_sdk@@V?$pecker_simple_allocator@V?$pecker_share_string_base_t@DU?$pecker_value_compare@D@pecker_sdk@@V?$pecker_simple_allocator@D@2@$0BA@@pecker_sdk@@@2@@pecker_sdk@@@2@@Z ; pecker_sdk::pecker_array<pecker_sdk::pecker_share_string_base_t<char,pecker_sdk::pecker_value_compare<char>,pecker_sdk::pecker_simple_allocator<char>,16>,pecker_sdk::pecker_simple_allocator<pecker_sdk::pecker_share_string_base_t<char,pecker_sdk::pecker_value_compare<char>,pecker_sdk::pecker_simple_allocator<char>,16> > >::get_at
	mov	DWORD PTR _pvalue$69966[ebp], eax

; 132  : 		if (pvalue)

	cmp	DWORD PTR _pvalue$69966[ebp], 0
	je	$LN7@tst_iterat

; 133  : 		{
; 134  : 			HResult res = tst_map.insert(*pvalue,icount);

	mov	al, BYTE PTR _icount$[ebp]
	mov	BYTE PTR $T73427[ebp], al
	lea	ecx, DWORD PTR $T73427[ebp]
	push	ecx
	mov	edx, DWORD PTR _pvalue$69966[ebp]
	push	edx
	lea	ecx, DWORD PTR _tst_map$[ebp]
	call	?insert@?$pecker_btst_map_container@DV?$pecker_share_string_base_t@DU?$pecker_value_compare@D@pecker_sdk@@V?$pecker_simple_allocator@D@2@$0BA@@pecker_sdk@@DU?$pecker_tst_map_node@DDU?$pecker_value_compare@D@pecker_sdk@@V?$pecker_simple_allocator@D@2@U_AVL_node_base@2@@2@V?$pecker_nodes_simple_allocater@U?$pecker_tst_map_node@DDU?$pecker_value_compare@D@pecker_sdk@@V?$pecker_simple_allocator@D@2@U_AVL_node_base@2@@pecker_sdk@@V?$pecker_simple_allocator@U?$pecker_tst_map_node@DDU?$pecker_value_compare@D@pecker_sdk@@V?$pecker_simple_allocator@D@2@U_AVL_node_base@2@@pecker_sdk@@@2@@2@@pecker_sdk@@QAEJABV?$pecker_share_string_base_t@DU?$pecker_value_compare@D@pecker_sdk@@V?$pecker_simple_allocator@D@2@$0BA@@2@ABD@Z ; pecker_sdk::pecker_btst_map_container<char,pecker_sdk::pecker_share_string_base_t<char,pecker_sdk::pecker_value_compare<char>,pecker_sdk::pecker_simple_allocator<char>,16>,char,pecker_sdk::pecker_tst_map_node<char,char,pecker_sdk::pecker_value_compare<char>,pecker_sdk::pecker_simple_allocator<char>,pecker_sdk::_AVL_node_base>,pecker_sdk::pecker_nodes_simple_allocater<pecker_sdk::pecker_tst_map_node<char,char,pecker_sdk::pecker_value_compare<char>,pecker_sdk::pecker_simple_allocator<char>,pecker_sdk::_AVL_node_base>,pecker_sdk::pecker_simple_allocator<pecker_sdk::pecker_tst_map_node<char,char,pecker_sdk::pecker_value_compare<char>,pecker_sdk::pecker_simple_allocator<char>,pecker_sdk::_AVL_node_base> > > >::insert
	mov	DWORD PTR _res$69968[ebp], eax

; 135  : 			if (P_OK != res)

	cmp	DWORD PTR _res$69968[ebp], 0
	je	SHORT $LN6@tst_iterat

; 136  : 			{
; 137  : 				PECKER_LOG_ERR("tst insert error",0);

	mov	esi, esp
	push	OFFSET ??_C@_0M@ONMFDOOB@ERROR_INFO?5?$AA@
	call	DWORD PTR __imp__printf
	add	esp, 4
	cmp	esi, esp
	call	__RTC_CheckEsp
	mov	esi, esp
	push	OFFSET ??_C@_0BB@PDCACMPJ@tst?5insert?5error?$AA@
	call	DWORD PTR __imp__printf
	add	esp, 4
	cmp	esi, esp
	call	__RTC_CheckEsp
	mov	esi, esp
	push	OFFSET ??_C@_01EEMJAFIK@?6?$AA@
	call	DWORD PTR __imp__printf
	add	esp, 4
	cmp	esi, esp
	call	__RTC_CheckEsp
	mov	esi, esp
	push	0
	call	DWORD PTR __imp__printf
	add	esp, 4
	cmp	esi, esp
	call	__RTC_CheckEsp
	mov	esi, esp
	push	OFFSET ??_C@_01EEMJAFIK@?6?$AA@
	call	DWORD PTR __imp__printf
	add	esp, 4
	cmp	esi, esp
	call	__RTC_CheckEsp
$LN6@tst_iterat:

; 138  : 			}
; 139  : 		}
; 140  : 		else

	jmp	SHORT $LN5@tst_iterat
$LN7@tst_iterat:

; 141  : 		{
; 142  : 			break;

	jmp	SHORT $LN8@tst_iterat
$LN5@tst_iterat:

; 143  : 		}
; 144  : 		++icount;

	mov	eax, DWORD PTR _icount$[ebp]
	add	eax, 1
	mov	DWORD PTR _icount$[ebp], eax

; 145  : 		array_iterator1.increment();

	lea	ecx, DWORD PTR _array_iterator1$[ebp]
	call	?increment@?$pecker_array_iterator@V?$pecker_array@V?$pecker_share_string_base_t@DU?$pecker_value_compare@D@pecker_sdk@@V?$pecker_simple_allocator@D@2@$0BA@@pecker_sdk@@V?$pecker_simple_allocator@V?$pecker_share_string_base_t@DU?$pecker_value_compare@D@pecker_sdk@@V?$pecker_simple_allocator@D@2@$0BA@@pecker_sdk@@@2@@pecker_sdk@@@pecker_sdk@@UAEJXZ ; pecker_sdk::pecker_array_iterator<pecker_sdk::pecker_array<pecker_sdk::pecker_share_string_base_t<char,pecker_sdk::pecker_value_compare<char>,pecker_sdk::pecker_simple_allocator<char>,16>,pecker_sdk::pecker_simple_allocator<pecker_sdk::pecker_share_string_base_t<char,pecker_sdk::pecker_value_compare<char>,pecker_sdk::pecker_simple_allocator<char>,16> > > >::increment

; 146  : 	}

	jmp	$LN9@tst_iterat
$LN8@tst_iterat:

; 147  : 
; 148  : 	tst_map.get_iterator(&inorder_iterator);

	lea	eax, DWORD PTR _inorder_iterator$[ebp]
	push	eax
	lea	ecx, DWORD PTR _tst_map$[ebp]
	call	?get_iterator@?$pecker_btst_map_container@DV?$pecker_share_string_base_t@DU?$pecker_value_compare@D@pecker_sdk@@V?$pecker_simple_allocator@D@2@$0BA@@pecker_sdk@@DU?$pecker_tst_map_node@DDU?$pecker_value_compare@D@pecker_sdk@@V?$pecker_simple_allocator@D@2@U_AVL_node_base@2@@2@V?$pecker_nodes_simple_allocater@U?$pecker_tst_map_node@DDU?$pecker_value_compare@D@pecker_sdk@@V?$pecker_simple_allocator@D@2@U_AVL_node_base@2@@pecker_sdk@@V?$pecker_simple_allocator@U?$pecker_tst_map_node@DDU?$pecker_value_compare@D@pecker_sdk@@V?$pecker_simple_allocator@D@2@U_AVL_node_base@2@@pecker_sdk@@@2@@2@@pecker_sdk@@QBEPAU?$Ipecker_bst_tree_iterator@U?$pecker_tst_map_node@DDU?$pecker_value_compare@D@pecker_sdk@@V?$pecker_simple_allocator@D@2@U_AVL_node_base@2@@pecker_sdk@@@2@PAU32@@Z ; pecker_sdk::pecker_btst_map_container<char,pecker_sdk::pecker_share_string_base_t<char,pecker_sdk::pecker_value_compare<char>,pecker_sdk::pecker_simple_allocator<char>,16>,char,pecker_sdk::pecker_tst_map_node<char,char,pecker_sdk::pecker_value_compare<char>,pecker_sdk::pecker_simple_allocator<char>,pecker_sdk::_AVL_node_base>,pecker_sdk::pecker_nodes_simple_allocater<pecker_sdk::pecker_tst_map_node<char,char,pecker_sdk::pecker_value_compare<char>,pecker_sdk::pecker_simple_allocator<char>,pecker_sdk::_AVL_node_base>,pecker_sdk::pecker_simple_allocator<pecker_sdk::pecker_tst_map_node<char,char,pecker_sdk::pecker_value_compare<char>,pecker_sdk::pecker_simple_allocator<char>,pecker_sdk::_AVL_node_base> > > >::get_iterator

; 149  : 
; 150  : 	inorder_iterator.init(ITERATOR_INIT_MIN);

	push	1
	lea	ecx, DWORD PTR _inorder_iterator$[ebp]
	call	?init@?$pecker_tst_tree_no_perent_node_inorder_iterator_base@U?$pecker_tst_map_node@DDU?$pecker_value_compare@D@pecker_sdk@@V?$pecker_simple_allocator@D@2@U_AVL_node_base@2@@pecker_sdk@@V?$pecker_simple_allocator@PBU?$pecker_tst_map_node@DDU?$pecker_value_compare@D@pecker_sdk@@V?$pecker_simple_allocator@D@2@U_AVL_node_base@2@@pecker_sdk@@@2@V?$pecker_simple_allocator@PAPBU?$pecker_tst_map_node@DDU?$pecker_value_compare@D@pecker_sdk@@V?$pecker_simple_allocator@D@2@U_AVL_node_base@2@@pecker_sdk@@@2@@pecker_sdk@@UAEJW4enumTREE_ITERATOR_INIT_TYPE@@@Z ; pecker_sdk::pecker_tst_tree_no_perent_node_inorder_iterator_base<pecker_sdk::pecker_tst_map_node<char,char,pecker_sdk::pecker_value_compare<char>,pecker_sdk::pecker_simple_allocator<char>,pecker_sdk::_AVL_node_base>,pecker_sdk::pecker_simple_allocator<pecker_sdk::pecker_tst_map_node<char,char,pecker_sdk::pecker_value_compare<char>,pecker_sdk::pecker_simple_allocator<char>,pecker_sdk::_AVL_node_base> const *>,pecker_sdk::pecker_simple_allocator<pecker_sdk::pecker_tst_map_node<char,char,pecker_sdk::pecker_value_compare<char>,pecker_sdk::pecker_simple_allocator<char>,pecker_sdk::_AVL_node_base> const * *> >::init

; 151  : 	icount = 1;

	mov	DWORD PTR _icount$[ebp], 1

; 152  : 
; 153  : 	PECKER_LOG_("\nincrement\n",0);

	mov	esi, esp
	push	0
	push	OFFSET ??_C@_0M@EPOJEJMO@?6increment?6?$AA@
	call	DWORD PTR __imp__printf
	add	esp, 8
	cmp	esi, esp
	call	__RTC_CheckEsp
$LN4@tst_iterat:

; 154  : 	while(1)

	mov	eax, 1
	test	eax, eax
	je	$LN3@tst_iterat

; 155  : 	{
; 156  : 
; 157  : 		if (inorder_iterator.get_current_node() && HAS_VALUE_TST_NODE ==inorder_iterator.get_current_node()->_M_legal_flag)

	lea	ecx, DWORD PTR _inorder_iterator$[ebp]
	call	?get_current_node@?$pecker_tst_tree_no_perent_node_inorder_iterator_base@U?$pecker_tst_map_node@DDU?$pecker_value_compare@D@pecker_sdk@@V?$pecker_simple_allocator@D@2@U_AVL_node_base@2@@pecker_sdk@@V?$pecker_simple_allocator@PBU?$pecker_tst_map_node@DDU?$pecker_value_compare@D@pecker_sdk@@V?$pecker_simple_allocator@D@2@U_AVL_node_base@2@@pecker_sdk@@@2@V?$pecker_simple_allocator@PAPBU?$pecker_tst_map_node@DDU?$pecker_value_compare@D@pecker_sdk@@V?$pecker_simple_allocator@D@2@U_AVL_node_base@2@@pecker_sdk@@@2@@pecker_sdk@@UBEPBU?$pecker_tst_map_node@DDU?$pecker_value_compare@D@pecker_sdk@@V?$pecker_simple_allocator@D@2@U_AVL_node_base@2@@2@XZ ; pecker_sdk::pecker_tst_tree_no_perent_node_inorder_iterator_base<pecker_sdk::pecker_tst_map_node<char,char,pecker_sdk::pecker_value_compare<char>,pecker_sdk::pecker_simple_allocator<char>,pecker_sdk::_AVL_node_base>,pecker_sdk::pecker_simple_allocator<pecker_sdk::pecker_tst_map_node<char,char,pecker_sdk::pecker_value_compare<char>,pecker_sdk::pecker_simple_allocator<char>,pecker_sdk::_AVL_node_base> const *>,pecker_sdk::pecker_simple_allocator<pecker_sdk::pecker_tst_map_node<char,char,pecker_sdk::pecker_value_compare<char>,pecker_sdk::pecker_simple_allocator<char>,pecker_sdk::_AVL_node_base> const * *> >::get_current_node
	test	eax, eax
	je	$LN2@tst_iterat
	lea	ecx, DWORD PTR _inorder_iterator$[ebp]
	call	?get_current_node@?$pecker_tst_tree_no_perent_node_inorder_iterator_base@U?$pecker_tst_map_node@DDU?$pecker_value_compare@D@pecker_sdk@@V?$pecker_simple_allocator@D@2@U_AVL_node_base@2@@pecker_sdk@@V?$pecker_simple_allocator@PBU?$pecker_tst_map_node@DDU?$pecker_value_compare@D@pecker_sdk@@V?$pecker_simple_allocator@D@2@U_AVL_node_base@2@@pecker_sdk@@@2@V?$pecker_simple_allocator@PAPBU?$pecker_tst_map_node@DDU?$pecker_value_compare@D@pecker_sdk@@V?$pecker_simple_allocator@D@2@U_AVL_node_base@2@@pecker_sdk@@@2@@pecker_sdk@@UBEPBU?$pecker_tst_map_node@DDU?$pecker_value_compare@D@pecker_sdk@@V?$pecker_simple_allocator@D@2@U_AVL_node_base@2@@2@XZ ; pecker_sdk::pecker_tst_tree_no_perent_node_inorder_iterator_base<pecker_sdk::pecker_tst_map_node<char,char,pecker_sdk::pecker_value_compare<char>,pecker_sdk::pecker_simple_allocator<char>,pecker_sdk::_AVL_node_base>,pecker_sdk::pecker_simple_allocator<pecker_sdk::pecker_tst_map_node<char,char,pecker_sdk::pecker_value_compare<char>,pecker_sdk::pecker_simple_allocator<char>,pecker_sdk::_AVL_node_base> const *>,pecker_sdk::pecker_simple_allocator<pecker_sdk::pecker_tst_map_node<char,char,pecker_sdk::pecker_value_compare<char>,pecker_sdk::pecker_simple_allocator<char>,pecker_sdk::_AVL_node_base> const * *> >::get_current_node
	cmp	DWORD PTR [eax+56], 2
	jne	$LN2@tst_iterat

; 158  : 		{
; 159  : 			PECKER_LOG_("%05d ",icount);

	mov	esi, esp
	mov	eax, DWORD PTR _icount$[ebp]
	push	eax
	push	OFFSET ??_C@_05KFNCDNJC@?$CF05d?5?$AA@
	call	DWORD PTR __imp__printf
	add	esp, 8
	cmp	esi, esp
	call	__RTC_CheckEsp

; 160  : 			print_pecker_string(tst_map.get_key(&inorder_iterator));

	lea	eax, DWORD PTR _inorder_iterator$[ebp]
	push	eax
	lea	ecx, DWORD PTR $T70004[ebp]
	push	ecx
	lea	ecx, DWORD PTR _tst_map$[ebp]
	call	?get_key@?$pecker_btst_map_container@DV?$pecker_share_string_base_t@DU?$pecker_value_compare@D@pecker_sdk@@V?$pecker_simple_allocator@D@2@$0BA@@pecker_sdk@@DU?$pecker_tst_map_node@DDU?$pecker_value_compare@D@pecker_sdk@@V?$pecker_simple_allocator@D@2@U_AVL_node_base@2@@2@V?$pecker_nodes_simple_allocater@U?$pecker_tst_map_node@DDU?$pecker_value_compare@D@pecker_sdk@@V?$pecker_simple_allocator@D@2@U_AVL_node_base@2@@pecker_sdk@@V?$pecker_simple_allocator@U?$pecker_tst_map_node@DDU?$pecker_value_compare@D@pecker_sdk@@V?$pecker_simple_allocator@D@2@U_AVL_node_base@2@@pecker_sdk@@@2@@2@@pecker_sdk@@QBE?AV?$pecker_share_string_base_t@DU?$pecker_value_compare@D@pecker_sdk@@V?$pecker_simple_allocator@D@2@$0BA@@2@PBU?$Ipecker_bst_tree_iterator@U?$pecker_tst_map_node@DDU?$pecker_value_compare@D@pecker_sdk@@V?$pecker_simple_allocator@D@2@U_AVL_node_base@2@@pecker_sdk@@@2@@Z ; pecker_sdk::pecker_btst_map_container<char,pecker_sdk::pecker_share_string_base_t<char,pecker_sdk::pecker_value_compare<char>,pecker_sdk::pecker_simple_allocator<char>,16>,char,pecker_sdk::pecker_tst_map_node<char,char,pecker_sdk::pecker_value_compare<char>,pecker_sdk::pecker_simple_allocator<char>,pecker_sdk::_AVL_node_base>,pecker_sdk::pecker_nodes_simple_allocater<pecker_sdk::pecker_tst_map_node<char,char,pecker_sdk::pecker_value_compare<char>,pecker_sdk::pecker_simple_allocator<char>,pecker_sdk::_AVL_node_base>,pecker_sdk::pecker_simple_allocator<pecker_sdk::pecker_tst_map_node<char,char,pecker_sdk::pecker_value_compare<char>,pecker_sdk::pecker_simple_allocator<char>,pecker_sdk::_AVL_node_base> > > >::get_key
	mov	DWORD PTR tv77[ebp], eax
	mov	edx, DWORD PTR tv77[ebp]
	mov	DWORD PTR tv175[ebp], edx
	mov	BYTE PTR __$EHRec$[ebp+8], 4
	mov	eax, DWORD PTR tv175[ebp]
	push	eax
	call	?print_pecker_string@@YAXABV?$pecker_share_string_base_t@DU?$pecker_value_compare@D@pecker_sdk@@V?$pecker_simple_allocator@D@2@$0BA@@pecker_sdk@@@Z ; print_pecker_string
	add	esp, 4
	mov	BYTE PTR __$EHRec$[ebp+8], 3
	lea	ecx, DWORD PTR $T70004[ebp]
	call	??1?$pecker_share_string_base_t@DU?$pecker_value_compare@D@pecker_sdk@@V?$pecker_simple_allocator@D@2@$0BA@@pecker_sdk@@QAE@XZ ; pecker_sdk::pecker_share_string_base_t<char,pecker_sdk::pecker_value_compare<char>,pecker_sdk::pecker_simple_allocator<char>,16>::~pecker_share_string_base_t<char,pecker_sdk::pecker_value_compare<char>,pecker_sdk::pecker_simple_allocator<char>,16>

; 161  : 			++icount;

	mov	eax, DWORD PTR _icount$[ebp]
	add	eax, 1
	mov	DWORD PTR _icount$[ebp], eax

; 162  : 			PECKER_LOG_("\n",0);

	mov	esi, esp
	push	0
	push	OFFSET ??_C@_01EEMJAFIK@?6?$AA@
	call	DWORD PTR __imp__printf
	add	esp, 8
	cmp	esi, esp
	call	__RTC_CheckEsp
$LN2@tst_iterat:

; 163  : 		}
; 164  : 
; 165  : 
; 166  : 		if (P_OK != inorder_iterator.increment())

	lea	ecx, DWORD PTR _inorder_iterator$[ebp]
	call	?increment@?$pecker_tst_tree_no_perent_node_inorder_iterator_base@U?$pecker_tst_map_node@DDU?$pecker_value_compare@D@pecker_sdk@@V?$pecker_simple_allocator@D@2@U_AVL_node_base@2@@pecker_sdk@@V?$pecker_simple_allocator@PBU?$pecker_tst_map_node@DDU?$pecker_value_compare@D@pecker_sdk@@V?$pecker_simple_allocator@D@2@U_AVL_node_base@2@@pecker_sdk@@@2@V?$pecker_simple_allocator@PAPBU?$pecker_tst_map_node@DDU?$pecker_value_compare@D@pecker_sdk@@V?$pecker_simple_allocator@D@2@U_AVL_node_base@2@@pecker_sdk@@@2@@pecker_sdk@@UAEJXZ ; pecker_sdk::pecker_tst_tree_no_perent_node_inorder_iterator_base<pecker_sdk::pecker_tst_map_node<char,char,pecker_sdk::pecker_value_compare<char>,pecker_sdk::pecker_simple_allocator<char>,pecker_sdk::_AVL_node_base>,pecker_sdk::pecker_simple_allocator<pecker_sdk::pecker_tst_map_node<char,char,pecker_sdk::pecker_value_compare<char>,pecker_sdk::pecker_simple_allocator<char>,pecker_sdk::_AVL_node_base> const *>,pecker_sdk::pecker_simple_allocator<pecker_sdk::pecker_tst_map_node<char,char,pecker_sdk::pecker_value_compare<char>,pecker_sdk::pecker_simple_allocator<char>,pecker_sdk::_AVL_node_base> const * *> >::increment
	test	eax, eax
	je	SHORT $LN1@tst_iterat

; 167  : 		{
; 168  : 			break;

	jmp	SHORT $LN3@tst_iterat
$LN1@tst_iterat:

; 169  : 		}
; 170  : 
; 171  : 	}

	jmp	$LN4@tst_iterat
$LN3@tst_iterat:

; 172  : 
; 173  : }

	mov	BYTE PTR __$EHRec$[ebp+8], 2
	lea	ecx, DWORD PTR _array_iterator1$[ebp]
	call	??1?$pecker_array_iterator@V?$pecker_array@V?$pecker_share_string_base_t@DU?$pecker_value_compare@D@pecker_sdk@@V?$pecker_simple_allocator@D@2@$0BA@@pecker_sdk@@V?$pecker_simple_allocator@V?$pecker_share_string_base_t@DU?$pecker_value_compare@D@pecker_sdk@@V?$pecker_simple_allocator@D@2@$0BA@@pecker_sdk@@@2@@pecker_sdk@@@pecker_sdk@@UAE@XZ ; pecker_sdk::pecker_array_iterator<pecker_sdk::pecker_array<pecker_sdk::pecker_share_string_base_t<char,pecker_sdk::pecker_value_compare<char>,pecker_sdk::pecker_simple_allocator<char>,16>,pecker_sdk::pecker_simple_allocator<pecker_sdk::pecker_share_string_base_t<char,pecker_sdk::pecker_value_compare<char>,pecker_sdk::pecker_simple_allocator<char>,16> > > >::~pecker_array_iterator<pecker_sdk::pecker_array<pecker_sdk::pecker_share_string_base_t<char,pecker_sdk::pecker_value_compare<char>,pecker_sdk::pecker_simple_allocator<char>,16>,pecker_sdk::pecker_simple_allocator<pecker_sdk::pecker_share_string_base_t<char,pecker_sdk::pecker_value_compare<char>,pecker_sdk::pecker_simple_allocator<char>,16> > > >
	mov	BYTE PTR __$EHRec$[ebp+8], 1
	lea	ecx, DWORD PTR _inorder_iterator$[ebp]
	call	??1?$pecker_tst_tree_no_perent_node_inorder_iterator_base@U?$pecker_tst_map_node@DDU?$pecker_value_compare@D@pecker_sdk@@V?$pecker_simple_allocator@D@2@U_AVL_node_base@2@@pecker_sdk@@V?$pecker_simple_allocator@PBU?$pecker_tst_map_node@DDU?$pecker_value_compare@D@pecker_sdk@@V?$pecker_simple_allocator@D@2@U_AVL_node_base@2@@pecker_sdk@@@2@V?$pecker_simple_allocator@PAPBU?$pecker_tst_map_node@DDU?$pecker_value_compare@D@pecker_sdk@@V?$pecker_simple_allocator@D@2@U_AVL_node_base@2@@pecker_sdk@@@2@@pecker_sdk@@UAE@XZ ; pecker_sdk::pecker_tst_tree_no_perent_node_inorder_iterator_base<pecker_sdk::pecker_tst_map_node<char,char,pecker_sdk::pecker_value_compare<char>,pecker_sdk::pecker_simple_allocator<char>,pecker_sdk::_AVL_node_base>,pecker_sdk::pecker_simple_allocator<pecker_sdk::pecker_tst_map_node<char,char,pecker_sdk::pecker_value_compare<char>,pecker_sdk::pecker_simple_allocator<char>,pecker_sdk::_AVL_node_base> const *>,pecker_sdk::pecker_simple_allocator<pecker_sdk::pecker_tst_map_node<char,char,pecker_sdk::pecker_value_compare<char>,pecker_sdk::pecker_simple_allocator<char>,pecker_sdk::_AVL_node_base> const * *> >::~pecker_tst_tree_no_perent_node_inorder_iterator_base<pecker_sdk::pecker_tst_map_node<char,char,pecker_sdk::pecker_value_compare<char>,pecker_sdk::pecker_simple_allocator<char>,pecker_sdk::_AVL_node_base>,pecker_sdk::pecker_simple_allocator<pecker_sdk::pecker_tst_map_node<char,char,pecker_sdk::pecker_value_compare<char>,pecker_sdk::pecker_simple_allocator<char>,pecker_sdk::_AVL_node_base> const *>,pecker_sdk::pecker_simple_allocator<pecker_sdk::pecker_tst_map_node<char,char,pecker_sdk::pecker_value_compare<char>,pecker_sdk::pecker_simple_allocator<char>,pecker_sdk::_AVL_node_base> const * *> >
	mov	BYTE PTR __$EHRec$[ebp+8], 0
	lea	ecx, DWORD PTR _array$[ebp]
	call	??1?$pecker_array@V?$pecker_share_string_base_t@DU?$pecker_value_compare@D@pecker_sdk@@V?$pecker_simple_allocator@D@2@$0BA@@pecker_sdk@@V?$pecker_simple_allocator@V?$pecker_share_string_base_t@DU?$pecker_value_compare@D@pecker_sdk@@V?$pecker_simple_allocator@D@2@$0BA@@pecker_sdk@@@2@@pecker_sdk@@UAE@XZ ; pecker_sdk::pecker_array<pecker_sdk::pecker_share_string_base_t<char,pecker_sdk::pecker_value_compare<char>,pecker_sdk::pecker_simple_allocator<char>,16>,pecker_sdk::pecker_simple_allocator<pecker_sdk::pecker_share_string_base_t<char,pecker_sdk::pecker_value_compare<char>,pecker_sdk::pecker_simple_allocator<char>,16> > >::~pecker_array<pecker_sdk::pecker_share_string_base_t<char,pecker_sdk::pecker_value_compare<char>,pecker_sdk::pecker_simple_allocator<char>,16>,pecker_sdk::pecker_simple_allocator<pecker_sdk::pecker_share_string_base_t<char,pecker_sdk::pecker_value_compare<char>,pecker_sdk::pecker_simple_allocator<char>,16> > >
	mov	DWORD PTR __$EHRec$[ebp+8], -1
	lea	ecx, DWORD PTR _tst_map$[ebp]
	call	??1?$pecker_btst_map_container@DV?$pecker_share_string_base_t@DU?$pecker_value_compare@D@pecker_sdk@@V?$pecker_simple_allocator@D@2@$0BA@@pecker_sdk@@DU?$pecker_tst_map_node@DDU?$pecker_value_compare@D@pecker_sdk@@V?$pecker_simple_allocator@D@2@U_AVL_node_base@2@@2@V?$pecker_nodes_simple_allocater@U?$pecker_tst_map_node@DDU?$pecker_value_compare@D@pecker_sdk@@V?$pecker_simple_allocator@D@2@U_AVL_node_base@2@@pecker_sdk@@V?$pecker_simple_allocator@U?$pecker_tst_map_node@DDU?$pecker_value_compare@D@pecker_sdk@@V?$pecker_simple_allocator@D@2@U_AVL_node_base@2@@pecker_sdk@@@2@@2@@pecker_sdk@@QAE@XZ ; pecker_sdk::pecker_btst_map_container<char,pecker_sdk::pecker_share_string_base_t<char,pecker_sdk::pecker_value_compare<char>,pecker_sdk::pecker_simple_allocator<char>,16>,char,pecker_sdk::pecker_tst_map_node<char,char,pecker_sdk::pecker_value_compare<char>,pecker_sdk::pecker_simple_allocator<char>,pecker_sdk::_AVL_node_base>,pecker_sdk::pecker_nodes_simple_allocater<pecker_sdk::pecker_tst_map_node<char,char,pecker_sdk::pecker_value_compare<char>,pecker_sdk::pecker_simple_allocator<char>,pecker_sdk::_AVL_node_base>,pecker_sdk::pecker_simple_allocator<pecker_sdk::pecker_tst_map_node<char,char,pecker_sdk::pecker_value_compare<char>,pecker_sdk::pecker_simple_allocator<char>,pecker_sdk::_AVL_node_base> > > >::~pecker_btst_map_container<char,pecker_sdk::pecker_share_string_base_t<char,pecker_sdk::pecker_value_compare<char>,pecker_sdk::pecker_simple_allocator<char>,16>,char,pecker_sdk::pecker_tst_map_node<char,char,pecker_sdk::pecker_value_compare<char>,pecker_sdk::pecker_simple_allocator<char>,pecker_sdk::_AVL_node_base>,pecker_sdk::pecker_nodes_simple_allocater<pecker_sdk::pecker_tst_map_node<char,char,pecker_sdk::pecker_value_compare<char>,pecker_sdk::pecker_simple_allocator<char>,pecker_sdk::_AVL_node_base>,pecker_sdk::pecker_simple_allocator<pecker_sdk::pecker_tst_map_node<char,char,pecker_sdk::pecker_value_compare<char>,pecker_sdk::pecker_simple_allocator<char>,pecker_sdk::_AVL_node_base> > > >
	push	edx
	mov	ecx, ebp
	push	eax
	lea	edx, DWORD PTR $LN23@tst_iterat
	call	@_RTC_CheckStackVars@8
	pop	eax
	pop	edx
	mov	ecx, DWORD PTR __$EHRec$[ebp]
	mov	DWORD PTR fs:0, ecx
	pop	ecx
	pop	edi
	pop	esi
	pop	ebx
	mov	ecx, DWORD PTR __$ArrayPad$[ebp]
	xor	ecx, ebp
	call	@__security_check_cookie@4
	add	esp, 924				; 0000039cH
	cmp	ebp, esp
	call	__RTC_CheckEsp
	mov	esp, ebp
	pop	ebp
	ret	0
	npad	3
$LN23@tst_iterat:
	DD	4
	DD	$LN22@tst_iterat
$LN22@tst_iterat:
	DD	-36					; ffffffdcH
	DD	16					; 00000010H
	DD	$LN17@tst_iterat
	DD	-64					; ffffffc0H
	DD	20					; 00000014H
	DD	$LN18@tst_iterat
	DD	-608					; fffffda0H
	DD	536					; 00000218H
	DD	$LN19@tst_iterat
	DD	-628					; fffffd8cH
	DD	12					; 0000000cH
	DD	$LN20@tst_iterat
$LN20@tst_iterat:
	DB	97					; 00000061H
	DB	114					; 00000072H
	DB	114					; 00000072H
	DB	97					; 00000061H
	DB	121					; 00000079H
	DB	95					; 0000005fH
	DB	105					; 00000069H
	DB	116					; 00000074H
	DB	101					; 00000065H
	DB	114					; 00000072H
	DB	97					; 00000061H
	DB	116					; 00000074H
	DB	111					; 0000006fH
	DB	114					; 00000072H
	DB	49					; 00000031H
	DB	0
$LN19@tst_iterat:
	DB	105					; 00000069H
	DB	110					; 0000006eH
	DB	111					; 0000006fH
	DB	114					; 00000072H
	DB	100					; 00000064H
	DB	101					; 00000065H
	DB	114					; 00000072H
	DB	95					; 0000005fH
	DB	105					; 00000069H
	DB	116					; 00000074H
	DB	101					; 00000065H
	DB	114					; 00000072H
	DB	97					; 00000061H
	DB	116					; 00000074H
	DB	111					; 0000006fH
	DB	114					; 00000072H
	DB	0
$LN18@tst_iterat:
	DB	97					; 00000061H
	DB	114					; 00000072H
	DB	114					; 00000072H
	DB	97					; 00000061H
	DB	121					; 00000079H
	DB	0
$LN17@tst_iterat:
	DB	116					; 00000074H
	DB	115					; 00000073H
	DB	116					; 00000074H
	DB	95					; 0000005fH
	DB	109					; 0000006dH
	DB	97					; 00000061H
	DB	112					; 00000070H
	DB	0
_TEXT	ENDS
;	COMDAT text$x
text$x	SEGMENT
__unwindfunclet$?tst_iterator_test_value@@YAXXZ$0:
	lea	ecx, DWORD PTR _tst_map$[ebp]
	jmp	??1?$pecker_btst_map_container@DV?$pecker_share_string_base_t@DU?$pecker_value_compare@D@pecker_sdk@@V?$pecker_simple_allocator@D@2@$0BA@@pecker_sdk@@DU?$pecker_tst_map_node@DDU?$pecker_value_compare@D@pecker_sdk@@V?$pecker_simple_allocator@D@2@U_AVL_node_base@2@@2@V?$pecker_nodes_simple_allocater@U?$pecker_tst_map_node@DDU?$pecker_value_compare@D@pecker_sdk@@V?$pecker_simple_allocator@D@2@U_AVL_node_base@2@@pecker_sdk@@V?$pecker_simple_allocator@U?$pecker_tst_map_node@DDU?$pecker_value_compare@D@pecker_sdk@@V?$pecker_simple_allocator@D@2@U_AVL_node_base@2@@pecker_sdk@@@2@@2@@pecker_sdk@@QAE@XZ ; pecker_sdk::pecker_btst_map_container<char,pecker_sdk::pecker_share_string_base_t<char,pecker_sdk::pecker_value_compare<char>,pecker_sdk::pecker_simple_allocator<char>,16>,char,pecker_sdk::pecker_tst_map_node<char,char,pecker_sdk::pecker_value_compare<char>,pecker_sdk::pecker_simple_allocator<char>,pecker_sdk::_AVL_node_base>,pecker_sdk::pecker_nodes_simple_allocater<pecker_sdk::pecker_tst_map_node<char,char,pecker_sdk::pecker_value_compare<char>,pecker_sdk::pecker_simple_allocator<char>,pecker_sdk::_AVL_node_base>,pecker_sdk::pecker_simple_allocator<pecker_sdk::pecker_tst_map_node<char,char,pecker_sdk::pecker_value_compare<char>,pecker_sdk::pecker_simple_allocator<char>,pecker_sdk::_AVL_node_base> > > >::~pecker_btst_map_container<char,pecker_sdk::pecker_share_string_base_t<char,pecker_sdk::pecker_value_compare<char>,pecker_sdk::pecker_simple_allocator<char>,16>,char,pecker_sdk::pecker_tst_map_node<char,char,pecker_sdk::pecker_value_compare<char>,pecker_sdk::pecker_simple_allocator<char>,pecker_sdk::_AVL_node_base>,pecker_sdk::pecker_nodes_simple_allocater<pecker_sdk::pecker_tst_map_node<char,char,pecker_sdk::pecker_value_compare<char>,pecker_sdk::pecker_simple_allocator<char>,pecker_sdk::_AVL_node_base>,pecker_sdk::pecker_simple_allocator<pecker_sdk::pecker_tst_map_node<char,char,pecker_sdk::pecker_value_compare<char>,pecker_sdk::pecker_simple_allocator<char>,pecker_sdk::_AVL_node_base> > > >
__unwindfunclet$?tst_iterator_test_value@@YAXXZ$1:
	lea	ecx, DWORD PTR _array$[ebp]
	jmp	??1?$pecker_array@V?$pecker_share_string_base_t@DU?$pecker_value_compare@D@pecker_sdk@@V?$pecker_simple_allocator@D@2@$0BA@@pecker_sdk@@V?$pecker_simple_allocator@V?$pecker_share_string_base_t@DU?$pecker_value_compare@D@pecker_sdk@@V?$pecker_simple_allocator@D@2@$0BA@@pecker_sdk@@@2@@pecker_sdk@@UAE@XZ ; pecker_sdk::pecker_array<pecker_sdk::pecker_share_string_base_t<char,pecker_sdk::pecker_value_compare<char>,pecker_sdk::pecker_simple_allocator<char>,16>,pecker_sdk::pecker_simple_allocator<pecker_sdk::pecker_share_string_base_t<char,pecker_sdk::pecker_value_compare<char>,pecker_sdk::pecker_simple_allocator<char>,16> > >::~pecker_array<pecker_sdk::pecker_share_string_base_t<char,pecker_sdk::pecker_value_compare<char>,pecker_sdk::pecker_simple_allocator<char>,16>,pecker_sdk::pecker_simple_allocator<pecker_sdk::pecker_share_string_base_t<char,pecker_sdk::pecker_value_compare<char>,pecker_sdk::pecker_simple_allocator<char>,16> > >
__unwindfunclet$?tst_iterator_test_value@@YAXXZ$2:
	lea	ecx, DWORD PTR _inorder_iterator$[ebp]
	jmp	??1?$pecker_tst_tree_no_perent_node_inorder_iterator_base@U?$pecker_tst_map_node@DDU?$pecker_value_compare@D@pecker_sdk@@V?$pecker_simple_allocator@D@2@U_AVL_node_base@2@@pecker_sdk@@V?$pecker_simple_allocator@PBU?$pecker_tst_map_node@DDU?$pecker_value_compare@D@pecker_sdk@@V?$pecker_simple_allocator@D@2@U_AVL_node_base@2@@pecker_sdk@@@2@V?$pecker_simple_allocator@PAPBU?$pecker_tst_map_node@DDU?$pecker_value_compare@D@pecker_sdk@@V?$pecker_simple_allocator@D@2@U_AVL_node_base@2@@pecker_sdk@@@2@@pecker_sdk@@UAE@XZ ; pecker_sdk::pecker_tst_tree_no_perent_node_inorder_iterator_base<pecker_sdk::pecker_tst_map_node<char,char,pecker_sdk::pecker_value_compare<char>,pecker_sdk::pecker_simple_allocator<char>,pecker_sdk::_AVL_node_base>,pecker_sdk::pecker_simple_allocator<pecker_sdk::pecker_tst_map_node<char,char,pecker_sdk::pecker_value_compare<char>,pecker_sdk::pecker_simple_allocator<char>,pecker_sdk::_AVL_node_base> const *>,pecker_sdk::pecker_simple_allocator<pecker_sdk::pecker_tst_map_node<char,char,pecker_sdk::pecker_value_compare<char>,pecker_sdk::pecker_simple_allocator<char>,pecker_sdk::_AVL_node_base> const * *> >::~pecker_tst_tree_no_perent_node_inorder_iterator_base<pecker_sdk::pecker_tst_map_node<char,char,pecker_sdk::pecker_value_compare<char>,pecker_sdk::pecker_simple_allocator<char>,pecker_sdk::_AVL_node_base>,pecker_sdk::pecker_simple_allocator<pecker_sdk::pecker_tst_map_node<char,char,pecker_sdk::pecker_value_compare<char>,pecker_sdk::pecker_simple_allocator<char>,pecker_sdk::_AVL_node_base> const *>,pecker_sdk::pecker_simple_allocator<pecker_sdk::pecker_tst_map_node<char,char,pecker_sdk::pecker_value_compare<char>,pecker_sdk::pecker_simple_allocator<char>,pecker_sdk::_AVL_node_base> const * *> >
__unwindfunclet$?tst_iterator_test_value@@YAXXZ$3:
	lea	ecx, DWORD PTR _array_iterator1$[ebp]
	jmp	??1?$pecker_array_iterator@V?$pecker_array@V?$pecker_share_string_base_t@DU?$pecker_value_compare@D@pecker_sdk@@V?$pecker_simple_allocator@D@2@$0BA@@pecker_sdk@@V?$pecker_simple_allocator@V?$pecker_share_string_base_t@DU?$pecker_value_compare@D@pecker_sdk@@V?$pecker_simple_allocator@D@2@$0BA@@pecker_sdk@@@2@@pecker_sdk@@@pecker_sdk@@UAE@XZ ; pecker_sdk::pecker_array_iterator<pecker_sdk::pecker_array<pecker_sdk::pecker_share_string_base_t<char,pecker_sdk::pecker_value_compare<char>,pecker_sdk::pecker_simple_allocator<char>,16>,pecker_sdk::pecker_simple_allocator<pecker_sdk::pecker_share_string_base_t<char,pecker_sdk::pecker_value_compare<char>,pecker_sdk::pecker_simple_allocator<char>,16> > > >::~pecker_array_iterator<pecker_sdk::pecker_array<pecker_sdk::pecker_share_string_base_t<char,pecker_sdk::pecker_value_compare<char>,pecker_sdk::pecker_simple_allocator<char>,16>,pecker_sdk::pecker_simple_allocator<pecker_sdk::pecker_share_string_base_t<char,pecker_sdk::pecker_value_compare<char>,pecker_sdk::pecker_simple_allocator<char>,16> > > >
__unwindfunclet$?tst_iterator_test_value@@YAXXZ$4:
	lea	ecx, DWORD PTR $T70004[ebp]
	jmp	??1?$pecker_share_string_base_t@DU?$pecker_value_compare@D@pecker_sdk@@V?$pecker_simple_allocator@D@2@$0BA@@pecker_sdk@@QAE@XZ ; pecker_sdk::pecker_share_string_base_t<char,pecker_sdk::pecker_value_compare<char>,pecker_sdk::pecker_simple_allocator<char>,16>::~pecker_share_string_base_t<char,pecker_sdk::pecker_value_compare<char>,pecker_sdk::pecker_simple_allocator<char>,16>
__ehhandler$?tst_iterator_test_value@@YAXXZ:
	mov	edx, DWORD PTR [esp+8]
	lea	eax, DWORD PTR [edx+12]
	mov	ecx, DWORD PTR [edx-928]
	xor	ecx, eax
	call	@__security_check_cookie@4
	mov	ecx, DWORD PTR [edx-4]
	xor	ecx, eax
	call	@__security_check_cookie@4
	mov	eax, OFFSET __ehfuncinfo$?tst_iterator_test_value@@YAXXZ
	jmp	___CxxFrameHandler3
text$x	ENDS
?tst_iterator_test_value@@YAXXZ ENDP			; tst_iterator_test_value
PUBLIC	??_C@_09JJPCNFAG@clear?4?4?4?6?$AA@		; `string'
PUBLIC	?copy@?$pecker_btst_map_container@DV?$pecker_share_string_base_t@DU?$pecker_value_compare@D@pecker_sdk@@V?$pecker_simple_allocator@D@2@$0BA@@pecker_sdk@@DU?$pecker_tst_map_node@DDU?$pecker_value_compare@D@pecker_sdk@@V?$pecker_simple_allocator@D@2@U_AVL_node_base@2@@2@V?$pecker_nodes_simple_allocater@U?$pecker_tst_map_node@DDU?$pecker_value_compare@D@pecker_sdk@@V?$pecker_simple_allocator@D@2@U_AVL_node_base@2@@pecker_sdk@@V?$pecker_simple_allocator@U?$pecker_tst_map_node@DDU?$pecker_value_compare@D@pecker_sdk@@V?$pecker_simple_allocator@D@2@U_AVL_node_base@2@@pecker_sdk@@@2@@2@@pecker_sdk@@QAEJPBV12@@Z ; pecker_sdk::pecker_btst_map_container<char,pecker_sdk::pecker_share_string_base_t<char,pecker_sdk::pecker_value_compare<char>,pecker_sdk::pecker_simple_allocator<char>,16>,char,pecker_sdk::pecker_tst_map_node<char,char,pecker_sdk::pecker_value_compare<char>,pecker_sdk::pecker_simple_allocator<char>,pecker_sdk::_AVL_node_base>,pecker_sdk::pecker_nodes_simple_allocater<pecker_sdk::pecker_tst_map_node<char,char,pecker_sdk::pecker_value_compare<char>,pecker_sdk::pecker_simple_allocator<char>,pecker_sdk::_AVL_node_base>,pecker_sdk::pecker_simple_allocator<pecker_sdk::pecker_tst_map_node<char,char,pecker_sdk::pecker_value_compare<char>,pecker_sdk::pecker_simple_allocator<char>,pecker_sdk::_AVL_node_base> > > >::copy
PUBLIC	??_C@_0O@JJNINELH@copy?5testing?6?$AA@		; `string'
PUBLIC	__$ArrayPad$
PUBLIC	?tst_iterator_test_clear@@YAXXZ			; tst_iterator_test_clear
;	COMDAT ??_C@_09JJPCNFAG@clear?4?4?4?6?$AA@
CONST	SEGMENT
??_C@_09JJPCNFAG@clear?4?4?4?6?$AA@ DB 'clear...', 0aH, 00H ; `string'
CONST	ENDS
;	COMDAT ??_C@_0O@JJNINELH@copy?5testing?6?$AA@
CONST	SEGMENT
??_C@_0O@JJNINELH@copy?5testing?6?$AA@ DB 'copy testing', 0aH, 00H ; `string'
CONST	ENDS
;	COMDAT xdata$x
xdata$x	SEGMENT
__ehfuncinfo$?tst_iterator_test_clear@@YAXXZ DD 019930522H
	DD	07H
	DD	FLAT:__unwindtable$?tst_iterator_test_clear@@YAXXZ
	DD	2 DUP(00H)
	DD	2 DUP(00H)
	DD	00H
	DD	01H
__unwindtable$?tst_iterator_test_clear@@YAXXZ DD 0ffffffffH
	DD	FLAT:__unwindfunclet$?tst_iterator_test_clear@@YAXXZ$0
	DD	00H
	DD	FLAT:__unwindfunclet$?tst_iterator_test_clear@@YAXXZ$1
	DD	01H
	DD	FLAT:__unwindfunclet$?tst_iterator_test_clear@@YAXXZ$2
	DD	02H
	DD	FLAT:__unwindfunclet$?tst_iterator_test_clear@@YAXXZ$3
	DD	03H
	DD	FLAT:__unwindfunclet$?tst_iterator_test_clear@@YAXXZ$4
	DD	04H
	DD	FLAT:__unwindfunclet$?tst_iterator_test_clear@@YAXXZ$5
	DD	04H
	DD	FLAT:__unwindfunclet$?tst_iterator_test_clear@@YAXXZ$6
; Function compile flags: /Odtp /RTCsu /ZI
xdata$x	ENDS
;	COMDAT ?tst_iterator_test_clear@@YAXXZ
_TEXT	SEGMENT
tv232 = -1028						; size = 4
tv230 = -1028						; size = 4
tv80 = -1024						; size = 4
tv75 = -1024						; size = 4
$T70044 = -1016						; size = 36
$T70050 = -972						; size = 36
$T73448 = -925						; size = 1
$T73449 = -913						; size = 1
_res$70037 = -712					; size = 4
_pvalue$70035 = -700					; size = 4
_res$70028 = -688					; size = 4
_pvalue$70026 = -676					; size = 4
_icount$ = -664						; size = 4
_array_iterator1$ = -652				; size = 12
_inorder_iterator$ = -632				; size = 536
_array$ = -88						; size = 20
_tst_map$ = -60						; size = 16
_tst_map_og$ = -36					; size = 16
__$ArrayPad$ = -16					; size = 4
__$EHRec$ = -12						; size = 12
?tst_iterator_test_clear@@YAXXZ PROC			; tst_iterator_test_clear, COMDAT

; 175  : {

	push	ebp
	mov	ebp, esp
	push	-1
	push	__ehhandler$?tst_iterator_test_clear@@YAXXZ
	mov	eax, DWORD PTR fs:0
	push	eax
	sub	esp, 1016				; 000003f8H
	push	ebx
	push	esi
	push	edi
	lea	edi, DWORD PTR [ebp-1028]
	mov	ecx, 254				; 000000feH
	mov	eax, -858993460				; ccccccccH
	rep stosd
	mov	eax, DWORD PTR ___security_cookie
	xor	eax, ebp
	mov	DWORD PTR __$ArrayPad$[ebp], eax
	push	eax
	lea	eax, DWORD PTR __$EHRec$[ebp]
	mov	DWORD PTR fs:0, eax

; 176  : 	BTSTree tst_map_og;

	lea	ecx, DWORD PTR _tst_map_og$[ebp]
	call	??0?$pecker_btst_map_container@DV?$pecker_share_string_base_t@DU?$pecker_value_compare@D@pecker_sdk@@V?$pecker_simple_allocator@D@2@$0BA@@pecker_sdk@@DU?$pecker_tst_map_node@DDU?$pecker_value_compare@D@pecker_sdk@@V?$pecker_simple_allocator@D@2@U_AVL_node_base@2@@2@V?$pecker_nodes_simple_allocater@U?$pecker_tst_map_node@DDU?$pecker_value_compare@D@pecker_sdk@@V?$pecker_simple_allocator@D@2@U_AVL_node_base@2@@pecker_sdk@@V?$pecker_simple_allocator@U?$pecker_tst_map_node@DDU?$pecker_value_compare@D@pecker_sdk@@V?$pecker_simple_allocator@D@2@U_AVL_node_base@2@@pecker_sdk@@@2@@2@@pecker_sdk@@QAE@XZ ; pecker_sdk::pecker_btst_map_container<char,pecker_sdk::pecker_share_string_base_t<char,pecker_sdk::pecker_value_compare<char>,pecker_sdk::pecker_simple_allocator<char>,16>,char,pecker_sdk::pecker_tst_map_node<char,char,pecker_sdk::pecker_value_compare<char>,pecker_sdk::pecker_simple_allocator<char>,pecker_sdk::_AVL_node_base>,pecker_sdk::pecker_nodes_simple_allocater<pecker_sdk::pecker_tst_map_node<char,char,pecker_sdk::pecker_value_compare<char>,pecker_sdk::pecker_simple_allocator<char>,pecker_sdk::_AVL_node_base>,pecker_sdk::pecker_simple_allocator<pecker_sdk::pecker_tst_map_node<char,char,pecker_sdk::pecker_value_compare<char>,pecker_sdk::pecker_simple_allocator<char>,pecker_sdk::_AVL_node_base> > > >::pecker_btst_map_container<char,pecker_sdk::pecker_share_string_base_t<char,pecker_sdk::pecker_value_compare<char>,pecker_sdk::pecker_simple_allocator<char>,16>,char,pecker_sdk::pecker_tst_map_node<char,char,pecker_sdk::pecker_value_compare<char>,pecker_sdk::pecker_simple_allocator<char>,pecker_sdk::_AVL_node_base>,pecker_sdk::pecker_nodes_simple_allocater<pecker_sdk::pecker_tst_map_node<char,char,pecker_sdk::pecker_value_compare<char>,pecker_sdk::pecker_simple_allocator<char>,pecker_sdk::_AVL_node_base>,pecker_sdk::pecker_simple_allocator<pecker_sdk::pecker_tst_map_node<char,char,pecker_sdk::pecker_value_compare<char>,pecker_sdk::pecker_simple_allocator<char>,pecker_sdk::_AVL_node_base> > > >
	mov	DWORD PTR __$EHRec$[ebp+8], 0

; 177  : 	BTSTree tst_map;

	lea	ecx, DWORD PTR _tst_map$[ebp]
	call	??0?$pecker_btst_map_container@DV?$pecker_share_string_base_t@DU?$pecker_value_compare@D@pecker_sdk@@V?$pecker_simple_allocator@D@2@$0BA@@pecker_sdk@@DU?$pecker_tst_map_node@DDU?$pecker_value_compare@D@pecker_sdk@@V?$pecker_simple_allocator@D@2@U_AVL_node_base@2@@2@V?$pecker_nodes_simple_allocater@U?$pecker_tst_map_node@DDU?$pecker_value_compare@D@pecker_sdk@@V?$pecker_simple_allocator@D@2@U_AVL_node_base@2@@pecker_sdk@@V?$pecker_simple_allocator@U?$pecker_tst_map_node@DDU?$pecker_value_compare@D@pecker_sdk@@V?$pecker_simple_allocator@D@2@U_AVL_node_base@2@@pecker_sdk@@@2@@2@@pecker_sdk@@QAE@XZ ; pecker_sdk::pecker_btst_map_container<char,pecker_sdk::pecker_share_string_base_t<char,pecker_sdk::pecker_value_compare<char>,pecker_sdk::pecker_simple_allocator<char>,16>,char,pecker_sdk::pecker_tst_map_node<char,char,pecker_sdk::pecker_value_compare<char>,pecker_sdk::pecker_simple_allocator<char>,pecker_sdk::_AVL_node_base>,pecker_sdk::pecker_nodes_simple_allocater<pecker_sdk::pecker_tst_map_node<char,char,pecker_sdk::pecker_value_compare<char>,pecker_sdk::pecker_simple_allocator<char>,pecker_sdk::_AVL_node_base>,pecker_sdk::pecker_simple_allocator<pecker_sdk::pecker_tst_map_node<char,char,pecker_sdk::pecker_value_compare<char>,pecker_sdk::pecker_simple_allocator<char>,pecker_sdk::_AVL_node_base> > > >::pecker_btst_map_container<char,pecker_sdk::pecker_share_string_base_t<char,pecker_sdk::pecker_value_compare<char>,pecker_sdk::pecker_simple_allocator<char>,16>,char,pecker_sdk::pecker_tst_map_node<char,char,pecker_sdk::pecker_value_compare<char>,pecker_sdk::pecker_simple_allocator<char>,pecker_sdk::_AVL_node_base>,pecker_sdk::pecker_nodes_simple_allocater<pecker_sdk::pecker_tst_map_node<char,char,pecker_sdk::pecker_value_compare<char>,pecker_sdk::pecker_simple_allocator<char>,pecker_sdk::_AVL_node_base>,pecker_sdk::pecker_simple_allocator<pecker_sdk::pecker_tst_map_node<char,char,pecker_sdk::pecker_value_compare<char>,pecker_sdk::pecker_simple_allocator<char>,pecker_sdk::_AVL_node_base> > > >
	mov	BYTE PTR __$EHRec$[ebp+8], 1

; 178  : 	pecker_array< String_base > array;

	push	16					; 00000010H
	lea	ecx, DWORD PTR _array$[ebp]
	call	??0?$pecker_array@V?$pecker_share_string_base_t@DU?$pecker_value_compare@D@pecker_sdk@@V?$pecker_simple_allocator@D@2@$0BA@@pecker_sdk@@V?$pecker_simple_allocator@V?$pecker_share_string_base_t@DU?$pecker_value_compare@D@pecker_sdk@@V?$pecker_simple_allocator@D@2@$0BA@@pecker_sdk@@@2@@pecker_sdk@@QAE@H@Z ; pecker_sdk::pecker_array<pecker_sdk::pecker_share_string_base_t<char,pecker_sdk::pecker_value_compare<char>,pecker_sdk::pecker_simple_allocator<char>,16>,pecker_sdk::pecker_simple_allocator<pecker_sdk::pecker_share_string_base_t<char,pecker_sdk::pecker_value_compare<char>,pecker_sdk::pecker_simple_allocator<char>,16> > >::pecker_array<pecker_sdk::pecker_share_string_base_t<char,pecker_sdk::pecker_value_compare<char>,pecker_sdk::pecker_simple_allocator<char>,16>,pecker_sdk::pecker_simple_allocator<pecker_sdk::pecker_share_string_base_t<char,pecker_sdk::pecker_value_compare<char>,pecker_sdk::pecker_simple_allocator<char>,16> > >
	mov	BYTE PTR __$EHRec$[ebp+8], 2

; 179  : 	_TST_inorder_iterator inorder_iterator;

	push	0
	lea	ecx, DWORD PTR _inorder_iterator$[ebp]
	call	??0?$pecker_tst_tree_no_perent_node_inorder_iterator_base@U?$pecker_tst_map_node@DDU?$pecker_value_compare@D@pecker_sdk@@V?$pecker_simple_allocator@D@2@U_AVL_node_base@2@@pecker_sdk@@V?$pecker_simple_allocator@PBU?$pecker_tst_map_node@DDU?$pecker_value_compare@D@pecker_sdk@@V?$pecker_simple_allocator@D@2@U_AVL_node_base@2@@pecker_sdk@@@2@V?$pecker_simple_allocator@PAPBU?$pecker_tst_map_node@DDU?$pecker_value_compare@D@pecker_sdk@@V?$pecker_simple_allocator@D@2@U_AVL_node_base@2@@pecker_sdk@@@2@@pecker_sdk@@QAE@PBU?$pecker_tst_map_node@DDU?$pecker_value_compare@D@pecker_sdk@@V?$pecker_simple_allocator@D@2@U_AVL_node_base@2@@1@@Z ; pecker_sdk::pecker_tst_tree_no_perent_node_inorder_iterator_base<pecker_sdk::pecker_tst_map_node<char,char,pecker_sdk::pecker_value_compare<char>,pecker_sdk::pecker_simple_allocator<char>,pecker_sdk::_AVL_node_base>,pecker_sdk::pecker_simple_allocator<pecker_sdk::pecker_tst_map_node<char,char,pecker_sdk::pecker_value_compare<char>,pecker_sdk::pecker_simple_allocator<char>,pecker_sdk::_AVL_node_base> const *>,pecker_sdk::pecker_simple_allocator<pecker_sdk::pecker_tst_map_node<char,char,pecker_sdk::pecker_value_compare<char>,pecker_sdk::pecker_simple_allocator<char>,pecker_sdk::_AVL_node_base> const * *> >::pecker_tst_tree_no_perent_node_inorder_iterator_base<pecker_sdk::pecker_tst_map_node<char,char,pecker_sdk::pecker_value_compare<char>,pecker_sdk::pecker_simple_allocator<char>,pecker_sdk::_AVL_node_base>,pecker_sdk::pecker_simple_allocator<pecker_sdk::pecker_tst_map_node<char,char,pecker_sdk::pecker_value_compare<char>,pecker_sdk::pecker_simple_allocator<char>,pecker_sdk::_AVL_node_base> const *>,pecker_sdk::pecker_simple_allocator<pecker_sdk::pecker_tst_map_node<char,char,pecker_sdk::pecker_value_compare<char>,pecker_sdk::pecker_simple_allocator<char>,pecker_sdk::_AVL_node_base> const * *> >
	mov	BYTE PTR __$EHRec$[ebp+8], 3

; 180  : 
; 181  : 	init_input_data2(array);

	lea	eax, DWORD PTR _array$[ebp]
	push	eax
	call	?init_input_data2@@YAXAAV?$pecker_array@V?$pecker_share_string_base_t@DU?$pecker_value_compare@D@pecker_sdk@@V?$pecker_simple_allocator@D@2@$0BA@@pecker_sdk@@V?$pecker_simple_allocator@V?$pecker_share_string_base_t@DU?$pecker_value_compare@D@pecker_sdk@@V?$pecker_simple_allocator@D@2@$0BA@@pecker_sdk@@@2@@pecker_sdk@@@Z ; init_input_data2
	add	esp, 4

; 182  : 	pecker_array_iterator< pecker_array<String_base> >array_iterator1;

	push	0
	lea	ecx, DWORD PTR _array_iterator1$[ebp]
	call	??0?$pecker_array_iterator@V?$pecker_array@V?$pecker_share_string_base_t@DU?$pecker_value_compare@D@pecker_sdk@@V?$pecker_simple_allocator@D@2@$0BA@@pecker_sdk@@V?$pecker_simple_allocator@V?$pecker_share_string_base_t@DU?$pecker_value_compare@D@pecker_sdk@@V?$pecker_simple_allocator@D@2@$0BA@@pecker_sdk@@@2@@pecker_sdk@@@pecker_sdk@@QAE@PBV?$pecker_array@V?$pecker_share_string_base_t@DU?$pecker_value_compare@D@pecker_sdk@@V?$pecker_simple_allocator@D@2@$0BA@@pecker_sdk@@V?$pecker_simple_allocator@V?$pecker_share_string_base_t@DU?$pecker_value_compare@D@pecker_sdk@@V?$pecker_simple_allocator@D@2@$0BA@@pecker_sdk@@@2@@1@@Z ; pecker_sdk::pecker_array_iterator<pecker_sdk::pecker_array<pecker_sdk::pecker_share_string_base_t<char,pecker_sdk::pecker_value_compare<char>,pecker_sdk::pecker_simple_allocator<char>,16>,pecker_sdk::pecker_simple_allocator<pecker_sdk::pecker_share_string_base_t<char,pecker_sdk::pecker_value_compare<char>,pecker_sdk::pecker_simple_allocator<char>,16> > > >::pecker_array_iterator<pecker_sdk::pecker_array<pecker_sdk::pecker_share_string_base_t<char,pecker_sdk::pecker_value_compare<char>,pecker_sdk::pecker_simple_allocator<char>,16>,pecker_sdk::pecker_simple_allocator<pecker_sdk::pecker_share_string_base_t<char,pecker_sdk::pecker_value_compare<char>,pecker_sdk::pecker_simple_allocator<char>,16> > > >
	mov	BYTE PTR __$EHRec$[ebp+8], 4

; 183  : 	array.get_iterator(&array_iterator1);

	lea	eax, DWORD PTR _array_iterator1$[ebp]
	push	eax
	lea	ecx, DWORD PTR _array$[ebp]
	call	?get_iterator@?$pecker_array@V?$pecker_share_string_base_t@DU?$pecker_value_compare@D@pecker_sdk@@V?$pecker_simple_allocator@D@2@$0BA@@pecker_sdk@@V?$pecker_simple_allocator@V?$pecker_share_string_base_t@DU?$pecker_value_compare@D@pecker_sdk@@V?$pecker_simple_allocator@D@2@$0BA@@pecker_sdk@@@2@@pecker_sdk@@QBEPAV?$pecker_array_iterator@V?$pecker_array@V?$pecker_share_string_base_t@DU?$pecker_value_compare@D@pecker_sdk@@V?$pecker_simple_allocator@D@2@$0BA@@pecker_sdk@@V?$pecker_simple_allocator@V?$pecker_share_string_base_t@DU?$pecker_value_compare@D@pecker_sdk@@V?$pecker_simple_allocator@D@2@$0BA@@pecker_sdk@@@2@@pecker_sdk@@@2@PAV32@@Z ; pecker_sdk::pecker_array<pecker_sdk::pecker_share_string_base_t<char,pecker_sdk::pecker_value_compare<char>,pecker_sdk::pecker_simple_allocator<char>,16>,pecker_sdk::pecker_simple_allocator<pecker_sdk::pecker_share_string_base_t<char,pecker_sdk::pecker_value_compare<char>,pecker_sdk::pecker_simple_allocator<char>,16> > >::get_iterator

; 184  : 	array_iterator1.init(ITERATOR_INIT_BEGIN_INDEX);

	push	0
	lea	ecx, DWORD PTR _array_iterator1$[ebp]
	call	?init@?$pecker_array_iterator@V?$pecker_array@V?$pecker_share_string_base_t@DU?$pecker_value_compare@D@pecker_sdk@@V?$pecker_simple_allocator@D@2@$0BA@@pecker_sdk@@V?$pecker_simple_allocator@V?$pecker_share_string_base_t@DU?$pecker_value_compare@D@pecker_sdk@@V?$pecker_simple_allocator@D@2@$0BA@@pecker_sdk@@@2@@pecker_sdk@@@pecker_sdk@@UAEJW4enumLINEAR_INTERATOR_INIT_TYPE@@@Z ; pecker_sdk::pecker_array_iterator<pecker_sdk::pecker_array<pecker_sdk::pecker_share_string_base_t<char,pecker_sdk::pecker_value_compare<char>,pecker_sdk::pecker_simple_allocator<char>,16>,pecker_sdk::pecker_simple_allocator<pecker_sdk::pecker_share_string_base_t<char,pecker_sdk::pecker_value_compare<char>,pecker_sdk::pecker_simple_allocator<char>,16> > > >::init

; 185  : 	int icount = 0;

	mov	DWORD PTR _icount$[ebp], 0
$LN16@tst_iterat@2:

; 186  : 	while (1)

	mov	eax, 1
	test	eax, eax
	je	$LN15@tst_iterat@2

; 187  : 	{
; 188  : 		const String_base* pvalue = array.get_at(&array_iterator1);

	lea	eax, DWORD PTR _array_iterator1$[ebp]
	push	eax
	lea	ecx, DWORD PTR _array$[ebp]
	call	?get_at@?$pecker_array@V?$pecker_share_string_base_t@DU?$pecker_value_compare@D@pecker_sdk@@V?$pecker_simple_allocator@D@2@$0BA@@pecker_sdk@@V?$pecker_simple_allocator@V?$pecker_share_string_base_t@DU?$pecker_value_compare@D@pecker_sdk@@V?$pecker_simple_allocator@D@2@$0BA@@pecker_sdk@@@2@@pecker_sdk@@QBEPBV?$pecker_share_string_base_t@DU?$pecker_value_compare@D@pecker_sdk@@V?$pecker_simple_allocator@D@2@$0BA@@2@PBV?$pecker_array_iterator@V?$pecker_array@V?$pecker_share_string_base_t@DU?$pecker_value_compare@D@pecker_sdk@@V?$pecker_simple_allocator@D@2@$0BA@@pecker_sdk@@V?$pecker_simple_allocator@V?$pecker_share_string_base_t@DU?$pecker_value_compare@D@pecker_sdk@@V?$pecker_simple_allocator@D@2@$0BA@@pecker_sdk@@@2@@pecker_sdk@@@2@@Z ; pecker_sdk::pecker_array<pecker_sdk::pecker_share_string_base_t<char,pecker_sdk::pecker_value_compare<char>,pecker_sdk::pecker_simple_allocator<char>,16>,pecker_sdk::pecker_simple_allocator<pecker_sdk::pecker_share_string_base_t<char,pecker_sdk::pecker_value_compare<char>,pecker_sdk::pecker_simple_allocator<char>,16> > >::get_at
	mov	DWORD PTR _pvalue$70026[ebp], eax

; 189  : 		if (pvalue)

	cmp	DWORD PTR _pvalue$70026[ebp], 0
	je	$LN14@tst_iterat@2

; 190  : 		{
; 191  : 			HResult res = tst_map_og.insert(*pvalue,icount);

	mov	al, BYTE PTR _icount$[ebp]
	mov	BYTE PTR $T73448[ebp], al
	lea	ecx, DWORD PTR $T73448[ebp]
	push	ecx
	mov	edx, DWORD PTR _pvalue$70026[ebp]
	push	edx
	lea	ecx, DWORD PTR _tst_map_og$[ebp]
	call	?insert@?$pecker_btst_map_container@DV?$pecker_share_string_base_t@DU?$pecker_value_compare@D@pecker_sdk@@V?$pecker_simple_allocator@D@2@$0BA@@pecker_sdk@@DU?$pecker_tst_map_node@DDU?$pecker_value_compare@D@pecker_sdk@@V?$pecker_simple_allocator@D@2@U_AVL_node_base@2@@2@V?$pecker_nodes_simple_allocater@U?$pecker_tst_map_node@DDU?$pecker_value_compare@D@pecker_sdk@@V?$pecker_simple_allocator@D@2@U_AVL_node_base@2@@pecker_sdk@@V?$pecker_simple_allocator@U?$pecker_tst_map_node@DDU?$pecker_value_compare@D@pecker_sdk@@V?$pecker_simple_allocator@D@2@U_AVL_node_base@2@@pecker_sdk@@@2@@2@@pecker_sdk@@QAEJABV?$pecker_share_string_base_t@DU?$pecker_value_compare@D@pecker_sdk@@V?$pecker_simple_allocator@D@2@$0BA@@2@ABD@Z ; pecker_sdk::pecker_btst_map_container<char,pecker_sdk::pecker_share_string_base_t<char,pecker_sdk::pecker_value_compare<char>,pecker_sdk::pecker_simple_allocator<char>,16>,char,pecker_sdk::pecker_tst_map_node<char,char,pecker_sdk::pecker_value_compare<char>,pecker_sdk::pecker_simple_allocator<char>,pecker_sdk::_AVL_node_base>,pecker_sdk::pecker_nodes_simple_allocater<pecker_sdk::pecker_tst_map_node<char,char,pecker_sdk::pecker_value_compare<char>,pecker_sdk::pecker_simple_allocator<char>,pecker_sdk::_AVL_node_base>,pecker_sdk::pecker_simple_allocator<pecker_sdk::pecker_tst_map_node<char,char,pecker_sdk::pecker_value_compare<char>,pecker_sdk::pecker_simple_allocator<char>,pecker_sdk::_AVL_node_base> > > >::insert
	mov	DWORD PTR _res$70028[ebp], eax

; 192  : 			if (P_OK != res)

	cmp	DWORD PTR _res$70028[ebp], 0
	je	SHORT $LN13@tst_iterat@2

; 193  : 			{
; 194  : 				PECKER_LOG_ERR("tst insert error",0);

	mov	esi, esp
	push	OFFSET ??_C@_0M@ONMFDOOB@ERROR_INFO?5?$AA@
	call	DWORD PTR __imp__printf
	add	esp, 4
	cmp	esi, esp
	call	__RTC_CheckEsp
	mov	esi, esp
	push	OFFSET ??_C@_0BB@PDCACMPJ@tst?5insert?5error?$AA@
	call	DWORD PTR __imp__printf
	add	esp, 4
	cmp	esi, esp
	call	__RTC_CheckEsp
	mov	esi, esp
	push	OFFSET ??_C@_01EEMJAFIK@?6?$AA@
	call	DWORD PTR __imp__printf
	add	esp, 4
	cmp	esi, esp
	call	__RTC_CheckEsp
	mov	esi, esp
	push	0
	call	DWORD PTR __imp__printf
	add	esp, 4
	cmp	esi, esp
	call	__RTC_CheckEsp
	mov	esi, esp
	push	OFFSET ??_C@_01EEMJAFIK@?6?$AA@
	call	DWORD PTR __imp__printf
	add	esp, 4
	cmp	esi, esp
	call	__RTC_CheckEsp
$LN13@tst_iterat@2:

; 195  : 			}
; 196  : 		}
; 197  : 		else

	jmp	SHORT $LN12@tst_iterat@2
$LN14@tst_iterat@2:

; 198  : 		{
; 199  : 			break;

	jmp	SHORT $LN15@tst_iterat@2
$LN12@tst_iterat@2:

; 200  : 		}
; 201  : 		++icount;

	mov	eax, DWORD PTR _icount$[ebp]
	add	eax, 1
	mov	DWORD PTR _icount$[ebp], eax

; 202  : 		array_iterator1.increment();

	lea	ecx, DWORD PTR _array_iterator1$[ebp]
	call	?increment@?$pecker_array_iterator@V?$pecker_array@V?$pecker_share_string_base_t@DU?$pecker_value_compare@D@pecker_sdk@@V?$pecker_simple_allocator@D@2@$0BA@@pecker_sdk@@V?$pecker_simple_allocator@V?$pecker_share_string_base_t@DU?$pecker_value_compare@D@pecker_sdk@@V?$pecker_simple_allocator@D@2@$0BA@@pecker_sdk@@@2@@pecker_sdk@@@pecker_sdk@@UAEJXZ ; pecker_sdk::pecker_array_iterator<pecker_sdk::pecker_array<pecker_sdk::pecker_share_string_base_t<char,pecker_sdk::pecker_value_compare<char>,pecker_sdk::pecker_simple_allocator<char>,16>,pecker_sdk::pecker_simple_allocator<pecker_sdk::pecker_share_string_base_t<char,pecker_sdk::pecker_value_compare<char>,pecker_sdk::pecker_simple_allocator<char>,16> > > >::increment

; 203  : 	}

	jmp	$LN16@tst_iterat@2
$LN15@tst_iterat@2:

; 204  : 
; 205  : 	init_input_data(array);

	lea	eax, DWORD PTR _array$[ebp]
	push	eax
	call	?init_input_data@@YAXAAV?$pecker_array@V?$pecker_share_string_base_t@DU?$pecker_value_compare@D@pecker_sdk@@V?$pecker_simple_allocator@D@2@$0BA@@pecker_sdk@@V?$pecker_simple_allocator@V?$pecker_share_string_base_t@DU?$pecker_value_compare@D@pecker_sdk@@V?$pecker_simple_allocator@D@2@$0BA@@pecker_sdk@@@2@@pecker_sdk@@@Z ; init_input_data
	add	esp, 4

; 206  : 	array.get_iterator(&array_iterator1);

	lea	eax, DWORD PTR _array_iterator1$[ebp]
	push	eax
	lea	ecx, DWORD PTR _array$[ebp]
	call	?get_iterator@?$pecker_array@V?$pecker_share_string_base_t@DU?$pecker_value_compare@D@pecker_sdk@@V?$pecker_simple_allocator@D@2@$0BA@@pecker_sdk@@V?$pecker_simple_allocator@V?$pecker_share_string_base_t@DU?$pecker_value_compare@D@pecker_sdk@@V?$pecker_simple_allocator@D@2@$0BA@@pecker_sdk@@@2@@pecker_sdk@@QBEPAV?$pecker_array_iterator@V?$pecker_array@V?$pecker_share_string_base_t@DU?$pecker_value_compare@D@pecker_sdk@@V?$pecker_simple_allocator@D@2@$0BA@@pecker_sdk@@V?$pecker_simple_allocator@V?$pecker_share_string_base_t@DU?$pecker_value_compare@D@pecker_sdk@@V?$pecker_simple_allocator@D@2@$0BA@@pecker_sdk@@@2@@pecker_sdk@@@2@PAV32@@Z ; pecker_sdk::pecker_array<pecker_sdk::pecker_share_string_base_t<char,pecker_sdk::pecker_value_compare<char>,pecker_sdk::pecker_simple_allocator<char>,16>,pecker_sdk::pecker_simple_allocator<pecker_sdk::pecker_share_string_base_t<char,pecker_sdk::pecker_value_compare<char>,pecker_sdk::pecker_simple_allocator<char>,16> > >::get_iterator

; 207  : 	array_iterator1.init(ITERATOR_INIT_BEGIN_INDEX);

	push	0
	lea	ecx, DWORD PTR _array_iterator1$[ebp]
	call	?init@?$pecker_array_iterator@V?$pecker_array@V?$pecker_share_string_base_t@DU?$pecker_value_compare@D@pecker_sdk@@V?$pecker_simple_allocator@D@2@$0BA@@pecker_sdk@@V?$pecker_simple_allocator@V?$pecker_share_string_base_t@DU?$pecker_value_compare@D@pecker_sdk@@V?$pecker_simple_allocator@D@2@$0BA@@pecker_sdk@@@2@@pecker_sdk@@@pecker_sdk@@UAEJW4enumLINEAR_INTERATOR_INIT_TYPE@@@Z ; pecker_sdk::pecker_array_iterator<pecker_sdk::pecker_array<pecker_sdk::pecker_share_string_base_t<char,pecker_sdk::pecker_value_compare<char>,pecker_sdk::pecker_simple_allocator<char>,16>,pecker_sdk::pecker_simple_allocator<pecker_sdk::pecker_share_string_base_t<char,pecker_sdk::pecker_value_compare<char>,pecker_sdk::pecker_simple_allocator<char>,16> > > >::init

; 208  : 	icount = 0;

	mov	DWORD PTR _icount$[ebp], 0
$LN11@tst_iterat@2:

; 209  : 	while (1)

	mov	eax, 1
	test	eax, eax
	je	$LN10@tst_iterat@2

; 210  : 	{
; 211  : 		const String_base* pvalue = array.get_at(&array_iterator1);

	lea	eax, DWORD PTR _array_iterator1$[ebp]
	push	eax
	lea	ecx, DWORD PTR _array$[ebp]
	call	?get_at@?$pecker_array@V?$pecker_share_string_base_t@DU?$pecker_value_compare@D@pecker_sdk@@V?$pecker_simple_allocator@D@2@$0BA@@pecker_sdk@@V?$pecker_simple_allocator@V?$pecker_share_string_base_t@DU?$pecker_value_compare@D@pecker_sdk@@V?$pecker_simple_allocator@D@2@$0BA@@pecker_sdk@@@2@@pecker_sdk@@QBEPBV?$pecker_share_string_base_t@DU?$pecker_value_compare@D@pecker_sdk@@V?$pecker_simple_allocator@D@2@$0BA@@2@PBV?$pecker_array_iterator@V?$pecker_array@V?$pecker_share_string_base_t@DU?$pecker_value_compare@D@pecker_sdk@@V?$pecker_simple_allocator@D@2@$0BA@@pecker_sdk@@V?$pecker_simple_allocator@V?$pecker_share_string_base_t@DU?$pecker_value_compare@D@pecker_sdk@@V?$pecker_simple_allocator@D@2@$0BA@@pecker_sdk@@@2@@pecker_sdk@@@2@@Z ; pecker_sdk::pecker_array<pecker_sdk::pecker_share_string_base_t<char,pecker_sdk::pecker_value_compare<char>,pecker_sdk::pecker_simple_allocator<char>,16>,pecker_sdk::pecker_simple_allocator<pecker_sdk::pecker_share_string_base_t<char,pecker_sdk::pecker_value_compare<char>,pecker_sdk::pecker_simple_allocator<char>,16> > >::get_at
	mov	DWORD PTR _pvalue$70035[ebp], eax

; 212  : 		if (pvalue)

	cmp	DWORD PTR _pvalue$70035[ebp], 0
	je	$LN9@tst_iterat@2

; 213  : 		{
; 214  : 			HResult res = tst_map.insert(*pvalue,icount);

	mov	al, BYTE PTR _icount$[ebp]
	mov	BYTE PTR $T73449[ebp], al
	lea	ecx, DWORD PTR $T73449[ebp]
	push	ecx
	mov	edx, DWORD PTR _pvalue$70035[ebp]
	push	edx
	lea	ecx, DWORD PTR _tst_map$[ebp]
	call	?insert@?$pecker_btst_map_container@DV?$pecker_share_string_base_t@DU?$pecker_value_compare@D@pecker_sdk@@V?$pecker_simple_allocator@D@2@$0BA@@pecker_sdk@@DU?$pecker_tst_map_node@DDU?$pecker_value_compare@D@pecker_sdk@@V?$pecker_simple_allocator@D@2@U_AVL_node_base@2@@2@V?$pecker_nodes_simple_allocater@U?$pecker_tst_map_node@DDU?$pecker_value_compare@D@pecker_sdk@@V?$pecker_simple_allocator@D@2@U_AVL_node_base@2@@pecker_sdk@@V?$pecker_simple_allocator@U?$pecker_tst_map_node@DDU?$pecker_value_compare@D@pecker_sdk@@V?$pecker_simple_allocator@D@2@U_AVL_node_base@2@@pecker_sdk@@@2@@2@@pecker_sdk@@QAEJABV?$pecker_share_string_base_t@DU?$pecker_value_compare@D@pecker_sdk@@V?$pecker_simple_allocator@D@2@$0BA@@2@ABD@Z ; pecker_sdk::pecker_btst_map_container<char,pecker_sdk::pecker_share_string_base_t<char,pecker_sdk::pecker_value_compare<char>,pecker_sdk::pecker_simple_allocator<char>,16>,char,pecker_sdk::pecker_tst_map_node<char,char,pecker_sdk::pecker_value_compare<char>,pecker_sdk::pecker_simple_allocator<char>,pecker_sdk::_AVL_node_base>,pecker_sdk::pecker_nodes_simple_allocater<pecker_sdk::pecker_tst_map_node<char,char,pecker_sdk::pecker_value_compare<char>,pecker_sdk::pecker_simple_allocator<char>,pecker_sdk::_AVL_node_base>,pecker_sdk::pecker_simple_allocator<pecker_sdk::pecker_tst_map_node<char,char,pecker_sdk::pecker_value_compare<char>,pecker_sdk::pecker_simple_allocator<char>,pecker_sdk::_AVL_node_base> > > >::insert
	mov	DWORD PTR _res$70037[ebp], eax

; 215  : 			if (P_OK != res)

	cmp	DWORD PTR _res$70037[ebp], 0
	je	SHORT $LN8@tst_iterat@2

; 216  : 			{
; 217  : 				PECKER_LOG_ERR("tst insert error",0);

	mov	esi, esp
	push	OFFSET ??_C@_0M@ONMFDOOB@ERROR_INFO?5?$AA@
	call	DWORD PTR __imp__printf
	add	esp, 4
	cmp	esi, esp
	call	__RTC_CheckEsp
	mov	esi, esp
	push	OFFSET ??_C@_0BB@PDCACMPJ@tst?5insert?5error?$AA@
	call	DWORD PTR __imp__printf
	add	esp, 4
	cmp	esi, esp
	call	__RTC_CheckEsp
	mov	esi, esp
	push	OFFSET ??_C@_01EEMJAFIK@?6?$AA@
	call	DWORD PTR __imp__printf
	add	esp, 4
	cmp	esi, esp
	call	__RTC_CheckEsp
	mov	esi, esp
	push	0
	call	DWORD PTR __imp__printf
	add	esp, 4
	cmp	esi, esp
	call	__RTC_CheckEsp
	mov	esi, esp
	push	OFFSET ??_C@_01EEMJAFIK@?6?$AA@
	call	DWORD PTR __imp__printf
	add	esp, 4
	cmp	esi, esp
	call	__RTC_CheckEsp
$LN8@tst_iterat@2:

; 218  : 			}
; 219  : 		}
; 220  : 		else

	jmp	SHORT $LN7@tst_iterat@2
$LN9@tst_iterat@2:

; 221  : 		{
; 222  : 			break;

	jmp	SHORT $LN10@tst_iterat@2
$LN7@tst_iterat@2:

; 223  : 		}
; 224  : 		++icount;

	mov	eax, DWORD PTR _icount$[ebp]
	add	eax, 1
	mov	DWORD PTR _icount$[ebp], eax

; 225  : 		array_iterator1.increment();

	lea	ecx, DWORD PTR _array_iterator1$[ebp]
	call	?increment@?$pecker_array_iterator@V?$pecker_array@V?$pecker_share_string_base_t@DU?$pecker_value_compare@D@pecker_sdk@@V?$pecker_simple_allocator@D@2@$0BA@@pecker_sdk@@V?$pecker_simple_allocator@V?$pecker_share_string_base_t@DU?$pecker_value_compare@D@pecker_sdk@@V?$pecker_simple_allocator@D@2@$0BA@@pecker_sdk@@@2@@pecker_sdk@@@pecker_sdk@@UAEJXZ ; pecker_sdk::pecker_array_iterator<pecker_sdk::pecker_array<pecker_sdk::pecker_share_string_base_t<char,pecker_sdk::pecker_value_compare<char>,pecker_sdk::pecker_simple_allocator<char>,16>,pecker_sdk::pecker_simple_allocator<pecker_sdk::pecker_share_string_base_t<char,pecker_sdk::pecker_value_compare<char>,pecker_sdk::pecker_simple_allocator<char>,16> > > >::increment

; 226  : 	}

	jmp	$LN11@tst_iterat@2
$LN10@tst_iterat@2:

; 227  : 
; 228  : 	tst_map.get_iterator(&inorder_iterator);

	lea	eax, DWORD PTR _inorder_iterator$[ebp]
	push	eax
	lea	ecx, DWORD PTR _tst_map$[ebp]
	call	?get_iterator@?$pecker_btst_map_container@DV?$pecker_share_string_base_t@DU?$pecker_value_compare@D@pecker_sdk@@V?$pecker_simple_allocator@D@2@$0BA@@pecker_sdk@@DU?$pecker_tst_map_node@DDU?$pecker_value_compare@D@pecker_sdk@@V?$pecker_simple_allocator@D@2@U_AVL_node_base@2@@2@V?$pecker_nodes_simple_allocater@U?$pecker_tst_map_node@DDU?$pecker_value_compare@D@pecker_sdk@@V?$pecker_simple_allocator@D@2@U_AVL_node_base@2@@pecker_sdk@@V?$pecker_simple_allocator@U?$pecker_tst_map_node@DDU?$pecker_value_compare@D@pecker_sdk@@V?$pecker_simple_allocator@D@2@U_AVL_node_base@2@@pecker_sdk@@@2@@2@@pecker_sdk@@QBEPAU?$Ipecker_bst_tree_iterator@U?$pecker_tst_map_node@DDU?$pecker_value_compare@D@pecker_sdk@@V?$pecker_simple_allocator@D@2@U_AVL_node_base@2@@pecker_sdk@@@2@PAU32@@Z ; pecker_sdk::pecker_btst_map_container<char,pecker_sdk::pecker_share_string_base_t<char,pecker_sdk::pecker_value_compare<char>,pecker_sdk::pecker_simple_allocator<char>,16>,char,pecker_sdk::pecker_tst_map_node<char,char,pecker_sdk::pecker_value_compare<char>,pecker_sdk::pecker_simple_allocator<char>,pecker_sdk::_AVL_node_base>,pecker_sdk::pecker_nodes_simple_allocater<pecker_sdk::pecker_tst_map_node<char,char,pecker_sdk::pecker_value_compare<char>,pecker_sdk::pecker_simple_allocator<char>,pecker_sdk::_AVL_node_base>,pecker_sdk::pecker_simple_allocator<pecker_sdk::pecker_tst_map_node<char,char,pecker_sdk::pecker_value_compare<char>,pecker_sdk::pecker_simple_allocator<char>,pecker_sdk::_AVL_node_base> > > >::get_iterator

; 229  : 
; 230  : 	inorder_iterator.init(ITERATOR_INIT_MIN);

	push	1
	lea	ecx, DWORD PTR _inorder_iterator$[ebp]
	call	?init@?$pecker_tst_tree_no_perent_node_inorder_iterator_base@U?$pecker_tst_map_node@DDU?$pecker_value_compare@D@pecker_sdk@@V?$pecker_simple_allocator@D@2@U_AVL_node_base@2@@pecker_sdk@@V?$pecker_simple_allocator@PBU?$pecker_tst_map_node@DDU?$pecker_value_compare@D@pecker_sdk@@V?$pecker_simple_allocator@D@2@U_AVL_node_base@2@@pecker_sdk@@@2@V?$pecker_simple_allocator@PAPBU?$pecker_tst_map_node@DDU?$pecker_value_compare@D@pecker_sdk@@V?$pecker_simple_allocator@D@2@U_AVL_node_base@2@@pecker_sdk@@@2@@pecker_sdk@@UAEJW4enumTREE_ITERATOR_INIT_TYPE@@@Z ; pecker_sdk::pecker_tst_tree_no_perent_node_inorder_iterator_base<pecker_sdk::pecker_tst_map_node<char,char,pecker_sdk::pecker_value_compare<char>,pecker_sdk::pecker_simple_allocator<char>,pecker_sdk::_AVL_node_base>,pecker_sdk::pecker_simple_allocator<pecker_sdk::pecker_tst_map_node<char,char,pecker_sdk::pecker_value_compare<char>,pecker_sdk::pecker_simple_allocator<char>,pecker_sdk::_AVL_node_base> const *>,pecker_sdk::pecker_simple_allocator<pecker_sdk::pecker_tst_map_node<char,char,pecker_sdk::pecker_value_compare<char>,pecker_sdk::pecker_simple_allocator<char>,pecker_sdk::_AVL_node_base> const * *> >::init

; 231  : 	icount = 1;

	mov	DWORD PTR _icount$[ebp], 1

; 232  : 
; 233  : 	PECKER_LOG_("\nincrement\n",0);

	mov	esi, esp
	push	0
	push	OFFSET ??_C@_0M@EPOJEJMO@?6increment?6?$AA@
	call	DWORD PTR __imp__printf
	add	esp, 8
	cmp	esi, esp
	call	__RTC_CheckEsp
$LN6@tst_iterat@2:

; 234  : 	while(1)

	mov	eax, 1
	test	eax, eax
	je	$LN5@tst_iterat@2

; 235  : 	{
; 236  : 		PECKER_LOG_("%05d ",icount);

	mov	esi, esp
	mov	eax, DWORD PTR _icount$[ebp]
	push	eax
	push	OFFSET ??_C@_05KFNCDNJC@?$CF05d?5?$AA@
	call	DWORD PTR __imp__printf
	add	esp, 8
	cmp	esi, esp
	call	__RTC_CheckEsp

; 237  : 		print_pecker_string(tst_map.get_key(&inorder_iterator));

	lea	eax, DWORD PTR _inorder_iterator$[ebp]
	push	eax
	lea	ecx, DWORD PTR $T70044[ebp]
	push	ecx
	lea	ecx, DWORD PTR _tst_map$[ebp]
	call	?get_key@?$pecker_btst_map_container@DV?$pecker_share_string_base_t@DU?$pecker_value_compare@D@pecker_sdk@@V?$pecker_simple_allocator@D@2@$0BA@@pecker_sdk@@DU?$pecker_tst_map_node@DDU?$pecker_value_compare@D@pecker_sdk@@V?$pecker_simple_allocator@D@2@U_AVL_node_base@2@@2@V?$pecker_nodes_simple_allocater@U?$pecker_tst_map_node@DDU?$pecker_value_compare@D@pecker_sdk@@V?$pecker_simple_allocator@D@2@U_AVL_node_base@2@@pecker_sdk@@V?$pecker_simple_allocator@U?$pecker_tst_map_node@DDU?$pecker_value_compare@D@pecker_sdk@@V?$pecker_simple_allocator@D@2@U_AVL_node_base@2@@pecker_sdk@@@2@@2@@pecker_sdk@@QBE?AV?$pecker_share_string_base_t@DU?$pecker_value_compare@D@pecker_sdk@@V?$pecker_simple_allocator@D@2@$0BA@@2@PBU?$Ipecker_bst_tree_iterator@U?$pecker_tst_map_node@DDU?$pecker_value_compare@D@pecker_sdk@@V?$pecker_simple_allocator@D@2@U_AVL_node_base@2@@pecker_sdk@@@2@@Z ; pecker_sdk::pecker_btst_map_container<char,pecker_sdk::pecker_share_string_base_t<char,pecker_sdk::pecker_value_compare<char>,pecker_sdk::pecker_simple_allocator<char>,16>,char,pecker_sdk::pecker_tst_map_node<char,char,pecker_sdk::pecker_value_compare<char>,pecker_sdk::pecker_simple_allocator<char>,pecker_sdk::_AVL_node_base>,pecker_sdk::pecker_nodes_simple_allocater<pecker_sdk::pecker_tst_map_node<char,char,pecker_sdk::pecker_value_compare<char>,pecker_sdk::pecker_simple_allocator<char>,pecker_sdk::_AVL_node_base>,pecker_sdk::pecker_simple_allocator<pecker_sdk::pecker_tst_map_node<char,char,pecker_sdk::pecker_value_compare<char>,pecker_sdk::pecker_simple_allocator<char>,pecker_sdk::_AVL_node_base> > > >::get_key
	mov	DWORD PTR tv80[ebp], eax
	mov	edx, DWORD PTR tv80[ebp]
	mov	DWORD PTR tv230[ebp], edx
	mov	BYTE PTR __$EHRec$[ebp+8], 5
	mov	eax, DWORD PTR tv230[ebp]
	push	eax
	call	?print_pecker_string@@YAXABV?$pecker_share_string_base_t@DU?$pecker_value_compare@D@pecker_sdk@@V?$pecker_simple_allocator@D@2@$0BA@@pecker_sdk@@@Z ; print_pecker_string
	add	esp, 4
	mov	BYTE PTR __$EHRec$[ebp+8], 4
	lea	ecx, DWORD PTR $T70044[ebp]
	call	??1?$pecker_share_string_base_t@DU?$pecker_value_compare@D@pecker_sdk@@V?$pecker_simple_allocator@D@2@$0BA@@pecker_sdk@@QAE@XZ ; pecker_sdk::pecker_share_string_base_t<char,pecker_sdk::pecker_value_compare<char>,pecker_sdk::pecker_simple_allocator<char>,16>::~pecker_share_string_base_t<char,pecker_sdk::pecker_value_compare<char>,pecker_sdk::pecker_simple_allocator<char>,16>

; 238  : 		++icount;

	mov	eax, DWORD PTR _icount$[ebp]
	add	eax, 1
	mov	DWORD PTR _icount$[ebp], eax

; 239  : 		PECKER_LOG_("\n",0);

	mov	esi, esp
	push	0
	push	OFFSET ??_C@_01EEMJAFIK@?6?$AA@
	call	DWORD PTR __imp__printf
	add	esp, 8
	cmp	esi, esp
	call	__RTC_CheckEsp

; 240  : 
; 241  : 		if (P_OK != inorder_iterator.increment())

	lea	ecx, DWORD PTR _inorder_iterator$[ebp]
	call	?increment@?$pecker_tst_tree_no_perent_node_inorder_iterator_base@U?$pecker_tst_map_node@DDU?$pecker_value_compare@D@pecker_sdk@@V?$pecker_simple_allocator@D@2@U_AVL_node_base@2@@pecker_sdk@@V?$pecker_simple_allocator@PBU?$pecker_tst_map_node@DDU?$pecker_value_compare@D@pecker_sdk@@V?$pecker_simple_allocator@D@2@U_AVL_node_base@2@@pecker_sdk@@@2@V?$pecker_simple_allocator@PAPBU?$pecker_tst_map_node@DDU?$pecker_value_compare@D@pecker_sdk@@V?$pecker_simple_allocator@D@2@U_AVL_node_base@2@@pecker_sdk@@@2@@pecker_sdk@@UAEJXZ ; pecker_sdk::pecker_tst_tree_no_perent_node_inorder_iterator_base<pecker_sdk::pecker_tst_map_node<char,char,pecker_sdk::pecker_value_compare<char>,pecker_sdk::pecker_simple_allocator<char>,pecker_sdk::_AVL_node_base>,pecker_sdk::pecker_simple_allocator<pecker_sdk::pecker_tst_map_node<char,char,pecker_sdk::pecker_value_compare<char>,pecker_sdk::pecker_simple_allocator<char>,pecker_sdk::_AVL_node_base> const *>,pecker_sdk::pecker_simple_allocator<pecker_sdk::pecker_tst_map_node<char,char,pecker_sdk::pecker_value_compare<char>,pecker_sdk::pecker_simple_allocator<char>,pecker_sdk::_AVL_node_base> const * *> >::increment
	test	eax, eax
	je	SHORT $LN4@tst_iterat@2

; 242  : 		{
; 243  : 			break;

	jmp	SHORT $LN5@tst_iterat@2
$LN4@tst_iterat@2:

; 244  : 		}
; 245  : 
; 246  : 	}

	jmp	$LN6@tst_iterat@2
$LN5@tst_iterat@2:

; 247  : 
; 248  : 	PECKER_LOG_("\copy testing\n",0);

	mov	esi, esp
	push	0
	push	OFFSET ??_C@_0O@JJNINELH@copy?5testing?6?$AA@
	call	DWORD PTR __imp__printf
	add	esp, 8
	cmp	esi, esp
	call	__RTC_CheckEsp

; 249  : 	tst_map.copy(&tst_map_og);

	lea	eax, DWORD PTR _tst_map_og$[ebp]
	push	eax
	lea	ecx, DWORD PTR _tst_map$[ebp]
	call	?copy@?$pecker_btst_map_container@DV?$pecker_share_string_base_t@DU?$pecker_value_compare@D@pecker_sdk@@V?$pecker_simple_allocator@D@2@$0BA@@pecker_sdk@@DU?$pecker_tst_map_node@DDU?$pecker_value_compare@D@pecker_sdk@@V?$pecker_simple_allocator@D@2@U_AVL_node_base@2@@2@V?$pecker_nodes_simple_allocater@U?$pecker_tst_map_node@DDU?$pecker_value_compare@D@pecker_sdk@@V?$pecker_simple_allocator@D@2@U_AVL_node_base@2@@pecker_sdk@@V?$pecker_simple_allocator@U?$pecker_tst_map_node@DDU?$pecker_value_compare@D@pecker_sdk@@V?$pecker_simple_allocator@D@2@U_AVL_node_base@2@@pecker_sdk@@@2@@2@@pecker_sdk@@QAEJPBV12@@Z ; pecker_sdk::pecker_btst_map_container<char,pecker_sdk::pecker_share_string_base_t<char,pecker_sdk::pecker_value_compare<char>,pecker_sdk::pecker_simple_allocator<char>,16>,char,pecker_sdk::pecker_tst_map_node<char,char,pecker_sdk::pecker_value_compare<char>,pecker_sdk::pecker_simple_allocator<char>,pecker_sdk::_AVL_node_base>,pecker_sdk::pecker_nodes_simple_allocater<pecker_sdk::pecker_tst_map_node<char,char,pecker_sdk::pecker_value_compare<char>,pecker_sdk::pecker_simple_allocator<char>,pecker_sdk::_AVL_node_base>,pecker_sdk::pecker_simple_allocator<pecker_sdk::pecker_tst_map_node<char,char,pecker_sdk::pecker_value_compare<char>,pecker_sdk::pecker_simple_allocator<char>,pecker_sdk::_AVL_node_base> > > >::copy

; 250  : 	tst_map.get_iterator(&inorder_iterator);

	lea	eax, DWORD PTR _inorder_iterator$[ebp]
	push	eax
	lea	ecx, DWORD PTR _tst_map$[ebp]
	call	?get_iterator@?$pecker_btst_map_container@DV?$pecker_share_string_base_t@DU?$pecker_value_compare@D@pecker_sdk@@V?$pecker_simple_allocator@D@2@$0BA@@pecker_sdk@@DU?$pecker_tst_map_node@DDU?$pecker_value_compare@D@pecker_sdk@@V?$pecker_simple_allocator@D@2@U_AVL_node_base@2@@2@V?$pecker_nodes_simple_allocater@U?$pecker_tst_map_node@DDU?$pecker_value_compare@D@pecker_sdk@@V?$pecker_simple_allocator@D@2@U_AVL_node_base@2@@pecker_sdk@@V?$pecker_simple_allocator@U?$pecker_tst_map_node@DDU?$pecker_value_compare@D@pecker_sdk@@V?$pecker_simple_allocator@D@2@U_AVL_node_base@2@@pecker_sdk@@@2@@2@@pecker_sdk@@QBEPAU?$Ipecker_bst_tree_iterator@U?$pecker_tst_map_node@DDU?$pecker_value_compare@D@pecker_sdk@@V?$pecker_simple_allocator@D@2@U_AVL_node_base@2@@pecker_sdk@@@2@PAU32@@Z ; pecker_sdk::pecker_btst_map_container<char,pecker_sdk::pecker_share_string_base_t<char,pecker_sdk::pecker_value_compare<char>,pecker_sdk::pecker_simple_allocator<char>,16>,char,pecker_sdk::pecker_tst_map_node<char,char,pecker_sdk::pecker_value_compare<char>,pecker_sdk::pecker_simple_allocator<char>,pecker_sdk::_AVL_node_base>,pecker_sdk::pecker_nodes_simple_allocater<pecker_sdk::pecker_tst_map_node<char,char,pecker_sdk::pecker_value_compare<char>,pecker_sdk::pecker_simple_allocator<char>,pecker_sdk::_AVL_node_base>,pecker_sdk::pecker_simple_allocator<pecker_sdk::pecker_tst_map_node<char,char,pecker_sdk::pecker_value_compare<char>,pecker_sdk::pecker_simple_allocator<char>,pecker_sdk::_AVL_node_base> > > >::get_iterator

; 251  : 
; 252  : 	inorder_iterator.init(ITERATOR_INIT_MIN);

	push	1
	lea	ecx, DWORD PTR _inorder_iterator$[ebp]
	call	?init@?$pecker_tst_tree_no_perent_node_inorder_iterator_base@U?$pecker_tst_map_node@DDU?$pecker_value_compare@D@pecker_sdk@@V?$pecker_simple_allocator@D@2@U_AVL_node_base@2@@pecker_sdk@@V?$pecker_simple_allocator@PBU?$pecker_tst_map_node@DDU?$pecker_value_compare@D@pecker_sdk@@V?$pecker_simple_allocator@D@2@U_AVL_node_base@2@@pecker_sdk@@@2@V?$pecker_simple_allocator@PAPBU?$pecker_tst_map_node@DDU?$pecker_value_compare@D@pecker_sdk@@V?$pecker_simple_allocator@D@2@U_AVL_node_base@2@@pecker_sdk@@@2@@pecker_sdk@@UAEJW4enumTREE_ITERATOR_INIT_TYPE@@@Z ; pecker_sdk::pecker_tst_tree_no_perent_node_inorder_iterator_base<pecker_sdk::pecker_tst_map_node<char,char,pecker_sdk::pecker_value_compare<char>,pecker_sdk::pecker_simple_allocator<char>,pecker_sdk::_AVL_node_base>,pecker_sdk::pecker_simple_allocator<pecker_sdk::pecker_tst_map_node<char,char,pecker_sdk::pecker_value_compare<char>,pecker_sdk::pecker_simple_allocator<char>,pecker_sdk::_AVL_node_base> const *>,pecker_sdk::pecker_simple_allocator<pecker_sdk::pecker_tst_map_node<char,char,pecker_sdk::pecker_value_compare<char>,pecker_sdk::pecker_simple_allocator<char>,pecker_sdk::_AVL_node_base> const * *> >::init

; 253  : 	icount = 1;

	mov	DWORD PTR _icount$[ebp], 1

; 254  : 
; 255  : 	PECKER_LOG_("\nincrement\n",0);

	mov	esi, esp
	push	0
	push	OFFSET ??_C@_0M@EPOJEJMO@?6increment?6?$AA@
	call	DWORD PTR __imp__printf
	add	esp, 8
	cmp	esi, esp
	call	__RTC_CheckEsp
$LN3@tst_iterat@2:

; 256  : 	while(1)

	mov	eax, 1
	test	eax, eax
	je	$LN2@tst_iterat@2

; 257  : 	{
; 258  : 		PECKER_LOG_("%05d ",icount);

	mov	esi, esp
	mov	eax, DWORD PTR _icount$[ebp]
	push	eax
	push	OFFSET ??_C@_05KFNCDNJC@?$CF05d?5?$AA@
	call	DWORD PTR __imp__printf
	add	esp, 8
	cmp	esi, esp
	call	__RTC_CheckEsp

; 259  : 		print_pecker_string(tst_map.get_key(&inorder_iterator));

	lea	eax, DWORD PTR _inorder_iterator$[ebp]
	push	eax
	lea	ecx, DWORD PTR $T70050[ebp]
	push	ecx
	lea	ecx, DWORD PTR _tst_map$[ebp]
	call	?get_key@?$pecker_btst_map_container@DV?$pecker_share_string_base_t@DU?$pecker_value_compare@D@pecker_sdk@@V?$pecker_simple_allocator@D@2@$0BA@@pecker_sdk@@DU?$pecker_tst_map_node@DDU?$pecker_value_compare@D@pecker_sdk@@V?$pecker_simple_allocator@D@2@U_AVL_node_base@2@@2@V?$pecker_nodes_simple_allocater@U?$pecker_tst_map_node@DDU?$pecker_value_compare@D@pecker_sdk@@V?$pecker_simple_allocator@D@2@U_AVL_node_base@2@@pecker_sdk@@V?$pecker_simple_allocator@U?$pecker_tst_map_node@DDU?$pecker_value_compare@D@pecker_sdk@@V?$pecker_simple_allocator@D@2@U_AVL_node_base@2@@pecker_sdk@@@2@@2@@pecker_sdk@@QBE?AV?$pecker_share_string_base_t@DU?$pecker_value_compare@D@pecker_sdk@@V?$pecker_simple_allocator@D@2@$0BA@@2@PBU?$Ipecker_bst_tree_iterator@U?$pecker_tst_map_node@DDU?$pecker_value_compare@D@pecker_sdk@@V?$pecker_simple_allocator@D@2@U_AVL_node_base@2@@pecker_sdk@@@2@@Z ; pecker_sdk::pecker_btst_map_container<char,pecker_sdk::pecker_share_string_base_t<char,pecker_sdk::pecker_value_compare<char>,pecker_sdk::pecker_simple_allocator<char>,16>,char,pecker_sdk::pecker_tst_map_node<char,char,pecker_sdk::pecker_value_compare<char>,pecker_sdk::pecker_simple_allocator<char>,pecker_sdk::_AVL_node_base>,pecker_sdk::pecker_nodes_simple_allocater<pecker_sdk::pecker_tst_map_node<char,char,pecker_sdk::pecker_value_compare<char>,pecker_sdk::pecker_simple_allocator<char>,pecker_sdk::_AVL_node_base>,pecker_sdk::pecker_simple_allocator<pecker_sdk::pecker_tst_map_node<char,char,pecker_sdk::pecker_value_compare<char>,pecker_sdk::pecker_simple_allocator<char>,pecker_sdk::_AVL_node_base> > > >::get_key
	mov	DWORD PTR tv75[ebp], eax
	mov	edx, DWORD PTR tv75[ebp]
	mov	DWORD PTR tv232[ebp], edx
	mov	BYTE PTR __$EHRec$[ebp+8], 6
	mov	eax, DWORD PTR tv232[ebp]
	push	eax
	call	?print_pecker_string@@YAXABV?$pecker_share_string_base_t@DU?$pecker_value_compare@D@pecker_sdk@@V?$pecker_simple_allocator@D@2@$0BA@@pecker_sdk@@@Z ; print_pecker_string
	add	esp, 4
	mov	BYTE PTR __$EHRec$[ebp+8], 4
	lea	ecx, DWORD PTR $T70050[ebp]
	call	??1?$pecker_share_string_base_t@DU?$pecker_value_compare@D@pecker_sdk@@V?$pecker_simple_allocator@D@2@$0BA@@pecker_sdk@@QAE@XZ ; pecker_sdk::pecker_share_string_base_t<char,pecker_sdk::pecker_value_compare<char>,pecker_sdk::pecker_simple_allocator<char>,16>::~pecker_share_string_base_t<char,pecker_sdk::pecker_value_compare<char>,pecker_sdk::pecker_simple_allocator<char>,16>

; 260  : 		++icount;

	mov	eax, DWORD PTR _icount$[ebp]
	add	eax, 1
	mov	DWORD PTR _icount$[ebp], eax

; 261  : 		PECKER_LOG_("\n",0);

	mov	esi, esp
	push	0
	push	OFFSET ??_C@_01EEMJAFIK@?6?$AA@
	call	DWORD PTR __imp__printf
	add	esp, 8
	cmp	esi, esp
	call	__RTC_CheckEsp

; 262  : 
; 263  : 		if (P_OK != inorder_iterator.increment())

	lea	ecx, DWORD PTR _inorder_iterator$[ebp]
	call	?increment@?$pecker_tst_tree_no_perent_node_inorder_iterator_base@U?$pecker_tst_map_node@DDU?$pecker_value_compare@D@pecker_sdk@@V?$pecker_simple_allocator@D@2@U_AVL_node_base@2@@pecker_sdk@@V?$pecker_simple_allocator@PBU?$pecker_tst_map_node@DDU?$pecker_value_compare@D@pecker_sdk@@V?$pecker_simple_allocator@D@2@U_AVL_node_base@2@@pecker_sdk@@@2@V?$pecker_simple_allocator@PAPBU?$pecker_tst_map_node@DDU?$pecker_value_compare@D@pecker_sdk@@V?$pecker_simple_allocator@D@2@U_AVL_node_base@2@@pecker_sdk@@@2@@pecker_sdk@@UAEJXZ ; pecker_sdk::pecker_tst_tree_no_perent_node_inorder_iterator_base<pecker_sdk::pecker_tst_map_node<char,char,pecker_sdk::pecker_value_compare<char>,pecker_sdk::pecker_simple_allocator<char>,pecker_sdk::_AVL_node_base>,pecker_sdk::pecker_simple_allocator<pecker_sdk::pecker_tst_map_node<char,char,pecker_sdk::pecker_value_compare<char>,pecker_sdk::pecker_simple_allocator<char>,pecker_sdk::_AVL_node_base> const *>,pecker_sdk::pecker_simple_allocator<pecker_sdk::pecker_tst_map_node<char,char,pecker_sdk::pecker_value_compare<char>,pecker_sdk::pecker_simple_allocator<char>,pecker_sdk::_AVL_node_base> const * *> >::increment
	test	eax, eax
	je	SHORT $LN1@tst_iterat@2

; 264  : 		{
; 265  : 			break;

	jmp	SHORT $LN2@tst_iterat@2
$LN1@tst_iterat@2:

; 266  : 		}
; 267  : 
; 268  : 	}

	jmp	$LN3@tst_iterat@2
$LN2@tst_iterat@2:

; 269  : 
; 270  : 	PECKER_LOG_("\clear...\n",0);

	mov	esi, esp
	push	0
	push	OFFSET ??_C@_09JJPCNFAG@clear?4?4?4?6?$AA@
	call	DWORD PTR __imp__printf
	add	esp, 8
	cmp	esi, esp
	call	__RTC_CheckEsp

; 271  : 
; 272  : }

	mov	BYTE PTR __$EHRec$[ebp+8], 3
	lea	ecx, DWORD PTR _array_iterator1$[ebp]
	call	??1?$pecker_array_iterator@V?$pecker_array@V?$pecker_share_string_base_t@DU?$pecker_value_compare@D@pecker_sdk@@V?$pecker_simple_allocator@D@2@$0BA@@pecker_sdk@@V?$pecker_simple_allocator@V?$pecker_share_string_base_t@DU?$pecker_value_compare@D@pecker_sdk@@V?$pecker_simple_allocator@D@2@$0BA@@pecker_sdk@@@2@@pecker_sdk@@@pecker_sdk@@UAE@XZ ; pecker_sdk::pecker_array_iterator<pecker_sdk::pecker_array<pecker_sdk::pecker_share_string_base_t<char,pecker_sdk::pecker_value_compare<char>,pecker_sdk::pecker_simple_allocator<char>,16>,pecker_sdk::pecker_simple_allocator<pecker_sdk::pecker_share_string_base_t<char,pecker_sdk::pecker_value_compare<char>,pecker_sdk::pecker_simple_allocator<char>,16> > > >::~pecker_array_iterator<pecker_sdk::pecker_array<pecker_sdk::pecker_share_string_base_t<char,pecker_sdk::pecker_value_compare<char>,pecker_sdk::pecker_simple_allocator<char>,16>,pecker_sdk::pecker_simple_allocator<pecker_sdk::pecker_share_string_base_t<char,pecker_sdk::pecker_value_compare<char>,pecker_sdk::pecker_simple_allocator<char>,16> > > >
	mov	BYTE PTR __$EHRec$[ebp+8], 2
	lea	ecx, DWORD PTR _inorder_iterator$[ebp]
	call	??1?$pecker_tst_tree_no_perent_node_inorder_iterator_base@U?$pecker_tst_map_node@DDU?$pecker_value_compare@D@pecker_sdk@@V?$pecker_simple_allocator@D@2@U_AVL_node_base@2@@pecker_sdk@@V?$pecker_simple_allocator@PBU?$pecker_tst_map_node@DDU?$pecker_value_compare@D@pecker_sdk@@V?$pecker_simple_allocator@D@2@U_AVL_node_base@2@@pecker_sdk@@@2@V?$pecker_simple_allocator@PAPBU?$pecker_tst_map_node@DDU?$pecker_value_compare@D@pecker_sdk@@V?$pecker_simple_allocator@D@2@U_AVL_node_base@2@@pecker_sdk@@@2@@pecker_sdk@@UAE@XZ ; pecker_sdk::pecker_tst_tree_no_perent_node_inorder_iterator_base<pecker_sdk::pecker_tst_map_node<char,char,pecker_sdk::pecker_value_compare<char>,pecker_sdk::pecker_simple_allocator<char>,pecker_sdk::_AVL_node_base>,pecker_sdk::pecker_simple_allocator<pecker_sdk::pecker_tst_map_node<char,char,pecker_sdk::pecker_value_compare<char>,pecker_sdk::pecker_simple_allocator<char>,pecker_sdk::_AVL_node_base> const *>,pecker_sdk::pecker_simple_allocator<pecker_sdk::pecker_tst_map_node<char,char,pecker_sdk::pecker_value_compare<char>,pecker_sdk::pecker_simple_allocator<char>,pecker_sdk::_AVL_node_base> const * *> >::~pecker_tst_tree_no_perent_node_inorder_iterator_base<pecker_sdk::pecker_tst_map_node<char,char,pecker_sdk::pecker_value_compare<char>,pecker_sdk::pecker_simple_allocator<char>,pecker_sdk::_AVL_node_base>,pecker_sdk::pecker_simple_allocator<pecker_sdk::pecker_tst_map_node<char,char,pecker_sdk::pecker_value_compare<char>,pecker_sdk::pecker_simple_allocator<char>,pecker_sdk::_AVL_node_base> const *>,pecker_sdk::pecker_simple_allocator<pecker_sdk::pecker_tst_map_node<char,char,pecker_sdk::pecker_value_compare<char>,pecker_sdk::pecker_simple_allocator<char>,pecker_sdk::_AVL_node_base> const * *> >
	mov	BYTE PTR __$EHRec$[ebp+8], 1
	lea	ecx, DWORD PTR _array$[ebp]
	call	??1?$pecker_array@V?$pecker_share_string_base_t@DU?$pecker_value_compare@D@pecker_sdk@@V?$pecker_simple_allocator@D@2@$0BA@@pecker_sdk@@V?$pecker_simple_allocator@V?$pecker_share_string_base_t@DU?$pecker_value_compare@D@pecker_sdk@@V?$pecker_simple_allocator@D@2@$0BA@@pecker_sdk@@@2@@pecker_sdk@@UAE@XZ ; pecker_sdk::pecker_array<pecker_sdk::pecker_share_string_base_t<char,pecker_sdk::pecker_value_compare<char>,pecker_sdk::pecker_simple_allocator<char>,16>,pecker_sdk::pecker_simple_allocator<pecker_sdk::pecker_share_string_base_t<char,pecker_sdk::pecker_value_compare<char>,pecker_sdk::pecker_simple_allocator<char>,16> > >::~pecker_array<pecker_sdk::pecker_share_string_base_t<char,pecker_sdk::pecker_value_compare<char>,pecker_sdk::pecker_simple_allocator<char>,16>,pecker_sdk::pecker_simple_allocator<pecker_sdk::pecker_share_string_base_t<char,pecker_sdk::pecker_value_compare<char>,pecker_sdk::pecker_simple_allocator<char>,16> > >
	mov	BYTE PTR __$EHRec$[ebp+8], 0
	lea	ecx, DWORD PTR _tst_map$[ebp]
	call	??1?$pecker_btst_map_container@DV?$pecker_share_string_base_t@DU?$pecker_value_compare@D@pecker_sdk@@V?$pecker_simple_allocator@D@2@$0BA@@pecker_sdk@@DU?$pecker_tst_map_node@DDU?$pecker_value_compare@D@pecker_sdk@@V?$pecker_simple_allocator@D@2@U_AVL_node_base@2@@2@V?$pecker_nodes_simple_allocater@U?$pecker_tst_map_node@DDU?$pecker_value_compare@D@pecker_sdk@@V?$pecker_simple_allocator@D@2@U_AVL_node_base@2@@pecker_sdk@@V?$pecker_simple_allocator@U?$pecker_tst_map_node@DDU?$pecker_value_compare@D@pecker_sdk@@V?$pecker_simple_allocator@D@2@U_AVL_node_base@2@@pecker_sdk@@@2@@2@@pecker_sdk@@QAE@XZ ; pecker_sdk::pecker_btst_map_container<char,pecker_sdk::pecker_share_string_base_t<char,pecker_sdk::pecker_value_compare<char>,pecker_sdk::pecker_simple_allocator<char>,16>,char,pecker_sdk::pecker_tst_map_node<char,char,pecker_sdk::pecker_value_compare<char>,pecker_sdk::pecker_simple_allocator<char>,pecker_sdk::_AVL_node_base>,pecker_sdk::pecker_nodes_simple_allocater<pecker_sdk::pecker_tst_map_node<char,char,pecker_sdk::pecker_value_compare<char>,pecker_sdk::pecker_simple_allocator<char>,pecker_sdk::_AVL_node_base>,pecker_sdk::pecker_simple_allocator<pecker_sdk::pecker_tst_map_node<char,char,pecker_sdk::pecker_value_compare<char>,pecker_sdk::pecker_simple_allocator<char>,pecker_sdk::_AVL_node_base> > > >::~pecker_btst_map_container<char,pecker_sdk::pecker_share_string_base_t<char,pecker_sdk::pecker_value_compare<char>,pecker_sdk::pecker_simple_allocator<char>,16>,char,pecker_sdk::pecker_tst_map_node<char,char,pecker_sdk::pecker_value_compare<char>,pecker_sdk::pecker_simple_allocator<char>,pecker_sdk::_AVL_node_base>,pecker_sdk::pecker_nodes_simple_allocater<pecker_sdk::pecker_tst_map_node<char,char,pecker_sdk::pecker_value_compare<char>,pecker_sdk::pecker_simple_allocator<char>,pecker_sdk::_AVL_node_base>,pecker_sdk::pecker_simple_allocator<pecker_sdk::pecker_tst_map_node<char,char,pecker_sdk::pecker_value_compare<char>,pecker_sdk::pecker_simple_allocator<char>,pecker_sdk::_AVL_node_base> > > >
	mov	DWORD PTR __$EHRec$[ebp+8], -1
	lea	ecx, DWORD PTR _tst_map_og$[ebp]
	call	??1?$pecker_btst_map_container@DV?$pecker_share_string_base_t@DU?$pecker_value_compare@D@pecker_sdk@@V?$pecker_simple_allocator@D@2@$0BA@@pecker_sdk@@DU?$pecker_tst_map_node@DDU?$pecker_value_compare@D@pecker_sdk@@V?$pecker_simple_allocator@D@2@U_AVL_node_base@2@@2@V?$pecker_nodes_simple_allocater@U?$pecker_tst_map_node@DDU?$pecker_value_compare@D@pecker_sdk@@V?$pecker_simple_allocator@D@2@U_AVL_node_base@2@@pecker_sdk@@V?$pecker_simple_allocator@U?$pecker_tst_map_node@DDU?$pecker_value_compare@D@pecker_sdk@@V?$pecker_simple_allocator@D@2@U_AVL_node_base@2@@pecker_sdk@@@2@@2@@pecker_sdk@@QAE@XZ ; pecker_sdk::pecker_btst_map_container<char,pecker_sdk::pecker_share_string_base_t<char,pecker_sdk::pecker_value_compare<char>,pecker_sdk::pecker_simple_allocator<char>,16>,char,pecker_sdk::pecker_tst_map_node<char,char,pecker_sdk::pecker_value_compare<char>,pecker_sdk::pecker_simple_allocator<char>,pecker_sdk::_AVL_node_base>,pecker_sdk::pecker_nodes_simple_allocater<pecker_sdk::pecker_tst_map_node<char,char,pecker_sdk::pecker_value_compare<char>,pecker_sdk::pecker_simple_allocator<char>,pecker_sdk::_AVL_node_base>,pecker_sdk::pecker_simple_allocator<pecker_sdk::pecker_tst_map_node<char,char,pecker_sdk::pecker_value_compare<char>,pecker_sdk::pecker_simple_allocator<char>,pecker_sdk::_AVL_node_base> > > >::~pecker_btst_map_container<char,pecker_sdk::pecker_share_string_base_t<char,pecker_sdk::pecker_value_compare<char>,pecker_sdk::pecker_simple_allocator<char>,16>,char,pecker_sdk::pecker_tst_map_node<char,char,pecker_sdk::pecker_value_compare<char>,pecker_sdk::pecker_simple_allocator<char>,pecker_sdk::_AVL_node_base>,pecker_sdk::pecker_nodes_simple_allocater<pecker_sdk::pecker_tst_map_node<char,char,pecker_sdk::pecker_value_compare<char>,pecker_sdk::pecker_simple_allocator<char>,pecker_sdk::_AVL_node_base>,pecker_sdk::pecker_simple_allocator<pecker_sdk::pecker_tst_map_node<char,char,pecker_sdk::pecker_value_compare<char>,pecker_sdk::pecker_simple_allocator<char>,pecker_sdk::_AVL_node_base> > > >
	push	edx
	mov	ecx, ebp
	push	eax
	lea	edx, DWORD PTR $LN33@tst_iterat@2
	call	@_RTC_CheckStackVars@8
	pop	eax
	pop	edx
	mov	ecx, DWORD PTR __$EHRec$[ebp]
	mov	DWORD PTR fs:0, ecx
	pop	ecx
	pop	edi
	pop	esi
	pop	ebx
	mov	ecx, DWORD PTR __$ArrayPad$[ebp]
	xor	ecx, ebp
	call	@__security_check_cookie@4
	add	esp, 1028				; 00000404H
	cmp	ebp, esp
	call	__RTC_CheckEsp
	mov	esp, ebp
	pop	ebp
	ret	0
	npad	2
$LN33@tst_iterat@2:
	DD	5
	DD	$LN32@tst_iterat@2
$LN32@tst_iterat@2:
	DD	-36					; ffffffdcH
	DD	16					; 00000010H
	DD	$LN26@tst_iterat@2
	DD	-60					; ffffffc4H
	DD	16					; 00000010H
	DD	$LN27@tst_iterat@2
	DD	-88					; ffffffa8H
	DD	20					; 00000014H
	DD	$LN28@tst_iterat@2
	DD	-632					; fffffd88H
	DD	536					; 00000218H
	DD	$LN29@tst_iterat@2
	DD	-652					; fffffd74H
	DD	12					; 0000000cH
	DD	$LN30@tst_iterat@2
$LN30@tst_iterat@2:
	DB	97					; 00000061H
	DB	114					; 00000072H
	DB	114					; 00000072H
	DB	97					; 00000061H
	DB	121					; 00000079H
	DB	95					; 0000005fH
	DB	105					; 00000069H
	DB	116					; 00000074H
	DB	101					; 00000065H
	DB	114					; 00000072H
	DB	97					; 00000061H
	DB	116					; 00000074H
	DB	111					; 0000006fH
	DB	114					; 00000072H
	DB	49					; 00000031H
	DB	0
$LN29@tst_iterat@2:
	DB	105					; 00000069H
	DB	110					; 0000006eH
	DB	111					; 0000006fH
	DB	114					; 00000072H
	DB	100					; 00000064H
	DB	101					; 00000065H
	DB	114					; 00000072H
	DB	95					; 0000005fH
	DB	105					; 00000069H
	DB	116					; 00000074H
	DB	101					; 00000065H
	DB	114					; 00000072H
	DB	97					; 00000061H
	DB	116					; 00000074H
	DB	111					; 0000006fH
	DB	114					; 00000072H
	DB	0
$LN28@tst_iterat@2:
	DB	97					; 00000061H
	DB	114					; 00000072H
	DB	114					; 00000072H
	DB	97					; 00000061H
	DB	121					; 00000079H
	DB	0
$LN27@tst_iterat@2:
	DB	116					; 00000074H
	DB	115					; 00000073H
	DB	116					; 00000074H
	DB	95					; 0000005fH
	DB	109					; 0000006dH
	DB	97					; 00000061H
	DB	112					; 00000070H
	DB	0
$LN26@tst_iterat@2:
	DB	116					; 00000074H
	DB	115					; 00000073H
	DB	116					; 00000074H
	DB	95					; 0000005fH
	DB	109					; 0000006dH
	DB	97					; 00000061H
	DB	112					; 00000070H
	DB	95					; 0000005fH
	DB	111					; 0000006fH
	DB	103					; 00000067H
	DB	0
_TEXT	ENDS
;	COMDAT text$x
text$x	SEGMENT
__unwindfunclet$?tst_iterator_test_clear@@YAXXZ$0:
	lea	ecx, DWORD PTR _tst_map_og$[ebp]
	jmp	??1?$pecker_btst_map_container@DV?$pecker_share_string_base_t@DU?$pecker_value_compare@D@pecker_sdk@@V?$pecker_simple_allocator@D@2@$0BA@@pecker_sdk@@DU?$pecker_tst_map_node@DDU?$pecker_value_compare@D@pecker_sdk@@V?$pecker_simple_allocator@D@2@U_AVL_node_base@2@@2@V?$pecker_nodes_simple_allocater@U?$pecker_tst_map_node@DDU?$pecker_value_compare@D@pecker_sdk@@V?$pecker_simple_allocator@D@2@U_AVL_node_base@2@@pecker_sdk@@V?$pecker_simple_allocator@U?$pecker_tst_map_node@DDU?$pecker_value_compare@D@pecker_sdk@@V?$pecker_simple_allocator@D@2@U_AVL_node_base@2@@pecker_sdk@@@2@@2@@pecker_sdk@@QAE@XZ ; pecker_sdk::pecker_btst_map_container<char,pecker_sdk::pecker_share_string_base_t<char,pecker_sdk::pecker_value_compare<char>,pecker_sdk::pecker_simple_allocator<char>,16>,char,pecker_sdk::pecker_tst_map_node<char,char,pecker_sdk::pecker_value_compare<char>,pecker_sdk::pecker_simple_allocator<char>,pecker_sdk::_AVL_node_base>,pecker_sdk::pecker_nodes_simple_allocater<pecker_sdk::pecker_tst_map_node<char,char,pecker_sdk::pecker_value_compare<char>,pecker_sdk::pecker_simple_allocator<char>,pecker_sdk::_AVL_node_base>,pecker_sdk::pecker_simple_allocator<pecker_sdk::pecker_tst_map_node<char,char,pecker_sdk::pecker_value_compare<char>,pecker_sdk::pecker_simple_allocator<char>,pecker_sdk::_AVL_node_base> > > >::~pecker_btst_map_container<char,pecker_sdk::pecker_share_string_base_t<char,pecker_sdk::pecker_value_compare<char>,pecker_sdk::pecker_simple_allocator<char>,16>,char,pecker_sdk::pecker_tst_map_node<char,char,pecker_sdk::pecker_value_compare<char>,pecker_sdk::pecker_simple_allocator<char>,pecker_sdk::_AVL_node_base>,pecker_sdk::pecker_nodes_simple_allocater<pecker_sdk::pecker_tst_map_node<char,char,pecker_sdk::pecker_value_compare<char>,pecker_sdk::pecker_simple_allocator<char>,pecker_sdk::_AVL_node_base>,pecker_sdk::pecker_simple_allocator<pecker_sdk::pecker_tst_map_node<char,char,pecker_sdk::pecker_value_compare<char>,pecker_sdk::pecker_simple_allocator<char>,pecker_sdk::_AVL_node_base> > > >
__unwindfunclet$?tst_iterator_test_clear@@YAXXZ$1:
	lea	ecx, DWORD PTR _tst_map$[ebp]
	jmp	??1?$pecker_btst_map_container@DV?$pecker_share_string_base_t@DU?$pecker_value_compare@D@pecker_sdk@@V?$pecker_simple_allocator@D@2@$0BA@@pecker_sdk@@DU?$pecker_tst_map_node@DDU?$pecker_value_compare@D@pecker_sdk@@V?$pecker_simple_allocator@D@2@U_AVL_node_base@2@@2@V?$pecker_nodes_simple_allocater@U?$pecker_tst_map_node@DDU?$pecker_value_compare@D@pecker_sdk@@V?$pecker_simple_allocator@D@2@U_AVL_node_base@2@@pecker_sdk@@V?$pecker_simple_allocator@U?$pecker_tst_map_node@DDU?$pecker_value_compare@D@pecker_sdk@@V?$pecker_simple_allocator@D@2@U_AVL_node_base@2@@pecker_sdk@@@2@@2@@pecker_sdk@@QAE@XZ ; pecker_sdk::pecker_btst_map_container<char,pecker_sdk::pecker_share_string_base_t<char,pecker_sdk::pecker_value_compare<char>,pecker_sdk::pecker_simple_allocator<char>,16>,char,pecker_sdk::pecker_tst_map_node<char,char,pecker_sdk::pecker_value_compare<char>,pecker_sdk::pecker_simple_allocator<char>,pecker_sdk::_AVL_node_base>,pecker_sdk::pecker_nodes_simple_allocater<pecker_sdk::pecker_tst_map_node<char,char,pecker_sdk::pecker_value_compare<char>,pecker_sdk::pecker_simple_allocator<char>,pecker_sdk::_AVL_node_base>,pecker_sdk::pecker_simple_allocator<pecker_sdk::pecker_tst_map_node<char,char,pecker_sdk::pecker_value_compare<char>,pecker_sdk::pecker_simple_allocator<char>,pecker_sdk::_AVL_node_base> > > >::~pecker_btst_map_container<char,pecker_sdk::pecker_share_string_base_t<char,pecker_sdk::pecker_value_compare<char>,pecker_sdk::pecker_simple_allocator<char>,16>,char,pecker_sdk::pecker_tst_map_node<char,char,pecker_sdk::pecker_value_compare<char>,pecker_sdk::pecker_simple_allocator<char>,pecker_sdk::_AVL_node_base>,pecker_sdk::pecker_nodes_simple_allocater<pecker_sdk::pecker_tst_map_node<char,char,pecker_sdk::pecker_value_compare<char>,pecker_sdk::pecker_simple_allocator<char>,pecker_sdk::_AVL_node_base>,pecker_sdk::pecker_simple_allocator<pecker_sdk::pecker_tst_map_node<char,char,pecker_sdk::pecker_value_compare<char>,pecker_sdk::pecker_simple_allocator<char>,pecker_sdk::_AVL_node_base> > > >
__unwindfunclet$?tst_iterator_test_clear@@YAXXZ$2:
	lea	ecx, DWORD PTR _array$[ebp]
	jmp	??1?$pecker_array@V?$pecker_share_string_base_t@DU?$pecker_value_compare@D@pecker_sdk@@V?$pecker_simple_allocator@D@2@$0BA@@pecker_sdk@@V?$pecker_simple_allocator@V?$pecker_share_string_base_t@DU?$pecker_value_compare@D@pecker_sdk@@V?$pecker_simple_allocator@D@2@$0BA@@pecker_sdk@@@2@@pecker_sdk@@UAE@XZ ; pecker_sdk::pecker_array<pecker_sdk::pecker_share_string_base_t<char,pecker_sdk::pecker_value_compare<char>,pecker_sdk::pecker_simple_allocator<char>,16>,pecker_sdk::pecker_simple_allocator<pecker_sdk::pecker_share_string_base_t<char,pecker_sdk::pecker_value_compare<char>,pecker_sdk::pecker_simple_allocator<char>,16> > >::~pecker_array<pecker_sdk::pecker_share_string_base_t<char,pecker_sdk::pecker_value_compare<char>,pecker_sdk::pecker_simple_allocator<char>,16>,pecker_sdk::pecker_simple_allocator<pecker_sdk::pecker_share_string_base_t<char,pecker_sdk::pecker_value_compare<char>,pecker_sdk::pecker_simple_allocator<char>,16> > >
__unwindfunclet$?tst_iterator_test_clear@@YAXXZ$3:
	lea	ecx, DWORD PTR _inorder_iterator$[ebp]
	jmp	??1?$pecker_tst_tree_no_perent_node_inorder_iterator_base@U?$pecker_tst_map_node@DDU?$pecker_value_compare@D@pecker_sdk@@V?$pecker_simple_allocator@D@2@U_AVL_node_base@2@@pecker_sdk@@V?$pecker_simple_allocator@PBU?$pecker_tst_map_node@DDU?$pecker_value_compare@D@pecker_sdk@@V?$pecker_simple_allocator@D@2@U_AVL_node_base@2@@pecker_sdk@@@2@V?$pecker_simple_allocator@PAPBU?$pecker_tst_map_node@DDU?$pecker_value_compare@D@pecker_sdk@@V?$pecker_simple_allocator@D@2@U_AVL_node_base@2@@pecker_sdk@@@2@@pecker_sdk@@UAE@XZ ; pecker_sdk::pecker_tst_tree_no_perent_node_inorder_iterator_base<pecker_sdk::pecker_tst_map_node<char,char,pecker_sdk::pecker_value_compare<char>,pecker_sdk::pecker_simple_allocator<char>,pecker_sdk::_AVL_node_base>,pecker_sdk::pecker_simple_allocator<pecker_sdk::pecker_tst_map_node<char,char,pecker_sdk::pecker_value_compare<char>,pecker_sdk::pecker_simple_allocator<char>,pecker_sdk::_AVL_node_base> const *>,pecker_sdk::pecker_simple_allocator<pecker_sdk::pecker_tst_map_node<char,char,pecker_sdk::pecker_value_compare<char>,pecker_sdk::pecker_simple_allocator<char>,pecker_sdk::_AVL_node_base> const * *> >::~pecker_tst_tree_no_perent_node_inorder_iterator_base<pecker_sdk::pecker_tst_map_node<char,char,pecker_sdk::pecker_value_compare<char>,pecker_sdk::pecker_simple_allocator<char>,pecker_sdk::_AVL_node_base>,pecker_sdk::pecker_simple_allocator<pecker_sdk::pecker_tst_map_node<char,char,pecker_sdk::pecker_value_compare<char>,pecker_sdk::pecker_simple_allocator<char>,pecker_sdk::_AVL_node_base> const *>,pecker_sdk::pecker_simple_allocator<pecker_sdk::pecker_tst_map_node<char,char,pecker_sdk::pecker_value_compare<char>,pecker_sdk::pecker_simple_allocator<char>,pecker_sdk::_AVL_node_base> const * *> >
__unwindfunclet$?tst_iterator_test_clear@@YAXXZ$4:
	lea	ecx, DWORD PTR _array_iterator1$[ebp]
	jmp	??1?$pecker_array_iterator@V?$pecker_array@V?$pecker_share_string_base_t@DU?$pecker_value_compare@D@pecker_sdk@@V?$pecker_simple_allocator@D@2@$0BA@@pecker_sdk@@V?$pecker_simple_allocator@V?$pecker_share_string_base_t@DU?$pecker_value_compare@D@pecker_sdk@@V?$pecker_simple_allocator@D@2@$0BA@@pecker_sdk@@@2@@pecker_sdk@@@pecker_sdk@@UAE@XZ ; pecker_sdk::pecker_array_iterator<pecker_sdk::pecker_array<pecker_sdk::pecker_share_string_base_t<char,pecker_sdk::pecker_value_compare<char>,pecker_sdk::pecker_simple_allocator<char>,16>,pecker_sdk::pecker_simple_allocator<pecker_sdk::pecker_share_string_base_t<char,pecker_sdk::pecker_value_compare<char>,pecker_sdk::pecker_simple_allocator<char>,16> > > >::~pecker_array_iterator<pecker_sdk::pecker_array<pecker_sdk::pecker_share_string_base_t<char,pecker_sdk::pecker_value_compare<char>,pecker_sdk::pecker_simple_allocator<char>,16>,pecker_sdk::pecker_simple_allocator<pecker_sdk::pecker_share_string_base_t<char,pecker_sdk::pecker_value_compare<char>,pecker_sdk::pecker_simple_allocator<char>,16> > > >
__unwindfunclet$?tst_iterator_test_clear@@YAXXZ$5:
	lea	ecx, DWORD PTR $T70044[ebp]
	jmp	??1?$pecker_share_string_base_t@DU?$pecker_value_compare@D@pecker_sdk@@V?$pecker_simple_allocator@D@2@$0BA@@pecker_sdk@@QAE@XZ ; pecker_sdk::pecker_share_string_base_t<char,pecker_sdk::pecker_value_compare<char>,pecker_sdk::pecker_simple_allocator<char>,16>::~pecker_share_string_base_t<char,pecker_sdk::pecker_value_compare<char>,pecker_sdk::pecker_simple_allocator<char>,16>
__unwindfunclet$?tst_iterator_test_clear@@YAXXZ$6:
	lea	ecx, DWORD PTR $T70050[ebp]
	jmp	??1?$pecker_share_string_base_t@DU?$pecker_value_compare@D@pecker_sdk@@V?$pecker_simple_allocator@D@2@$0BA@@pecker_sdk@@QAE@XZ ; pecker_sdk::pecker_share_string_base_t<char,pecker_sdk::pecker_value_compare<char>,pecker_sdk::pecker_simple_allocator<char>,16>::~pecker_share_string_base_t<char,pecker_sdk::pecker_value_compare<char>,pecker_sdk::pecker_simple_allocator<char>,16>
__ehhandler$?tst_iterator_test_clear@@YAXXZ:
	mov	edx, DWORD PTR [esp+8]
	lea	eax, DWORD PTR [edx+12]
	mov	ecx, DWORD PTR [edx-1032]
	xor	ecx, eax
	call	@__security_check_cookie@4
	mov	ecx, DWORD PTR [edx-4]
	xor	ecx, eax
	call	@__security_check_cookie@4
	mov	eax, OFFSET __ehfuncinfo$?tst_iterator_test_clear@@YAXXZ
	jmp	___CxxFrameHandler3
text$x	ENDS
?tst_iterator_test_clear@@YAXXZ ENDP			; tst_iterator_test_clear
PUBLIC	??_C@_0BL@DDJMJBAH@?6decrement?5then?5increment?6?$AA@ ; `string'
PUBLIC	?decrement@?$pecker_tst_tree_no_perent_node_inorder_iterator_base@U?$pecker_tst_map_node@DDU?$pecker_value_compare@D@pecker_sdk@@V?$pecker_simple_allocator@D@2@U_AVL_node_base@2@@pecker_sdk@@V?$pecker_simple_allocator@PBU?$pecker_tst_map_node@DDU?$pecker_value_compare@D@pecker_sdk@@V?$pecker_simple_allocator@D@2@U_AVL_node_base@2@@pecker_sdk@@@2@V?$pecker_simple_allocator@PAPBU?$pecker_tst_map_node@DDU?$pecker_value_compare@D@pecker_sdk@@V?$pecker_simple_allocator@D@2@U_AVL_node_base@2@@pecker_sdk@@@2@@pecker_sdk@@UAEJXZ ; pecker_sdk::pecker_tst_tree_no_perent_node_inorder_iterator_base<pecker_sdk::pecker_tst_map_node<char,char,pecker_sdk::pecker_value_compare<char>,pecker_sdk::pecker_simple_allocator<char>,pecker_sdk::_AVL_node_base>,pecker_sdk::pecker_simple_allocator<pecker_sdk::pecker_tst_map_node<char,char,pecker_sdk::pecker_value_compare<char>,pecker_sdk::pecker_simple_allocator<char>,pecker_sdk::_AVL_node_base> const *>,pecker_sdk::pecker_simple_allocator<pecker_sdk::pecker_tst_map_node<char,char,pecker_sdk::pecker_value_compare<char>,pecker_sdk::pecker_simple_allocator<char>,pecker_sdk::_AVL_node_base> const * *> >::decrement
PUBLIC	??_C@_0M@HMJNPPDO@?6decrement?6?$AA@		; `string'
PUBLIC	__$ArrayPad$
PUBLIC	?tst_iterator_test@@YAXXZ			; tst_iterator_test
;	COMDAT ??_C@_0BL@DDJMJBAH@?6decrement?5then?5increment?6?$AA@
CONST	SEGMENT
??_C@_0BL@DDJMJBAH@?6decrement?5then?5increment?6?$AA@ DB 0aH, 'decrement'
	DB	' then increment', 0aH, 00H			; `string'
CONST	ENDS
;	COMDAT ??_C@_0M@HMJNPPDO@?6decrement?6?$AA@
CONST	SEGMENT
??_C@_0M@HMJNPPDO@?6decrement?6?$AA@ DB 0aH, 'decrement', 0aH, 00H ; `string'
CONST	ENDS
;	COMDAT xdata$x
xdata$x	SEGMENT
__ehfuncinfo$?tst_iterator_test@@YAXXZ DD 019930522H
	DD	07H
	DD	FLAT:__unwindtable$?tst_iterator_test@@YAXXZ
	DD	2 DUP(00H)
	DD	2 DUP(00H)
	DD	00H
	DD	01H
__unwindtable$?tst_iterator_test@@YAXXZ DD 0ffffffffH
	DD	FLAT:__unwindfunclet$?tst_iterator_test@@YAXXZ$0
	DD	00H
	DD	FLAT:__unwindfunclet$?tst_iterator_test@@YAXXZ$1
	DD	01H
	DD	FLAT:__unwindfunclet$?tst_iterator_test@@YAXXZ$2
	DD	02H
	DD	FLAT:__unwindfunclet$?tst_iterator_test@@YAXXZ$3
	DD	03H
	DD	FLAT:__unwindfunclet$?tst_iterator_test@@YAXXZ$4
	DD	03H
	DD	FLAT:__unwindfunclet$?tst_iterator_test@@YAXXZ$5
	DD	03H
	DD	FLAT:__unwindfunclet$?tst_iterator_test@@YAXXZ$6
; Function compile flags: /Odtp /RTCsu /ZI
xdata$x	ENDS
;	COMDAT ?tst_iterator_test@@YAXXZ
_TEXT	SEGMENT
tv225 = -1012						; size = 4
tv223 = -1012						; size = 4
tv221 = -1012						; size = 4
tv77 = -1008						; size = 4
tv72 = -1008						; size = 4
tv68 = -1008						; size = 4
$T70081 = -1000						; size = 36
$T70087 = -956						; size = 36
$T70093 = -912						; size = 36
$T73473 = -865						; size = 1
_res$70074 = -664					; size = 4
_pvalue$70072 = -652					; size = 4
_icount$ = -640						; size = 4
_array_iterator1$ = -628				; size = 12
_inorder_iterator$ = -608				; size = 536
_array$ = -64						; size = 20
_tst_map$ = -36						; size = 16
__$ArrayPad$ = -16					; size = 4
__$EHRec$ = -12						; size = 12
?tst_iterator_test@@YAXXZ PROC				; tst_iterator_test, COMDAT

; 274  : {

	push	ebp
	mov	ebp, esp
	push	-1
	push	__ehhandler$?tst_iterator_test@@YAXXZ
	mov	eax, DWORD PTR fs:0
	push	eax
	sub	esp, 1000				; 000003e8H
	push	ebx
	push	esi
	push	edi
	lea	edi, DWORD PTR [ebp-1012]
	mov	ecx, 250				; 000000faH
	mov	eax, -858993460				; ccccccccH
	rep stosd
	mov	eax, DWORD PTR ___security_cookie
	xor	eax, ebp
	mov	DWORD PTR __$ArrayPad$[ebp], eax
	push	eax
	lea	eax, DWORD PTR __$EHRec$[ebp]
	mov	DWORD PTR fs:0, eax

; 275  : 	BTSTree tst_map;

	lea	ecx, DWORD PTR _tst_map$[ebp]
	call	??0?$pecker_btst_map_container@DV?$pecker_share_string_base_t@DU?$pecker_value_compare@D@pecker_sdk@@V?$pecker_simple_allocator@D@2@$0BA@@pecker_sdk@@DU?$pecker_tst_map_node@DDU?$pecker_value_compare@D@pecker_sdk@@V?$pecker_simple_allocator@D@2@U_AVL_node_base@2@@2@V?$pecker_nodes_simple_allocater@U?$pecker_tst_map_node@DDU?$pecker_value_compare@D@pecker_sdk@@V?$pecker_simple_allocator@D@2@U_AVL_node_base@2@@pecker_sdk@@V?$pecker_simple_allocator@U?$pecker_tst_map_node@DDU?$pecker_value_compare@D@pecker_sdk@@V?$pecker_simple_allocator@D@2@U_AVL_node_base@2@@pecker_sdk@@@2@@2@@pecker_sdk@@QAE@XZ ; pecker_sdk::pecker_btst_map_container<char,pecker_sdk::pecker_share_string_base_t<char,pecker_sdk::pecker_value_compare<char>,pecker_sdk::pecker_simple_allocator<char>,16>,char,pecker_sdk::pecker_tst_map_node<char,char,pecker_sdk::pecker_value_compare<char>,pecker_sdk::pecker_simple_allocator<char>,pecker_sdk::_AVL_node_base>,pecker_sdk::pecker_nodes_simple_allocater<pecker_sdk::pecker_tst_map_node<char,char,pecker_sdk::pecker_value_compare<char>,pecker_sdk::pecker_simple_allocator<char>,pecker_sdk::_AVL_node_base>,pecker_sdk::pecker_simple_allocator<pecker_sdk::pecker_tst_map_node<char,char,pecker_sdk::pecker_value_compare<char>,pecker_sdk::pecker_simple_allocator<char>,pecker_sdk::_AVL_node_base> > > >::pecker_btst_map_container<char,pecker_sdk::pecker_share_string_base_t<char,pecker_sdk::pecker_value_compare<char>,pecker_sdk::pecker_simple_allocator<char>,16>,char,pecker_sdk::pecker_tst_map_node<char,char,pecker_sdk::pecker_value_compare<char>,pecker_sdk::pecker_simple_allocator<char>,pecker_sdk::_AVL_node_base>,pecker_sdk::pecker_nodes_simple_allocater<pecker_sdk::pecker_tst_map_node<char,char,pecker_sdk::pecker_value_compare<char>,pecker_sdk::pecker_simple_allocator<char>,pecker_sdk::_AVL_node_base>,pecker_sdk::pecker_simple_allocator<pecker_sdk::pecker_tst_map_node<char,char,pecker_sdk::pecker_value_compare<char>,pecker_sdk::pecker_simple_allocator<char>,pecker_sdk::_AVL_node_base> > > >
	mov	DWORD PTR __$EHRec$[ebp+8], 0

; 276  : 	pecker_array< String_base > array;

	push	16					; 00000010H
	lea	ecx, DWORD PTR _array$[ebp]
	call	??0?$pecker_array@V?$pecker_share_string_base_t@DU?$pecker_value_compare@D@pecker_sdk@@V?$pecker_simple_allocator@D@2@$0BA@@pecker_sdk@@V?$pecker_simple_allocator@V?$pecker_share_string_base_t@DU?$pecker_value_compare@D@pecker_sdk@@V?$pecker_simple_allocator@D@2@$0BA@@pecker_sdk@@@2@@pecker_sdk@@QAE@H@Z ; pecker_sdk::pecker_array<pecker_sdk::pecker_share_string_base_t<char,pecker_sdk::pecker_value_compare<char>,pecker_sdk::pecker_simple_allocator<char>,16>,pecker_sdk::pecker_simple_allocator<pecker_sdk::pecker_share_string_base_t<char,pecker_sdk::pecker_value_compare<char>,pecker_sdk::pecker_simple_allocator<char>,16> > >::pecker_array<pecker_sdk::pecker_share_string_base_t<char,pecker_sdk::pecker_value_compare<char>,pecker_sdk::pecker_simple_allocator<char>,16>,pecker_sdk::pecker_simple_allocator<pecker_sdk::pecker_share_string_base_t<char,pecker_sdk::pecker_value_compare<char>,pecker_sdk::pecker_simple_allocator<char>,16> > >
	mov	BYTE PTR __$EHRec$[ebp+8], 1

; 277  : 	_TST_inorder_iterator inorder_iterator;

	push	0
	lea	ecx, DWORD PTR _inorder_iterator$[ebp]
	call	??0?$pecker_tst_tree_no_perent_node_inorder_iterator_base@U?$pecker_tst_map_node@DDU?$pecker_value_compare@D@pecker_sdk@@V?$pecker_simple_allocator@D@2@U_AVL_node_base@2@@pecker_sdk@@V?$pecker_simple_allocator@PBU?$pecker_tst_map_node@DDU?$pecker_value_compare@D@pecker_sdk@@V?$pecker_simple_allocator@D@2@U_AVL_node_base@2@@pecker_sdk@@@2@V?$pecker_simple_allocator@PAPBU?$pecker_tst_map_node@DDU?$pecker_value_compare@D@pecker_sdk@@V?$pecker_simple_allocator@D@2@U_AVL_node_base@2@@pecker_sdk@@@2@@pecker_sdk@@QAE@PBU?$pecker_tst_map_node@DDU?$pecker_value_compare@D@pecker_sdk@@V?$pecker_simple_allocator@D@2@U_AVL_node_base@2@@1@@Z ; pecker_sdk::pecker_tst_tree_no_perent_node_inorder_iterator_base<pecker_sdk::pecker_tst_map_node<char,char,pecker_sdk::pecker_value_compare<char>,pecker_sdk::pecker_simple_allocator<char>,pecker_sdk::_AVL_node_base>,pecker_sdk::pecker_simple_allocator<pecker_sdk::pecker_tst_map_node<char,char,pecker_sdk::pecker_value_compare<char>,pecker_sdk::pecker_simple_allocator<char>,pecker_sdk::_AVL_node_base> const *>,pecker_sdk::pecker_simple_allocator<pecker_sdk::pecker_tst_map_node<char,char,pecker_sdk::pecker_value_compare<char>,pecker_sdk::pecker_simple_allocator<char>,pecker_sdk::_AVL_node_base> const * *> >::pecker_tst_tree_no_perent_node_inorder_iterator_base<pecker_sdk::pecker_tst_map_node<char,char,pecker_sdk::pecker_value_compare<char>,pecker_sdk::pecker_simple_allocator<char>,pecker_sdk::_AVL_node_base>,pecker_sdk::pecker_simple_allocator<pecker_sdk::pecker_tst_map_node<char,char,pecker_sdk::pecker_value_compare<char>,pecker_sdk::pecker_simple_allocator<char>,pecker_sdk::_AVL_node_base> const *>,pecker_sdk::pecker_simple_allocator<pecker_sdk::pecker_tst_map_node<char,char,pecker_sdk::pecker_value_compare<char>,pecker_sdk::pecker_simple_allocator<char>,pecker_sdk::_AVL_node_base> const * *> >
	mov	BYTE PTR __$EHRec$[ebp+8], 2

; 278  : 	
; 279  : 	init_input_data(array);

	lea	eax, DWORD PTR _array$[ebp]
	push	eax
	call	?init_input_data@@YAXAAV?$pecker_array@V?$pecker_share_string_base_t@DU?$pecker_value_compare@D@pecker_sdk@@V?$pecker_simple_allocator@D@2@$0BA@@pecker_sdk@@V?$pecker_simple_allocator@V?$pecker_share_string_base_t@DU?$pecker_value_compare@D@pecker_sdk@@V?$pecker_simple_allocator@D@2@$0BA@@pecker_sdk@@@2@@pecker_sdk@@@Z ; init_input_data
	add	esp, 4

; 280  : 	pecker_array_iterator< pecker_array<String_base> >array_iterator1;

	push	0
	lea	ecx, DWORD PTR _array_iterator1$[ebp]
	call	??0?$pecker_array_iterator@V?$pecker_array@V?$pecker_share_string_base_t@DU?$pecker_value_compare@D@pecker_sdk@@V?$pecker_simple_allocator@D@2@$0BA@@pecker_sdk@@V?$pecker_simple_allocator@V?$pecker_share_string_base_t@DU?$pecker_value_compare@D@pecker_sdk@@V?$pecker_simple_allocator@D@2@$0BA@@pecker_sdk@@@2@@pecker_sdk@@@pecker_sdk@@QAE@PBV?$pecker_array@V?$pecker_share_string_base_t@DU?$pecker_value_compare@D@pecker_sdk@@V?$pecker_simple_allocator@D@2@$0BA@@pecker_sdk@@V?$pecker_simple_allocator@V?$pecker_share_string_base_t@DU?$pecker_value_compare@D@pecker_sdk@@V?$pecker_simple_allocator@D@2@$0BA@@pecker_sdk@@@2@@1@@Z ; pecker_sdk::pecker_array_iterator<pecker_sdk::pecker_array<pecker_sdk::pecker_share_string_base_t<char,pecker_sdk::pecker_value_compare<char>,pecker_sdk::pecker_simple_allocator<char>,16>,pecker_sdk::pecker_simple_allocator<pecker_sdk::pecker_share_string_base_t<char,pecker_sdk::pecker_value_compare<char>,pecker_sdk::pecker_simple_allocator<char>,16> > > >::pecker_array_iterator<pecker_sdk::pecker_array<pecker_sdk::pecker_share_string_base_t<char,pecker_sdk::pecker_value_compare<char>,pecker_sdk::pecker_simple_allocator<char>,16>,pecker_sdk::pecker_simple_allocator<pecker_sdk::pecker_share_string_base_t<char,pecker_sdk::pecker_value_compare<char>,pecker_sdk::pecker_simple_allocator<char>,16> > > >
	mov	BYTE PTR __$EHRec$[ebp+8], 3

; 281  : 	array.get_iterator(&array_iterator1);

	lea	eax, DWORD PTR _array_iterator1$[ebp]
	push	eax
	lea	ecx, DWORD PTR _array$[ebp]
	call	?get_iterator@?$pecker_array@V?$pecker_share_string_base_t@DU?$pecker_value_compare@D@pecker_sdk@@V?$pecker_simple_allocator@D@2@$0BA@@pecker_sdk@@V?$pecker_simple_allocator@V?$pecker_share_string_base_t@DU?$pecker_value_compare@D@pecker_sdk@@V?$pecker_simple_allocator@D@2@$0BA@@pecker_sdk@@@2@@pecker_sdk@@QBEPAV?$pecker_array_iterator@V?$pecker_array@V?$pecker_share_string_base_t@DU?$pecker_value_compare@D@pecker_sdk@@V?$pecker_simple_allocator@D@2@$0BA@@pecker_sdk@@V?$pecker_simple_allocator@V?$pecker_share_string_base_t@DU?$pecker_value_compare@D@pecker_sdk@@V?$pecker_simple_allocator@D@2@$0BA@@pecker_sdk@@@2@@pecker_sdk@@@2@PAV32@@Z ; pecker_sdk::pecker_array<pecker_sdk::pecker_share_string_base_t<char,pecker_sdk::pecker_value_compare<char>,pecker_sdk::pecker_simple_allocator<char>,16>,pecker_sdk::pecker_simple_allocator<pecker_sdk::pecker_share_string_base_t<char,pecker_sdk::pecker_value_compare<char>,pecker_sdk::pecker_simple_allocator<char>,16> > >::get_iterator

; 282  : 	array_iterator1.init(ITERATOR_INIT_BEGIN_INDEX);

	push	0
	lea	ecx, DWORD PTR _array_iterator1$[ebp]
	call	?init@?$pecker_array_iterator@V?$pecker_array@V?$pecker_share_string_base_t@DU?$pecker_value_compare@D@pecker_sdk@@V?$pecker_simple_allocator@D@2@$0BA@@pecker_sdk@@V?$pecker_simple_allocator@V?$pecker_share_string_base_t@DU?$pecker_value_compare@D@pecker_sdk@@V?$pecker_simple_allocator@D@2@$0BA@@pecker_sdk@@@2@@pecker_sdk@@@pecker_sdk@@UAEJW4enumLINEAR_INTERATOR_INIT_TYPE@@@Z ; pecker_sdk::pecker_array_iterator<pecker_sdk::pecker_array<pecker_sdk::pecker_share_string_base_t<char,pecker_sdk::pecker_value_compare<char>,pecker_sdk::pecker_simple_allocator<char>,16>,pecker_sdk::pecker_simple_allocator<pecker_sdk::pecker_share_string_base_t<char,pecker_sdk::pecker_value_compare<char>,pecker_sdk::pecker_simple_allocator<char>,16> > > >::init

; 283  : 	int icount = 0;

	mov	DWORD PTR _icount$[ebp], 0
$LN18@tst_iterat@3:

; 284  : 	while (1)

	mov	eax, 1
	test	eax, eax
	je	$LN17@tst_iterat@3

; 285  : 	{
; 286  : 		const String_base* pvalue = array.get_at(&array_iterator1);

	lea	eax, DWORD PTR _array_iterator1$[ebp]
	push	eax
	lea	ecx, DWORD PTR _array$[ebp]
	call	?get_at@?$pecker_array@V?$pecker_share_string_base_t@DU?$pecker_value_compare@D@pecker_sdk@@V?$pecker_simple_allocator@D@2@$0BA@@pecker_sdk@@V?$pecker_simple_allocator@V?$pecker_share_string_base_t@DU?$pecker_value_compare@D@pecker_sdk@@V?$pecker_simple_allocator@D@2@$0BA@@pecker_sdk@@@2@@pecker_sdk@@QBEPBV?$pecker_share_string_base_t@DU?$pecker_value_compare@D@pecker_sdk@@V?$pecker_simple_allocator@D@2@$0BA@@2@PBV?$pecker_array_iterator@V?$pecker_array@V?$pecker_share_string_base_t@DU?$pecker_value_compare@D@pecker_sdk@@V?$pecker_simple_allocator@D@2@$0BA@@pecker_sdk@@V?$pecker_simple_allocator@V?$pecker_share_string_base_t@DU?$pecker_value_compare@D@pecker_sdk@@V?$pecker_simple_allocator@D@2@$0BA@@pecker_sdk@@@2@@pecker_sdk@@@2@@Z ; pecker_sdk::pecker_array<pecker_sdk::pecker_share_string_base_t<char,pecker_sdk::pecker_value_compare<char>,pecker_sdk::pecker_simple_allocator<char>,16>,pecker_sdk::pecker_simple_allocator<pecker_sdk::pecker_share_string_base_t<char,pecker_sdk::pecker_value_compare<char>,pecker_sdk::pecker_simple_allocator<char>,16> > >::get_at
	mov	DWORD PTR _pvalue$70072[ebp], eax

; 287  : 		if (pvalue)

	cmp	DWORD PTR _pvalue$70072[ebp], 0
	je	$LN16@tst_iterat@3

; 288  : 		{
; 289  : 			HResult res = tst_map.insert(*pvalue,icount);

	mov	al, BYTE PTR _icount$[ebp]
	mov	BYTE PTR $T73473[ebp], al
	lea	ecx, DWORD PTR $T73473[ebp]
	push	ecx
	mov	edx, DWORD PTR _pvalue$70072[ebp]
	push	edx
	lea	ecx, DWORD PTR _tst_map$[ebp]
	call	?insert@?$pecker_btst_map_container@DV?$pecker_share_string_base_t@DU?$pecker_value_compare@D@pecker_sdk@@V?$pecker_simple_allocator@D@2@$0BA@@pecker_sdk@@DU?$pecker_tst_map_node@DDU?$pecker_value_compare@D@pecker_sdk@@V?$pecker_simple_allocator@D@2@U_AVL_node_base@2@@2@V?$pecker_nodes_simple_allocater@U?$pecker_tst_map_node@DDU?$pecker_value_compare@D@pecker_sdk@@V?$pecker_simple_allocator@D@2@U_AVL_node_base@2@@pecker_sdk@@V?$pecker_simple_allocator@U?$pecker_tst_map_node@DDU?$pecker_value_compare@D@pecker_sdk@@V?$pecker_simple_allocator@D@2@U_AVL_node_base@2@@pecker_sdk@@@2@@2@@pecker_sdk@@QAEJABV?$pecker_share_string_base_t@DU?$pecker_value_compare@D@pecker_sdk@@V?$pecker_simple_allocator@D@2@$0BA@@2@ABD@Z ; pecker_sdk::pecker_btst_map_container<char,pecker_sdk::pecker_share_string_base_t<char,pecker_sdk::pecker_value_compare<char>,pecker_sdk::pecker_simple_allocator<char>,16>,char,pecker_sdk::pecker_tst_map_node<char,char,pecker_sdk::pecker_value_compare<char>,pecker_sdk::pecker_simple_allocator<char>,pecker_sdk::_AVL_node_base>,pecker_sdk::pecker_nodes_simple_allocater<pecker_sdk::pecker_tst_map_node<char,char,pecker_sdk::pecker_value_compare<char>,pecker_sdk::pecker_simple_allocator<char>,pecker_sdk::_AVL_node_base>,pecker_sdk::pecker_simple_allocator<pecker_sdk::pecker_tst_map_node<char,char,pecker_sdk::pecker_value_compare<char>,pecker_sdk::pecker_simple_allocator<char>,pecker_sdk::_AVL_node_base> > > >::insert
	mov	DWORD PTR _res$70074[ebp], eax

; 290  : 			if (P_OK != res)

	cmp	DWORD PTR _res$70074[ebp], 0
	je	SHORT $LN15@tst_iterat@3

; 291  : 			{
; 292  : 				PECKER_LOG_ERR("tst insert error",0);

	mov	esi, esp
	push	OFFSET ??_C@_0M@ONMFDOOB@ERROR_INFO?5?$AA@
	call	DWORD PTR __imp__printf
	add	esp, 4
	cmp	esi, esp
	call	__RTC_CheckEsp
	mov	esi, esp
	push	OFFSET ??_C@_0BB@PDCACMPJ@tst?5insert?5error?$AA@
	call	DWORD PTR __imp__printf
	add	esp, 4
	cmp	esi, esp
	call	__RTC_CheckEsp
	mov	esi, esp
	push	OFFSET ??_C@_01EEMJAFIK@?6?$AA@
	call	DWORD PTR __imp__printf
	add	esp, 4
	cmp	esi, esp
	call	__RTC_CheckEsp
	mov	esi, esp
	push	0
	call	DWORD PTR __imp__printf
	add	esp, 4
	cmp	esi, esp
	call	__RTC_CheckEsp
	mov	esi, esp
	push	OFFSET ??_C@_01EEMJAFIK@?6?$AA@
	call	DWORD PTR __imp__printf
	add	esp, 4
	cmp	esi, esp
	call	__RTC_CheckEsp
$LN15@tst_iterat@3:

; 293  : 			}
; 294  : 		}
; 295  : 		else

	jmp	SHORT $LN14@tst_iterat@3
$LN16@tst_iterat@3:

; 296  : 		{
; 297  : 			break;

	jmp	SHORT $LN17@tst_iterat@3
$LN14@tst_iterat@3:

; 298  : 		}
; 299  : 		++icount;

	mov	eax, DWORD PTR _icount$[ebp]
	add	eax, 1
	mov	DWORD PTR _icount$[ebp], eax

; 300  : 		array_iterator1.increment();

	lea	ecx, DWORD PTR _array_iterator1$[ebp]
	call	?increment@?$pecker_array_iterator@V?$pecker_array@V?$pecker_share_string_base_t@DU?$pecker_value_compare@D@pecker_sdk@@V?$pecker_simple_allocator@D@2@$0BA@@pecker_sdk@@V?$pecker_simple_allocator@V?$pecker_share_string_base_t@DU?$pecker_value_compare@D@pecker_sdk@@V?$pecker_simple_allocator@D@2@$0BA@@pecker_sdk@@@2@@pecker_sdk@@@pecker_sdk@@UAEJXZ ; pecker_sdk::pecker_array_iterator<pecker_sdk::pecker_array<pecker_sdk::pecker_share_string_base_t<char,pecker_sdk::pecker_value_compare<char>,pecker_sdk::pecker_simple_allocator<char>,16>,pecker_sdk::pecker_simple_allocator<pecker_sdk::pecker_share_string_base_t<char,pecker_sdk::pecker_value_compare<char>,pecker_sdk::pecker_simple_allocator<char>,16> > > >::increment

; 301  : 	}

	jmp	$LN18@tst_iterat@3
$LN17@tst_iterat@3:

; 302  : 
; 303  : 	tst_map.get_iterator(&inorder_iterator);

	lea	eax, DWORD PTR _inorder_iterator$[ebp]
	push	eax
	lea	ecx, DWORD PTR _tst_map$[ebp]
	call	?get_iterator@?$pecker_btst_map_container@DV?$pecker_share_string_base_t@DU?$pecker_value_compare@D@pecker_sdk@@V?$pecker_simple_allocator@D@2@$0BA@@pecker_sdk@@DU?$pecker_tst_map_node@DDU?$pecker_value_compare@D@pecker_sdk@@V?$pecker_simple_allocator@D@2@U_AVL_node_base@2@@2@V?$pecker_nodes_simple_allocater@U?$pecker_tst_map_node@DDU?$pecker_value_compare@D@pecker_sdk@@V?$pecker_simple_allocator@D@2@U_AVL_node_base@2@@pecker_sdk@@V?$pecker_simple_allocator@U?$pecker_tst_map_node@DDU?$pecker_value_compare@D@pecker_sdk@@V?$pecker_simple_allocator@D@2@U_AVL_node_base@2@@pecker_sdk@@@2@@2@@pecker_sdk@@QBEPAU?$Ipecker_bst_tree_iterator@U?$pecker_tst_map_node@DDU?$pecker_value_compare@D@pecker_sdk@@V?$pecker_simple_allocator@D@2@U_AVL_node_base@2@@pecker_sdk@@@2@PAU32@@Z ; pecker_sdk::pecker_btst_map_container<char,pecker_sdk::pecker_share_string_base_t<char,pecker_sdk::pecker_value_compare<char>,pecker_sdk::pecker_simple_allocator<char>,16>,char,pecker_sdk::pecker_tst_map_node<char,char,pecker_sdk::pecker_value_compare<char>,pecker_sdk::pecker_simple_allocator<char>,pecker_sdk::_AVL_node_base>,pecker_sdk::pecker_nodes_simple_allocater<pecker_sdk::pecker_tst_map_node<char,char,pecker_sdk::pecker_value_compare<char>,pecker_sdk::pecker_simple_allocator<char>,pecker_sdk::_AVL_node_base>,pecker_sdk::pecker_simple_allocator<pecker_sdk::pecker_tst_map_node<char,char,pecker_sdk::pecker_value_compare<char>,pecker_sdk::pecker_simple_allocator<char>,pecker_sdk::_AVL_node_base> > > >::get_iterator

; 304  : 
; 305  : 	inorder_iterator.init(ITERATOR_INIT_MIN);

	push	1
	lea	ecx, DWORD PTR _inorder_iterator$[ebp]
	call	?init@?$pecker_tst_tree_no_perent_node_inorder_iterator_base@U?$pecker_tst_map_node@DDU?$pecker_value_compare@D@pecker_sdk@@V?$pecker_simple_allocator@D@2@U_AVL_node_base@2@@pecker_sdk@@V?$pecker_simple_allocator@PBU?$pecker_tst_map_node@DDU?$pecker_value_compare@D@pecker_sdk@@V?$pecker_simple_allocator@D@2@U_AVL_node_base@2@@pecker_sdk@@@2@V?$pecker_simple_allocator@PAPBU?$pecker_tst_map_node@DDU?$pecker_value_compare@D@pecker_sdk@@V?$pecker_simple_allocator@D@2@U_AVL_node_base@2@@pecker_sdk@@@2@@pecker_sdk@@UAEJW4enumTREE_ITERATOR_INIT_TYPE@@@Z ; pecker_sdk::pecker_tst_tree_no_perent_node_inorder_iterator_base<pecker_sdk::pecker_tst_map_node<char,char,pecker_sdk::pecker_value_compare<char>,pecker_sdk::pecker_simple_allocator<char>,pecker_sdk::_AVL_node_base>,pecker_sdk::pecker_simple_allocator<pecker_sdk::pecker_tst_map_node<char,char,pecker_sdk::pecker_value_compare<char>,pecker_sdk::pecker_simple_allocator<char>,pecker_sdk::_AVL_node_base> const *>,pecker_sdk::pecker_simple_allocator<pecker_sdk::pecker_tst_map_node<char,char,pecker_sdk::pecker_value_compare<char>,pecker_sdk::pecker_simple_allocator<char>,pecker_sdk::_AVL_node_base> const * *> >::init

; 306  : 	icount = 1;

	mov	DWORD PTR _icount$[ebp], 1

; 307  : 
; 308  : 	PECKER_LOG_("\nincrement\n",0);

	mov	esi, esp
	push	0
	push	OFFSET ??_C@_0M@EPOJEJMO@?6increment?6?$AA@
	call	DWORD PTR __imp__printf
	add	esp, 8
	cmp	esi, esp
	call	__RTC_CheckEsp
$LN13@tst_iterat@3:

; 309  : 	while(1)

	mov	eax, 1
	test	eax, eax
	je	$LN12@tst_iterat@3

; 310  : 	{
; 311  : 		PECKER_LOG_("%05d ",icount);

	mov	esi, esp
	mov	eax, DWORD PTR _icount$[ebp]
	push	eax
	push	OFFSET ??_C@_05KFNCDNJC@?$CF05d?5?$AA@
	call	DWORD PTR __imp__printf
	add	esp, 8
	cmp	esi, esp
	call	__RTC_CheckEsp

; 312  : 		print_pecker_string(tst_map.get_key(&inorder_iterator));

	lea	eax, DWORD PTR _inorder_iterator$[ebp]
	push	eax
	lea	ecx, DWORD PTR $T70081[ebp]
	push	ecx
	lea	ecx, DWORD PTR _tst_map$[ebp]
	call	?get_key@?$pecker_btst_map_container@DV?$pecker_share_string_base_t@DU?$pecker_value_compare@D@pecker_sdk@@V?$pecker_simple_allocator@D@2@$0BA@@pecker_sdk@@DU?$pecker_tst_map_node@DDU?$pecker_value_compare@D@pecker_sdk@@V?$pecker_simple_allocator@D@2@U_AVL_node_base@2@@2@V?$pecker_nodes_simple_allocater@U?$pecker_tst_map_node@DDU?$pecker_value_compare@D@pecker_sdk@@V?$pecker_simple_allocator@D@2@U_AVL_node_base@2@@pecker_sdk@@V?$pecker_simple_allocator@U?$pecker_tst_map_node@DDU?$pecker_value_compare@D@pecker_sdk@@V?$pecker_simple_allocator@D@2@U_AVL_node_base@2@@pecker_sdk@@@2@@2@@pecker_sdk@@QBE?AV?$pecker_share_string_base_t@DU?$pecker_value_compare@D@pecker_sdk@@V?$pecker_simple_allocator@D@2@$0BA@@2@PBU?$Ipecker_bst_tree_iterator@U?$pecker_tst_map_node@DDU?$pecker_value_compare@D@pecker_sdk@@V?$pecker_simple_allocator@D@2@U_AVL_node_base@2@@pecker_sdk@@@2@@Z ; pecker_sdk::pecker_btst_map_container<char,pecker_sdk::pecker_share_string_base_t<char,pecker_sdk::pecker_value_compare<char>,pecker_sdk::pecker_simple_allocator<char>,16>,char,pecker_sdk::pecker_tst_map_node<char,char,pecker_sdk::pecker_value_compare<char>,pecker_sdk::pecker_simple_allocator<char>,pecker_sdk::_AVL_node_base>,pecker_sdk::pecker_nodes_simple_allocater<pecker_sdk::pecker_tst_map_node<char,char,pecker_sdk::pecker_value_compare<char>,pecker_sdk::pecker_simple_allocator<char>,pecker_sdk::_AVL_node_base>,pecker_sdk::pecker_simple_allocator<pecker_sdk::pecker_tst_map_node<char,char,pecker_sdk::pecker_value_compare<char>,pecker_sdk::pecker_simple_allocator<char>,pecker_sdk::_AVL_node_base> > > >::get_key
	mov	DWORD PTR tv77[ebp], eax
	mov	edx, DWORD PTR tv77[ebp]
	mov	DWORD PTR tv221[ebp], edx
	mov	BYTE PTR __$EHRec$[ebp+8], 4
	mov	eax, DWORD PTR tv221[ebp]
	push	eax
	call	?print_pecker_string@@YAXABV?$pecker_share_string_base_t@DU?$pecker_value_compare@D@pecker_sdk@@V?$pecker_simple_allocator@D@2@$0BA@@pecker_sdk@@@Z ; print_pecker_string
	add	esp, 4
	mov	BYTE PTR __$EHRec$[ebp+8], 3
	lea	ecx, DWORD PTR $T70081[ebp]
	call	??1?$pecker_share_string_base_t@DU?$pecker_value_compare@D@pecker_sdk@@V?$pecker_simple_allocator@D@2@$0BA@@pecker_sdk@@QAE@XZ ; pecker_sdk::pecker_share_string_base_t<char,pecker_sdk::pecker_value_compare<char>,pecker_sdk::pecker_simple_allocator<char>,16>::~pecker_share_string_base_t<char,pecker_sdk::pecker_value_compare<char>,pecker_sdk::pecker_simple_allocator<char>,16>

; 313  : 		++icount;

	mov	eax, DWORD PTR _icount$[ebp]
	add	eax, 1
	mov	DWORD PTR _icount$[ebp], eax

; 314  : 		PECKER_LOG_("\n",0);

	mov	esi, esp
	push	0
	push	OFFSET ??_C@_01EEMJAFIK@?6?$AA@
	call	DWORD PTR __imp__printf
	add	esp, 8
	cmp	esi, esp
	call	__RTC_CheckEsp

; 315  : 
; 316  : 		if (P_OK != inorder_iterator.increment())

	lea	ecx, DWORD PTR _inorder_iterator$[ebp]
	call	?increment@?$pecker_tst_tree_no_perent_node_inorder_iterator_base@U?$pecker_tst_map_node@DDU?$pecker_value_compare@D@pecker_sdk@@V?$pecker_simple_allocator@D@2@U_AVL_node_base@2@@pecker_sdk@@V?$pecker_simple_allocator@PBU?$pecker_tst_map_node@DDU?$pecker_value_compare@D@pecker_sdk@@V?$pecker_simple_allocator@D@2@U_AVL_node_base@2@@pecker_sdk@@@2@V?$pecker_simple_allocator@PAPBU?$pecker_tst_map_node@DDU?$pecker_value_compare@D@pecker_sdk@@V?$pecker_simple_allocator@D@2@U_AVL_node_base@2@@pecker_sdk@@@2@@pecker_sdk@@UAEJXZ ; pecker_sdk::pecker_tst_tree_no_perent_node_inorder_iterator_base<pecker_sdk::pecker_tst_map_node<char,char,pecker_sdk::pecker_value_compare<char>,pecker_sdk::pecker_simple_allocator<char>,pecker_sdk::_AVL_node_base>,pecker_sdk::pecker_simple_allocator<pecker_sdk::pecker_tst_map_node<char,char,pecker_sdk::pecker_value_compare<char>,pecker_sdk::pecker_simple_allocator<char>,pecker_sdk::_AVL_node_base> const *>,pecker_sdk::pecker_simple_allocator<pecker_sdk::pecker_tst_map_node<char,char,pecker_sdk::pecker_value_compare<char>,pecker_sdk::pecker_simple_allocator<char>,pecker_sdk::_AVL_node_base> const * *> >::increment
	test	eax, eax
	je	SHORT $LN11@tst_iterat@3

; 317  : 		{
; 318  : 			break;

	jmp	SHORT $LN12@tst_iterat@3
$LN11@tst_iterat@3:

; 319  : 		}
; 320  : 
; 321  : 	}

	jmp	$LN13@tst_iterat@3
$LN12@tst_iterat@3:

; 322  : 
; 323  : 	inorder_iterator.init(ITERATOR_INIT_MAX);

	push	2
	lea	ecx, DWORD PTR _inorder_iterator$[ebp]
	call	?init@?$pecker_tst_tree_no_perent_node_inorder_iterator_base@U?$pecker_tst_map_node@DDU?$pecker_value_compare@D@pecker_sdk@@V?$pecker_simple_allocator@D@2@U_AVL_node_base@2@@pecker_sdk@@V?$pecker_simple_allocator@PBU?$pecker_tst_map_node@DDU?$pecker_value_compare@D@pecker_sdk@@V?$pecker_simple_allocator@D@2@U_AVL_node_base@2@@pecker_sdk@@@2@V?$pecker_simple_allocator@PAPBU?$pecker_tst_map_node@DDU?$pecker_value_compare@D@pecker_sdk@@V?$pecker_simple_allocator@D@2@U_AVL_node_base@2@@pecker_sdk@@@2@@pecker_sdk@@UAEJW4enumTREE_ITERATOR_INIT_TYPE@@@Z ; pecker_sdk::pecker_tst_tree_no_perent_node_inorder_iterator_base<pecker_sdk::pecker_tst_map_node<char,char,pecker_sdk::pecker_value_compare<char>,pecker_sdk::pecker_simple_allocator<char>,pecker_sdk::_AVL_node_base>,pecker_sdk::pecker_simple_allocator<pecker_sdk::pecker_tst_map_node<char,char,pecker_sdk::pecker_value_compare<char>,pecker_sdk::pecker_simple_allocator<char>,pecker_sdk::_AVL_node_base> const *>,pecker_sdk::pecker_simple_allocator<pecker_sdk::pecker_tst_map_node<char,char,pecker_sdk::pecker_value_compare<char>,pecker_sdk::pecker_simple_allocator<char>,pecker_sdk::_AVL_node_base> const * *> >::init

; 324  : 	icount = 1;

	mov	DWORD PTR _icount$[ebp], 1

; 325  : 
; 326  : 	PECKER_LOG_("\ndecrement\n",0);

	mov	esi, esp
	push	0
	push	OFFSET ??_C@_0M@HMJNPPDO@?6decrement?6?$AA@
	call	DWORD PTR __imp__printf
	add	esp, 8
	cmp	esi, esp
	call	__RTC_CheckEsp
$LN10@tst_iterat@3:

; 327  : 	while(1)

	mov	eax, 1
	test	eax, eax
	je	$LN9@tst_iterat@3

; 328  : 	{
; 329  : 		PECKER_LOG_("%05d ",icount);

	mov	esi, esp
	mov	eax, DWORD PTR _icount$[ebp]
	push	eax
	push	OFFSET ??_C@_05KFNCDNJC@?$CF05d?5?$AA@
	call	DWORD PTR __imp__printf
	add	esp, 8
	cmp	esi, esp
	call	__RTC_CheckEsp

; 330  : 		print_pecker_string(tst_map.get_key(&inorder_iterator));

	lea	eax, DWORD PTR _inorder_iterator$[ebp]
	push	eax
	lea	ecx, DWORD PTR $T70087[ebp]
	push	ecx
	lea	ecx, DWORD PTR _tst_map$[ebp]
	call	?get_key@?$pecker_btst_map_container@DV?$pecker_share_string_base_t@DU?$pecker_value_compare@D@pecker_sdk@@V?$pecker_simple_allocator@D@2@$0BA@@pecker_sdk@@DU?$pecker_tst_map_node@DDU?$pecker_value_compare@D@pecker_sdk@@V?$pecker_simple_allocator@D@2@U_AVL_node_base@2@@2@V?$pecker_nodes_simple_allocater@U?$pecker_tst_map_node@DDU?$pecker_value_compare@D@pecker_sdk@@V?$pecker_simple_allocator@D@2@U_AVL_node_base@2@@pecker_sdk@@V?$pecker_simple_allocator@U?$pecker_tst_map_node@DDU?$pecker_value_compare@D@pecker_sdk@@V?$pecker_simple_allocator@D@2@U_AVL_node_base@2@@pecker_sdk@@@2@@2@@pecker_sdk@@QBE?AV?$pecker_share_string_base_t@DU?$pecker_value_compare@D@pecker_sdk@@V?$pecker_simple_allocator@D@2@$0BA@@2@PBU?$Ipecker_bst_tree_iterator@U?$pecker_tst_map_node@DDU?$pecker_value_compare@D@pecker_sdk@@V?$pecker_simple_allocator@D@2@U_AVL_node_base@2@@pecker_sdk@@@2@@Z ; pecker_sdk::pecker_btst_map_container<char,pecker_sdk::pecker_share_string_base_t<char,pecker_sdk::pecker_value_compare<char>,pecker_sdk::pecker_simple_allocator<char>,16>,char,pecker_sdk::pecker_tst_map_node<char,char,pecker_sdk::pecker_value_compare<char>,pecker_sdk::pecker_simple_allocator<char>,pecker_sdk::_AVL_node_base>,pecker_sdk::pecker_nodes_simple_allocater<pecker_sdk::pecker_tst_map_node<char,char,pecker_sdk::pecker_value_compare<char>,pecker_sdk::pecker_simple_allocator<char>,pecker_sdk::_AVL_node_base>,pecker_sdk::pecker_simple_allocator<pecker_sdk::pecker_tst_map_node<char,char,pecker_sdk::pecker_value_compare<char>,pecker_sdk::pecker_simple_allocator<char>,pecker_sdk::_AVL_node_base> > > >::get_key
	mov	DWORD PTR tv72[ebp], eax
	mov	edx, DWORD PTR tv72[ebp]
	mov	DWORD PTR tv223[ebp], edx
	mov	BYTE PTR __$EHRec$[ebp+8], 5
	mov	eax, DWORD PTR tv223[ebp]
	push	eax
	call	?print_pecker_string@@YAXABV?$pecker_share_string_base_t@DU?$pecker_value_compare@D@pecker_sdk@@V?$pecker_simple_allocator@D@2@$0BA@@pecker_sdk@@@Z ; print_pecker_string
	add	esp, 4
	mov	BYTE PTR __$EHRec$[ebp+8], 3
	lea	ecx, DWORD PTR $T70087[ebp]
	call	??1?$pecker_share_string_base_t@DU?$pecker_value_compare@D@pecker_sdk@@V?$pecker_simple_allocator@D@2@$0BA@@pecker_sdk@@QAE@XZ ; pecker_sdk::pecker_share_string_base_t<char,pecker_sdk::pecker_value_compare<char>,pecker_sdk::pecker_simple_allocator<char>,16>::~pecker_share_string_base_t<char,pecker_sdk::pecker_value_compare<char>,pecker_sdk::pecker_simple_allocator<char>,16>

; 331  : 		++icount;

	mov	eax, DWORD PTR _icount$[ebp]
	add	eax, 1
	mov	DWORD PTR _icount$[ebp], eax

; 332  : 		PECKER_LOG_("\n",0);

	mov	esi, esp
	push	0
	push	OFFSET ??_C@_01EEMJAFIK@?6?$AA@
	call	DWORD PTR __imp__printf
	add	esp, 8
	cmp	esi, esp
	call	__RTC_CheckEsp

; 333  : 
; 334  : 		if (P_OK != inorder_iterator.decrement())

	lea	ecx, DWORD PTR _inorder_iterator$[ebp]
	call	?decrement@?$pecker_tst_tree_no_perent_node_inorder_iterator_base@U?$pecker_tst_map_node@DDU?$pecker_value_compare@D@pecker_sdk@@V?$pecker_simple_allocator@D@2@U_AVL_node_base@2@@pecker_sdk@@V?$pecker_simple_allocator@PBU?$pecker_tst_map_node@DDU?$pecker_value_compare@D@pecker_sdk@@V?$pecker_simple_allocator@D@2@U_AVL_node_base@2@@pecker_sdk@@@2@V?$pecker_simple_allocator@PAPBU?$pecker_tst_map_node@DDU?$pecker_value_compare@D@pecker_sdk@@V?$pecker_simple_allocator@D@2@U_AVL_node_base@2@@pecker_sdk@@@2@@pecker_sdk@@UAEJXZ ; pecker_sdk::pecker_tst_tree_no_perent_node_inorder_iterator_base<pecker_sdk::pecker_tst_map_node<char,char,pecker_sdk::pecker_value_compare<char>,pecker_sdk::pecker_simple_allocator<char>,pecker_sdk::_AVL_node_base>,pecker_sdk::pecker_simple_allocator<pecker_sdk::pecker_tst_map_node<char,char,pecker_sdk::pecker_value_compare<char>,pecker_sdk::pecker_simple_allocator<char>,pecker_sdk::_AVL_node_base> const *>,pecker_sdk::pecker_simple_allocator<pecker_sdk::pecker_tst_map_node<char,char,pecker_sdk::pecker_value_compare<char>,pecker_sdk::pecker_simple_allocator<char>,pecker_sdk::_AVL_node_base> const * *> >::decrement
	test	eax, eax
	je	SHORT $LN8@tst_iterat@3

; 335  : 		{
; 336  : 			break;

	jmp	SHORT $LN9@tst_iterat@3
$LN8@tst_iterat@3:

; 337  : 		}
; 338  : 
; 339  : 	}

	jmp	$LN10@tst_iterat@3
$LN9@tst_iterat@3:

; 340  : 
; 341  : 	PECKER_LOG_("\ndecrement then increment\n",0);

	mov	esi, esp
	push	0
	push	OFFSET ??_C@_0BL@DDJMJBAH@?6decrement?5then?5increment?6?$AA@
	call	DWORD PTR __imp__printf
	add	esp, 8
	cmp	esi, esp
	call	__RTC_CheckEsp

; 342  : 	inorder_iterator.init(ITERATOR_INIT_MAX);

	push	2
	lea	ecx, DWORD PTR _inorder_iterator$[ebp]
	call	?init@?$pecker_tst_tree_no_perent_node_inorder_iterator_base@U?$pecker_tst_map_node@DDU?$pecker_value_compare@D@pecker_sdk@@V?$pecker_simple_allocator@D@2@U_AVL_node_base@2@@pecker_sdk@@V?$pecker_simple_allocator@PBU?$pecker_tst_map_node@DDU?$pecker_value_compare@D@pecker_sdk@@V?$pecker_simple_allocator@D@2@U_AVL_node_base@2@@pecker_sdk@@@2@V?$pecker_simple_allocator@PAPBU?$pecker_tst_map_node@DDU?$pecker_value_compare@D@pecker_sdk@@V?$pecker_simple_allocator@D@2@U_AVL_node_base@2@@pecker_sdk@@@2@@pecker_sdk@@UAEJW4enumTREE_ITERATOR_INIT_TYPE@@@Z ; pecker_sdk::pecker_tst_tree_no_perent_node_inorder_iterator_base<pecker_sdk::pecker_tst_map_node<char,char,pecker_sdk::pecker_value_compare<char>,pecker_sdk::pecker_simple_allocator<char>,pecker_sdk::_AVL_node_base>,pecker_sdk::pecker_simple_allocator<pecker_sdk::pecker_tst_map_node<char,char,pecker_sdk::pecker_value_compare<char>,pecker_sdk::pecker_simple_allocator<char>,pecker_sdk::_AVL_node_base> const *>,pecker_sdk::pecker_simple_allocator<pecker_sdk::pecker_tst_map_node<char,char,pecker_sdk::pecker_value_compare<char>,pecker_sdk::pecker_simple_allocator<char>,pecker_sdk::_AVL_node_base> const * *> >::init

; 343  : 	icount = 1;

	mov	DWORD PTR _icount$[ebp], 1
$LN7@tst_iterat@3:

; 344  : 	while(1)

	mov	eax, 1
	test	eax, eax
	je	$LN6@tst_iterat@3

; 345  : 	{
; 346  : 		//if (inorder_iterator.get_current_node() && HAS_VALUE_TST_NODE ==inorder_iterator.get_current_node()->_M_legal_flag)
; 347  : 		//{
; 348  : 			PECKER_LOG_("%05d ",icount);

	mov	esi, esp
	mov	eax, DWORD PTR _icount$[ebp]
	push	eax
	push	OFFSET ??_C@_05KFNCDNJC@?$CF05d?5?$AA@
	call	DWORD PTR __imp__printf
	add	esp, 8
	cmp	esi, esp
	call	__RTC_CheckEsp

; 349  : 			print_pecker_string(tst_map.get_key(&inorder_iterator));

	lea	eax, DWORD PTR _inorder_iterator$[ebp]
	push	eax
	lea	ecx, DWORD PTR $T70093[ebp]
	push	ecx
	lea	ecx, DWORD PTR _tst_map$[ebp]
	call	?get_key@?$pecker_btst_map_container@DV?$pecker_share_string_base_t@DU?$pecker_value_compare@D@pecker_sdk@@V?$pecker_simple_allocator@D@2@$0BA@@pecker_sdk@@DU?$pecker_tst_map_node@DDU?$pecker_value_compare@D@pecker_sdk@@V?$pecker_simple_allocator@D@2@U_AVL_node_base@2@@2@V?$pecker_nodes_simple_allocater@U?$pecker_tst_map_node@DDU?$pecker_value_compare@D@pecker_sdk@@V?$pecker_simple_allocator@D@2@U_AVL_node_base@2@@pecker_sdk@@V?$pecker_simple_allocator@U?$pecker_tst_map_node@DDU?$pecker_value_compare@D@pecker_sdk@@V?$pecker_simple_allocator@D@2@U_AVL_node_base@2@@pecker_sdk@@@2@@2@@pecker_sdk@@QBE?AV?$pecker_share_string_base_t@DU?$pecker_value_compare@D@pecker_sdk@@V?$pecker_simple_allocator@D@2@$0BA@@2@PBU?$Ipecker_bst_tree_iterator@U?$pecker_tst_map_node@DDU?$pecker_value_compare@D@pecker_sdk@@V?$pecker_simple_allocator@D@2@U_AVL_node_base@2@@pecker_sdk@@@2@@Z ; pecker_sdk::pecker_btst_map_container<char,pecker_sdk::pecker_share_string_base_t<char,pecker_sdk::pecker_value_compare<char>,pecker_sdk::pecker_simple_allocator<char>,16>,char,pecker_sdk::pecker_tst_map_node<char,char,pecker_sdk::pecker_value_compare<char>,pecker_sdk::pecker_simple_allocator<char>,pecker_sdk::_AVL_node_base>,pecker_sdk::pecker_nodes_simple_allocater<pecker_sdk::pecker_tst_map_node<char,char,pecker_sdk::pecker_value_compare<char>,pecker_sdk::pecker_simple_allocator<char>,pecker_sdk::_AVL_node_base>,pecker_sdk::pecker_simple_allocator<pecker_sdk::pecker_tst_map_node<char,char,pecker_sdk::pecker_value_compare<char>,pecker_sdk::pecker_simple_allocator<char>,pecker_sdk::_AVL_node_base> > > >::get_key
	mov	DWORD PTR tv68[ebp], eax
	mov	edx, DWORD PTR tv68[ebp]
	mov	DWORD PTR tv225[ebp], edx
	mov	BYTE PTR __$EHRec$[ebp+8], 6
	mov	eax, DWORD PTR tv225[ebp]
	push	eax
	call	?print_pecker_string@@YAXABV?$pecker_share_string_base_t@DU?$pecker_value_compare@D@pecker_sdk@@V?$pecker_simple_allocator@D@2@$0BA@@pecker_sdk@@@Z ; print_pecker_string
	add	esp, 4
	mov	BYTE PTR __$EHRec$[ebp+8], 3
	lea	ecx, DWORD PTR $T70093[ebp]
	call	??1?$pecker_share_string_base_t@DU?$pecker_value_compare@D@pecker_sdk@@V?$pecker_simple_allocator@D@2@$0BA@@pecker_sdk@@QAE@XZ ; pecker_sdk::pecker_share_string_base_t<char,pecker_sdk::pecker_value_compare<char>,pecker_sdk::pecker_simple_allocator<char>,16>::~pecker_share_string_base_t<char,pecker_sdk::pecker_value_compare<char>,pecker_sdk::pecker_simple_allocator<char>,16>

; 350  : 			++icount;

	mov	eax, DWORD PTR _icount$[ebp]
	add	eax, 1
	mov	DWORD PTR _icount$[ebp], eax

; 351  : 			PECKER_LOG_("\n",0);

	mov	esi, esp
	push	0
	push	OFFSET ??_C@_01EEMJAFIK@?6?$AA@
	call	DWORD PTR __imp__printf
	add	esp, 8
	cmp	esi, esp
	call	__RTC_CheckEsp

; 352  : 		//}
; 353  : 			//if (1894 == icount)
; 354  : 			//{
; 355  : 			//	icount = icount;
; 356  : 			//}
; 357  : 			//if (icount < 1000 || icount > 1500)
; 358  : 			//{
; 359  : 			//	if (P_OK != inorder_iterator.increment())
; 360  : 			//	{
; 361  : 			//		break;
; 362  : 			//	}
; 363  : 			//}
; 364  : 			//else
; 365  : 			//{
; 366  : 			//	if (P_OK != inorder_iterator.decrement())
; 367  : 			//	{
; 368  : 			//		break;
; 369  : 			//	}
; 370  : 			//}
; 371  : 
; 372  : 			if (icount < 1000 || icount > 1500)

	cmp	DWORD PTR _icount$[ebp], 1000		; 000003e8H
	jl	SHORT $LN4@tst_iterat@3
	cmp	DWORD PTR _icount$[ebp], 1500		; 000005dcH
	jle	SHORT $LN5@tst_iterat@3
$LN4@tst_iterat@3:

; 373  : 			{
; 374  : 				if (P_OK != inorder_iterator.decrement())

	lea	ecx, DWORD PTR _inorder_iterator$[ebp]
	call	?decrement@?$pecker_tst_tree_no_perent_node_inorder_iterator_base@U?$pecker_tst_map_node@DDU?$pecker_value_compare@D@pecker_sdk@@V?$pecker_simple_allocator@D@2@U_AVL_node_base@2@@pecker_sdk@@V?$pecker_simple_allocator@PBU?$pecker_tst_map_node@DDU?$pecker_value_compare@D@pecker_sdk@@V?$pecker_simple_allocator@D@2@U_AVL_node_base@2@@pecker_sdk@@@2@V?$pecker_simple_allocator@PAPBU?$pecker_tst_map_node@DDU?$pecker_value_compare@D@pecker_sdk@@V?$pecker_simple_allocator@D@2@U_AVL_node_base@2@@pecker_sdk@@@2@@pecker_sdk@@UAEJXZ ; pecker_sdk::pecker_tst_tree_no_perent_node_inorder_iterator_base<pecker_sdk::pecker_tst_map_node<char,char,pecker_sdk::pecker_value_compare<char>,pecker_sdk::pecker_simple_allocator<char>,pecker_sdk::_AVL_node_base>,pecker_sdk::pecker_simple_allocator<pecker_sdk::pecker_tst_map_node<char,char,pecker_sdk::pecker_value_compare<char>,pecker_sdk::pecker_simple_allocator<char>,pecker_sdk::_AVL_node_base> const *>,pecker_sdk::pecker_simple_allocator<pecker_sdk::pecker_tst_map_node<char,char,pecker_sdk::pecker_value_compare<char>,pecker_sdk::pecker_simple_allocator<char>,pecker_sdk::_AVL_node_base> const * *> >::decrement
	test	eax, eax
	je	SHORT $LN3@tst_iterat@3

; 375  : 				{
; 376  : 					break;

	jmp	SHORT $LN6@tst_iterat@3
$LN3@tst_iterat@3:

; 377  : 				}
; 378  : 			}
; 379  : 			else

	jmp	SHORT $LN2@tst_iterat@3
$LN5@tst_iterat@3:

; 380  : 			{
; 381  : 				if (P_OK != inorder_iterator.increment())

	lea	ecx, DWORD PTR _inorder_iterator$[ebp]
	call	?increment@?$pecker_tst_tree_no_perent_node_inorder_iterator_base@U?$pecker_tst_map_node@DDU?$pecker_value_compare@D@pecker_sdk@@V?$pecker_simple_allocator@D@2@U_AVL_node_base@2@@pecker_sdk@@V?$pecker_simple_allocator@PBU?$pecker_tst_map_node@DDU?$pecker_value_compare@D@pecker_sdk@@V?$pecker_simple_allocator@D@2@U_AVL_node_base@2@@pecker_sdk@@@2@V?$pecker_simple_allocator@PAPBU?$pecker_tst_map_node@DDU?$pecker_value_compare@D@pecker_sdk@@V?$pecker_simple_allocator@D@2@U_AVL_node_base@2@@pecker_sdk@@@2@@pecker_sdk@@UAEJXZ ; pecker_sdk::pecker_tst_tree_no_perent_node_inorder_iterator_base<pecker_sdk::pecker_tst_map_node<char,char,pecker_sdk::pecker_value_compare<char>,pecker_sdk::pecker_simple_allocator<char>,pecker_sdk::_AVL_node_base>,pecker_sdk::pecker_simple_allocator<pecker_sdk::pecker_tst_map_node<char,char,pecker_sdk::pecker_value_compare<char>,pecker_sdk::pecker_simple_allocator<char>,pecker_sdk::_AVL_node_base> const *>,pecker_sdk::pecker_simple_allocator<pecker_sdk::pecker_tst_map_node<char,char,pecker_sdk::pecker_value_compare<char>,pecker_sdk::pecker_simple_allocator<char>,pecker_sdk::_AVL_node_base> const * *> >::increment
	test	eax, eax
	je	SHORT $LN2@tst_iterat@3

; 382  : 				{
; 383  : 					break;

	jmp	SHORT $LN6@tst_iterat@3
$LN2@tst_iterat@3:

; 384  : 				}
; 385  : 			}
; 386  : 
; 387  : 			//if (P_OK != inorder_iterator.decrement())
; 388  : 			//{
; 389  : 			//	break;
; 390  : 			//}
; 391  : 	}

	jmp	$LN7@tst_iterat@3
$LN6@tst_iterat@3:

; 392  : 
; 393  : 
; 394  : }

	mov	BYTE PTR __$EHRec$[ebp+8], 2
	lea	ecx, DWORD PTR _array_iterator1$[ebp]
	call	??1?$pecker_array_iterator@V?$pecker_array@V?$pecker_share_string_base_t@DU?$pecker_value_compare@D@pecker_sdk@@V?$pecker_simple_allocator@D@2@$0BA@@pecker_sdk@@V?$pecker_simple_allocator@V?$pecker_share_string_base_t@DU?$pecker_value_compare@D@pecker_sdk@@V?$pecker_simple_allocator@D@2@$0BA@@pecker_sdk@@@2@@pecker_sdk@@@pecker_sdk@@UAE@XZ ; pecker_sdk::pecker_array_iterator<pecker_sdk::pecker_array<pecker_sdk::pecker_share_string_base_t<char,pecker_sdk::pecker_value_compare<char>,pecker_sdk::pecker_simple_allocator<char>,16>,pecker_sdk::pecker_simple_allocator<pecker_sdk::pecker_share_string_base_t<char,pecker_sdk::pecker_value_compare<char>,pecker_sdk::pecker_simple_allocator<char>,16> > > >::~pecker_array_iterator<pecker_sdk::pecker_array<pecker_sdk::pecker_share_string_base_t<char,pecker_sdk::pecker_value_compare<char>,pecker_sdk::pecker_simple_allocator<char>,16>,pecker_sdk::pecker_simple_allocator<pecker_sdk::pecker_share_string_base_t<char,pecker_sdk::pecker_value_compare<char>,pecker_sdk::pecker_simple_allocator<char>,16> > > >
	mov	BYTE PTR __$EHRec$[ebp+8], 1
	lea	ecx, DWORD PTR _inorder_iterator$[ebp]
	call	??1?$pecker_tst_tree_no_perent_node_inorder_iterator_base@U?$pecker_tst_map_node@DDU?$pecker_value_compare@D@pecker_sdk@@V?$pecker_simple_allocator@D@2@U_AVL_node_base@2@@pecker_sdk@@V?$pecker_simple_allocator@PBU?$pecker_tst_map_node@DDU?$pecker_value_compare@D@pecker_sdk@@V?$pecker_simple_allocator@D@2@U_AVL_node_base@2@@pecker_sdk@@@2@V?$pecker_simple_allocator@PAPBU?$pecker_tst_map_node@DDU?$pecker_value_compare@D@pecker_sdk@@V?$pecker_simple_allocator@D@2@U_AVL_node_base@2@@pecker_sdk@@@2@@pecker_sdk@@UAE@XZ ; pecker_sdk::pecker_tst_tree_no_perent_node_inorder_iterator_base<pecker_sdk::pecker_tst_map_node<char,char,pecker_sdk::pecker_value_compare<char>,pecker_sdk::pecker_simple_allocator<char>,pecker_sdk::_AVL_node_base>,pecker_sdk::pecker_simple_allocator<pecker_sdk::pecker_tst_map_node<char,char,pecker_sdk::pecker_value_compare<char>,pecker_sdk::pecker_simple_allocator<char>,pecker_sdk::_AVL_node_base> const *>,pecker_sdk::pecker_simple_allocator<pecker_sdk::pecker_tst_map_node<char,char,pecker_sdk::pecker_value_compare<char>,pecker_sdk::pecker_simple_allocator<char>,pecker_sdk::_AVL_node_base> const * *> >::~pecker_tst_tree_no_perent_node_inorder_iterator_base<pecker_sdk::pecker_tst_map_node<char,char,pecker_sdk::pecker_value_compare<char>,pecker_sdk::pecker_simple_allocator<char>,pecker_sdk::_AVL_node_base>,pecker_sdk::pecker_simple_allocator<pecker_sdk::pecker_tst_map_node<char,char,pecker_sdk::pecker_value_compare<char>,pecker_sdk::pecker_simple_allocator<char>,pecker_sdk::_AVL_node_base> const *>,pecker_sdk::pecker_simple_allocator<pecker_sdk::pecker_tst_map_node<char,char,pecker_sdk::pecker_value_compare<char>,pecker_sdk::pecker_simple_allocator<char>,pecker_sdk::_AVL_node_base> const * *> >
	mov	BYTE PTR __$EHRec$[ebp+8], 0
	lea	ecx, DWORD PTR _array$[ebp]
	call	??1?$pecker_array@V?$pecker_share_string_base_t@DU?$pecker_value_compare@D@pecker_sdk@@V?$pecker_simple_allocator@D@2@$0BA@@pecker_sdk@@V?$pecker_simple_allocator@V?$pecker_share_string_base_t@DU?$pecker_value_compare@D@pecker_sdk@@V?$pecker_simple_allocator@D@2@$0BA@@pecker_sdk@@@2@@pecker_sdk@@UAE@XZ ; pecker_sdk::pecker_array<pecker_sdk::pecker_share_string_base_t<char,pecker_sdk::pecker_value_compare<char>,pecker_sdk::pecker_simple_allocator<char>,16>,pecker_sdk::pecker_simple_allocator<pecker_sdk::pecker_share_string_base_t<char,pecker_sdk::pecker_value_compare<char>,pecker_sdk::pecker_simple_allocator<char>,16> > >::~pecker_array<pecker_sdk::pecker_share_string_base_t<char,pecker_sdk::pecker_value_compare<char>,pecker_sdk::pecker_simple_allocator<char>,16>,pecker_sdk::pecker_simple_allocator<pecker_sdk::pecker_share_string_base_t<char,pecker_sdk::pecker_value_compare<char>,pecker_sdk::pecker_simple_allocator<char>,16> > >
	mov	DWORD PTR __$EHRec$[ebp+8], -1
	lea	ecx, DWORD PTR _tst_map$[ebp]
	call	??1?$pecker_btst_map_container@DV?$pecker_share_string_base_t@DU?$pecker_value_compare@D@pecker_sdk@@V?$pecker_simple_allocator@D@2@$0BA@@pecker_sdk@@DU?$pecker_tst_map_node@DDU?$pecker_value_compare@D@pecker_sdk@@V?$pecker_simple_allocator@D@2@U_AVL_node_base@2@@2@V?$pecker_nodes_simple_allocater@U?$pecker_tst_map_node@DDU?$pecker_value_compare@D@pecker_sdk@@V?$pecker_simple_allocator@D@2@U_AVL_node_base@2@@pecker_sdk@@V?$pecker_simple_allocator@U?$pecker_tst_map_node@DDU?$pecker_value_compare@D@pecker_sdk@@V?$pecker_simple_allocator@D@2@U_AVL_node_base@2@@pecker_sdk@@@2@@2@@pecker_sdk@@QAE@XZ ; pecker_sdk::pecker_btst_map_container<char,pecker_sdk::pecker_share_string_base_t<char,pecker_sdk::pecker_value_compare<char>,pecker_sdk::pecker_simple_allocator<char>,16>,char,pecker_sdk::pecker_tst_map_node<char,char,pecker_sdk::pecker_value_compare<char>,pecker_sdk::pecker_simple_allocator<char>,pecker_sdk::_AVL_node_base>,pecker_sdk::pecker_nodes_simple_allocater<pecker_sdk::pecker_tst_map_node<char,char,pecker_sdk::pecker_value_compare<char>,pecker_sdk::pecker_simple_allocator<char>,pecker_sdk::_AVL_node_base>,pecker_sdk::pecker_simple_allocator<pecker_sdk::pecker_tst_map_node<char,char,pecker_sdk::pecker_value_compare<char>,pecker_sdk::pecker_simple_allocator<char>,pecker_sdk::_AVL_node_base> > > >::~pecker_btst_map_container<char,pecker_sdk::pecker_share_string_base_t<char,pecker_sdk::pecker_value_compare<char>,pecker_sdk::pecker_simple_allocator<char>,16>,char,pecker_sdk::pecker_tst_map_node<char,char,pecker_sdk::pecker_value_compare<char>,pecker_sdk::pecker_simple_allocator<char>,pecker_sdk::_AVL_node_base>,pecker_sdk::pecker_nodes_simple_allocater<pecker_sdk::pecker_tst_map_node<char,char,pecker_sdk::pecker_value_compare<char>,pecker_sdk::pecker_simple_allocator<char>,pecker_sdk::_AVL_node_base>,pecker_sdk::pecker_simple_allocator<pecker_sdk::pecker_tst_map_node<char,char,pecker_sdk::pecker_value_compare<char>,pecker_sdk::pecker_simple_allocator<char>,pecker_sdk::_AVL_node_base> > > >
	push	edx
	mov	ecx, ebp
	push	eax
	lea	edx, DWORD PTR $LN34@tst_iterat@3
	call	@_RTC_CheckStackVars@8
	pop	eax
	pop	edx
	mov	ecx, DWORD PTR __$EHRec$[ebp]
	mov	DWORD PTR fs:0, ecx
	pop	ecx
	pop	edi
	pop	esi
	pop	ebx
	mov	ecx, DWORD PTR __$ArrayPad$[ebp]
	xor	ecx, ebp
	call	@__security_check_cookie@4
	add	esp, 1012				; 000003f4H
	cmp	ebp, esp
	call	__RTC_CheckEsp
	mov	esp, ebp
	pop	ebp
	ret	0
	npad	2
$LN34@tst_iterat@3:
	DD	4
	DD	$LN33@tst_iterat@3
$LN33@tst_iterat@3:
	DD	-36					; ffffffdcH
	DD	16					; 00000010H
	DD	$LN28@tst_iterat@3
	DD	-64					; ffffffc0H
	DD	20					; 00000014H
	DD	$LN29@tst_iterat@3
	DD	-608					; fffffda0H
	DD	536					; 00000218H
	DD	$LN30@tst_iterat@3
	DD	-628					; fffffd8cH
	DD	12					; 0000000cH
	DD	$LN31@tst_iterat@3
$LN31@tst_iterat@3:
	DB	97					; 00000061H
	DB	114					; 00000072H
	DB	114					; 00000072H
	DB	97					; 00000061H
	DB	121					; 00000079H
	DB	95					; 0000005fH
	DB	105					; 00000069H
	DB	116					; 00000074H
	DB	101					; 00000065H
	DB	114					; 00000072H
	DB	97					; 00000061H
	DB	116					; 00000074H
	DB	111					; 0000006fH
	DB	114					; 00000072H
	DB	49					; 00000031H
	DB	0
$LN30@tst_iterat@3:
	DB	105					; 00000069H
	DB	110					; 0000006eH
	DB	111					; 0000006fH
	DB	114					; 00000072H
	DB	100					; 00000064H
	DB	101					; 00000065H
	DB	114					; 00000072H
	DB	95					; 0000005fH
	DB	105					; 00000069H
	DB	116					; 00000074H
	DB	101					; 00000065H
	DB	114					; 00000072H
	DB	97					; 00000061H
	DB	116					; 00000074H
	DB	111					; 0000006fH
	DB	114					; 00000072H
	DB	0
$LN29@tst_iterat@3:
	DB	97					; 00000061H
	DB	114					; 00000072H
	DB	114					; 00000072H
	DB	97					; 00000061H
	DB	121					; 00000079H
	DB	0
$LN28@tst_iterat@3:
	DB	116					; 00000074H
	DB	115					; 00000073H
	DB	116					; 00000074H
	DB	95					; 0000005fH
	DB	109					; 0000006dH
	DB	97					; 00000061H
	DB	112					; 00000070H
	DB	0
_TEXT	ENDS
;	COMDAT text$x
text$x	SEGMENT
__unwindfunclet$?tst_iterator_test@@YAXXZ$0:
	lea	ecx, DWORD PTR _tst_map$[ebp]
	jmp	??1?$pecker_btst_map_container@DV?$pecker_share_string_base_t@DU?$pecker_value_compare@D@pecker_sdk@@V?$pecker_simple_allocator@D@2@$0BA@@pecker_sdk@@DU?$pecker_tst_map_node@DDU?$pecker_value_compare@D@pecker_sdk@@V?$pecker_simple_allocator@D@2@U_AVL_node_base@2@@2@V?$pecker_nodes_simple_allocater@U?$pecker_tst_map_node@DDU?$pecker_value_compare@D@pecker_sdk@@V?$pecker_simple_allocator@D@2@U_AVL_node_base@2@@pecker_sdk@@V?$pecker_simple_allocator@U?$pecker_tst_map_node@DDU?$pecker_value_compare@D@pecker_sdk@@V?$pecker_simple_allocator@D@2@U_AVL_node_base@2@@pecker_sdk@@@2@@2@@pecker_sdk@@QAE@XZ ; pecker_sdk::pecker_btst_map_container<char,pecker_sdk::pecker_share_string_base_t<char,pecker_sdk::pecker_value_compare<char>,pecker_sdk::pecker_simple_allocator<char>,16>,char,pecker_sdk::pecker_tst_map_node<char,char,pecker_sdk::pecker_value_compare<char>,pecker_sdk::pecker_simple_allocator<char>,pecker_sdk::_AVL_node_base>,pecker_sdk::pecker_nodes_simple_allocater<pecker_sdk::pecker_tst_map_node<char,char,pecker_sdk::pecker_value_compare<char>,pecker_sdk::pecker_simple_allocator<char>,pecker_sdk::_AVL_node_base>,pecker_sdk::pecker_simple_allocator<pecker_sdk::pecker_tst_map_node<char,char,pecker_sdk::pecker_value_compare<char>,pecker_sdk::pecker_simple_allocator<char>,pecker_sdk::_AVL_node_base> > > >::~pecker_btst_map_container<char,pecker_sdk::pecker_share_string_base_t<char,pecker_sdk::pecker_value_compare<char>,pecker_sdk::pecker_simple_allocator<char>,16>,char,pecker_sdk::pecker_tst_map_node<char,char,pecker_sdk::pecker_value_compare<char>,pecker_sdk::pecker_simple_allocator<char>,pecker_sdk::_AVL_node_base>,pecker_sdk::pecker_nodes_simple_allocater<pecker_sdk::pecker_tst_map_node<char,char,pecker_sdk::pecker_value_compare<char>,pecker_sdk::pecker_simple_allocator<char>,pecker_sdk::_AVL_node_base>,pecker_sdk::pecker_simple_allocator<pecker_sdk::pecker_tst_map_node<char,char,pecker_sdk::pecker_value_compare<char>,pecker_sdk::pecker_simple_allocator<char>,pecker_sdk::_AVL_node_base> > > >
__unwindfunclet$?tst_iterator_test@@YAXXZ$1:
	lea	ecx, DWORD PTR _array$[ebp]
	jmp	??1?$pecker_array@V?$pecker_share_string_base_t@DU?$pecker_value_compare@D@pecker_sdk@@V?$pecker_simple_allocator@D@2@$0BA@@pecker_sdk@@V?$pecker_simple_allocator@V?$pecker_share_string_base_t@DU?$pecker_value_compare@D@pecker_sdk@@V?$pecker_simple_allocator@D@2@$0BA@@pecker_sdk@@@2@@pecker_sdk@@UAE@XZ ; pecker_sdk::pecker_array<pecker_sdk::pecker_share_string_base_t<char,pecker_sdk::pecker_value_compare<char>,pecker_sdk::pecker_simple_allocator<char>,16>,pecker_sdk::pecker_simple_allocator<pecker_sdk::pecker_share_string_base_t<char,pecker_sdk::pecker_value_compare<char>,pecker_sdk::pecker_simple_allocator<char>,16> > >::~pecker_array<pecker_sdk::pecker_share_string_base_t<char,pecker_sdk::pecker_value_compare<char>,pecker_sdk::pecker_simple_allocator<char>,16>,pecker_sdk::pecker_simple_allocator<pecker_sdk::pecker_share_string_base_t<char,pecker_sdk::pecker_value_compare<char>,pecker_sdk::pecker_simple_allocator<char>,16> > >
__unwindfunclet$?tst_iterator_test@@YAXXZ$2:
	lea	ecx, DWORD PTR _inorder_iterator$[ebp]
	jmp	??1?$pecker_tst_tree_no_perent_node_inorder_iterator_base@U?$pecker_tst_map_node@DDU?$pecker_value_compare@D@pecker_sdk@@V?$pecker_simple_allocator@D@2@U_AVL_node_base@2@@pecker_sdk@@V?$pecker_simple_allocator@PBU?$pecker_tst_map_node@DDU?$pecker_value_compare@D@pecker_sdk@@V?$pecker_simple_allocator@D@2@U_AVL_node_base@2@@pecker_sdk@@@2@V?$pecker_simple_allocator@PAPBU?$pecker_tst_map_node@DDU?$pecker_value_compare@D@pecker_sdk@@V?$pecker_simple_allocator@D@2@U_AVL_node_base@2@@pecker_sdk@@@2@@pecker_sdk@@UAE@XZ ; pecker_sdk::pecker_tst_tree_no_perent_node_inorder_iterator_base<pecker_sdk::pecker_tst_map_node<char,char,pecker_sdk::pecker_value_compare<char>,pecker_sdk::pecker_simple_allocator<char>,pecker_sdk::_AVL_node_base>,pecker_sdk::pecker_simple_allocator<pecker_sdk::pecker_tst_map_node<char,char,pecker_sdk::pecker_value_compare<char>,pecker_sdk::pecker_simple_allocator<char>,pecker_sdk::_AVL_node_base> const *>,pecker_sdk::pecker_simple_allocator<pecker_sdk::pecker_tst_map_node<char,char,pecker_sdk::pecker_value_compare<char>,pecker_sdk::pecker_simple_allocator<char>,pecker_sdk::_AVL_node_base> const * *> >::~pecker_tst_tree_no_perent_node_inorder_iterator_base<pecker_sdk::pecker_tst_map_node<char,char,pecker_sdk::pecker_value_compare<char>,pecker_sdk::pecker_simple_allocator<char>,pecker_sdk::_AVL_node_base>,pecker_sdk::pecker_simple_allocator<pecker_sdk::pecker_tst_map_node<char,char,pecker_sdk::pecker_value_compare<char>,pecker_sdk::pecker_simple_allocator<char>,pecker_sdk::_AVL_node_base> const *>,pecker_sdk::pecker_simple_allocator<pecker_sdk::pecker_tst_map_node<char,char,pecker_sdk::pecker_value_compare<char>,pecker_sdk::pecker_simple_allocator<char>,pecker_sdk::_AVL_node_base> const * *> >
__unwindfunclet$?tst_iterator_test@@YAXXZ$3:
	lea	ecx, DWORD PTR _array_iterator1$[ebp]
	jmp	??1?$pecker_array_iterator@V?$pecker_array@V?$pecker_share_string_base_t@DU?$pecker_value_compare@D@pecker_sdk@@V?$pecker_simple_allocator@D@2@$0BA@@pecker_sdk@@V?$pecker_simple_allocator@V?$pecker_share_string_base_t@DU?$pecker_value_compare@D@pecker_sdk@@V?$pecker_simple_allocator@D@2@$0BA@@pecker_sdk@@@2@@pecker_sdk@@@pecker_sdk@@UAE@XZ ; pecker_sdk::pecker_array_iterator<pecker_sdk::pecker_array<pecker_sdk::pecker_share_string_base_t<char,pecker_sdk::pecker_value_compare<char>,pecker_sdk::pecker_simple_allocator<char>,16>,pecker_sdk::pecker_simple_allocator<pecker_sdk::pecker_share_string_base_t<char,pecker_sdk::pecker_value_compare<char>,pecker_sdk::pecker_simple_allocator<char>,16> > > >::~pecker_array_iterator<pecker_sdk::pecker_array<pecker_sdk::pecker_share_string_base_t<char,pecker_sdk::pecker_value_compare<char>,pecker_sdk::pecker_simple_allocator<char>,16>,pecker_sdk::pecker_simple_allocator<pecker_sdk::pecker_share_string_base_t<char,pecker_sdk::pecker_value_compare<char>,pecker_sdk::pecker_simple_allocator<char>,16> > > >
__unwindfunclet$?tst_iterator_test@@YAXXZ$4:
	lea	ecx, DWORD PTR $T70081[ebp]
	jmp	??1?$pecker_share_string_base_t@DU?$pecker_value_compare@D@pecker_sdk@@V?$pecker_simple_allocator@D@2@$0BA@@pecker_sdk@@QAE@XZ ; pecker_sdk::pecker_share_string_base_t<char,pecker_sdk::pecker_value_compare<char>,pecker_sdk::pecker_simple_allocator<char>,16>::~pecker_share_string_base_t<char,pecker_sdk::pecker_value_compare<char>,pecker_sdk::pecker_simple_allocator<char>,16>
__unwindfunclet$?tst_iterator_test@@YAXXZ$5:
	lea	ecx, DWORD PTR $T70087[ebp]
	jmp	??1?$pecker_share_string_base_t@DU?$pecker_value_compare@D@pecker_sdk@@V?$pecker_simple_allocator@D@2@$0BA@@pecker_sdk@@QAE@XZ ; pecker_sdk::pecker_share_string_base_t<char,pecker_sdk::pecker_value_compare<char>,pecker_sdk::pecker_simple_allocator<char>,16>::~pecker_share_string_base_t<char,pecker_sdk::pecker_value_compare<char>,pecker_sdk::pecker_simple_allocator<char>,16>
__unwindfunclet$?tst_iterator_test@@YAXXZ$6:
	lea	ecx, DWORD PTR $T70093[ebp]
	jmp	??1?$pecker_share_string_base_t@DU?$pecker_value_compare@D@pecker_sdk@@V?$pecker_simple_allocator@D@2@$0BA@@pecker_sdk@@QAE@XZ ; pecker_sdk::pecker_share_string_base_t<char,pecker_sdk::pecker_value_compare<char>,pecker_sdk::pecker_simple_allocator<char>,16>::~pecker_share_string_base_t<char,pecker_sdk::pecker_value_compare<char>,pecker_sdk::pecker_simple_allocator<char>,16>
__ehhandler$?tst_iterator_test@@YAXXZ:
	mov	edx, DWORD PTR [esp+8]
	lea	eax, DWORD PTR [edx+12]
	mov	ecx, DWORD PTR [edx-1016]
	xor	ecx, eax
	call	@__security_check_cookie@4
	mov	ecx, DWORD PTR [edx-4]
	xor	ecx, eax
	call	@__security_check_cookie@4
	mov	eax, OFFSET __ehfuncinfo$?tst_iterator_test@@YAXXZ
	jmp	___CxxFrameHandler3
text$x	ENDS
?tst_iterator_test@@YAXXZ ENDP				; tst_iterator_test
PUBLIC	??1?$pecker_avl_tree_map_container@V?$pecker_share_string_base_t@DU?$pecker_value_compare@D@pecker_sdk@@V?$pecker_simple_allocator@D@2@$0BA@@pecker_sdk@@HU?$pecker_value_compare_extern@V?$pecker_share_string_base_t@DU?$pecker_value_compare@D@pecker_sdk@@V?$pecker_simple_allocator@D@2@$0BA@@pecker_sdk@@@2@U?$AVL_node_map@V?$pecker_share_string_base_t@DU?$pecker_value_compare@D@pecker_sdk@@V?$pecker_simple_allocator@D@2@$0BA@@pecker_sdk@@H@2@V?$pecker_nodes_simple_allocater@U?$AVL_node_map@V?$pecker_share_string_base_t@DU?$pecker_value_compare@D@pecker_sdk@@V?$pecker_simple_allocator@D@2@$0BA@@pecker_sdk@@H@pecker_sdk@@V?$pecker_simple_allocator@U?$AVL_node_map@V?$pecker_share_string_base_t@DU?$pecker_value_compare@D@pecker_sdk@@V?$pecker_simple_allocator@D@2@$0BA@@pecker_sdk@@H@pecker_sdk@@@2@@2@@pecker_sdk@@QAE@XZ ; pecker_sdk::pecker_avl_tree_map_container<pecker_sdk::pecker_share_string_base_t<char,pecker_sdk::pecker_value_compare<char>,pecker_sdk::pecker_simple_allocator<char>,16>,int,pecker_sdk::pecker_value_compare_extern<pecker_sdk::pecker_share_string_base_t<char,pecker_sdk::pecker_value_compare<char>,pecker_sdk::pecker_simple_allocator<char>,16> >,pecker_sdk::AVL_node_map<pecker_sdk::pecker_share_string_base_t<char,pecker_sdk::pecker_value_compare<char>,pecker_sdk::pecker_simple_allocator<char>,16>,int>,pecker_sdk::pecker_nodes_simple_allocater<pecker_sdk::AVL_node_map<pecker_sdk::pecker_share_string_base_t<char,pecker_sdk::pecker_value_compare<char>,pecker_sdk::pecker_simple_allocator<char>,16>,int>,pecker_sdk::pecker_simple_allocator<pecker_sdk::AVL_node_map<pecker_sdk::pecker_share_string_base_t<char,pecker_sdk::pecker_value_compare<char>,pecker_sdk::pecker_simple_allocator<char>,16>,int> > > >::~pecker_avl_tree_map_container<pecker_sdk::pecker_share_string_base_t<char,pecker_sdk::pecker_value_compare<char>,pecker_sdk::pecker_simple_allocator<char>,16>,int,pecker_sdk::pecker_value_compare_extern<pecker_sdk::pecker_share_string_base_t<char,pecker_sdk::pecker_value_compare<char>,pecker_sdk::pecker_simple_allocator<char>,16> >,pecker_sdk::AVL_node_map<pecker_sdk::pecker_share_string_base_t<char,pecker_sdk::pecker_value_compare<char>,pecker_sdk::pecker_simple_allocator<char>,16>,int>,pecker_sdk::pecker_nodes_simple_allocater<pecker_sdk::AVL_node_map<pecker_sdk::pecker_share_string_base_t<char,pecker_sdk::pecker_value_compare<char>,pecker_sdk::pecker_simple_allocator<char>,16>,int>,pecker_sdk::pecker_simple_allocator<pecker_sdk::AVL_node_map<pecker_sdk::pecker_share_string_base_t<char,pecker_sdk::pecker_value_compare<char>,pecker_sdk::pecker_simple_allocator<char>,16>,int> > > >
PUBLIC	??1?$pecker_bst_tree_no_perent_node_inorder_iterator_base@U_AVL_node_base@pecker_sdk@@V?$pecker_simple_allocator@PBU_AVL_node_base@pecker_sdk@@@2@V?$pecker_simple_allocator@PAPBU_AVL_node_base@pecker_sdk@@@2@@pecker_sdk@@UAE@XZ ; pecker_sdk::pecker_bst_tree_no_perent_node_inorder_iterator_base<pecker_sdk::_AVL_node_base,pecker_sdk::pecker_simple_allocator<pecker_sdk::_AVL_node_base const *>,pecker_sdk::pecker_simple_allocator<pecker_sdk::_AVL_node_base const * *> >::~pecker_bst_tree_no_perent_node_inorder_iterator_base<pecker_sdk::_AVL_node_base,pecker_sdk::pecker_simple_allocator<pecker_sdk::_AVL_node_base const *>,pecker_sdk::pecker_simple_allocator<pecker_sdk::_AVL_node_base const * *> >
PUBLIC	?increment@?$pecker_bst_tree_no_perent_node_inorder_iterator_base@U_AVL_node_base@pecker_sdk@@V?$pecker_simple_allocator@PBU_AVL_node_base@pecker_sdk@@@2@V?$pecker_simple_allocator@PAPBU_AVL_node_base@pecker_sdk@@@2@@pecker_sdk@@UAEJXZ ; pecker_sdk::pecker_bst_tree_no_perent_node_inorder_iterator_base<pecker_sdk::_AVL_node_base,pecker_sdk::pecker_simple_allocator<pecker_sdk::_AVL_node_base const *>,pecker_sdk::pecker_simple_allocator<pecker_sdk::_AVL_node_base const * *> >::increment
PUBLIC	?get_node@?$pecker_avl_tree_map_container@V?$pecker_share_string_base_t@DU?$pecker_value_compare@D@pecker_sdk@@V?$pecker_simple_allocator@D@2@$0BA@@pecker_sdk@@HU?$pecker_value_compare_extern@V?$pecker_share_string_base_t@DU?$pecker_value_compare@D@pecker_sdk@@V?$pecker_simple_allocator@D@2@$0BA@@pecker_sdk@@@2@U?$AVL_node_map@V?$pecker_share_string_base_t@DU?$pecker_value_compare@D@pecker_sdk@@V?$pecker_simple_allocator@D@2@$0BA@@pecker_sdk@@H@2@V?$pecker_nodes_simple_allocater@U?$AVL_node_map@V?$pecker_share_string_base_t@DU?$pecker_value_compare@D@pecker_sdk@@V?$pecker_simple_allocator@D@2@$0BA@@pecker_sdk@@H@pecker_sdk@@V?$pecker_simple_allocator@U?$AVL_node_map@V?$pecker_share_string_base_t@DU?$pecker_value_compare@D@pecker_sdk@@V?$pecker_simple_allocator@D@2@$0BA@@pecker_sdk@@H@pecker_sdk@@@2@@2@@pecker_sdk@@QBEPBU?$AVL_node_map@V?$pecker_share_string_base_t@DU?$pecker_value_compare@D@pecker_sdk@@V?$pecker_simple_allocator@D@2@$0BA@@pecker_sdk@@H@2@PBU?$Ipecker_bst_tree_iterator@U_AVL_node_base@pecker_sdk@@@2@@Z ; pecker_sdk::pecker_avl_tree_map_container<pecker_sdk::pecker_share_string_base_t<char,pecker_sdk::pecker_value_compare<char>,pecker_sdk::pecker_simple_allocator<char>,16>,int,pecker_sdk::pecker_value_compare_extern<pecker_sdk::pecker_share_string_base_t<char,pecker_sdk::pecker_value_compare<char>,pecker_sdk::pecker_simple_allocator<char>,16> >,pecker_sdk::AVL_node_map<pecker_sdk::pecker_share_string_base_t<char,pecker_sdk::pecker_value_compare<char>,pecker_sdk::pecker_simple_allocator<char>,16>,int>,pecker_sdk::pecker_nodes_simple_allocater<pecker_sdk::AVL_node_map<pecker_sdk::pecker_share_string_base_t<char,pecker_sdk::pecker_value_compare<char>,pecker_sdk::pecker_simple_allocator<char>,16>,int>,pecker_sdk::pecker_simple_allocator<pecker_sdk::AVL_node_map<pecker_sdk::pecker_share_string_base_t<char,pecker_sdk::pecker_value_compare<char>,pecker_sdk::pecker_simple_allocator<char>,16>,int> > > >::get_node
PUBLIC	?get_current_node@?$pecker_bst_tree_no_perent_node_inorder_iterator_base@U_AVL_node_base@pecker_sdk@@V?$pecker_simple_allocator@PBU_AVL_node_base@pecker_sdk@@@2@V?$pecker_simple_allocator@PAPBU_AVL_node_base@pecker_sdk@@@2@@pecker_sdk@@UBEPBU_AVL_node_base@2@XZ ; pecker_sdk::pecker_bst_tree_no_perent_node_inorder_iterator_base<pecker_sdk::_AVL_node_base,pecker_sdk::pecker_simple_allocator<pecker_sdk::_AVL_node_base const *>,pecker_sdk::pecker_simple_allocator<pecker_sdk::_AVL_node_base const * *> >::get_current_node
PUBLIC	?get_iterator@?$pecker_avl_tree_map_container@V?$pecker_share_string_base_t@DU?$pecker_value_compare@D@pecker_sdk@@V?$pecker_simple_allocator@D@2@$0BA@@pecker_sdk@@HU?$pecker_value_compare_extern@V?$pecker_share_string_base_t@DU?$pecker_value_compare@D@pecker_sdk@@V?$pecker_simple_allocator@D@2@$0BA@@pecker_sdk@@@2@U?$AVL_node_map@V?$pecker_share_string_base_t@DU?$pecker_value_compare@D@pecker_sdk@@V?$pecker_simple_allocator@D@2@$0BA@@pecker_sdk@@H@2@V?$pecker_nodes_simple_allocater@U?$AVL_node_map@V?$pecker_share_string_base_t@DU?$pecker_value_compare@D@pecker_sdk@@V?$pecker_simple_allocator@D@2@$0BA@@pecker_sdk@@H@pecker_sdk@@V?$pecker_simple_allocator@U?$AVL_node_map@V?$pecker_share_string_base_t@DU?$pecker_value_compare@D@pecker_sdk@@V?$pecker_simple_allocator@D@2@$0BA@@pecker_sdk@@H@pecker_sdk@@@2@@2@@pecker_sdk@@QBEPAU?$Ipecker_bst_tree_iterator@U_AVL_node_base@pecker_sdk@@@2@PAU32@@Z ; pecker_sdk::pecker_avl_tree_map_container<pecker_sdk::pecker_share_string_base_t<char,pecker_sdk::pecker_value_compare<char>,pecker_sdk::pecker_simple_allocator<char>,16>,int,pecker_sdk::pecker_value_compare_extern<pecker_sdk::pecker_share_string_base_t<char,pecker_sdk::pecker_value_compare<char>,pecker_sdk::pecker_simple_allocator<char>,16> >,pecker_sdk::AVL_node_map<pecker_sdk::pecker_share_string_base_t<char,pecker_sdk::pecker_value_compare<char>,pecker_sdk::pecker_simple_allocator<char>,16>,int>,pecker_sdk::pecker_nodes_simple_allocater<pecker_sdk::AVL_node_map<pecker_sdk::pecker_share_string_base_t<char,pecker_sdk::pecker_value_compare<char>,pecker_sdk::pecker_simple_allocator<char>,16>,int>,pecker_sdk::pecker_simple_allocator<pecker_sdk::AVL_node_map<pecker_sdk::pecker_share_string_base_t<char,pecker_sdk::pecker_value_compare<char>,pecker_sdk::pecker_simple_allocator<char>,16>,int> > > >::get_iterator
PUBLIC	?insert@?$pecker_avl_tree_map_container@V?$pecker_share_string_base_t@DU?$pecker_value_compare@D@pecker_sdk@@V?$pecker_simple_allocator@D@2@$0BA@@pecker_sdk@@HU?$pecker_value_compare_extern@V?$pecker_share_string_base_t@DU?$pecker_value_compare@D@pecker_sdk@@V?$pecker_simple_allocator@D@2@$0BA@@pecker_sdk@@@2@U?$AVL_node_map@V?$pecker_share_string_base_t@DU?$pecker_value_compare@D@pecker_sdk@@V?$pecker_simple_allocator@D@2@$0BA@@pecker_sdk@@H@2@V?$pecker_nodes_simple_allocater@U?$AVL_node_map@V?$pecker_share_string_base_t@DU?$pecker_value_compare@D@pecker_sdk@@V?$pecker_simple_allocator@D@2@$0BA@@pecker_sdk@@H@pecker_sdk@@V?$pecker_simple_allocator@U?$AVL_node_map@V?$pecker_share_string_base_t@DU?$pecker_value_compare@D@pecker_sdk@@V?$pecker_simple_allocator@D@2@$0BA@@pecker_sdk@@H@pecker_sdk@@@2@@2@@pecker_sdk@@QAEJABV?$pecker_share_string_base_t@DU?$pecker_value_compare@D@pecker_sdk@@V?$pecker_simple_allocator@D@2@$0BA@@2@H@Z ; pecker_sdk::pecker_avl_tree_map_container<pecker_sdk::pecker_share_string_base_t<char,pecker_sdk::pecker_value_compare<char>,pecker_sdk::pecker_simple_allocator<char>,16>,int,pecker_sdk::pecker_value_compare_extern<pecker_sdk::pecker_share_string_base_t<char,pecker_sdk::pecker_value_compare<char>,pecker_sdk::pecker_simple_allocator<char>,16> >,pecker_sdk::AVL_node_map<pecker_sdk::pecker_share_string_base_t<char,pecker_sdk::pecker_value_compare<char>,pecker_sdk::pecker_simple_allocator<char>,16>,int>,pecker_sdk::pecker_nodes_simple_allocater<pecker_sdk::AVL_node_map<pecker_sdk::pecker_share_string_base_t<char,pecker_sdk::pecker_value_compare<char>,pecker_sdk::pecker_simple_allocator<char>,16>,int>,pecker_sdk::pecker_simple_allocator<pecker_sdk::AVL_node_map<pecker_sdk::pecker_share_string_base_t<char,pecker_sdk::pecker_value_compare<char>,pecker_sdk::pecker_simple_allocator<char>,16>,int> > > >::insert
PUBLIC	??0?$pecker_bst_tree_no_perent_node_inorder_iterator_base@U_AVL_node_base@pecker_sdk@@V?$pecker_simple_allocator@PBU_AVL_node_base@pecker_sdk@@@2@V?$pecker_simple_allocator@PAPBU_AVL_node_base@pecker_sdk@@@2@@pecker_sdk@@QAE@PBU_AVL_node_base@1@@Z ; pecker_sdk::pecker_bst_tree_no_perent_node_inorder_iterator_base<pecker_sdk::_AVL_node_base,pecker_sdk::pecker_simple_allocator<pecker_sdk::_AVL_node_base const *>,pecker_sdk::pecker_simple_allocator<pecker_sdk::_AVL_node_base const * *> >::pecker_bst_tree_no_perent_node_inorder_iterator_base<pecker_sdk::_AVL_node_base,pecker_sdk::pecker_simple_allocator<pecker_sdk::_AVL_node_base const *>,pecker_sdk::pecker_simple_allocator<pecker_sdk::_AVL_node_base const * *> >
PUBLIC	??0?$pecker_avl_tree_map_container@V?$pecker_share_string_base_t@DU?$pecker_value_compare@D@pecker_sdk@@V?$pecker_simple_allocator@D@2@$0BA@@pecker_sdk@@HU?$pecker_value_compare_extern@V?$pecker_share_string_base_t@DU?$pecker_value_compare@D@pecker_sdk@@V?$pecker_simple_allocator@D@2@$0BA@@pecker_sdk@@@2@U?$AVL_node_map@V?$pecker_share_string_base_t@DU?$pecker_value_compare@D@pecker_sdk@@V?$pecker_simple_allocator@D@2@$0BA@@pecker_sdk@@H@2@V?$pecker_nodes_simple_allocater@U?$AVL_node_map@V?$pecker_share_string_base_t@DU?$pecker_value_compare@D@pecker_sdk@@V?$pecker_simple_allocator@D@2@$0BA@@pecker_sdk@@H@pecker_sdk@@V?$pecker_simple_allocator@U?$AVL_node_map@V?$pecker_share_string_base_t@DU?$pecker_value_compare@D@pecker_sdk@@V?$pecker_simple_allocator@D@2@$0BA@@pecker_sdk@@H@pecker_sdk@@@2@@2@@pecker_sdk@@QAE@XZ ; pecker_sdk::pecker_avl_tree_map_container<pecker_sdk::pecker_share_string_base_t<char,pecker_sdk::pecker_value_compare<char>,pecker_sdk::pecker_simple_allocator<char>,16>,int,pecker_sdk::pecker_value_compare_extern<pecker_sdk::pecker_share_string_base_t<char,pecker_sdk::pecker_value_compare<char>,pecker_sdk::pecker_simple_allocator<char>,16> >,pecker_sdk::AVL_node_map<pecker_sdk::pecker_share_string_base_t<char,pecker_sdk::pecker_value_compare<char>,pecker_sdk::pecker_simple_allocator<char>,16>,int>,pecker_sdk::pecker_nodes_simple_allocater<pecker_sdk::AVL_node_map<pecker_sdk::pecker_share_string_base_t<char,pecker_sdk::pecker_value_compare<char>,pecker_sdk::pecker_simple_allocator<char>,16>,int>,pecker_sdk::pecker_simple_allocator<pecker_sdk::AVL_node_map<pecker_sdk::pecker_share_string_base_t<char,pecker_sdk::pecker_value_compare<char>,pecker_sdk::pecker_simple_allocator<char>,16>,int> > > >::pecker_avl_tree_map_container<pecker_sdk::pecker_share_string_base_t<char,pecker_sdk::pecker_value_compare<char>,pecker_sdk::pecker_simple_allocator<char>,16>,int,pecker_sdk::pecker_value_compare_extern<pecker_sdk::pecker_share_string_base_t<char,pecker_sdk::pecker_value_compare<char>,pecker_sdk::pecker_simple_allocator<char>,16> >,pecker_sdk::AVL_node_map<pecker_sdk::pecker_share_string_base_t<char,pecker_sdk::pecker_value_compare<char>,pecker_sdk::pecker_simple_allocator<char>,16>,int>,pecker_sdk::pecker_nodes_simple_allocater<pecker_sdk::AVL_node_map<pecker_sdk::pecker_share_string_base_t<char,pecker_sdk::pecker_value_compare<char>,pecker_sdk::pecker_simple_allocator<char>,16>,int>,pecker_sdk::pecker_simple_allocator<pecker_sdk::AVL_node_map<pecker_sdk::pecker_share_string_base_t<char,pecker_sdk::pecker_value_compare<char>,pecker_sdk::pecker_simple_allocator<char>,16>,int> > > >
PUBLIC	__$ArrayPad$
PUBLIC	?avlbst_iterator_test@@YAXXZ			; avlbst_iterator_test
;	COMDAT xdata$x
xdata$x	SEGMENT
__unwindtable$?avlbst_iterator_test@@YAXXZ DD 0ffffffffH
	DD	FLAT:__unwindfunclet$?avlbst_iterator_test@@YAXXZ$0
	DD	00H
	DD	FLAT:__unwindfunclet$?avlbst_iterator_test@@YAXXZ$1
	DD	01H
	DD	FLAT:__unwindfunclet$?avlbst_iterator_test@@YAXXZ$2
	DD	02H
	DD	FLAT:__unwindfunclet$?avlbst_iterator_test@@YAXXZ$3
__ehfuncinfo$?avlbst_iterator_test@@YAXXZ DD 019930522H
	DD	04H
	DD	FLAT:__unwindtable$?avlbst_iterator_test@@YAXXZ
	DD	2 DUP(00H)
	DD	2 DUP(00H)
	DD	00H
	DD	01H
; Function compile flags: /Odtp /RTCsu /ZI
xdata$x	ENDS
;	COMDAT ?avlbst_iterator_test@@YAXXZ
_TEXT	SEGMENT
_res$70355 = -660					; size = 4
_pvalue$70353 = -648					; size = 4
_icount$ = -636						; size = 4
_array_iterator1$ = -624				; size = 12
_inorder_iterator$ = -604				; size = 536
_array$ = -60						; size = 20
_avlbst_map$ = -32					; size = 12
__$ArrayPad$ = -16					; size = 4
__$EHRec$ = -12						; size = 12
?avlbst_iterator_test@@YAXXZ PROC			; avlbst_iterator_test, COMDAT

; 396  : {

	push	ebp
	mov	ebp, esp
	push	-1
	push	__ehhandler$?avlbst_iterator_test@@YAXXZ
	mov	eax, DWORD PTR fs:0
	push	eax
