; Listing generated by Microsoft (R) Optimizing Compiler Version 16.00.40219.01 

	TITLE	F:\codes\pecker_framework_git\pecker_src\pecker_framework\render\render_system\opengles\pecker_frame_buffer_gl.cpp
	.686P
	.XMM
	include listing.inc
	.model	flat

INCLUDELIB MSVCRTD
INCLUDELIB OLDNAMES

CONST	SEGMENT
_RENDER_BUFFER_MAX_ATTCHMENT_INDEX_INFO DD 01H
	DD	01H
	DD	01H
_RENDER_BUFFER_ATTCHMENT_INDEX_TABLE DD 08ce0H
	DD	08d00H
	DD	08d20H
CONST	ENDS
PUBLIC	??_7pecker_frame_buffer_gles2@pecker_sdk@@6Bpecker_opengles_v2_object@1@@ ; pecker_sdk::pecker_frame_buffer_gles2::`vftable'
PUBLIC	??_7pecker_frame_buffer_gles2@pecker_sdk@@6BIpecker_frame_buffer@1@@ ; pecker_sdk::pecker_frame_buffer_gles2::`vftable'
PUBLIC	??0Ipecker_frame_buffer@pecker_sdk@@QAE@XZ	; pecker_sdk::Ipecker_frame_buffer::Ipecker_frame_buffer
PUBLIC	??0pecker_opengles_v2_object@pecker_sdk@@QAE@XZ	; pecker_sdk::pecker_opengles_v2_object::pecker_opengles_v2_object
PUBLIC	??_8pecker_frame_buffer_gles2@pecker_sdk@@7B@	; pecker_sdk::pecker_frame_buffer_gles2::`vbtable'
PUBLIC	??0pecker_frame_buffer_gles2@pecker_sdk@@QAE@XZ	; pecker_sdk::pecker_frame_buffer_gles2::pecker_frame_buffer_gles2
PUBLIC	??_R4pecker_frame_buffer_gles2@pecker_sdk@@6BIpecker_frame_buffer@1@@ ; pecker_sdk::pecker_frame_buffer_gles2::`RTTI Complete Object Locator'
PUBLIC	??_R0?AVpecker_frame_buffer_gles2@pecker_sdk@@@8 ; pecker_sdk::pecker_frame_buffer_gles2 `RTTI Type Descriptor'
PUBLIC	??_R3pecker_frame_buffer_gles2@pecker_sdk@@8	; pecker_sdk::pecker_frame_buffer_gles2::`RTTI Class Hierarchy Descriptor'
PUBLIC	??_R2pecker_frame_buffer_gles2@pecker_sdk@@8	; pecker_sdk::pecker_frame_buffer_gles2::`RTTI Base Class Array'
PUBLIC	??_R1A@?0A@EA@pecker_frame_buffer_gles2@pecker_sdk@@8 ; pecker_sdk::pecker_frame_buffer_gles2::`RTTI Base Class Descriptor at (0,-1,0,64)'
PUBLIC	??_R1A@?0A@EA@Ipecker_frame_buffer@pecker_sdk@@8 ; pecker_sdk::Ipecker_frame_buffer::`RTTI Base Class Descriptor at (0,-1,0,64)'
PUBLIC	??_R0?AUIpecker_frame_buffer@pecker_sdk@@@8	; pecker_sdk::Ipecker_frame_buffer `RTTI Type Descriptor'
PUBLIC	??_R3Ipecker_frame_buffer@pecker_sdk@@8		; pecker_sdk::Ipecker_frame_buffer::`RTTI Class Hierarchy Descriptor'
PUBLIC	??_R2Ipecker_frame_buffer@pecker_sdk@@8		; pecker_sdk::Ipecker_frame_buffer::`RTTI Base Class Array'
PUBLIC	??_R1A@33FA@pecker_opengles_v2_object@pecker_sdk@@8 ; pecker_sdk::pecker_opengles_v2_object::`RTTI Base Class Descriptor at (0,4,4,80)'
PUBLIC	??_R0?AVpecker_opengles_v2_object@pecker_sdk@@@8 ; pecker_sdk::pecker_opengles_v2_object `RTTI Type Descriptor'
PUBLIC	??_R3pecker_opengles_v2_object@pecker_sdk@@8	; pecker_sdk::pecker_opengles_v2_object::`RTTI Class Hierarchy Descriptor'
PUBLIC	??_R2pecker_opengles_v2_object@pecker_sdk@@8	; pecker_sdk::pecker_opengles_v2_object::`RTTI Base Class Array'
PUBLIC	??_R1A@?0A@EA@pecker_opengles_v2_object@pecker_sdk@@8 ; pecker_sdk::pecker_opengles_v2_object::`RTTI Base Class Descriptor at (0,-1,0,64)'
PUBLIC	??_R1A@?0A@EA@pecker_render_object@pecker_sdk@@8 ; pecker_sdk::pecker_render_object::`RTTI Base Class Descriptor at (0,-1,0,64)'
PUBLIC	??_R0?AVpecker_render_object@pecker_sdk@@@8	; pecker_sdk::pecker_render_object `RTTI Type Descriptor'
PUBLIC	??_R3pecker_render_object@pecker_sdk@@8		; pecker_sdk::pecker_render_object::`RTTI Class Hierarchy Descriptor'
PUBLIC	??_R2pecker_render_object@pecker_sdk@@8		; pecker_sdk::pecker_render_object::`RTTI Base Class Array'
PUBLIC	??_R1A@33EA@pecker_render_object@pecker_sdk@@8	; pecker_sdk::pecker_render_object::`RTTI Base Class Descriptor at (0,4,4,64)'
PUBLIC	?allocate_buffer_from_gpu_ram@pecker_frame_buffer_gles2@pecker_sdk@@UAEJXZ ; pecker_sdk::pecker_frame_buffer_gles2::allocate_buffer_from_gpu_ram
PUBLIC	?release_buffer_from_gpu_ram@pecker_frame_buffer_gles2@pecker_sdk@@UAEJXZ ; pecker_sdk::pecker_frame_buffer_gles2::release_buffer_from_gpu_ram
PUBLIC	?attach_render_buffer@pecker_frame_buffer_gles2@pecker_sdk@@UAEJPAUIpecker_render_buffer@2@I@Z ; pecker_sdk::pecker_frame_buffer_gles2::attach_render_buffer
PUBLIC	?attach_texture@pecker_frame_buffer_gles2@pecker_sdk@@UAEJPAUIpecker_texture@2@I@Z ; pecker_sdk::pecker_frame_buffer_gles2::attach_texture
PUBLIC	?attach_frame_buffer_object@pecker_frame_buffer_gles2@pecker_sdk@@UAEJPAUIpecker_frame_buffer_object@2@I@Z ; pecker_sdk::pecker_frame_buffer_gles2::attach_frame_buffer_object
PUBLIC	?check_status@pecker_frame_buffer_gles2@pecker_sdk@@UBEIXZ ; pecker_sdk::pecker_frame_buffer_gles2::check_status
PUBLIC	??_R4pecker_frame_buffer_gles2@pecker_sdk@@6Bpecker_opengles_v2_object@1@@ ; pecker_sdk::pecker_frame_buffer_gles2::`RTTI Complete Object Locator'
PUBLIC	??_Epecker_frame_buffer_gles2@pecker_sdk@@$4PPPPPPPM@BA@AEPAXI@Z ; pecker_sdk::pecker_frame_buffer_gles2::`vector deleting destructor'
PUBLIC	?get_object_location@pecker_frame_buffer_gles2@pecker_sdk@@$4PPPPPPPM@A@BEIXZ ; pecker_sdk::pecker_frame_buffer_gles2::get_object_location
EXTRN	__RTC_CheckEsp:PROC
EXTRN	__RTC_Shutdown:PROC
EXTRN	__RTC_InitBase:PROC
EXTRN	??_7type_info@@6B@:QWORD			; type_info::`vftable'
EXTRN	??_Epecker_frame_buffer_gles2@pecker_sdk@@UAEPAXI@Z:PROC ; pecker_sdk::pecker_frame_buffer_gles2::`vector deleting destructor'
EXTRN	?toString@pecker_render_object@pecker_sdk@@UBEABV?$pecker_share_string_base_t@DU?$pecker_value_compare@D@pecker_sdk@@V?$pecker_simple_allocator@D@2@$0BA@@2@AAV32@@Z:PROC ; pecker_sdk::pecker_render_object::toString
EXTRN	?get_render_system_info@pecker_opengles_v2_object@pecker_sdk@@UBEABUpecker_render_system_info@2@AAU32@@Z:PROC ; pecker_sdk::pecker_opengles_v2_object::get_render_system_info
EXTRN	?get_this_reference@pecker_render_object@pecker_sdk@@UAEPAV12@XZ:PROC ; pecker_sdk::pecker_render_object::get_this_reference
EXTRN	?release_this_reference@pecker_render_object@pecker_sdk@@UAEJXZ:PROC ; pecker_sdk::pecker_render_object::release_this_reference
;	COMDAT ??_R4pecker_frame_buffer_gles2@pecker_sdk@@6Bpecker_opengles_v2_object@1@@
; File f:\codes\pecker_framework_git\pecker_src\pecker_framework\render\render_system\opengles\pecker_frame_buffer_gl.cpp
rdata$r	SEGMENT
??_R4pecker_frame_buffer_gles2@pecker_sdk@@6Bpecker_opengles_v2_object@1@@ DD 00H ; pecker_sdk::pecker_frame_buffer_gles2::`RTTI Complete Object Locator'
	DD	010H
	DD	04H
	DD	FLAT:??_R0?AVpecker_frame_buffer_gles2@pecker_sdk@@@8
	DD	FLAT:??_R3pecker_frame_buffer_gles2@pecker_sdk@@8
rdata$r	ENDS
;	COMDAT ??_R1A@33EA@pecker_render_object@pecker_sdk@@8
rdata$r	SEGMENT
??_R1A@33EA@pecker_render_object@pecker_sdk@@8 DD FLAT:??_R0?AVpecker_render_object@pecker_sdk@@@8 ; pecker_sdk::pecker_render_object::`RTTI Base Class Descriptor at (0,4,4,64)'
	DD	00H
	DD	00H
	DD	04H
	DD	04H
	DD	040H
	DD	FLAT:??_R3pecker_render_object@pecker_sdk@@8
rdata$r	ENDS
;	COMDAT ??_R2pecker_render_object@pecker_sdk@@8
rdata$r	SEGMENT
??_R2pecker_render_object@pecker_sdk@@8 DD FLAT:??_R1A@?0A@EA@pecker_render_object@pecker_sdk@@8 ; pecker_sdk::pecker_render_object::`RTTI Base Class Array'
rdata$r	ENDS
;	COMDAT ??_R3pecker_render_object@pecker_sdk@@8
rdata$r	SEGMENT
??_R3pecker_render_object@pecker_sdk@@8 DD 00H		; pecker_sdk::pecker_render_object::`RTTI Class Hierarchy Descriptor'
	DD	00H
	DD	01H
	DD	FLAT:??_R2pecker_render_object@pecker_sdk@@8
rdata$r	ENDS
;	COMDAT ??_R0?AVpecker_render_object@pecker_sdk@@@8
_DATA	SEGMENT
??_R0?AVpecker_render_object@pecker_sdk@@@8 DD FLAT:??_7type_info@@6B@ ; pecker_sdk::pecker_render_object `RTTI Type Descriptor'
	DD	00H
	DB	'.?AVpecker_render_object@pecker_sdk@@', 00H
_DATA	ENDS
;	COMDAT ??_R1A@?0A@EA@pecker_render_object@pecker_sdk@@8
rdata$r	SEGMENT
??_R1A@?0A@EA@pecker_render_object@pecker_sdk@@8 DD FLAT:??_R0?AVpecker_render_object@pecker_sdk@@@8 ; pecker_sdk::pecker_render_object::`RTTI Base Class Descriptor at (0,-1,0,64)'
	DD	00H
	DD	00H
	DD	0ffffffffH
	DD	00H
	DD	040H
	DD	FLAT:??_R3pecker_render_object@pecker_sdk@@8
rdata$r	ENDS
;	COMDAT ??_R1A@?0A@EA@pecker_opengles_v2_object@pecker_sdk@@8
rdata$r	SEGMENT
??_R1A@?0A@EA@pecker_opengles_v2_object@pecker_sdk@@8 DD FLAT:??_R0?AVpecker_opengles_v2_object@pecker_sdk@@@8 ; pecker_sdk::pecker_opengles_v2_object::`RTTI Base Class Descriptor at (0,-1,0,64)'
	DD	01H
	DD	00H
	DD	0ffffffffH
	DD	00H
	DD	040H
	DD	FLAT:??_R3pecker_opengles_v2_object@pecker_sdk@@8
rdata$r	ENDS
;	COMDAT ??_R2pecker_opengles_v2_object@pecker_sdk@@8
rdata$r	SEGMENT
??_R2pecker_opengles_v2_object@pecker_sdk@@8 DD FLAT:??_R1A@?0A@EA@pecker_opengles_v2_object@pecker_sdk@@8 ; pecker_sdk::pecker_opengles_v2_object::`RTTI Base Class Array'
	DD	FLAT:??_R1A@?0A@EA@pecker_render_object@pecker_sdk@@8
rdata$r	ENDS
;	COMDAT ??_R3pecker_opengles_v2_object@pecker_sdk@@8
rdata$r	SEGMENT
??_R3pecker_opengles_v2_object@pecker_sdk@@8 DD 00H	; pecker_sdk::pecker_opengles_v2_object::`RTTI Class Hierarchy Descriptor'
	DD	00H
	DD	02H
	DD	FLAT:??_R2pecker_opengles_v2_object@pecker_sdk@@8
rdata$r	ENDS
;	COMDAT ??_R0?AVpecker_opengles_v2_object@pecker_sdk@@@8
_DATA	SEGMENT
??_R0?AVpecker_opengles_v2_object@pecker_sdk@@@8 DD FLAT:??_7type_info@@6B@ ; pecker_sdk::pecker_opengles_v2_object `RTTI Type Descriptor'
	DD	00H
	DB	'.?AVpecker_opengles_v2_object@pecker_sdk@@', 00H
_DATA	ENDS
;	COMDAT ??_R1A@33FA@pecker_opengles_v2_object@pecker_sdk@@8
rdata$r	SEGMENT
??_R1A@33FA@pecker_opengles_v2_object@pecker_sdk@@8 DD FLAT:??_R0?AVpecker_opengles_v2_object@pecker_sdk@@@8 ; pecker_sdk::pecker_opengles_v2_object::`RTTI Base Class Descriptor at (0,4,4,80)'
	DD	01H
	DD	00H
	DD	04H
	DD	04H
	DD	050H
	DD	FLAT:??_R3pecker_opengles_v2_object@pecker_sdk@@8
rdata$r	ENDS
;	COMDAT ??_R2Ipecker_frame_buffer@pecker_sdk@@8
rdata$r	SEGMENT
??_R2Ipecker_frame_buffer@pecker_sdk@@8 DD FLAT:??_R1A@?0A@EA@Ipecker_frame_buffer@pecker_sdk@@8 ; pecker_sdk::Ipecker_frame_buffer::`RTTI Base Class Array'
rdata$r	ENDS
;	COMDAT ??_R3Ipecker_frame_buffer@pecker_sdk@@8
rdata$r	SEGMENT
??_R3Ipecker_frame_buffer@pecker_sdk@@8 DD 00H		; pecker_sdk::Ipecker_frame_buffer::`RTTI Class Hierarchy Descriptor'
	DD	00H
	DD	01H
	DD	FLAT:??_R2Ipecker_frame_buffer@pecker_sdk@@8
rdata$r	ENDS
;	COMDAT ??_R0?AUIpecker_frame_buffer@pecker_sdk@@@8
_DATA	SEGMENT
??_R0?AUIpecker_frame_buffer@pecker_sdk@@@8 DD FLAT:??_7type_info@@6B@ ; pecker_sdk::Ipecker_frame_buffer `RTTI Type Descriptor'
	DD	00H
	DB	'.?AUIpecker_frame_buffer@pecker_sdk@@', 00H
_DATA	ENDS
;	COMDAT ??_R1A@?0A@EA@Ipecker_frame_buffer@pecker_sdk@@8
rdata$r	SEGMENT
??_R1A@?0A@EA@Ipecker_frame_buffer@pecker_sdk@@8 DD FLAT:??_R0?AUIpecker_frame_buffer@pecker_sdk@@@8 ; pecker_sdk::Ipecker_frame_buffer::`RTTI Base Class Descriptor at (0,-1,0,64)'
	DD	00H
	DD	00H
	DD	0ffffffffH
	DD	00H
	DD	040H
	DD	FLAT:??_R3Ipecker_frame_buffer@pecker_sdk@@8
rdata$r	ENDS
;	COMDAT ??_R1A@?0A@EA@pecker_frame_buffer_gles2@pecker_sdk@@8
rdata$r	SEGMENT
??_R1A@?0A@EA@pecker_frame_buffer_gles2@pecker_sdk@@8 DD FLAT:??_R0?AVpecker_frame_buffer_gles2@pecker_sdk@@@8 ; pecker_sdk::pecker_frame_buffer_gles2::`RTTI Base Class Descriptor at (0,-1,0,64)'
	DD	03H
	DD	00H
	DD	0ffffffffH
	DD	00H
	DD	040H
	DD	FLAT:??_R3pecker_frame_buffer_gles2@pecker_sdk@@8
rdata$r	ENDS
;	COMDAT ??_R2pecker_frame_buffer_gles2@pecker_sdk@@8
rdata$r	SEGMENT
??_R2pecker_frame_buffer_gles2@pecker_sdk@@8 DD FLAT:??_R1A@?0A@EA@pecker_frame_buffer_gles2@pecker_sdk@@8 ; pecker_sdk::pecker_frame_buffer_gles2::`RTTI Base Class Array'
	DD	FLAT:??_R1A@?0A@EA@Ipecker_frame_buffer@pecker_sdk@@8
	DD	FLAT:??_R1A@33FA@pecker_opengles_v2_object@pecker_sdk@@8
	DD	FLAT:??_R1A@33EA@pecker_render_object@pecker_sdk@@8
rdata$r	ENDS
;	COMDAT ??_R3pecker_frame_buffer_gles2@pecker_sdk@@8
rdata$r	SEGMENT
??_R3pecker_frame_buffer_gles2@pecker_sdk@@8 DD 00H	; pecker_sdk::pecker_frame_buffer_gles2::`RTTI Class Hierarchy Descriptor'
	DD	03H
	DD	04H
	DD	FLAT:??_R2pecker_frame_buffer_gles2@pecker_sdk@@8
rdata$r	ENDS
;	COMDAT ??_R0?AVpecker_frame_buffer_gles2@pecker_sdk@@@8
_DATA	SEGMENT
??_R0?AVpecker_frame_buffer_gles2@pecker_sdk@@@8 DD FLAT:??_7type_info@@6B@ ; pecker_sdk::pecker_frame_buffer_gles2 `RTTI Type Descriptor'
	DD	00H
	DB	'.?AVpecker_frame_buffer_gles2@pecker_sdk@@', 00H
_DATA	ENDS
;	COMDAT ??_R4pecker_frame_buffer_gles2@pecker_sdk@@6BIpecker_frame_buffer@1@@
rdata$r	SEGMENT
??_R4pecker_frame_buffer_gles2@pecker_sdk@@6BIpecker_frame_buffer@1@@ DD 00H ; pecker_sdk::pecker_frame_buffer_gles2::`RTTI Complete Object Locator'
	DD	00H
	DD	00H
	DD	FLAT:??_R0?AVpecker_frame_buffer_gles2@pecker_sdk@@@8
	DD	FLAT:??_R3pecker_frame_buffer_gles2@pecker_sdk@@8
rdata$r	ENDS
;	COMDAT ??_7pecker_frame_buffer_gles2@pecker_sdk@@6Bpecker_opengles_v2_object@1@@
CONST	SEGMENT
??_7pecker_frame_buffer_gles2@pecker_sdk@@6Bpecker_opengles_v2_object@1@@ DD FLAT:??_R4pecker_frame_buffer_gles2@pecker_sdk@@6Bpecker_opengles_v2_object@1@@ ; pecker_sdk::pecker_frame_buffer_gles2::`vftable'
	DD	FLAT:??_Epecker_frame_buffer_gles2@pecker_sdk@@$4PPPPPPPM@BA@AEPAXI@Z
	DD	FLAT:?toString@pecker_render_object@pecker_sdk@@UBEABV?$pecker_share_string_base_t@DU?$pecker_value_compare@D@pecker_sdk@@V?$pecker_simple_allocator@D@2@$0BA@@2@AAV32@@Z
	DD	FLAT:?get_render_system_info@pecker_opengles_v2_object@pecker_sdk@@UBEABUpecker_render_system_info@2@AAU32@@Z
	DD	FLAT:?get_this_reference@pecker_render_object@pecker_sdk@@UAEPAV12@XZ
	DD	FLAT:?release_this_reference@pecker_render_object@pecker_sdk@@UAEJXZ
	DD	FLAT:?get_object_location@pecker_frame_buffer_gles2@pecker_sdk@@$4PPPPPPPM@A@BEIXZ
CONST	ENDS
;	COMDAT ??_7pecker_frame_buffer_gles2@pecker_sdk@@6BIpecker_frame_buffer@1@@
CONST	SEGMENT
??_7pecker_frame_buffer_gles2@pecker_sdk@@6BIpecker_frame_buffer@1@@ DD FLAT:??_R4pecker_frame_buffer_gles2@pecker_sdk@@6BIpecker_frame_buffer@1@@ ; pecker_sdk::pecker_frame_buffer_gles2::`vftable'
	DD	FLAT:??_Epecker_frame_buffer_gles2@pecker_sdk@@UAEPAXI@Z
	DD	FLAT:?allocate_buffer_from_gpu_ram@pecker_frame_buffer_gles2@pecker_sdk@@UAEJXZ
	DD	FLAT:?release_buffer_from_gpu_ram@pecker_frame_buffer_gles2@pecker_sdk@@UAEJXZ
	DD	FLAT:?attach_render_buffer@pecker_frame_buffer_gles2@pecker_sdk@@UAEJPAUIpecker_render_buffer@2@I@Z
	DD	FLAT:?attach_texture@pecker_frame_buffer_gles2@pecker_sdk@@UAEJPAUIpecker_texture@2@I@Z
	DD	FLAT:?attach_frame_buffer_object@pecker_frame_buffer_gles2@pecker_sdk@@UAEJPAUIpecker_frame_buffer_object@2@I@Z
	DD	FLAT:?check_status@pecker_frame_buffer_gles2@pecker_sdk@@UBEIXZ
CONST	ENDS
;	COMDAT ??_8pecker_frame_buffer_gles2@pecker_sdk@@7B@
CONST	SEGMENT
??_8pecker_frame_buffer_gles2@pecker_sdk@@7B@ DD 0fffffffcH ; pecker_sdk::pecker_frame_buffer_gles2::`vbtable'
	DD	0cH
CONST	ENDS
;	COMDAT rtc$TMZ
rtc$TMZ	SEGMENT
__RTC_Shutdown.rtc$TMZ DD FLAT:__RTC_Shutdown
rtc$TMZ	ENDS
;	COMDAT rtc$IMZ
rtc$IMZ	SEGMENT
__RTC_InitBase.rtc$IMZ DD FLAT:__RTC_InitBase
; Function compile flags: /Odtp /RTCsu /ZI
rtc$IMZ	ENDS
;	COMDAT ??0pecker_frame_buffer_gles2@pecker_sdk@@QAE@XZ
_TEXT	SEGMENT
$T69005 = -212						; size = 4
_this$ = -8						; size = 4
_$initVBases$ = 8					; size = 4
??0pecker_frame_buffer_gles2@pecker_sdk@@QAE@XZ PROC	; pecker_sdk::pecker_frame_buffer_gles2::pecker_frame_buffer_gles2, COMDAT
; _this$ = ecx

; 27   : {

	push	ebp
	mov	ebp, esp
	sub	esp, 216				; 000000d8H
	push	ebx
	push	esi
	push	edi
	push	ecx
	lea	edi, DWORD PTR [ebp-216]
	mov	ecx, 54					; 00000036H
	mov	eax, -858993460				; ccccccccH
	rep stosd
	pop	ecx
	mov	DWORD PTR _this$[ebp], ecx
	mov	DWORD PTR $T69005[ebp], 0
	cmp	DWORD PTR _$initVBases$[ebp], 0
	je	SHORT $LN1@pecker_fra
	mov	eax, DWORD PTR _this$[ebp]
	mov	DWORD PTR [eax+4], OFFSET ??_8pecker_frame_buffer_gles2@pecker_sdk@@7B@
	mov	ecx, DWORD PTR _this$[ebp]
	add	ecx, 16					; 00000010H
	call	??0pecker_opengles_v2_object@pecker_sdk@@QAE@XZ
	mov	eax, DWORD PTR $T69005[ebp]
	or	eax, 1
	mov	DWORD PTR $T69005[ebp], eax
$LN1@pecker_fra:
	mov	ecx, DWORD PTR _this$[ebp]
	call	??0Ipecker_frame_buffer@pecker_sdk@@QAE@XZ
	mov	eax, DWORD PTR _this$[ebp]
	mov	DWORD PTR [eax], OFFSET ??_7pecker_frame_buffer_gles2@pecker_sdk@@6BIpecker_frame_buffer@1@@
	mov	eax, DWORD PTR _this$[ebp]
	mov	ecx, DWORD PTR [eax+4]
	mov	edx, DWORD PTR [ecx+4]
	mov	eax, DWORD PTR _this$[ebp]
	mov	DWORD PTR [eax+edx+4], OFFSET ??_7pecker_frame_buffer_gles2@pecker_sdk@@6Bpecker_opengles_v2_object@1@@
	mov	eax, DWORD PTR _this$[ebp]
	mov	ecx, DWORD PTR [eax+4]
	mov	edx, DWORD PTR [ecx+4]
	sub	edx, 12					; 0000000cH
	mov	eax, DWORD PTR _this$[ebp]
	mov	ecx, DWORD PTR [eax+4]
	mov	eax, DWORD PTR [ecx+4]
	mov	ecx, DWORD PTR _this$[ebp]
	mov	DWORD PTR [ecx+eax], edx
	mov	eax, DWORD PTR _this$[ebp]
	mov	DWORD PTR [eax+8], 0

; 28   : 
; 29   : }

	mov	eax, DWORD PTR _this$[ebp]
	pop	edi
	pop	esi
	pop	ebx
	add	esp, 216				; 000000d8H
	cmp	ebp, esp
	call	__RTC_CheckEsp
	mov	esp, ebp
	pop	ebp
	ret	4
??0pecker_frame_buffer_gles2@pecker_sdk@@QAE@XZ ENDP	; pecker_sdk::pecker_frame_buffer_gles2::pecker_frame_buffer_gles2
_TEXT	ENDS
PUBLIC	??_Dpecker_frame_buffer_gles2@pecker_sdk@@QAEXXZ ; pecker_sdk::pecker_frame_buffer_gles2::`vbase destructor'
EXTRN	??3@YAXPAX@Z:PROC				; operator delete
; Function compile flags: /Odtp /RTCsu /ZI
;	COMDAT ??_Gpecker_frame_buffer_gles2@pecker_sdk@@UAEPAXI@Z
_TEXT	SEGMENT
_this$ = -8						; size = 4
___flags$ = 8						; size = 4
??_Gpecker_frame_buffer_gles2@pecker_sdk@@UAEPAXI@Z PROC ; pecker_sdk::pecker_frame_buffer_gles2::`scalar deleting destructor', COMDAT
; _this$ = ecx
	push	ebp
	mov	ebp, esp
	sub	esp, 204				; 000000ccH
	push	ebx
	push	esi
	push	edi
	push	ecx
	lea	edi, DWORD PTR [ebp-204]
	mov	ecx, 51					; 00000033H
	mov	eax, -858993460				; ccccccccH
	rep stosd
	pop	ecx
	mov	DWORD PTR _this$[ebp], ecx
	mov	ecx, DWORD PTR _this$[ebp]
	call	??_Dpecker_frame_buffer_gles2@pecker_sdk@@QAEXXZ
	mov	eax, DWORD PTR ___flags$[ebp]
	and	eax, 1
	je	SHORT $LN1@scalar
	mov	eax, DWORD PTR _this$[ebp]
	push	eax
	call	??3@YAXPAX@Z				; operator delete
	add	esp, 4
$LN1@scalar:
	mov	eax, DWORD PTR _this$[ebp]
	pop	edi
	pop	esi
	pop	ebx
	add	esp, 204				; 000000ccH
	cmp	ebp, esp
	call	__RTC_CheckEsp
	mov	esp, ebp
	pop	ebp
	ret	4
??_Gpecker_frame_buffer_gles2@pecker_sdk@@UAEPAXI@Z ENDP ; pecker_sdk::pecker_frame_buffer_gles2::`scalar deleting destructor'
_TEXT	ENDS
PUBLIC	??_7pecker_opengles_v2_object@pecker_sdk@@6B@	; pecker_sdk::pecker_opengles_v2_object::`vftable'
PUBLIC	??_R4pecker_opengles_v2_object@pecker_sdk@@6B@	; pecker_sdk::pecker_opengles_v2_object::`RTTI Complete Object Locator'
EXTRN	??0pecker_render_object@pecker_sdk@@QAE@XZ:PROC	; pecker_sdk::pecker_render_object::pecker_render_object
EXTRN	??_Epecker_opengles_v2_object@pecker_sdk@@UAEPAXI@Z:PROC ; pecker_sdk::pecker_opengles_v2_object::`vector deleting destructor'
EXTRN	?get_object_location@pecker_opengles_v2_object@pecker_sdk@@UBEIXZ:PROC ; pecker_sdk::pecker_opengles_v2_object::get_object_location
;	COMDAT ??_R4pecker_opengles_v2_object@pecker_sdk@@6B@
rdata$r	SEGMENT
??_R4pecker_opengles_v2_object@pecker_sdk@@6B@ DD 00H	; pecker_sdk::pecker_opengles_v2_object::`RTTI Complete Object Locator'
	DD	00H
	DD	00H
	DD	FLAT:??_R0?AVpecker_opengles_v2_object@pecker_sdk@@@8
	DD	FLAT:??_R3pecker_opengles_v2_object@pecker_sdk@@8
rdata$r	ENDS
;	COMDAT ??_7pecker_opengles_v2_object@pecker_sdk@@6B@
CONST	SEGMENT
??_7pecker_opengles_v2_object@pecker_sdk@@6B@ DD FLAT:??_R4pecker_opengles_v2_object@pecker_sdk@@6B@ ; pecker_sdk::pecker_opengles_v2_object::`vftable'
	DD	FLAT:??_Epecker_opengles_v2_object@pecker_sdk@@UAEPAXI@Z
	DD	FLAT:?toString@pecker_render_object@pecker_sdk@@UBEABV?$pecker_share_string_base_t@DU?$pecker_value_compare@D@pecker_sdk@@V?$pecker_simple_allocator@D@2@$0BA@@2@AAV32@@Z
	DD	FLAT:?get_render_system_info@pecker_opengles_v2_object@pecker_sdk@@UBEABUpecker_render_system_info@2@AAU32@@Z
	DD	FLAT:?get_this_reference@pecker_render_object@pecker_sdk@@UAEPAV12@XZ
	DD	FLAT:?release_this_reference@pecker_render_object@pecker_sdk@@UAEJXZ
	DD	FLAT:?get_object_location@pecker_opengles_v2_object@pecker_sdk@@UBEIXZ
; Function compile flags: /Odtp /RTCsu /ZI
CONST	ENDS
;	COMDAT ??0pecker_opengles_v2_object@pecker_sdk@@QAE@XZ
_TEXT	SEGMENT
_this$ = -8						; size = 4
??0pecker_opengles_v2_object@pecker_sdk@@QAE@XZ PROC	; pecker_sdk::pecker_opengles_v2_object::pecker_opengles_v2_object, COMDAT
; _this$ = ecx
	push	ebp
	mov	ebp, esp
	sub	esp, 204				; 000000ccH
	push	ebx
	push	esi
	push	edi
	push	ecx
	lea	edi, DWORD PTR [ebp-204]
	mov	ecx, 51					; 00000033H
	mov	eax, -858993460				; ccccccccH
	rep stosd
	pop	ecx
	mov	DWORD PTR _this$[ebp], ecx
	mov	ecx, DWORD PTR _this$[ebp]
	call	??0pecker_render_object@pecker_sdk@@QAE@XZ ; pecker_sdk::pecker_render_object::pecker_render_object
	mov	eax, DWORD PTR _this$[ebp]
	mov	DWORD PTR [eax], OFFSET ??_7pecker_opengles_v2_object@pecker_sdk@@6B@
	mov	eax, DWORD PTR _this$[ebp]
	pop	edi
	pop	esi
	pop	ebx
	add	esp, 204				; 000000ccH
	cmp	ebp, esp
	call	__RTC_CheckEsp
	mov	esp, ebp
	pop	ebp
	ret	0
??0pecker_opengles_v2_object@pecker_sdk@@QAE@XZ ENDP	; pecker_sdk::pecker_opengles_v2_object::pecker_opengles_v2_object
_TEXT	ENDS
PUBLIC	??_7Ipecker_frame_buffer@pecker_sdk@@6B@	; pecker_sdk::Ipecker_frame_buffer::`vftable'
PUBLIC	??_R4Ipecker_frame_buffer@pecker_sdk@@6B@	; pecker_sdk::Ipecker_frame_buffer::`RTTI Complete Object Locator'
EXTRN	??_EIpecker_frame_buffer@pecker_sdk@@UAEPAXI@Z:PROC ; pecker_sdk::Ipecker_frame_buffer::`vector deleting destructor'
EXTRN	__purecall:PROC
;	COMDAT ??_R4Ipecker_frame_buffer@pecker_sdk@@6B@
rdata$r	SEGMENT
??_R4Ipecker_frame_buffer@pecker_sdk@@6B@ DD 00H	; pecker_sdk::Ipecker_frame_buffer::`RTTI Complete Object Locator'
	DD	00H
	DD	00H
	DD	FLAT:??_R0?AUIpecker_frame_buffer@pecker_sdk@@@8
	DD	FLAT:??_R3Ipecker_frame_buffer@pecker_sdk@@8
rdata$r	ENDS
;	COMDAT ??_7Ipecker_frame_buffer@pecker_sdk@@6B@
CONST	SEGMENT
??_7Ipecker_frame_buffer@pecker_sdk@@6B@ DD FLAT:??_R4Ipecker_frame_buffer@pecker_sdk@@6B@ ; pecker_sdk::Ipecker_frame_buffer::`vftable'
	DD	FLAT:??_EIpecker_frame_buffer@pecker_sdk@@UAEPAXI@Z
	DD	FLAT:__purecall
	DD	FLAT:__purecall
	DD	FLAT:__purecall
	DD	FLAT:__purecall
	DD	FLAT:__purecall
	DD	FLAT:__purecall
; Function compile flags: /Odtp /RTCsu /ZI
CONST	ENDS
;	COMDAT ??0Ipecker_frame_buffer@pecker_sdk@@QAE@XZ
_TEXT	SEGMENT
_this$ = -8						; size = 4
??0Ipecker_frame_buffer@pecker_sdk@@QAE@XZ PROC		; pecker_sdk::Ipecker_frame_buffer::Ipecker_frame_buffer, COMDAT
; _this$ = ecx
	push	ebp
	mov	ebp, esp
	sub	esp, 204				; 000000ccH
	push	ebx
	push	esi
	push	edi
	push	ecx
	lea	edi, DWORD PTR [ebp-204]
	mov	ecx, 51					; 00000033H
	mov	eax, -858993460				; ccccccccH
	rep stosd
	pop	ecx
	mov	DWORD PTR _this$[ebp], ecx
	mov	eax, DWORD PTR _this$[ebp]
	mov	DWORD PTR [eax], OFFSET ??_7Ipecker_frame_buffer@pecker_sdk@@6B@
	mov	eax, DWORD PTR _this$[ebp]
	pop	edi
	pop	esi
	pop	ebx
	mov	esp, ebp
	pop	ebp
	ret	0
??0Ipecker_frame_buffer@pecker_sdk@@QAE@XZ ENDP		; pecker_sdk::Ipecker_frame_buffer::Ipecker_frame_buffer
_TEXT	ENDS
PUBLIC	??1Ipecker_frame_buffer@pecker_sdk@@UAE@XZ	; pecker_sdk::Ipecker_frame_buffer::~Ipecker_frame_buffer
; Function compile flags: /Odtp /RTCsu /ZI
;	COMDAT ??_GIpecker_frame_buffer@pecker_sdk@@UAEPAXI@Z
_TEXT	SEGMENT
_this$ = -8						; size = 4
___flags$ = 8						; size = 4
??_GIpecker_frame_buffer@pecker_sdk@@UAEPAXI@Z PROC	; pecker_sdk::Ipecker_frame_buffer::`scalar deleting destructor', COMDAT
; _this$ = ecx
	push	ebp
	mov	ebp, esp
	sub	esp, 204				; 000000ccH
	push	ebx
	push	esi
	push	edi
	push	ecx
	lea	edi, DWORD PTR [ebp-204]
	mov	ecx, 51					; 00000033H
	mov	eax, -858993460				; ccccccccH
	rep stosd
	pop	ecx
	mov	DWORD PTR _this$[ebp], ecx
	mov	ecx, DWORD PTR _this$[ebp]
	call	??1Ipecker_frame_buffer@pecker_sdk@@UAE@XZ ; pecker_sdk::Ipecker_frame_buffer::~Ipecker_frame_buffer
	mov	eax, DWORD PTR ___flags$[ebp]
	and	eax, 1
	je	SHORT $LN1@scalar@2
	mov	eax, DWORD PTR _this$[ebp]
	push	eax
	call	??3@YAXPAX@Z				; operator delete
	add	esp, 4
$LN1@scalar@2:
	mov	eax, DWORD PTR _this$[ebp]
	pop	edi
	pop	esi
	pop	ebx
	add	esp, 204				; 000000ccH
	cmp	ebp, esp
	call	__RTC_CheckEsp
	mov	esp, ebp
	pop	ebp
	ret	4
??_GIpecker_frame_buffer@pecker_sdk@@UAEPAXI@Z ENDP	; pecker_sdk::Ipecker_frame_buffer::`scalar deleting destructor'
; Function compile flags: /Odtp /RTCsu /ZI
; File f:\codes\pecker_framework_git\pecker_src\pecker_framework\render\render_system\pecker_frame_buffer.h
_TEXT	ENDS
;	COMDAT ??1Ipecker_frame_buffer@pecker_sdk@@UAE@XZ
_TEXT	SEGMENT
_this$ = -8						; size = 4
??1Ipecker_frame_buffer@pecker_sdk@@UAE@XZ PROC		; pecker_sdk::Ipecker_frame_buffer::~Ipecker_frame_buffer, COMDAT
; _this$ = ecx

; 102  : 	virtual ~Ipecker_frame_buffer(){;}

	push	ebp
	mov	ebp, esp
	sub	esp, 204				; 000000ccH
	push	ebx
	push	esi
	push	edi
	push	ecx
	lea	edi, DWORD PTR [ebp-204]
	mov	ecx, 51					; 00000033H
	mov	eax, -858993460				; ccccccccH
	rep stosd
	pop	ecx
	mov	DWORD PTR _this$[ebp], ecx
	mov	eax, DWORD PTR _this$[ebp]
	mov	DWORD PTR [eax], OFFSET ??_7Ipecker_frame_buffer@pecker_sdk@@6B@
	pop	edi
	pop	esi
	pop	ebx
	mov	esp, ebp
	pop	ebp
	ret	0
??1Ipecker_frame_buffer@pecker_sdk@@UAE@XZ ENDP		; pecker_sdk::Ipecker_frame_buffer::~Ipecker_frame_buffer
_TEXT	ENDS
PUBLIC	??1pecker_opengles_v2_object@pecker_sdk@@UAE@XZ	; pecker_sdk::pecker_opengles_v2_object::~pecker_opengles_v2_object
PUBLIC	??1pecker_frame_buffer_gles2@pecker_sdk@@UAE@XZ	; pecker_sdk::pecker_frame_buffer_gles2::~pecker_frame_buffer_gles2
; Function compile flags: /Odtp /RTCsu /ZI
;	COMDAT ??_Dpecker_frame_buffer_gles2@pecker_sdk@@QAEXXZ
_TEXT	SEGMENT
_this$ = -8						; size = 4
??_Dpecker_frame_buffer_gles2@pecker_sdk@@QAEXXZ PROC	; pecker_sdk::pecker_frame_buffer_gles2::`vbase destructor', COMDAT
; _this$ = ecx
	push	ebp
	mov	ebp, esp
	sub	esp, 204				; 000000ccH
	push	ebx
	push	esi
	push	edi
	push	ecx
	lea	edi, DWORD PTR [ebp-204]
	mov	ecx, 51					; 00000033H
	mov	eax, -858993460				; ccccccccH
	rep stosd
	pop	ecx
	mov	DWORD PTR _this$[ebp], ecx
	mov	ecx, DWORD PTR _this$[ebp]
	call	??1pecker_frame_buffer_gles2@pecker_sdk@@UAE@XZ ; pecker_sdk::pecker_frame_buffer_gles2::~pecker_frame_buffer_gles2
	mov	ecx, DWORD PTR _this$[ebp]
	add	ecx, 16					; 00000010H
	call	??1pecker_opengles_v2_object@pecker_sdk@@UAE@XZ
	pop	edi
	pop	esi
	pop	ebx
	add	esp, 204				; 000000ccH
	cmp	ebp, esp
	call	__RTC_CheckEsp
	mov	esp, ebp
	pop	ebp
	ret	0
??_Dpecker_frame_buffer_gles2@pecker_sdk@@QAEXXZ ENDP	; pecker_sdk::pecker_frame_buffer_gles2::`vbase destructor'
_TEXT	ENDS
EXTRN	??1pecker_render_object@pecker_sdk@@UAE@XZ:PROC	; pecker_sdk::pecker_render_object::~pecker_render_object
; Function compile flags: /Odtp /RTCsu /ZI
;	COMDAT ??1pecker_opengles_v2_object@pecker_sdk@@UAE@XZ
_TEXT	SEGMENT
_this$ = -8						; size = 4
??1pecker_opengles_v2_object@pecker_sdk@@UAE@XZ PROC	; pecker_sdk::pecker_opengles_v2_object::~pecker_opengles_v2_object, COMDAT
; _this$ = ecx
	push	ebp
	mov	ebp, esp
	sub	esp, 204				; 000000ccH
	push	ebx
	push	esi
	push	edi
	push	ecx
	lea	edi, DWORD PTR [ebp-204]
	mov	ecx, 51					; 00000033H
	mov	eax, -858993460				; ccccccccH
	rep stosd
	pop	ecx
	mov	DWORD PTR _this$[ebp], ecx
	mov	ecx, DWORD PTR _this$[ebp]
	call	??1pecker_render_object@pecker_sdk@@UAE@XZ ; pecker_sdk::pecker_render_object::~pecker_render_object
	pop	edi
	pop	esi
	pop	ebx
	add	esp, 204				; 000000ccH
	cmp	ebp, esp
	call	__RTC_CheckEsp
	mov	esp, ebp
	pop	ebp
	ret	0
??1pecker_opengles_v2_object@pecker_sdk@@UAE@XZ ENDP	; pecker_sdk::pecker_opengles_v2_object::~pecker_opengles_v2_object
; Function compile flags: /Odtp /RTCsu /ZI
_TEXT	ENDS
;	COMDAT ??_Gpecker_opengles_v2_object@pecker_sdk@@UAEPAXI@Z
_TEXT	SEGMENT
_this$ = -8						; size = 4
___flags$ = 8						; size = 4
??_Gpecker_opengles_v2_object@pecker_sdk@@UAEPAXI@Z PROC ; pecker_sdk::pecker_opengles_v2_object::`scalar deleting destructor', COMDAT
; _this$ = ecx
	push	ebp
	mov	ebp, esp
	sub	esp, 204				; 000000ccH
	push	ebx
	push	esi
	push	edi
	push	ecx
	lea	edi, DWORD PTR [ebp-204]
	mov	ecx, 51					; 00000033H
	mov	eax, -858993460				; ccccccccH
	rep stosd
	pop	ecx
	mov	DWORD PTR _this$[ebp], ecx
	mov	ecx, DWORD PTR _this$[ebp]
	call	??1pecker_opengles_v2_object@pecker_sdk@@UAE@XZ
	mov	eax, DWORD PTR ___flags$[ebp]
	and	eax, 1
	je	SHORT $LN1@scalar@3
	mov	eax, DWORD PTR _this$[ebp]
	push	eax
	call	??3@YAXPAX@Z				; operator delete
	add	esp, 4
$LN1@scalar@3:
	mov	eax, DWORD PTR _this$[ebp]
	pop	edi
	pop	esi
	pop	ebx
	add	esp, 204				; 000000ccH
	cmp	ebp, esp
	call	__RTC_CheckEsp
	mov	esp, ebp
	pop	ebp
	ret	4
??_Gpecker_opengles_v2_object@pecker_sdk@@UAEPAXI@Z ENDP ; pecker_sdk::pecker_opengles_v2_object::`scalar deleting destructor'
_TEXT	ENDS
EXTRN	___security_cookie:DWORD
EXTRN	___CxxFrameHandler3:PROC
EXTRN	@__security_check_cookie@4:PROC
;	COMDAT xdata$x
; File f:\codes\pecker_framework_git\pecker_src\pecker_framework\render\render_system\opengles\pecker_frame_buffer_gl.cpp
xdata$x	SEGMENT
__unwindtable$??1pecker_frame_buffer_gles2@pecker_sdk@@UAE@XZ DD 0ffffffffH
	DD	FLAT:__unwindfunclet$??1pecker_frame_buffer_gles2@pecker_sdk@@UAE@XZ$0
__ehfuncinfo$??1pecker_frame_buffer_gles2@pecker_sdk@@UAE@XZ DD 019930522H
	DD	01H
	DD	FLAT:__unwindtable$??1pecker_frame_buffer_gles2@pecker_sdk@@UAE@XZ
	DD	2 DUP(00H)
	DD	2 DUP(00H)
	DD	00H
	DD	01H
; Function compile flags: /Odtp /RTCsu /ZI
xdata$x	ENDS
;	COMDAT ??1pecker_frame_buffer_gles2@pecker_sdk@@UAE@XZ
_TEXT	SEGMENT
_this$ = -20						; size = 4
__$EHRec$ = -12						; size = 12
??1pecker_frame_buffer_gles2@pecker_sdk@@UAE@XZ PROC	; pecker_sdk::pecker_frame_buffer_gles2::~pecker_frame_buffer_gles2, COMDAT
; _this$ = ecx

; 32   : {

	push	ebp
	mov	ebp, esp
	push	-1
	push	__ehhandler$??1pecker_frame_buffer_gles2@pecker_sdk@@UAE@XZ
	mov	eax, DWORD PTR fs:0
	push	eax
	sub	esp, 204				; 000000ccH
	push	ebx
	push	esi
	push	edi
	push	ecx
	lea	edi, DWORD PTR [ebp-216]
	mov	ecx, 51					; 00000033H
	mov	eax, -858993460				; ccccccccH
	rep stosd
	pop	ecx
	mov	eax, DWORD PTR ___security_cookie
	xor	eax, ebp
	push	eax
	lea	eax, DWORD PTR __$EHRec$[ebp]
	mov	DWORD PTR fs:0, eax
	mov	DWORD PTR _this$[ebp], ecx
	mov	eax, DWORD PTR _this$[ebp]
	mov	DWORD PTR [eax], OFFSET ??_7pecker_frame_buffer_gles2@pecker_sdk@@6BIpecker_frame_buffer@1@@
	mov	eax, DWORD PTR _this$[ebp]
	mov	ecx, DWORD PTR [eax+4]
	mov	edx, DWORD PTR [ecx+4]
	mov	eax, DWORD PTR _this$[ebp]
	mov	DWORD PTR [eax+edx+4], OFFSET ??_7pecker_frame_buffer_gles2@pecker_sdk@@6Bpecker_opengles_v2_object@1@@
	mov	eax, DWORD PTR _this$[ebp]
	mov	ecx, DWORD PTR [eax+4]
	mov	edx, DWORD PTR [ecx+4]
	sub	edx, 12					; 0000000cH
	mov	eax, DWORD PTR _this$[ebp]
	mov	ecx, DWORD PTR [eax+4]
	mov	eax, DWORD PTR [ecx+4]
	mov	ecx, DWORD PTR _this$[ebp]
	mov	DWORD PTR [ecx+eax], edx
	mov	DWORD PTR __$EHRec$[ebp+8], 0

; 33   : 	release_buffer_from_gpu_ram();

	mov	ecx, DWORD PTR _this$[ebp]
	call	?release_buffer_from_gpu_ram@pecker_frame_buffer_gles2@pecker_sdk@@UAEJXZ ; pecker_sdk::pecker_frame_buffer_gles2::release_buffer_from_gpu_ram

; 34   : 	_M_gpu_target = 0;

	mov	eax, DWORD PTR _this$[ebp]
	mov	DWORD PTR [eax+8], 0

; 35   : }

	mov	DWORD PTR __$EHRec$[ebp+8], -1
	mov	ecx, DWORD PTR _this$[ebp]
	call	??1Ipecker_frame_buffer@pecker_sdk@@UAE@XZ ; pecker_sdk::Ipecker_frame_buffer::~Ipecker_frame_buffer
	mov	ecx, DWORD PTR __$EHRec$[ebp]
	mov	DWORD PTR fs:0, ecx
	pop	ecx
	pop	edi
	pop	esi
	pop	ebx
	add	esp, 216				; 000000d8H
	cmp	ebp, esp
	call	__RTC_CheckEsp
	mov	esp, ebp
	pop	ebp
	ret	0
_TEXT	ENDS
;	COMDAT text$x
text$x	SEGMENT
__unwindfunclet$??1pecker_frame_buffer_gles2@pecker_sdk@@UAE@XZ$0:
	mov	ecx, DWORD PTR _this$[ebp]
	jmp	??1Ipecker_frame_buffer@pecker_sdk@@UAE@XZ ; pecker_sdk::Ipecker_frame_buffer::~Ipecker_frame_buffer
__ehhandler$??1pecker_frame_buffer_gles2@pecker_sdk@@UAE@XZ:
	mov	edx, DWORD PTR [esp+8]
	lea	eax, DWORD PTR [edx+12]
	mov	ecx, DWORD PTR [edx-220]
	xor	ecx, eax
	call	@__security_check_cookie@4
	mov	eax, OFFSET __ehfuncinfo$??1pecker_frame_buffer_gles2@pecker_sdk@@UAE@XZ
	jmp	___CxxFrameHandler3
text$x	ENDS
??1pecker_frame_buffer_gles2@pecker_sdk@@UAE@XZ ENDP	; pecker_sdk::pecker_frame_buffer_gles2::~pecker_frame_buffer_gles2
EXTRN	?get_last_error_code@pecker_opengles_v2_object@pecker_sdk@@SAJXZ:PROC ; pecker_sdk::pecker_opengles_v2_object::get_last_error_code
EXTRN	__imp__glGenFramebuffers@8:PROC
; Function compile flags: /Odtp /RTCsu /ZI
;	COMDAT ?allocate_buffer_from_gpu_ram@pecker_frame_buffer_gles2@pecker_sdk@@UAEJXZ
_TEXT	SEGMENT
_this$ = -8						; size = 4
?allocate_buffer_from_gpu_ram@pecker_frame_buffer_gles2@pecker_sdk@@UAEJXZ PROC ; pecker_sdk::pecker_frame_buffer_gles2::allocate_buffer_from_gpu_ram, COMDAT
; _this$ = ecx

; 38   : {

	push	ebp
	mov	ebp, esp
	sub	esp, 204				; 000000ccH
	push	ebx
	push	esi
	push	edi
	push	ecx
	lea	edi, DWORD PTR [ebp-204]
	mov	ecx, 51					; 00000033H
	mov	eax, -858993460				; ccccccccH
	rep stosd
	pop	ecx
	mov	DWORD PTR _this$[ebp], ecx

; 39   : 	if (0 == _M_gpu_target)

	mov	eax, DWORD PTR _this$[ebp]
	cmp	DWORD PTR [eax+8], 0
	jne	SHORT $LN1@allocate_b

; 40   : 	{
; 41   : 		glGenFramebuffers(1,&_M_gpu_target);

	mov	eax, DWORD PTR _this$[ebp]
	add	eax, 8
	mov	esi, esp
	push	eax
	push	1
	call	DWORD PTR __imp__glGenFramebuffers@8
	cmp	esi, esp
	call	__RTC_CheckEsp

; 42   : 		return pecker_opengles_v2_object::get_last_error_code();

	call	?get_last_error_code@pecker_opengles_v2_object@pecker_sdk@@SAJXZ ; pecker_sdk::pecker_opengles_v2_object::get_last_error_code
	jmp	SHORT $LN2@allocate_b
$LN1@allocate_b:

; 43   : 	}
; 44   : 	return P_UNIQUE_ERR;

	mov	eax, -4					; fffffffcH
$LN2@allocate_b:

; 45   : }

	pop	edi
	pop	esi
	pop	ebx
	add	esp, 204				; 000000ccH
	cmp	ebp, esp
	call	__RTC_CheckEsp
	mov	esp, ebp
	pop	ebp
	ret	0
?allocate_buffer_from_gpu_ram@pecker_frame_buffer_gles2@pecker_sdk@@UAEJXZ ENDP ; pecker_sdk::pecker_frame_buffer_gles2::allocate_buffer_from_gpu_ram
_TEXT	ENDS
EXTRN	__imp__glDeleteFramebuffers@8:PROC
; Function compile flags: /Odtp /RTCsu /ZI
;	COMDAT ?release_buffer_from_gpu_ram@pecker_frame_buffer_gles2@pecker_sdk@@UAEJXZ
_TEXT	SEGMENT
_this$ = -8						; size = 4
?release_buffer_from_gpu_ram@pecker_frame_buffer_gles2@pecker_sdk@@UAEJXZ PROC ; pecker_sdk::pecker_frame_buffer_gles2::release_buffer_from_gpu_ram, COMDAT
; _this$ = ecx

; 48   : {

	push	ebp
	mov	ebp, esp
	sub	esp, 204				; 000000ccH
	push	ebx
	push	esi
	push	edi
	push	ecx
	lea	edi, DWORD PTR [ebp-204]
	mov	ecx, 51					; 00000033H
	mov	eax, -858993460				; ccccccccH
	rep stosd
	pop	ecx
	mov	DWORD PTR _this$[ebp], ecx

; 49   : 	if (0 != _M_gpu_target)

	mov	eax, DWORD PTR _this$[ebp]
	cmp	DWORD PTR [eax+8], 0
	je	SHORT $LN1@release_bu

; 50   : 	{
; 51   : 		glDeleteFramebuffers(1,&_M_gpu_target);

	mov	eax, DWORD PTR _this$[ebp]
	add	eax, 8
	mov	esi, esp
	push	eax
	push	1
	call	DWORD PTR __imp__glDeleteFramebuffers@8
	cmp	esi, esp
	call	__RTC_CheckEsp

; 52   : 		return pecker_opengles_v2_object::get_last_error_code();

	call	?get_last_error_code@pecker_opengles_v2_object@pecker_sdk@@SAJXZ ; pecker_sdk::pecker_opengles_v2_object::get_last_error_code
	jmp	SHORT $LN2@release_bu
$LN1@release_bu:

; 53   : 	}
; 54   : 	return P_UNIQUE_ERR;

	mov	eax, -4					; fffffffcH
$LN2@release_bu:

; 55   : }

	pop	edi
	pop	esi
	pop	ebx
	add	esp, 204				; 000000ccH
	cmp	ebp, esp
	call	__RTC_CheckEsp
	mov	esp, ebp
	pop	ebp
	ret	0
?release_buffer_from_gpu_ram@pecker_frame_buffer_gles2@pecker_sdk@@UAEJXZ ENDP ; pecker_sdk::pecker_frame_buffer_gles2::release_buffer_from_gpu_ram
_TEXT	ENDS
PUBLIC	?get_object_location@pecker_frame_buffer_gles2@pecker_sdk@@UBEIXZ ; pecker_sdk::pecker_frame_buffer_gles2::get_object_location
; Function compile flags: /Odtp /RTCsu /ZI
;	COMDAT ?get_object_location@pecker_frame_buffer_gles2@pecker_sdk@@UBEIXZ
_TEXT	SEGMENT
_this$ = -8						; size = 4
?get_object_location@pecker_frame_buffer_gles2@pecker_sdk@@UBEIXZ PROC ; pecker_sdk::pecker_frame_buffer_gles2::get_object_location, COMDAT
; _this$ = ecx

; 58   : {

	push	ebp
	mov	ebp, esp
	sub	esp, 204				; 000000ccH
	push	ebx
	push	esi
	push	edi
	push	ecx
	lea	edi, DWORD PTR [ebp-204]
	mov	ecx, 51					; 00000033H
	mov	eax, -858993460				; ccccccccH
	rep stosd
	pop	ecx
	mov	DWORD PTR _this$[ebp], ecx

; 59   : 	return _M_gpu_target;

	mov	eax, DWORD PTR _this$[ebp]
	mov	eax, DWORD PTR [eax-8]

; 60   : }

	pop	edi
	pop	esi
	pop	ebx
	mov	esp, ebp
	pop	ebp
	ret	0
?get_object_location@pecker_frame_buffer_gles2@pecker_sdk@@UBEIXZ ENDP ; pecker_sdk::pecker_frame_buffer_gles2::get_object_location
_TEXT	ENDS
PUBLIC	??_R0?AUIpecker_render_buffer@pecker_sdk@@@8	; pecker_sdk::Ipecker_render_buffer `RTTI Type Descriptor'
EXTRN	__imp__glFramebufferRenderbuffer@16:PROC
EXTRN	__imp__glBindFramebuffer@8:PROC
EXTRN	___RTDynamicCast:PROC
;	COMDAT ??_R0?AUIpecker_render_buffer@pecker_sdk@@@8
_DATA	SEGMENT
??_R0?AUIpecker_render_buffer@pecker_sdk@@@8 DD FLAT:??_7type_info@@6B@ ; pecker_sdk::Ipecker_render_buffer `RTTI Type Descriptor'
	DD	00H
	DB	'.?AUIpecker_render_buffer@pecker_sdk@@', 00H
; Function compile flags: /Odtp /RTCsu /ZI
_DATA	ENDS
;	COMDAT ?attach_render_buffer@pecker_frame_buffer_gles2@pecker_sdk@@UAEJPAUIpecker_render_buffer@2@I@Z
_TEXT	SEGMENT
_result_$ = -44						; size = 4
_pgles2_object$ = -32					; size = 4
_render_buffer_type$ = -20				; size = 4
_this$ = -8						; size = 4
_prender_buffer$ = 8					; size = 4
_attach_index$ = 12					; size = 4
?attach_render_buffer@pecker_frame_buffer_gles2@pecker_sdk@@UAEJPAUIpecker_render_buffer@2@I@Z PROC ; pecker_sdk::pecker_frame_buffer_gles2::attach_render_buffer, COMDAT
; _this$ = ecx

; 63   : {

	push	ebp
	mov	ebp, esp
	sub	esp, 240				; 000000f0H
	push	ebx
	push	esi
	push	edi
	push	ecx
	lea	edi, DWORD PTR [ebp-240]
	mov	ecx, 60					; 0000003cH
	mov	eax, -858993460				; ccccccccH
	rep stosd
	pop	ecx
	mov	DWORD PTR _this$[ebp], ecx

; 64   : 	if (null == prender_buffer)

	cmp	DWORD PTR _prender_buffer$[ebp], 0
	jne	SHORT $LN6@attach_ren

; 65   : 	{
; 66   : 		return P_INVALID_VALUE;

	mov	eax, -2					; fffffffeH
	jmp	$LN7@attach_ren
$LN6@attach_ren:

; 67   : 	}
; 68   : 	
; 69   : 	HEnum render_buffer_type = prender_buffer->get_frame_buffer_object_type();

	mov	eax, DWORD PTR _prender_buffer$[ebp]
	mov	edx, DWORD PTR [eax]
	mov	esi, esp
	mov	ecx, DWORD PTR _prender_buffer$[ebp]
	mov	eax, DWORD PTR [edx+12]
	call	eax
	cmp	esi, esp
	call	__RTC_CheckEsp
	mov	DWORD PTR _render_buffer_type$[ebp], eax

; 70   : 	if (render_buffer_type > 2 || (attach_index < 0 || attach_index >= RENDER_BUFFER_MAX_ATTCHMENT_INDEX_INFO[render_buffer_type]))

	cmp	DWORD PTR _render_buffer_type$[ebp], 2
	ja	SHORT $LN4@attach_ren
	cmp	DWORD PTR _attach_index$[ebp], 0
	jb	SHORT $LN4@attach_ren
	mov	eax, DWORD PTR _render_buffer_type$[ebp]
	mov	ecx, DWORD PTR _attach_index$[ebp]
	cmp	ecx, DWORD PTR _RENDER_BUFFER_MAX_ATTCHMENT_INDEX_INFO[eax*4]
	jb	SHORT $LN5@attach_ren
$LN4@attach_ren:

; 71   : 	{
; 72   : 		return P_INVALID_VALUE;

	mov	eax, -2					; fffffffeH
	jmp	$LN7@attach_ren
$LN5@attach_ren:

; 73   : 	}
; 74   : 
; 75   : 	pecker_opengles_v2_object* pgles2_object = dynamic_cast< pecker_opengles_v2_object* > (prender_buffer);

	push	0
	push	OFFSET ??_R0?AVpecker_opengles_v2_object@pecker_sdk@@@8
	push	OFFSET ??_R0?AUIpecker_render_buffer@pecker_sdk@@@8
	push	0
	mov	eax, DWORD PTR _prender_buffer$[ebp]
	push	eax
	call	___RTDynamicCast
	add	esp, 20					; 00000014H
	mov	DWORD PTR _pgles2_object$[ebp], eax

; 76   : 	if (null == pgles2_object)

	cmp	DWORD PTR _pgles2_object$[ebp], 0
	jne	SHORT $LN2@attach_ren

; 77   : 	{
; 78   : 		return P_INVALID_VALUE;

	mov	eax, -2					; fffffffeH
	jmp	SHORT $LN7@attach_ren
$LN2@attach_ren:

; 79   : 	}
; 80   : 
; 81   : 	if (0 == _M_gpu_target)

	mov	eax, DWORD PTR _this$[ebp]
	cmp	DWORD PTR [eax+8], 0
	jne	SHORT $LN1@attach_ren

; 82   : 	{
; 83   : 		return P_FAIL;

	mov	eax, 1
	jmp	SHORT $LN7@attach_ren
$LN1@attach_ren:

; 84   : 	}
; 85   : 
; 86   : 	glBindFramebuffer(GL_FRAMEBUFFER,_M_gpu_target);

	mov	esi, esp
	mov	eax, DWORD PTR _this$[ebp]
	mov	ecx, DWORD PTR [eax+8]
	push	ecx
	push	36160					; 00008d40H
	call	DWORD PTR __imp__glBindFramebuffer@8
	cmp	esi, esp
	call	__RTC_CheckEsp

; 87   : 	glFramebufferRenderbuffer(GL_FRAMEBUFFER,
; 88   : 		RENDER_BUFFER_ATTCHMENT_INDEX_TABLE[render_buffer_type][attach_index],
; 89   : 		GL_RENDERBUFFER,pgles2_object->get_object_location());

	mov	eax, DWORD PTR _pgles2_object$[ebp]
	mov	edx, DWORD PTR [eax]
	mov	esi, esp
	mov	ecx, DWORD PTR _pgles2_object$[ebp]
	mov	eax, DWORD PTR [edx+20]
	call	eax
	cmp	esi, esp
	call	__RTC_CheckEsp
	mov	esi, esp
	push	eax
	push	36161					; 00008d41H
	mov	ecx, DWORD PTR _attach_index$[ebp]
	shl	ecx, 2
	mov	edx, DWORD PTR _render_buffer_type$[ebp]
	mov	eax, DWORD PTR _RENDER_BUFFER_ATTCHMENT_INDEX_TABLE[ecx+edx*4]
	push	eax
	push	36160					; 00008d40H
	call	DWORD PTR __imp__glFramebufferRenderbuffer@16
	cmp	esi, esp
	call	__RTC_CheckEsp

; 90   : 
; 91   : 	HResult result_ = pecker_opengles_v2_object::get_last_error_code();

	call	?get_last_error_code@pecker_opengles_v2_object@pecker_sdk@@SAJXZ ; pecker_sdk::pecker_opengles_v2_object::get_last_error_code
	mov	DWORD PTR _result_$[ebp], eax

; 92   : 	return result_;

	mov	eax, DWORD PTR _result_$[ebp]
$LN7@attach_ren:

; 93   : }

	pop	edi
	pop	esi
	pop	ebx
	add	esp, 240				; 000000f0H
	cmp	ebp, esp
	call	__RTC_CheckEsp
	mov	esp, ebp
	pop	ebp
	ret	8
?attach_render_buffer@pecker_frame_buffer_gles2@pecker_sdk@@UAEJPAUIpecker_render_buffer@2@I@Z ENDP ; pecker_sdk::pecker_frame_buffer_gles2::attach_render_buffer
_TEXT	ENDS
PUBLIC	??_R0?AUIpecker_texture_cube@pecker_sdk@@@8	; pecker_sdk::Ipecker_texture_cube `RTTI Type Descriptor'
PUBLIC	??_R0?AUIpecker_texture@pecker_sdk@@@8		; pecker_sdk::Ipecker_texture `RTTI Type Descriptor'
EXTRN	__imp__glFramebufferTexture2D@20:PROC
;	COMDAT ??_R0?AUIpecker_texture_cube@pecker_sdk@@@8
_DATA	SEGMENT
??_R0?AUIpecker_texture_cube@pecker_sdk@@@8 DD FLAT:??_7type_info@@6B@ ; pecker_sdk::Ipecker_texture_cube `RTTI Type Descriptor'
	DD	00H
	DB	'.?AUIpecker_texture_cube@pecker_sdk@@', 00H
_DATA	ENDS
;	COMDAT ??_R0?AUIpecker_texture@pecker_sdk@@@8
_DATA	SEGMENT
??_R0?AUIpecker_texture@pecker_sdk@@@8 DD FLAT:??_7type_info@@6B@ ; pecker_sdk::Ipecker_texture `RTTI Type Descriptor'
	DD	00H
	DB	'.?AUIpecker_texture@pecker_sdk@@', 00H
; Function compile flags: /Odtp /RTCsu /ZI
_DATA	ENDS
;	COMDAT ?attach_texture@pecker_frame_buffer_gles2@pecker_sdk@@UAEJPAUIpecker_texture@2@I@Z
_TEXT	SEGMENT
tv91 = -280						; size = 4
_pcube_texture$68660 = -80				; size = 4
_result_$ = -68						; size = 4
_texture_type$ = -56					; size = 4
_attachment$ = -44					; size = 4
_pgles2_object$ = -32					; size = 4
_render_type$ = -20					; size = 4
_this$ = -8						; size = 4
_ptexture$ = 8						; size = 4
_attach_index$ = 12					; size = 4
?attach_texture@pecker_frame_buffer_gles2@pecker_sdk@@UAEJPAUIpecker_texture@2@I@Z PROC ; pecker_sdk::pecker_frame_buffer_gles2::attach_texture, COMDAT
; _this$ = ecx

; 96   : {

	push	ebp
	mov	ebp, esp
	sub	esp, 280				; 00000118H
	push	ebx
	push	esi
	push	edi
	push	ecx
	lea	edi, DWORD PTR [ebp-280]
	mov	ecx, 70					; 00000046H
	mov	eax, -858993460				; ccccccccH
	rep stosd
	pop	ecx
	mov	DWORD PTR _this$[ebp], ecx

; 97   : 	if (null == ptexture)

	cmp	DWORD PTR _ptexture$[ebp], 0
	jne	SHORT $LN13@attach_tex

; 98   : 	{
; 99   : 		return P_INVALID_VALUE;

	mov	eax, -2					; fffffffeH
	jmp	$LN14@attach_tex
$LN13@attach_tex:

; 100  : 	}
; 101  : 
; 102  : 	HEnum render_type = ptexture->get_render_type();

	mov	eax, DWORD PTR _ptexture$[ebp]
	mov	edx, DWORD PTR [eax]
	mov	esi, esp
	mov	ecx, DWORD PTR _ptexture$[ebp]
	mov	eax, DWORD PTR [edx+72]
	call	eax
	cmp	esi, esp
	call	__RTC_CheckEsp
	mov	DWORD PTR _render_type$[ebp], eax

; 103  : 	if (render_type >= 2 || (attach_index < 0 || attach_index >= RENDER_BUFFER_MAX_ATTCHMENT_INDEX_INFO[render_type]))

	cmp	DWORD PTR _render_type$[ebp], 2
	jae	SHORT $LN11@attach_tex
	cmp	DWORD PTR _attach_index$[ebp], 0
	jb	SHORT $LN11@attach_tex
	mov	eax, DWORD PTR _render_type$[ebp]
	mov	ecx, DWORD PTR _attach_index$[ebp]
	cmp	ecx, DWORD PTR _RENDER_BUFFER_MAX_ATTCHMENT_INDEX_INFO[eax*4]
	jb	SHORT $LN12@attach_tex
$LN11@attach_tex:

; 104  : 	{
; 105  : 		return P_INVALID_VALUE;

	mov	eax, -2					; fffffffeH
	jmp	$LN14@attach_tex
$LN12@attach_tex:

; 106  : 	}
; 107  : 
; 108  : 	pecker_opengles_v2_object* pgles2_object = dynamic_cast< pecker_opengles_v2_object* > (ptexture);

	push	0
	push	OFFSET ??_R0?AVpecker_opengles_v2_object@pecker_sdk@@@8
	push	OFFSET ??_R0?AUIpecker_texture@pecker_sdk@@@8
	push	0
	mov	eax, DWORD PTR _ptexture$[ebp]
	push	eax
	call	___RTDynamicCast
	add	esp, 20					; 00000014H
	mov	DWORD PTR _pgles2_object$[ebp], eax

; 109  : 	if (null == pgles2_object)

	cmp	DWORD PTR _pgles2_object$[ebp], 0
	jne	SHORT $LN9@attach_tex

; 110  : 	{
; 111  : 		return P_INVALID_VALUE;

	mov	eax, -2					; fffffffeH
	jmp	$LN14@attach_tex
$LN9@attach_tex:

; 112  : 	}
; 113  : 
; 114  : 	if (0 == _M_gpu_target)

	mov	eax, DWORD PTR _this$[ebp]
	cmp	DWORD PTR [eax+8], 0
	jne	SHORT $LN8@attach_tex

; 115  : 	{
; 116  : 		return P_FAIL;

	mov	eax, 1
	jmp	$LN14@attach_tex
$LN8@attach_tex:

; 117  : 	}
; 118  : 
; 119  : 	HEnum attachment = RENDER_BUFFER_ATTCHMENT_INDEX_TABLE[render_type][attach_index];

	mov	eax, DWORD PTR _attach_index$[ebp]
	shl	eax, 2
	mov	ecx, DWORD PTR _render_type$[ebp]
	mov	edx, DWORD PTR _RENDER_BUFFER_ATTCHMENT_INDEX_TABLE[eax+ecx*4]
	mov	DWORD PTR _attachment$[ebp], edx

; 120  : 	HEnum texture_type = ptexture->get_texture_type();

	mov	eax, DWORD PTR _ptexture$[ebp]
	mov	edx, DWORD PTR [eax]
	mov	esi, esp
	mov	ecx, DWORD PTR _ptexture$[ebp]
	mov	eax, DWORD PTR [edx+56]
	call	eax
	cmp	esi, esp
	call	__RTC_CheckEsp
	mov	DWORD PTR _texture_type$[ebp], eax

; 121  : 	HResult result_ = P_FAIL;

	mov	DWORD PTR _result_$[ebp], 1

; 122  : 
; 123  : 	
; 124  : 	switch(texture_type)

	mov	eax, DWORD PTR _texture_type$[ebp]
	mov	DWORD PTR tv91[ebp], eax
	cmp	DWORD PTR tv91[ebp], 1
	je	SHORT $LN5@attach_tex
	cmp	DWORD PTR tv91[ebp], 2
	je	$LN4@attach_tex
	cmp	DWORD PTR tv91[ebp], 3
	je	$LN2@attach_tex
	jmp	$LN6@attach_tex
$LN5@attach_tex:

; 125  : 	{
; 126  : 	case TEXTURE_2D_TYPE:
; 127  : 		{
; 128  : 			glBindFramebuffer(GL_FRAMEBUFFER,_M_gpu_target);

	mov	esi, esp
	mov	eax, DWORD PTR _this$[ebp]
	mov	ecx, DWORD PTR [eax+8]
	push	ecx
	push	36160					; 00008d40H
	call	DWORD PTR __imp__glBindFramebuffer@8
	cmp	esi, esp
	call	__RTC_CheckEsp

; 129  : 			glFramebufferTexture2D(GL_FRAMEBUFFER,attachment,GL_TEXTURE_2D,pgles2_object->get_object_location(),ptexture->get_active_miplevel());		

	mov	eax, DWORD PTR _ptexture$[ebp]
	mov	edx, DWORD PTR [eax]
	mov	esi, esp
	mov	ecx, DWORD PTR _ptexture$[ebp]
	mov	eax, DWORD PTR [edx+64]
	call	eax
	cmp	esi, esp
	call	__RTC_CheckEsp
	mov	esi, esp
	push	eax
	mov	ecx, DWORD PTR _pgles2_object$[ebp]
	mov	edx, DWORD PTR [ecx]
	mov	edi, esp
	mov	ecx, DWORD PTR _pgles2_object$[ebp]
	mov	eax, DWORD PTR [edx+20]
	call	eax
	cmp	edi, esp
	call	__RTC_CheckEsp
	push	eax
	push	3553					; 00000de1H
	mov	ecx, DWORD PTR _attachment$[ebp]
	push	ecx
	push	36160					; 00008d40H
	call	DWORD PTR __imp__glFramebufferTexture2D@20
	cmp	esi, esp
	call	__RTC_CheckEsp

; 130  : 			result_ = pecker_opengles_v2_object::get_last_error_code();

	call	?get_last_error_code@pecker_opengles_v2_object@pecker_sdk@@SAJXZ ; pecker_sdk::pecker_opengles_v2_object::get_last_error_code
	mov	DWORD PTR _result_$[ebp], eax

; 131  : 		}
; 132  : 		break;

	jmp	$LN6@attach_tex
$LN4@attach_tex:

; 133  : 	case TEXTURE_CUBE_TYPE:
; 134  : 		{
; 135  : 			Ipecker_texture_cube* pcube_texture = dynamic_cast<Ipecker_texture_cube*>(ptexture);

	push	0
	push	OFFSET ??_R0?AUIpecker_texture_cube@pecker_sdk@@@8
	push	OFFSET ??_R0?AUIpecker_texture@pecker_sdk@@@8
	push	0
	mov	eax, DWORD PTR _ptexture$[ebp]
	push	eax
	call	___RTDynamicCast
	add	esp, 20					; 00000014H
	mov	DWORD PTR _pcube_texture$68660[ebp], eax

; 136  : 			if (null != pcube_texture)

	cmp	DWORD PTR _pcube_texture$68660[ebp], 0
	je	$LN3@attach_tex

; 137  : 			{
; 138  : 				glBindFramebuffer(GL_FRAMEBUFFER,_M_gpu_target);

	mov	esi, esp
	mov	eax, DWORD PTR _this$[ebp]
	mov	ecx, DWORD PTR [eax+8]
	push	ecx
	push	36160					; 00008d40H
	call	DWORD PTR __imp__glBindFramebuffer@8
	cmp	esi, esp
	call	__RTC_CheckEsp

; 139  : 				glFramebufferTexture2D(GL_FRAMEBUFFER,attachment,
; 140  : 					(pcube_texture->get_active_face() + GL_TEXTURE_CUBE_MAP_POSITIVE_X),pgles2_object->get_object_location(),ptexture->get_active_miplevel());		

	mov	eax, DWORD PTR _ptexture$[ebp]
	mov	edx, DWORD PTR [eax]
	mov	esi, esp
	mov	ecx, DWORD PTR _ptexture$[ebp]
	mov	eax, DWORD PTR [edx+64]
	call	eax
	cmp	esi, esp
	call	__RTC_CheckEsp
	mov	esi, esp
	push	eax
	mov	ecx, DWORD PTR _pgles2_object$[ebp]
	mov	edx, DWORD PTR [ecx]
	mov	edi, esp
	mov	ecx, DWORD PTR _pgles2_object$[ebp]
	mov	eax, DWORD PTR [edx+20]
	call	eax
	cmp	edi, esp
	call	__RTC_CheckEsp
	push	eax
	mov	ecx, DWORD PTR _pcube_texture$68660[ebp]
	mov	edx, DWORD PTR [ecx]
	mov	edi, esp
	mov	ecx, DWORD PTR _pcube_texture$68660[ebp]
	mov	eax, DWORD PTR [edx+80]
	call	eax
	cmp	edi, esp
	call	__RTC_CheckEsp
	add	eax, 34069				; 00008515H
	push	eax
	mov	ecx, DWORD PTR _attachment$[ebp]
	push	ecx
	push	36160					; 00008d40H
	call	DWORD PTR __imp__glFramebufferTexture2D@20
	cmp	esi, esp
	call	__RTC_CheckEsp

; 141  : 				result_ = pecker_opengles_v2_object::get_last_error_code();

	call	?get_last_error_code@pecker_opengles_v2_object@pecker_sdk@@SAJXZ ; pecker_sdk::pecker_opengles_v2_object::get_last_error_code
	mov	DWORD PTR _result_$[ebp], eax
$LN3@attach_tex:

; 142  : 			}
; 143  : 		}
; 144  : 		break;

	jmp	SHORT $LN6@attach_tex
$LN2@attach_tex:

; 145  : 	case TEXTURE_3D_TYPE:
; 146  : 		{
; 147  : 			result_ = P_INVALID_ENUM;

	mov	DWORD PTR _result_$[ebp], -1
$LN6@attach_tex:

; 148  : 		}
; 149  : 		break;
; 150  : 	default:
; 151  : 		break;
; 152  : 	}
; 153  : 
; 154  : 	return P_OK;

	xor	eax, eax
$LN14@attach_tex:

; 155  : }

	pop	edi
	pop	esi
	pop	ebx
	add	esp, 280				; 00000118H
	cmp	ebp, esp
	call	__RTC_CheckEsp
	mov	esp, ebp
	pop	ebp
	ret	8
?attach_texture@pecker_frame_buffer_gles2@pecker_sdk@@UAEJPAUIpecker_texture@2@I@Z ENDP ; pecker_sdk::pecker_frame_buffer_gles2::attach_texture
_TEXT	ENDS
PUBLIC	??_R0?AUIpecker_frame_buffer_object@pecker_sdk@@@8 ; pecker_sdk::Ipecker_frame_buffer_object `RTTI Type Descriptor'
;	COMDAT ??_R0?AUIpecker_frame_buffer_object@pecker_sdk@@@8
_DATA	SEGMENT
??_R0?AUIpecker_frame_buffer_object@pecker_sdk@@@8 DD FLAT:??_7type_info@@6B@ ; pecker_sdk::Ipecker_frame_buffer_object `RTTI Type Descriptor'
	DD	00H
	DB	'.?AUIpecker_frame_buffer_object@pecker_sdk@@', 00H
; Function compile flags: /Odtp /RTCsu /ZI
_DATA	ENDS
;	COMDAT ?attach_frame_buffer_object@pecker_frame_buffer_gles2@pecker_sdk@@UAEJPAUIpecker_frame_buffer_object@2@I@Z
_TEXT	SEGMENT
tv69 = -256						; size = 4
_ptexture$68683 = -56					; size = 4
_prender_buffer$68679 = -44				; size = 4
_result_$ = -32						; size = 4
_render_buffer_object_type$ = -20			; size = 4
_this$ = -8						; size = 4
_pframe_buffer_object$ = 8				; size = 4
_attach_index$ = 12					; size = 4
?attach_frame_buffer_object@pecker_frame_buffer_gles2@pecker_sdk@@UAEJPAUIpecker_frame_buffer_object@2@I@Z PROC ; pecker_sdk::pecker_frame_buffer_gles2::attach_frame_buffer_object, COMDAT
; _this$ = ecx

; 158  : {

	push	ebp
	mov	ebp, esp
	sub	esp, 256				; 00000100H
	push	ebx
	push	esi
	push	edi
	push	ecx
	lea	edi, DWORD PTR [ebp-256]
	mov	ecx, 64					; 00000040H
	mov	eax, -858993460				; ccccccccH
	rep stosd
	pop	ecx
	mov	DWORD PTR _this$[ebp], ecx

; 159  : 	if (null != pframe_buffer_object)

	cmp	DWORD PTR _pframe_buffer_object$[ebp], 0
	je	SHORT $LN6@attach_fra

; 160  : 	{
; 161  : 		return P_INVALID_VALUE;

	mov	eax, -2					; fffffffeH
	jmp	$LN7@attach_fra
$LN6@attach_fra:

; 162  : 	}
; 163  : 	HEnum render_buffer_object_type = pframe_buffer_object->get_frame_buffer_object_type();

	mov	eax, DWORD PTR _pframe_buffer_object$[ebp]
	mov	edx, DWORD PTR [eax]
	mov	esi, esp
	mov	ecx, DWORD PTR _pframe_buffer_object$[ebp]
	mov	eax, DWORD PTR [edx+12]
	call	eax
	cmp	esi, esp
	call	__RTC_CheckEsp
	mov	DWORD PTR _render_buffer_object_type$[ebp], eax

; 164  : 	HResult result_ = P_FAIL;

	mov	DWORD PTR _result_$[ebp], 1

; 165  : 	switch(render_buffer_object_type)

	mov	eax, DWORD PTR _render_buffer_object_type$[ebp]
	mov	DWORD PTR tv69[ebp], eax
	cmp	DWORD PTR tv69[ebp], 0
	jb	$LN1@attach_fra
	cmp	DWORD PTR tv69[ebp], 2
	jbe	SHORT $LN3@attach_fra
	cmp	DWORD PTR tv69[ebp], 3
	je	SHORT $LN2@attach_fra
	jmp	SHORT $LN1@attach_fra
$LN3@attach_fra:

; 166  : 	{
; 167  : 	case COLOR_BUFFER_TYPE:
; 168  : 	case DEPTH_BUFFER_TYPE:
; 169  : 	case STENCIL_BUFFER_TYPE:
; 170  : 		{
; 171  : 			Ipecker_render_buffer* prender_buffer = dynamic_cast<Ipecker_render_buffer*>(pframe_buffer_object);

	push	0
	push	OFFSET ??_R0?AUIpecker_render_buffer@pecker_sdk@@@8
	push	OFFSET ??_R0?AUIpecker_frame_buffer_object@pecker_sdk@@@8
	push	0
	mov	eax, DWORD PTR _pframe_buffer_object$[ebp]
	push	eax
	call	___RTDynamicCast
	add	esp, 20					; 00000014H
	mov	DWORD PTR _prender_buffer$68679[ebp], eax

; 172  : 			result_ = attach_render_buffer(prender_buffer,attach_index);

	mov	esi, esp
	mov	eax, DWORD PTR _attach_index$[ebp]
	push	eax
	mov	ecx, DWORD PTR _prender_buffer$68679[ebp]
	push	ecx
	mov	edx, DWORD PTR _this$[ebp]
	mov	eax, DWORD PTR [edx]
	mov	ecx, DWORD PTR _this$[ebp]
	mov	edx, DWORD PTR [eax+12]
	call	edx
	cmp	esi, esp
	call	__RTC_CheckEsp
	mov	DWORD PTR _result_$[ebp], eax

; 173  : 		}
; 174  : 		break;

	jmp	SHORT $LN4@attach_fra
$LN2@attach_fra:

; 175  : 	case TEXTURE_BUFFER_TYPE:
; 176  : 		{
; 177  : 			Ipecker_texture* ptexture = dynamic_cast<Ipecker_texture*>(pframe_buffer_object);

	push	0
	push	OFFSET ??_R0?AUIpecker_texture@pecker_sdk@@@8
	push	OFFSET ??_R0?AUIpecker_frame_buffer_object@pecker_sdk@@@8
	push	0
	mov	eax, DWORD PTR _pframe_buffer_object$[ebp]
	push	eax
	call	___RTDynamicCast
	add	esp, 20					; 00000014H
	mov	DWORD PTR _ptexture$68683[ebp], eax

; 178  : 			result_ = attach_texture(ptexture,attach_index);

	mov	esi, esp
	mov	eax, DWORD PTR _attach_index$[ebp]
	push	eax
	mov	ecx, DWORD PTR _ptexture$68683[ebp]
	push	ecx
	mov	edx, DWORD PTR _this$[ebp]
	mov	eax, DWORD PTR [edx]
	mov	ecx, DWORD PTR _this$[ebp]
	mov	edx, DWORD PTR [eax+16]
	call	edx
	cmp	esi, esp
	call	__RTC_CheckEsp
	mov	DWORD PTR _result_$[ebp], eax
$LN1@attach_fra:

; 179  : 		}
; 180  : 	default:
; 181  : 		result_ = P_INVALID_VALUE;

	mov	DWORD PTR _result_$[ebp], -2		; fffffffeH
$LN4@attach_fra:

; 182  : 		break;
; 183  : 	}
; 184  : 	return P_OK;

	xor	eax, eax
$LN7@attach_fra:

; 185  : }

	pop	edi
	pop	esi
	pop	ebx
	add	esp, 256				; 00000100H
	cmp	ebp, esp
	call	__RTC_CheckEsp
	mov	esp, ebp
	pop	ebp
	ret	8
?attach_frame_buffer_object@pecker_frame_buffer_gles2@pecker_sdk@@UAEJPAUIpecker_frame_buffer_object@2@I@Z ENDP ; pecker_sdk::pecker_frame_buffer_gles2::attach_frame_buffer_object
_TEXT	ENDS
EXTRN	__imp__glCheckFramebufferStatus@4:PROC
; Function compile flags: /Odtp /RTCsu /ZI
;	COMDAT ?check_status@pecker_frame_buffer_gles2@pecker_sdk@@UBEIXZ
_TEXT	SEGMENT
_status$68690 = -20					; size = 4
_this$ = -8						; size = 4
?check_status@pecker_frame_buffer_gles2@pecker_sdk@@UBEIXZ PROC ; pecker_sdk::pecker_frame_buffer_gles2::check_status, COMDAT
; _this$ = ecx

; 188  : {

	push	ebp
	mov	ebp, esp
	sub	esp, 216				; 000000d8H
	push	ebx
	push	esi
	push	edi
	push	ecx
	lea	edi, DWORD PTR [ebp-216]
	mov	ecx, 54					; 00000036H
	mov	eax, -858993460				; ccccccccH
	rep stosd
	pop	ecx
	mov	DWORD PTR _this$[ebp], ecx

; 189  : 	if (0 != _M_gpu_target)

	mov	eax, DWORD PTR _this$[ebp]
	cmp	DWORD PTR [eax+8], 0
	je	SHORT $LN1@check_stat

; 190  : 	{
; 191  : 		glBindFramebuffer(GL_FRAMEBUFFER,_M_gpu_target);

	mov	esi, esp
	mov	eax, DWORD PTR _this$[ebp]
	mov	ecx, DWORD PTR [eax+8]
	push	ecx
	push	36160					; 00008d40H
	call	DWORD PTR __imp__glBindFramebuffer@8
	cmp	esi, esp
	call	__RTC_CheckEsp

; 192  : 		HEnum status = glCheckFramebufferStatus(GL_FRAMEBUFFER);

	mov	esi, esp
	push	36160					; 00008d40H
	call	DWORD PTR __imp__glCheckFramebufferStatus@4
	cmp	esi, esp
	call	__RTC_CheckEsp
	mov	DWORD PTR _status$68690[ebp], eax

; 193  : 		return (status - GL_FRAMEBUFFER_COMPLETE);

	mov	eax, DWORD PTR _status$68690[ebp]
	sub	eax, 36053				; 00008cd5H
	jmp	SHORT $LN2@check_stat
$LN1@check_stat:

; 194  : 	}
; 195  : 	return FRAMEBUFFER_NOT_EXIST;

	mov	eax, 5
$LN2@check_stat:

; 196  : }

	pop	edi
	pop	esi
	pop	ebx
	add	esp, 216				; 000000d8H
	cmp	ebp, esp
	call	__RTC_CheckEsp
	mov	esp, ebp
	pop	ebp
	ret	0
?check_status@pecker_frame_buffer_gles2@pecker_sdk@@UBEIXZ ENDP ; pecker_sdk::pecker_frame_buffer_gles2::check_status
; Function compile flags: /Odtp /RTCsu /ZI
_TEXT	ENDS
;	COMDAT ??_Epecker_frame_buffer_gles2@pecker_sdk@@$4PPPPPPPM@BA@AEPAXI@Z
_TEXT	SEGMENT
??_Epecker_frame_buffer_gles2@pecker_sdk@@$4PPPPPPPM@BA@AEPAXI@Z PROC ; pecker_sdk::pecker_frame_buffer_gles2::`vector deleting destructor', COMDAT
	sub	ecx, DWORD PTR [ecx-4]
	sub	ecx, 16					; 00000010H
	jmp	??_Epecker_frame_buffer_gles2@pecker_sdk@@UAEPAXI@Z
??_Epecker_frame_buffer_gles2@pecker_sdk@@$4PPPPPPPM@BA@AEPAXI@Z ENDP ; pecker_sdk::pecker_frame_buffer_gles2::`vector deleting destructor'
; Function compile flags: /Odtp /RTCsu /ZI
_TEXT	ENDS
;	COMDAT ?get_object_location@pecker_frame_buffer_gles2@pecker_sdk@@$4PPPPPPPM@A@BEIXZ
_TEXT	SEGMENT
?get_object_location@pecker_frame_buffer_gles2@pecker_sdk@@$4PPPPPPPM@A@BEIXZ PROC ; pecker_sdk::pecker_frame_buffer_gles2::get_object_location, COMDAT
	sub	ecx, DWORD PTR [ecx-4]
	jmp	?get_object_location@pecker_frame_buffer_gles2@pecker_sdk@@UBEIXZ ; pecker_sdk::pecker_frame_buffer_gles2::get_object_location
?get_object_location@pecker_frame_buffer_gles2@pecker_sdk@@$4PPPPPPPM@A@BEIXZ ENDP ; pecker_sdk::pecker_frame_buffer_gles2::get_object_location
_TEXT	ENDS
END
