; Listing generated by Microsoft (R) Optimizing Compiler Version 16.00.40219.01 

	TITLE	F:\codes\pecker_framework_git\pecker_src\pecker_framework\native\pecker_file_io.cpp
	.686P
	.XMM
	include listing.inc
	.model	flat

INCLUDELIB MSVCRTD
INCLUDELIB OLDNAMES

_BSS	SEGMENT
_gstr_install_apkfile_path DB 0200H DUP (?)
_gn_install_apkfile_path_length DD 01H DUP (?)
_BSS	ENDS
PUBLIC	?set_install_apkfile_path@pecker_file_io_base@pecker_sdk@@SAJPBDH@Z ; pecker_sdk::pecker_file_io_base::set_install_apkfile_path
EXTRN	_memcpy:PROC
EXTRN	__RTC_CheckEsp:PROC
EXTRN	__RTC_Shutdown:PROC
EXTRN	__RTC_InitBase:PROC
;	COMDAT rtc$TMZ
; File f:\codes\pecker_framework_git\pecker_src\pecker_framework\native\pecker_file_io.cpp
rtc$TMZ	SEGMENT
__RTC_Shutdown.rtc$TMZ DD FLAT:__RTC_Shutdown
rtc$TMZ	ENDS
;	COMDAT rtc$IMZ
rtc$IMZ	SEGMENT
__RTC_InitBase.rtc$IMZ DD FLAT:__RTC_InitBase
; Function compile flags: /Odtp /RTCsu /ZI
rtc$IMZ	ENDS
;	COMDAT ?set_install_apkfile_path@pecker_file_io_base@pecker_sdk@@SAJPBDH@Z
_TEXT	SEGMENT
_pstr_path$ = 8						; size = 4
_path_length$ = 12					; size = 4
?set_install_apkfile_path@pecker_file_io_base@pecker_sdk@@SAJPBDH@Z PROC ; pecker_sdk::pecker_file_io_base::set_install_apkfile_path, COMDAT

; 41   : {

	push	ebp
	mov	ebp, esp
	sub	esp, 192				; 000000c0H
	push	ebx
	push	esi
	push	edi
	lea	edi, DWORD PTR [ebp-192]
	mov	ecx, 48					; 00000030H
	mov	eax, -858993460				; ccccccccH
	rep stosd

; 42   : 	if (path_length > MAX_FILE_PATH_LENGTH)

	cmp	DWORD PTR _path_length$[ebp], 512	; 00000200H
	jle	SHORT $LN1@set_instal

; 43   : 	{
; 44   : 		return P_FAIL;

	mov	eax, 1
	jmp	SHORT $LN2@set_instal
$LN1@set_instal:

; 45   : 	}
; 46   : 	memcpy(gstr_install_apkfile_path,pstr_path,path_length);

	mov	eax, DWORD PTR _path_length$[ebp]
	push	eax
	mov	ecx, DWORD PTR _pstr_path$[ebp]
	push	ecx
	push	OFFSET _gstr_install_apkfile_path
	call	_memcpy
	add	esp, 12					; 0000000cH

; 47   : 	return P_OK;

	xor	eax, eax
$LN2@set_instal:

; 48   : }

	pop	edi
	pop	esi
	pop	ebx
	add	esp, 192				; 000000c0H
	cmp	ebp, esp
	call	__RTC_CheckEsp
	mov	esp, ebp
	pop	ebp
	ret	0
?set_install_apkfile_path@pecker_file_io_base@pecker_sdk@@SAJPBDH@Z ENDP ; pecker_sdk::pecker_file_io_base::set_install_apkfile_path
_TEXT	ENDS
PUBLIC	?get_install_apkfile_path@pecker_file_io_base@pecker_sdk@@SAABU_st_const_stringchars@2@XZ ; pecker_sdk::pecker_file_io_base::get_install_apkfile_path
; Function compile flags: /Odtp /RTCsu /ZI
;	COMDAT ?get_install_apkfile_path@pecker_file_io_base@pecker_sdk@@SAABU_st_const_stringchars@2@XZ
_TEXT	SEGMENT
?get_install_apkfile_path@pecker_file_io_base@pecker_sdk@@SAABU_st_const_stringchars@2@XZ PROC ; pecker_sdk::pecker_file_io_base::get_install_apkfile_path, COMDAT

; 51   : {

	push	ebp
	mov	ebp, esp
	sub	esp, 192				; 000000c0H
	push	ebx
	push	esi
	push	edi
	lea	edi, DWORD PTR [ebp-192]
	mov	ecx, 48					; 00000030H
	mov	eax, -858993460				; ccccccccH
	rep stosd

; 52   : 	return gconststr_install_apkfile_path;

	mov	eax, OFFSET ?gconststr_install_apkfile_path@pecker_sdk@@3U_st_const_stringchars@1@A ; pecker_sdk::gconststr_install_apkfile_path

; 53   : }

	pop	edi
	pop	esi
	pop	ebx
	mov	esp, ebp
	pop	ebp
	ret	0
?get_install_apkfile_path@pecker_file_io_base@pecker_sdk@@SAABU_st_const_stringchars@2@XZ ENDP ; pecker_sdk::pecker_file_io_base::get_install_apkfile_path
_TEXT	ENDS
PUBLIC	?get_private_apkfile_manager@pecker_file_io_base@pecker_sdk@@SAPAXXZ ; pecker_sdk::pecker_file_io_base::get_private_apkfile_manager
; Function compile flags: /Odtp /RTCsu /ZI
;	COMDAT ?get_private_apkfile_manager@pecker_file_io_base@pecker_sdk@@SAPAXXZ
_TEXT	SEGMENT
?get_private_apkfile_manager@pecker_file_io_base@pecker_sdk@@SAPAXXZ PROC ; pecker_sdk::pecker_file_io_base::get_private_apkfile_manager, COMDAT

; 56   : {

	push	ebp
	mov	ebp, esp
	sub	esp, 192				; 000000c0H
	push	ebx
	push	esi
	push	edi
	lea	edi, DWORD PTR [ebp-192]
	mov	ecx, 48					; 00000030H
	mov	eax, -858993460				; ccccccccH
	rep stosd

; 57   : 	return null;

	xor	eax, eax

; 58   : }

	pop	edi
	pop	esi
	pop	ebx
	mov	esp, ebp
	pop	ebp
	ret	0
?get_private_apkfile_manager@pecker_file_io_base@pecker_sdk@@SAPAXXZ ENDP ; pecker_sdk::pecker_file_io_base::get_private_apkfile_manager
_TEXT	ENDS
PUBLIC	?is_file_exists@pecker_file_io_base@pecker_sdk@@SAHPBDH@Z ; pecker_sdk::pecker_file_io_base::is_file_exists
EXTRN	__imp__access:PROC
; Function compile flags: /Odtp /RTCsu /ZI
;	COMDAT ?is_file_exists@pecker_file_io_base@pecker_sdk@@SAHPBDH@Z
_TEXT	SEGMENT
_pstr_path$ = 8						; size = 4
_path_length$ = 12					; size = 4
?is_file_exists@pecker_file_io_base@pecker_sdk@@SAHPBDH@Z PROC ; pecker_sdk::pecker_file_io_base::is_file_exists, COMDAT

; 61   : {

	push	ebp
	mov	ebp, esp
	sub	esp, 192				; 000000c0H
	push	ebx
	push	esi
	push	edi
	lea	edi, DWORD PTR [ebp-192]
	mov	ecx, 48					; 00000030H
	mov	eax, -858993460				; ccccccccH
	rep stosd

; 62   : 	if( null != pstr_path && 0 == access(pstr_path,0))

	cmp	DWORD PTR _pstr_path$[ebp], 0
	je	SHORT $LN1@is_file_ex
	mov	esi, esp
	push	0
	mov	eax, DWORD PTR _pstr_path$[ebp]
	push	eax
	call	DWORD PTR __imp__access
	add	esp, 8
	cmp	esi, esp
	call	__RTC_CheckEsp
	test	eax, eax
	jne	SHORT $LN1@is_file_ex

; 63   : 	{
; 64   : 		return BOOL_TRUE;

	mov	eax, 1
	jmp	SHORT $LN2@is_file_ex
$LN1@is_file_ex:

; 65   : 	}
; 66   : 	return BOOL_FALSE;

	xor	eax, eax
$LN2@is_file_ex:

; 67   : }

	pop	edi
	pop	esi
	pop	ebx
	add	esp, 192				; 000000c0H
	cmp	ebp, esp
	call	__RTC_CheckEsp
	mov	esp, ebp
	pop	ebp
	ret	0
?is_file_exists@pecker_file_io_base@pecker_sdk@@SAHPBDH@Z ENDP ; pecker_sdk::pecker_file_io_base::is_file_exists
_TEXT	ENDS
PUBLIC	?get_file_rw_mode@pecker_file_io_base@pecker_sdk@@SAJPBDH@Z ; pecker_sdk::pecker_file_io_base::get_file_rw_mode
; Function compile flags: /Odtp /RTCsu /ZI
;	COMDAT ?get_file_rw_mode@pecker_file_io_base@pecker_sdk@@SAJPBDH@Z
_TEXT	SEGMENT
_retnFlag$ = -8						; size = 4
_pstr_path$ = 8						; size = 4
_path_length$ = 12					; size = 4
?get_file_rw_mode@pecker_file_io_base@pecker_sdk@@SAJPBDH@Z PROC ; pecker_sdk::pecker_file_io_base::get_file_rw_mode, COMDAT

; 70   : {

	push	ebp
	mov	ebp, esp
	sub	esp, 204				; 000000ccH
	push	ebx
	push	esi
	push	edi
	lea	edi, DWORD PTR [ebp-204]
	mov	ecx, 51					; 00000033H
	mov	eax, -858993460				; ccccccccH
	rep stosd

; 71   : 	HFlag retnFlag = 0;

	mov	DWORD PTR _retnFlag$[ebp], 0

; 72   : 	if(0 == access(pstr_path,0))

	mov	esi, esp
	push	0
	mov	eax, DWORD PTR _pstr_path$[ebp]
	push	eax
	call	DWORD PTR __imp__access
	add	esp, 8
	cmp	esi, esp
	call	__RTC_CheckEsp
	test	eax, eax
	jne	SHORT $LN4@get_file_r

; 73   : 	{
; 74   : 		retnFlag |= PF_FILE_EXISTS;

	mov	eax, DWORD PTR _retnFlag$[ebp]
	or	eax, 1
	mov	DWORD PTR _retnFlag$[ebp], eax
$LN4@get_file_r:

; 75   : 	}
; 76   : 	if(0 == access(pstr_path,1))

	mov	esi, esp
	push	1
	mov	eax, DWORD PTR _pstr_path$[ebp]
	push	eax
	call	DWORD PTR __imp__access
	add	esp, 8
	cmp	esi, esp
	call	__RTC_CheckEsp
	test	eax, eax
	jne	SHORT $LN3@get_file_r

; 77   : 	{
; 78   : 		retnFlag |= PF_FILE_READ_ONLY;

	mov	eax, DWORD PTR _retnFlag$[ebp]
	or	eax, 2
	mov	DWORD PTR _retnFlag$[ebp], eax
$LN3@get_file_r:

; 79   : 	}
; 80   : 	if(0 == access(pstr_path,2))

	mov	esi, esp
	push	2
	mov	eax, DWORD PTR _pstr_path$[ebp]
	push	eax
	call	DWORD PTR __imp__access
	add	esp, 8
	cmp	esi, esp
	call	__RTC_CheckEsp
	test	eax, eax
	jne	SHORT $LN2@get_file_r

; 81   : 	{
; 82   : 		retnFlag |= PF_FILE_WRITE_ONLY;

	mov	eax, DWORD PTR _retnFlag$[ebp]
	or	eax, 4
	mov	DWORD PTR _retnFlag$[ebp], eax
$LN2@get_file_r:

; 83   : 	}
; 84   : 	if(0 == access(pstr_path,4))

	mov	esi, esp
	push	4
	mov	eax, DWORD PTR _pstr_path$[ebp]
	push	eax
	call	DWORD PTR __imp__access
	add	esp, 8
	cmp	esi, esp
	call	__RTC_CheckEsp
	test	eax, eax
	jne	SHORT $LN1@get_file_r

; 85   : 	{
; 86   : 		retnFlag |= PF_FILE_RW;

	mov	eax, DWORD PTR _retnFlag$[ebp]
	or	eax, 8
	mov	DWORD PTR _retnFlag$[ebp], eax
$LN1@get_file_r:

; 87   : 	}
; 88   : 	return retnFlag;

	mov	eax, DWORD PTR _retnFlag$[ebp]

; 89   : }

	pop	edi
	pop	esi
	pop	ebx
	add	esp, 204				; 000000ccH
	cmp	ebp, esp
	call	__RTC_CheckEsp
	mov	esp, ebp
	pop	ebp
	ret	0
?get_file_rw_mode@pecker_file_io_base@pecker_sdk@@SAJPBDH@Z ENDP ; pecker_sdk::pecker_file_io_base::get_file_rw_mode
_TEXT	ENDS
PUBLIC	??_7pecker_file_io_base@pecker_sdk@@6B@		; pecker_sdk::pecker_file_io_base::`vftable'
PUBLIC	??0pecker_file_io_base@pecker_sdk@@QAE@XZ	; pecker_sdk::pecker_file_io_base::pecker_file_io_base
PUBLIC	??_R4pecker_file_io_base@pecker_sdk@@6B@	; pecker_sdk::pecker_file_io_base::`RTTI Complete Object Locator'
PUBLIC	??_R0?AVpecker_file_io_base@pecker_sdk@@@8	; pecker_sdk::pecker_file_io_base `RTTI Type Descriptor'
PUBLIC	??_R3pecker_file_io_base@pecker_sdk@@8		; pecker_sdk::pecker_file_io_base::`RTTI Class Hierarchy Descriptor'
PUBLIC	??_R2pecker_file_io_base@pecker_sdk@@8		; pecker_sdk::pecker_file_io_base::`RTTI Base Class Array'
PUBLIC	??_R1A@?0A@EA@pecker_file_io_base@pecker_sdk@@8	; pecker_sdk::pecker_file_io_base::`RTTI Base Class Descriptor at (0,-1,0,64)'
PUBLIC	?open@pecker_file_io_base@pecker_sdk@@UAEJPBDHJ@Z ; pecker_sdk::pecker_file_io_base::open
PUBLIC	?read_to_memery@pecker_file_io_base@pecker_sdk@@UAEAAU_st_stringchars@2@AAU32@IJ@Z ; pecker_sdk::pecker_file_io_base::read_to_memery
PUBLIC	?write_to_file@pecker_file_io_base@pecker_sdk@@UAEHABU_st_const_stringchars@2@IJ@Z ; pecker_sdk::pecker_file_io_base::write_to_file
PUBLIC	?get_file_size@pecker_file_io_base@pecker_sdk@@UAEHXZ ; pecker_sdk::pecker_file_io_base::get_file_size
PUBLIC	?close@pecker_file_io_base@pecker_sdk@@UAEJXZ	; pecker_sdk::pecker_file_io_base::close
EXTRN	??_7type_info@@6B@:QWORD			; type_info::`vftable'
EXTRN	??_Epecker_file_io_base@pecker_sdk@@UAEPAXI@Z:PROC ; pecker_sdk::pecker_file_io_base::`vector deleting destructor'
;	COMDAT ??_R1A@?0A@EA@pecker_file_io_base@pecker_sdk@@8
rdata$r	SEGMENT
??_R1A@?0A@EA@pecker_file_io_base@pecker_sdk@@8 DD FLAT:??_R0?AVpecker_file_io_base@pecker_sdk@@@8 ; pecker_sdk::pecker_file_io_base::`RTTI Base Class Descriptor at (0,-1,0,64)'
	DD	00H
	DD	00H
	DD	0ffffffffH
	DD	00H
	DD	040H
	DD	FLAT:??_R3pecker_file_io_base@pecker_sdk@@8
rdata$r	ENDS
;	COMDAT ??_R2pecker_file_io_base@pecker_sdk@@8
rdata$r	SEGMENT
??_R2pecker_file_io_base@pecker_sdk@@8 DD FLAT:??_R1A@?0A@EA@pecker_file_io_base@pecker_sdk@@8 ; pecker_sdk::pecker_file_io_base::`RTTI Base Class Array'
rdata$r	ENDS
;	COMDAT ??_R3pecker_file_io_base@pecker_sdk@@8
rdata$r	SEGMENT
??_R3pecker_file_io_base@pecker_sdk@@8 DD 00H		; pecker_sdk::pecker_file_io_base::`RTTI Class Hierarchy Descriptor'
	DD	00H
	DD	01H
	DD	FLAT:??_R2pecker_file_io_base@pecker_sdk@@8
rdata$r	ENDS
;	COMDAT ??_R0?AVpecker_file_io_base@pecker_sdk@@@8
_DATA	SEGMENT
??_R0?AVpecker_file_io_base@pecker_sdk@@@8 DD FLAT:??_7type_info@@6B@ ; pecker_sdk::pecker_file_io_base `RTTI Type Descriptor'
	DD	00H
	DB	'.?AVpecker_file_io_base@pecker_sdk@@', 00H
_DATA	ENDS
;	COMDAT ??_R4pecker_file_io_base@pecker_sdk@@6B@
rdata$r	SEGMENT
??_R4pecker_file_io_base@pecker_sdk@@6B@ DD 00H		; pecker_sdk::pecker_file_io_base::`RTTI Complete Object Locator'
	DD	00H
	DD	00H
	DD	FLAT:??_R0?AVpecker_file_io_base@pecker_sdk@@@8
	DD	FLAT:??_R3pecker_file_io_base@pecker_sdk@@8
rdata$r	ENDS
;	COMDAT ??_7pecker_file_io_base@pecker_sdk@@6B@
CONST	SEGMENT
??_7pecker_file_io_base@pecker_sdk@@6B@ DD FLAT:??_R4pecker_file_io_base@pecker_sdk@@6B@ ; pecker_sdk::pecker_file_io_base::`vftable'
	DD	FLAT:??_Epecker_file_io_base@pecker_sdk@@UAEPAXI@Z
	DD	FLAT:?open@pecker_file_io_base@pecker_sdk@@UAEJPBDHJ@Z
	DD	FLAT:?read_to_memery@pecker_file_io_base@pecker_sdk@@UAEAAU_st_stringchars@2@AAU32@IJ@Z
	DD	FLAT:?write_to_file@pecker_file_io_base@pecker_sdk@@UAEHABU_st_const_stringchars@2@IJ@Z
	DD	FLAT:?get_file_size@pecker_file_io_base@pecker_sdk@@UAEHXZ
	DD	FLAT:?close@pecker_file_io_base@pecker_sdk@@UAEJXZ
; Function compile flags: /Odtp /RTCsu /ZI
CONST	ENDS
;	COMDAT ??0pecker_file_io_base@pecker_sdk@@QAE@XZ
_TEXT	SEGMENT
_this$ = -8						; size = 4
??0pecker_file_io_base@pecker_sdk@@QAE@XZ PROC		; pecker_sdk::pecker_file_io_base::pecker_file_io_base, COMDAT
; _this$ = ecx

; 92   : {

	push	ebp
	mov	ebp, esp
	sub	esp, 204				; 000000ccH
	push	ebx
	push	esi
	push	edi
	push	ecx
	lea	edi, DWORD PTR [ebp-204]
	mov	ecx, 51					; 00000033H
	mov	eax, -858993460				; ccccccccH
	rep stosd
	pop	ecx
	mov	DWORD PTR _this$[ebp], ecx
	mov	eax, DWORD PTR _this$[ebp]
	mov	DWORD PTR [eax], OFFSET ??_7pecker_file_io_base@pecker_sdk@@6B@
	mov	eax, DWORD PTR _this$[ebp]
	mov	DWORD PTR [eax+4], 0

; 93   : 
; 94   : }

	mov	eax, DWORD PTR _this$[ebp]
	pop	edi
	pop	esi
	pop	ebx
	mov	esp, ebp
	pop	ebp
	ret	0
??0pecker_file_io_base@pecker_sdk@@QAE@XZ ENDP		; pecker_sdk::pecker_file_io_base::pecker_file_io_base
_TEXT	ENDS
PUBLIC	??1pecker_file_io_base@pecker_sdk@@UAE@XZ	; pecker_sdk::pecker_file_io_base::~pecker_file_io_base
EXTRN	??3@YAXPAX@Z:PROC				; operator delete
; Function compile flags: /Odtp /RTCsu /ZI
;	COMDAT ??_Gpecker_file_io_base@pecker_sdk@@UAEPAXI@Z
_TEXT	SEGMENT
_this$ = -8						; size = 4
___flags$ = 8						; size = 4
??_Gpecker_file_io_base@pecker_sdk@@UAEPAXI@Z PROC	; pecker_sdk::pecker_file_io_base::`scalar deleting destructor', COMDAT
; _this$ = ecx
	push	ebp
	mov	ebp, esp
	sub	esp, 204				; 000000ccH
	push	ebx
	push	esi
	push	edi
	push	ecx
	lea	edi, DWORD PTR [ebp-204]
	mov	ecx, 51					; 00000033H
	mov	eax, -858993460				; ccccccccH
	rep stosd
	pop	ecx
	mov	DWORD PTR _this$[ebp], ecx
	mov	ecx, DWORD PTR _this$[ebp]
	call	??1pecker_file_io_base@pecker_sdk@@UAE@XZ ; pecker_sdk::pecker_file_io_base::~pecker_file_io_base
	mov	eax, DWORD PTR ___flags$[ebp]
	and	eax, 1
	je	SHORT $LN1@scalar
	mov	eax, DWORD PTR _this$[ebp]
	push	eax
	call	??3@YAXPAX@Z				; operator delete
	add	esp, 4
$LN1@scalar:
	mov	eax, DWORD PTR _this$[ebp]
	pop	edi
	pop	esi
	pop	ebx
	add	esp, 204				; 000000ccH
	cmp	ebp, esp
	call	__RTC_CheckEsp
	mov	esp, ebp
	pop	ebp
	ret	4
??_Gpecker_file_io_base@pecker_sdk@@UAEPAXI@Z ENDP	; pecker_sdk::pecker_file_io_base::`scalar deleting destructor'
; Function compile flags: /Odtp /RTCsu /ZI
_TEXT	ENDS
;	COMDAT ??1pecker_file_io_base@pecker_sdk@@UAE@XZ
_TEXT	SEGMENT
_this$ = -8						; size = 4
??1pecker_file_io_base@pecker_sdk@@UAE@XZ PROC		; pecker_sdk::pecker_file_io_base::~pecker_file_io_base, COMDAT
; _this$ = ecx

; 97   : {

	push	ebp
	mov	ebp, esp
	sub	esp, 204				; 000000ccH
	push	ebx
	push	esi
	push	edi
	push	ecx
	lea	edi, DWORD PTR [ebp-204]
	mov	ecx, 51					; 00000033H
	mov	eax, -858993460				; ccccccccH
	rep stosd
	pop	ecx
	mov	DWORD PTR _this$[ebp], ecx
	mov	eax, DWORD PTR _this$[ebp]
	mov	DWORD PTR [eax], OFFSET ??_7pecker_file_io_base@pecker_sdk@@6B@

; 98   : 	if (null != _M_hFile)

	mov	eax, DWORD PTR _this$[ebp]
	cmp	DWORD PTR [eax+4], 0
	je	SHORT $LN2@pecker_fil

; 99   : 	{
; 100  : 		close();

	mov	ecx, DWORD PTR _this$[ebp]
	call	?close@pecker_file_io_base@pecker_sdk@@UAEJXZ ; pecker_sdk::pecker_file_io_base::close
$LN2@pecker_fil:

; 101  : 	}
; 102  : }

	pop	edi
	pop	esi
	pop	ebx
	add	esp, 204				; 000000ccH
	cmp	ebp, esp
	call	__RTC_CheckEsp
	mov	esp, ebp
	pop	ebp
	ret	0
??1pecker_file_io_base@pecker_sdk@@UAE@XZ ENDP		; pecker_sdk::pecker_file_io_base::~pecker_file_io_base
_TEXT	ENDS
PUBLIC	??_C@_01PFHFFBPC@t?$AA@				; `string'
PUBLIC	??_C@_01OJONOECF@b?$AA@				; `string'
PUBLIC	??_C@_01NOFIACDB@w?$AA@				; `string'
PUBLIC	??_C@_02CHHAKFFB@w?$CL?$AA@			; `string'
PUBLIC	??_C@_01MCMALHOG@a?$AA@				; `string'
PUBLIC	??_C@_02DPNLHKJD@a?$CL?$AA@			; `string'
PUBLIC	??_C@_01KDCPPGHE@r?$AA@				; `string'
PUBLIC	__$ArrayPad$
EXTRN	__imp__fseek:PROC
EXTRN	__imp__fopen:PROC
EXTRN	__imp__sprintf:PROC
EXTRN	___security_cookie:DWORD
EXTRN	@__security_check_cookie@4:PROC
EXTRN	@_RTC_CheckStackVars@8:PROC
;	COMDAT ??_C@_01PFHFFBPC@t?$AA@
CONST	SEGMENT
??_C@_01PFHFFBPC@t?$AA@ DB 't', 00H			; `string'
CONST	ENDS
;	COMDAT ??_C@_01OJONOECF@b?$AA@
CONST	SEGMENT
??_C@_01OJONOECF@b?$AA@ DB 'b', 00H			; `string'
CONST	ENDS
;	COMDAT ??_C@_01NOFIACDB@w?$AA@
CONST	SEGMENT
??_C@_01NOFIACDB@w?$AA@ DB 'w', 00H			; `string'
CONST	ENDS
;	COMDAT ??_C@_02CHHAKFFB@w?$CL?$AA@
CONST	SEGMENT
??_C@_02CHHAKFFB@w?$CL?$AA@ DB 'w+', 00H		; `string'
CONST	ENDS
;	COMDAT ??_C@_01MCMALHOG@a?$AA@
CONST	SEGMENT
??_C@_01MCMALHOG@a?$AA@ DB 'a', 00H			; `string'
CONST	ENDS
;	COMDAT ??_C@_02DPNLHKJD@a?$CL?$AA@
CONST	SEGMENT
??_C@_02DPNLHKJD@a?$CL?$AA@ DB 'a+', 00H		; `string'
CONST	ENDS
;	COMDAT ??_C@_01KDCPPGHE@r?$AA@
CONST	SEGMENT
??_C@_01KDCPPGHE@r?$AA@ DB 'r', 00H			; `string'
; Function compile flags: /Odtp /RTCsu /ZI
CONST	ENDS
;	COMDAT ?open@pecker_file_io_base@pecker_sdk@@UAEJPBDHJ@Z
_TEXT	SEGMENT
_hFile$ = -64						; size = 4
_string_length$ = -52					; size = 4
_str_open_type$ = -40					; size = 20
_this$ = -12						; size = 4
__$ArrayPad$ = -4					; size = 4
_pstr_path$ = 8						; size = 4
_path_length$ = 12					; size = 4
_nOpenType$ = 16					; size = 4
?open@pecker_file_io_base@pecker_sdk@@UAEJPBDHJ@Z PROC	; pecker_sdk::pecker_file_io_base::open, COMDAT
; _this$ = ecx

; 105  : {

	push	ebp
	mov	ebp, esp
	sub	esp, 260				; 00000104H
	push	ebx
	push	esi
	push	edi
	push	ecx
	lea	edi, DWORD PTR [ebp-260]
	mov	ecx, 65					; 00000041H
	mov	eax, -858993460				; ccccccccH
	rep stosd
	pop	ecx
	mov	eax, DWORD PTR ___security_cookie
	xor	eax, ebp
	mov	DWORD PTR __$ArrayPad$[ebp], eax
	mov	DWORD PTR _this$[ebp], ecx

; 106  : 		if(null == pstr_path)

	cmp	DWORD PTR _pstr_path$[ebp], 0
	jne	SHORT $LN13@open

; 107  : 			return PRST_FAIL;

	mov	eax, 1
	jmp	$LN14@open
$LN13@open:

; 108  : 	
; 109  : 		if(null != _M_hFile)

	mov	eax, DWORD PTR _this$[ebp]
	cmp	DWORD PTR [eax+4], 0
	je	SHORT $LN12@open

; 110  : 			return PRST_OPENS;

	mov	eax, 2
	jmp	$LN14@open
$LN12@open:

; 111  : 	
; 112  : 		char str_open_type[20] = "r";

	mov	ax, WORD PTR ??_C@_01KDCPPGHE@r?$AA@
	mov	WORD PTR _str_open_type$[ebp], ax
	xor	eax, eax
	mov	DWORD PTR _str_open_type$[ebp+2], eax
	mov	DWORD PTR _str_open_type$[ebp+6], eax
	mov	DWORD PTR _str_open_type$[ebp+10], eax
	mov	DWORD PTR _str_open_type$[ebp+14], eax
	mov	WORD PTR _str_open_type$[ebp+18], ax

; 113  : 		int string_length = 1;

	mov	DWORD PTR _string_length$[ebp], 1

; 114  : 		if(nOpenType & (PFO_OPEN_CREATE | PFO_OPEN_WRITE | PFO_OPEN_READ))

	mov	eax, DWORD PTR _nOpenType$[ebp]
	and	eax, 14					; 0000000eH
	je	SHORT $LN11@open

; 115  : 		{
; 116  : 			string_length = sprintf(str_open_type,"a+");

	mov	esi, esp
	push	OFFSET ??_C@_02DPNLHKJD@a?$CL?$AA@
	lea	eax, DWORD PTR _str_open_type$[ebp]
	push	eax
	call	DWORD PTR __imp__sprintf
	add	esp, 8
	cmp	esi, esp
	call	__RTC_CheckEsp
	mov	DWORD PTR _string_length$[ebp], eax
	jmp	SHORT $LN10@open
$LN11@open:

; 117  : 		}
; 118  : 		else if(nOpenType & (PFO_OPEN_CREATE | PFO_OPEN_WRITE))

	mov	eax, DWORD PTR _nOpenType$[ebp]
	and	eax, 10					; 0000000aH
	je	SHORT $LN9@open

; 119  : 		{
; 120  : 			string_length = sprintf(str_open_type,"a");

	mov	esi, esp
	push	OFFSET ??_C@_01MCMALHOG@a?$AA@
	lea	eax, DWORD PTR _str_open_type$[ebp]
	push	eax
	call	DWORD PTR __imp__sprintf
	add	esp, 8
	cmp	esi, esp
	call	__RTC_CheckEsp
	mov	DWORD PTR _string_length$[ebp], eax
	jmp	SHORT $LN10@open
$LN9@open:

; 121  : 		}
; 122  : 		else if(nOpenType & (PFO_OPEN_READ | PFO_OPEN_WRITE))

	mov	eax, DWORD PTR _nOpenType$[ebp]
	and	eax, 12					; 0000000cH
	je	SHORT $LN7@open

; 123  : 		{
; 124  : 			string_length = sprintf(str_open_type,"w+");

	mov	esi, esp
	push	OFFSET ??_C@_02CHHAKFFB@w?$CL?$AA@
	lea	eax, DWORD PTR _str_open_type$[ebp]
	push	eax
	call	DWORD PTR __imp__sprintf
	add	esp, 8
	cmp	esi, esp
	call	__RTC_CheckEsp
	mov	DWORD PTR _string_length$[ebp], eax
	jmp	SHORT $LN10@open
$LN7@open:

; 125  : 		}
; 126  : 		else if(nOpenType & PFO_OPEN_WRITE)

	mov	eax, DWORD PTR _nOpenType$[ebp]
	and	eax, 8
	je	SHORT $LN10@open

; 127  : 		{
; 128  : 			string_length = sprintf(str_open_type,"w");

	mov	esi, esp
	push	OFFSET ??_C@_01NOFIACDB@w?$AA@
	lea	eax, DWORD PTR _str_open_type$[ebp]
	push	eax
	call	DWORD PTR __imp__sprintf
	add	esp, 8
	cmp	esi, esp
	call	__RTC_CheckEsp
	mov	DWORD PTR _string_length$[ebp], eax

; 129  : 			string_length = 1;

	mov	DWORD PTR _string_length$[ebp], 1
$LN10@open:

; 130  : 		}
; 131  : 	
; 132  : 		if(nOpenType | PFO_OPEN_BINARY)

	mov	eax, DWORD PTR _nOpenType$[ebp]
	or	eax, 32					; 00000020H
	je	SHORT $LN4@open

; 133  : 		{
; 134  : 			sprintf(str_open_type+string_length,"b");

	mov	esi, esp
	push	OFFSET ??_C@_01OJONOECF@b?$AA@
	mov	eax, DWORD PTR _string_length$[ebp]
	lea	ecx, DWORD PTR _str_open_type$[ebp+eax]
	push	ecx
	call	DWORD PTR __imp__sprintf
	add	esp, 8
	cmp	esi, esp
	call	__RTC_CheckEsp
$LN4@open:

; 135  : 		}
; 136  : 	
; 137  : 		if(nOpenType | PFO_OPEN_TEXT)

	mov	eax, DWORD PTR _nOpenType$[ebp]
	or	eax, 64					; 00000040H
	je	SHORT $LN3@open

; 138  : 		{
; 139  : 			sprintf(str_open_type+string_length,"t");

	mov	esi, esp
	push	OFFSET ??_C@_01PFHFFBPC@t?$AA@
	mov	eax, DWORD PTR _string_length$[ebp]
	lea	ecx, DWORD PTR _str_open_type$[ebp+eax]
	push	ecx
	call	DWORD PTR __imp__sprintf
	add	esp, 8
	cmp	esi, esp
	call	__RTC_CheckEsp
$LN3@open:

; 140  : 		}
; 141  : 	
; 142  : 		FILE* hFile = fopen(pstr_path,str_open_type);

	mov	esi, esp
	lea	eax, DWORD PTR _str_open_type$[ebp]
	push	eax
	mov	ecx, DWORD PTR _pstr_path$[ebp]
	push	ecx
	call	DWORD PTR __imp__fopen
	add	esp, 8
	cmp	esi, esp
	call	__RTC_CheckEsp
	mov	DWORD PTR _hFile$[ebp], eax

; 143  : 		if(hFile)

	cmp	DWORD PTR _hFile$[ebp], 0
	je	SHORT $LN2@open

; 144  : 		{
; 145  : 			_M_hFile = hFile;

	mov	eax, DWORD PTR _this$[ebp]
	mov	ecx, DWORD PTR _hFile$[ebp]
	mov	DWORD PTR [eax+4], ecx

; 146  : 			fseek(hFile, 0, SEEK_SET);

	mov	esi, esp
	push	0
	push	0
	mov	eax, DWORD PTR _hFile$[ebp]
	push	eax
	call	DWORD PTR __imp__fseek
	add	esp, 12					; 0000000cH
	cmp	esi, esp
	call	__RTC_CheckEsp

; 147  : 			return PRST_OK;

	xor	eax, eax
	jmp	SHORT $LN14@open

; 148  : 		}
; 149  : 		else

	jmp	SHORT $LN14@open
$LN2@open:

; 150  : 		{
; 151  : 			return PRST_OK;

	xor	eax, eax
$LN14@open:

; 152  : 		}
; 153  : }

	push	edx
	mov	ecx, ebp
	push	eax
	lea	edx, DWORD PTR $LN18@open
	call	@_RTC_CheckStackVars@8
	pop	eax
	pop	edx
	pop	edi
	pop	esi
	pop	ebx
	mov	ecx, DWORD PTR __$ArrayPad$[ebp]
	xor	ecx, ebp
	call	@__security_check_cookie@4
	add	esp, 260				; 00000104H
	cmp	ebp, esp
	call	__RTC_CheckEsp
	mov	esp, ebp
	pop	ebp
	ret	12					; 0000000cH
	npad	3
$LN18@open:
	DD	1
	DD	$LN17@open
$LN17@open:
	DD	-40					; ffffffd8H
	DD	20					; 00000014H
	DD	$LN16@open
$LN16@open:
	DB	115					; 00000073H
	DB	116					; 00000074H
	DB	114					; 00000072H
	DB	95					; 0000005fH
	DB	111					; 0000006fH
	DB	112					; 00000070H
	DB	101					; 00000065H
	DB	110					; 0000006eH
	DB	95					; 0000005fH
	DB	116					; 00000074H
	DB	121					; 00000079H
	DB	112					; 00000070H
	DB	101					; 00000065H
	DB	0
?open@pecker_file_io_base@pecker_sdk@@UAEJPBDHJ@Z ENDP	; pecker_sdk::pecker_file_io_base::open
_TEXT	ENDS
EXTRN	__imp__fread:PROC
; Function compile flags: /Odtp /RTCsu /ZI
;	COMDAT ?read_to_memery@pecker_file_io_base@pecker_sdk@@UAEAAU_st_stringchars@2@AAU32@IJ@Z
_TEXT	SEGMENT
_this$ = -8						; size = 4
_memery_buffer$ = 8					; size = 4
_origin$ = 12						; size = 4
_offset$ = 16						; size = 4
?read_to_memery@pecker_file_io_base@pecker_sdk@@UAEAAU_st_stringchars@2@AAU32@IJ@Z PROC ; pecker_sdk::pecker_file_io_base::read_to_memery, COMDAT
; _this$ = ecx

; 155  : {

	push	ebp
	mov	ebp, esp
	sub	esp, 204				; 000000ccH
	push	ebx
	push	esi
	push	edi
	push	ecx
	lea	edi, DWORD PTR [ebp-204]
	mov	ecx, 51					; 00000033H
	mov	eax, -858993460				; ccccccccH
	rep stosd
	pop	ecx
	mov	DWORD PTR _this$[ebp], ecx

; 156  : 	if (null != _M_hFile && null != memery_buffer._M_buffer && memery_buffer._M_buffer_size > 0)

	mov	eax, DWORD PTR _this$[ebp]
	cmp	DWORD PTR [eax+4], 0
	je	SHORT $LN3@read_to_me
	mov	eax, DWORD PTR _memery_buffer$[ebp]
	cmp	DWORD PTR [eax], 0
	je	SHORT $LN3@read_to_me
	mov	eax, DWORD PTR _memery_buffer$[ebp]
	cmp	DWORD PTR [eax+4], 0
	jbe	SHORT $LN3@read_to_me

; 157  : 	{
; 158  : 		if( 0 == fseek((FILE*)_M_hFile, offset , origin))

	mov	esi, esp
	mov	eax, DWORD PTR _origin$[ebp]
	push	eax
	mov	ecx, DWORD PTR _offset$[ebp]
	push	ecx
	mov	edx, DWORD PTR _this$[ebp]
	mov	eax, DWORD PTR [edx+4]
	push	eax
	call	DWORD PTR __imp__fseek
	add	esp, 12					; 0000000cH
	cmp	esi, esp
	call	__RTC_CheckEsp
	test	eax, eax
	jne	SHORT $LN2@read_to_me

; 159  : 		{
; 160  : 			memery_buffer._M_buffer_size =  fread(memery_buffer._M_buffer, sizeof(Char), memery_buffer._M_buffer_size, (FILE*)_M_hFile);

	mov	esi, esp
	mov	eax, DWORD PTR _this$[ebp]
	mov	ecx, DWORD PTR [eax+4]
	push	ecx
	mov	edx, DWORD PTR _memery_buffer$[ebp]
	mov	eax, DWORD PTR [edx+4]
	push	eax
	push	1
	mov	ecx, DWORD PTR _memery_buffer$[ebp]
	mov	edx, DWORD PTR [ecx]
	push	edx
	call	DWORD PTR __imp__fread
	add	esp, 16					; 00000010H
	cmp	esi, esp
	call	__RTC_CheckEsp
	mov	ecx, DWORD PTR _memery_buffer$[ebp]
	mov	DWORD PTR [ecx+4], eax
$LN2@read_to_me:

; 161  : 		}
; 162  : 	}
; 163  : 	else

	jmp	SHORT $LN1@read_to_me
$LN3@read_to_me:

; 164  : 	{
; 165  : 		memery_buffer._M_buffer_size = 0;

	mov	eax, DWORD PTR _memery_buffer$[ebp]
	mov	DWORD PTR [eax+4], 0
$LN1@read_to_me:

; 166  : 	}
; 167  : 	return memery_buffer;

	mov	eax, DWORD PTR _memery_buffer$[ebp]

; 168  : }

	pop	edi
	pop	esi
	pop	ebx
	add	esp, 204				; 000000ccH
	cmp	ebp, esp
	call	__RTC_CheckEsp
	mov	esp, ebp
	pop	ebp
	ret	12					; 0000000cH
?read_to_memery@pecker_file_io_base@pecker_sdk@@UAEAAU_st_stringchars@2@AAU32@IJ@Z ENDP ; pecker_sdk::pecker_file_io_base::read_to_memery
_TEXT	ENDS
EXTRN	__imp__fwrite:PROC
; Function compile flags: /Odtp /RTCsu /ZI
;	COMDAT ?write_to_file@pecker_file_io_base@pecker_sdk@@UAEHABU_st_const_stringchars@2@IJ@Z
_TEXT	SEGMENT
_this$ = -8						; size = 4
_memery_buffer$ = 8					; size = 4
_origin$ = 12						; size = 4
_offset$ = 16						; size = 4
?write_to_file@pecker_file_io_base@pecker_sdk@@UAEHABU_st_const_stringchars@2@IJ@Z PROC ; pecker_sdk::pecker_file_io_base::write_to_file, COMDAT
; _this$ = ecx

; 171  : {

	push	ebp
	mov	ebp, esp
	sub	esp, 204				; 000000ccH
	push	ebx
	push	esi
	push	edi
	push	ecx
	lea	edi, DWORD PTR [ebp-204]
	mov	ecx, 51					; 00000033H
	mov	eax, -858993460				; ccccccccH
	rep stosd
	pop	ecx
	mov	DWORD PTR _this$[ebp], ecx

; 172  : 	if (null != _M_hFile && null != memery_buffer._M_buffer && memery_buffer._M_buffer_size > 0)

	mov	eax, DWORD PTR _this$[ebp]
	cmp	DWORD PTR [eax+4], 0
	je	SHORT $LN2@write_to_f
	mov	eax, DWORD PTR _memery_buffer$[ebp]
	cmp	DWORD PTR [eax], 0
	je	SHORT $LN2@write_to_f
	mov	eax, DWORD PTR _memery_buffer$[ebp]
	cmp	DWORD PTR [eax+4], 0
	jbe	SHORT $LN2@write_to_f

; 173  : 	{
; 174  : 		if( 0 == fseek((FILE*)_M_hFile, offset , origin))

	mov	esi, esp
	mov	eax, DWORD PTR _origin$[ebp]
	push	eax
	mov	ecx, DWORD PTR _offset$[ebp]
	push	ecx
	mov	edx, DWORD PTR _this$[ebp]
	mov	eax, DWORD PTR [edx+4]
	push	eax
	call	DWORD PTR __imp__fseek
	add	esp, 12					; 0000000cH
	cmp	esi, esp
	call	__RTC_CheckEsp
	test	eax, eax
	jne	SHORT $LN2@write_to_f

; 175  : 		{
; 176  : 			 return  fwrite(memery_buffer._M_buffer, sizeof(Char), memery_buffer._M_buffer_size, (FILE*)_M_hFile);

	mov	esi, esp
	mov	eax, DWORD PTR _this$[ebp]
	mov	ecx, DWORD PTR [eax+4]
	push	ecx
	mov	edx, DWORD PTR _memery_buffer$[ebp]
	mov	eax, DWORD PTR [edx+4]
	push	eax
	push	1
	mov	ecx, DWORD PTR _memery_buffer$[ebp]
	mov	edx, DWORD PTR [ecx]
	push	edx
	call	DWORD PTR __imp__fwrite
	add	esp, 16					; 00000010H
	cmp	esi, esp
	call	__RTC_CheckEsp
	jmp	SHORT $LN3@write_to_f
$LN2@write_to_f:

; 177  : 		}
; 178  : 	}
; 179  : 	return (-1);

	or	eax, -1
$LN3@write_to_f:

; 180  : }

	pop	edi
	pop	esi
	pop	ebx
	add	esp, 204				; 000000ccH
	cmp	ebp, esp
	call	__RTC_CheckEsp
	mov	esp, ebp
	pop	ebp
	ret	12					; 0000000cH
?write_to_file@pecker_file_io_base@pecker_sdk@@UAEHABU_st_const_stringchars@2@IJ@Z ENDP ; pecker_sdk::pecker_file_io_base::write_to_file
_TEXT	ENDS
EXTRN	__imp__ftell:PROC
; Function compile flags: /Odtp /RTCsu /ZI
;	COMDAT ?get_file_size@pecker_file_io_base@pecker_sdk@@UAEHXZ
_TEXT	SEGMENT
_end_pos$ = -32						; size = 4
_current_pos$ = -20					; size = 4
_this$ = -8						; size = 4
?get_file_size@pecker_file_io_base@pecker_sdk@@UAEHXZ PROC ; pecker_sdk::pecker_file_io_base::get_file_size, COMDAT
; _this$ = ecx

; 183  : {

	push	ebp
	mov	ebp, esp
	sub	esp, 228				; 000000e4H
	push	ebx
	push	esi
	push	edi
	push	ecx
	lea	edi, DWORD PTR [ebp-228]
	mov	ecx, 57					; 00000039H
	mov	eax, -858993460				; ccccccccH
	rep stosd
	pop	ecx
	mov	DWORD PTR _this$[ebp], ecx

; 184  : 	if (null == _M_hFile)

	mov	eax, DWORD PTR _this$[ebp]
	cmp	DWORD PTR [eax+4], 0
	jne	SHORT $LN1@get_file_s

; 185  : 	{
; 186  : 		return 0;

	xor	eax, eax
	jmp	SHORT $LN2@get_file_s
$LN1@get_file_s:

; 187  : 	}
; 188  : 	long current_pos = ftell((FILE*)_M_hFile);

	mov	esi, esp
	mov	eax, DWORD PTR _this$[ebp]
	mov	ecx, DWORD PTR [eax+4]
	push	ecx
	call	DWORD PTR __imp__ftell
	add	esp, 4
	cmp	esi, esp
	call	__RTC_CheckEsp
	mov	DWORD PTR _current_pos$[ebp], eax

; 189  : 	fseek((FILE*)_M_hFile, 0, SEEK_END);

	mov	esi, esp
	push	2
	push	0
	mov	eax, DWORD PTR _this$[ebp]
	mov	ecx, DWORD PTR [eax+4]
	push	ecx
	call	DWORD PTR __imp__fseek
	add	esp, 12					; 0000000cH
	cmp	esi, esp
	call	__RTC_CheckEsp

; 190  : 	long end_pos = ftell((FILE*)_M_hFile);

	mov	esi, esp
	mov	eax, DWORD PTR _this$[ebp]
	mov	ecx, DWORD PTR [eax+4]
	push	ecx
	call	DWORD PTR __imp__ftell
	add	esp, 4
	cmp	esi, esp
	call	__RTC_CheckEsp
	mov	DWORD PTR _end_pos$[ebp], eax

; 191  : 	fseek((FILE*)_M_hFile, current_pos, SEEK_SET);

	mov	esi, esp
	push	0
	mov	eax, DWORD PTR _current_pos$[ebp]
	push	eax
	mov	ecx, DWORD PTR _this$[ebp]
	mov	edx, DWORD PTR [ecx+4]
	push	edx
	call	DWORD PTR __imp__fseek
	add	esp, 12					; 0000000cH
	cmp	esi, esp
	call	__RTC_CheckEsp

; 192  : 	return (nSize)end_pos;

	mov	eax, DWORD PTR _end_pos$[ebp]
$LN2@get_file_s:

; 193  : }

	pop	edi
	pop	esi
	pop	ebx
	add	esp, 228				; 000000e4H
	cmp	ebp, esp
	call	__RTC_CheckEsp
	mov	esp, ebp
	pop	ebp
	ret	0
?get_file_size@pecker_file_io_base@pecker_sdk@@UAEHXZ ENDP ; pecker_sdk::pecker_file_io_base::get_file_size
_TEXT	ENDS
EXTRN	__imp__fclose:PROC
; Function compile flags: /Odtp /RTCsu /ZI
;	COMDAT ?close@pecker_file_io_base@pecker_sdk@@UAEJXZ
_TEXT	SEGMENT
_this$ = -8						; size = 4
?close@pecker_file_io_base@pecker_sdk@@UAEJXZ PROC	; pecker_sdk::pecker_file_io_base::close, COMDAT
; _this$ = ecx

; 196  : {

	push	ebp
	mov	ebp, esp
	sub	esp, 204				; 000000ccH
	push	ebx
	push	esi
	push	edi
	push	ecx
	lea	edi, DWORD PTR [ebp-204]
	mov	ecx, 51					; 00000033H
	mov	eax, -858993460				; ccccccccH
	rep stosd
	pop	ecx
	mov	DWORD PTR _this$[ebp], ecx

; 197  : 	if(null == _M_hFile || 0 == fclose((FILE*)_M_hFile))

	mov	eax, DWORD PTR _this$[ebp]
	cmp	DWORD PTR [eax+4], 0
	je	SHORT $LN2@close
	mov	esi, esp
	mov	eax, DWORD PTR _this$[ebp]
	mov	ecx, DWORD PTR [eax+4]
	push	ecx
	call	DWORD PTR __imp__fclose
	add	esp, 4
	cmp	esi, esp
	call	__RTC_CheckEsp
	test	eax, eax
	jne	SHORT $LN3@close
$LN2@close:

; 198  : 	{
; 199  : 		_M_hFile = null;

	mov	eax, DWORD PTR _this$[ebp]
	mov	DWORD PTR [eax+4], 0

; 200  : 		return P_OK;

	xor	eax, eax
	jmp	SHORT $LN4@close

; 201  : 	}
; 202  : 	else

	jmp	SHORT $LN4@close
$LN3@close:

; 203  : 	{
; 204  : 		return P_FAIL;

	mov	eax, 1
$LN4@close:

; 205  : 	}
; 206  : }

	pop	edi
	pop	esi
	pop	ebx
	add	esp, 204				; 000000ccH
	cmp	ebp, esp
	call	__RTC_CheckEsp
	mov	esp, ebp
	pop	ebp
	ret	0
?close@pecker_file_io_base@pecker_sdk@@UAEJXZ ENDP	; pecker_sdk::pecker_file_io_base::close
; Function compile flags: /Odtp /RTCsu /ZI
_TEXT	ENDS
;	COMDAT ??__Egconststr_install_apkfile_path@pecker_sdk@@YAXXZ
text$yc	SEGMENT
??__Egconststr_install_apkfile_path@pecker_sdk@@YAXXZ PROC ; pecker_sdk::`dynamic initializer for 'gconststr_install_apkfile_path'', COMDAT

; 38   : ConstStringChars gconststr_install_apkfile_path = {gstr_install_apkfile_path,gn_install_apkfile_path_length};

	push	ebp
	mov	ebp, esp
	sub	esp, 192				; 000000c0H
	push	ebx
	push	esi
	push	edi
	lea	edi, DWORD PTR [ebp-192]
	mov	ecx, 48					; 00000030H
	mov	eax, -858993460				; ccccccccH
	rep stosd
	mov	eax, DWORD PTR _gn_install_apkfile_path_length
	mov	DWORD PTR ?gconststr_install_apkfile_path@pecker_sdk@@3U_st_const_stringchars@1@A+4, eax
	pop	edi
	pop	esi
	pop	ebx
	mov	esp, ebp
	pop	ebp
	ret	0
??__Egconststr_install_apkfile_path@pecker_sdk@@YAXXZ ENDP ; pecker_sdk::`dynamic initializer for 'gconststr_install_apkfile_path''
text$yc	ENDS
PUBLIC	?gconststr_install_apkfile_path@pecker_sdk@@3U_st_const_stringchars@1@A ; pecker_sdk::gconststr_install_apkfile_path
_DATA	SEGMENT
?gconststr_install_apkfile_path@pecker_sdk@@3U_st_const_stringchars@1@A DD FLAT:_gstr_install_apkfile_path ; pecker_sdk::gconststr_install_apkfile_path
	ORG $+4
_DATA	ENDS
CRT$XCU	SEGMENT
_gconststr_install_apkfile_path$initializer$ DD FLAT:??__Egconststr_install_apkfile_path@pecker_sdk@@YAXXZ
CRT$XCU	ENDS
END
