; Listing generated by Microsoft (R) Optimizing Compiler Version 16.00.40219.01 

	TITLE	F:\codes\pecker_framework_git\pecker_src\pecker_framework\render\render_system\opengles\pecker_texture_gl.cpp
	.686P
	.XMM
	include listing.inc
	.model	flat

INCLUDELIB MSVCRTD
INCLUDELIB OLDNAMES

PUBLIC	?MAX_TEXTURE_UNIT_COUNT@pecker_texture_2d_gles2@pecker_sdk@@2IB ; pecker_sdk::pecker_texture_2d_gles2::MAX_TEXTURE_UNIT_COUNT
PUBLIC	?MAX_TEXTURE_MIP_LEVEL@pecker_texture_2d_gles2@pecker_sdk@@2IB ; pecker_sdk::pecker_texture_2d_gles2::MAX_TEXTURE_MIP_LEVEL
PUBLIC	?MAX_TEXTURE_SIZE@pecker_texture_2d_gles2@pecker_sdk@@2IB ; pecker_sdk::pecker_texture_2d_gles2::MAX_TEXTURE_SIZE
PUBLIC	?MAX_DEFUALT_TEXTURE_FILTER_COUNT@pecker_texture_2d_gles2@pecker_sdk@@2IB ; pecker_sdk::pecker_texture_2d_gles2::MAX_DEFUALT_TEXTURE_FILTER_COUNT
;	COMDAT ?MAX_DEFUALT_TEXTURE_FILTER_COUNT@pecker_texture_2d_gles2@pecker_sdk@@2IB
CONST	SEGMENT
?MAX_DEFUALT_TEXTURE_FILTER_COUNT@pecker_texture_2d_gles2@pecker_sdk@@2IB DD 010H ; pecker_sdk::pecker_texture_2d_gles2::MAX_DEFUALT_TEXTURE_FILTER_COUNT
CONST	ENDS
;	COMDAT ?MAX_TEXTURE_SIZE@pecker_texture_2d_gles2@pecker_sdk@@2IB
CONST	SEGMENT
?MAX_TEXTURE_SIZE@pecker_texture_2d_gles2@pecker_sdk@@2IB DD 08000H ; pecker_sdk::pecker_texture_2d_gles2::MAX_TEXTURE_SIZE
CONST	ENDS
;	COMDAT ?MAX_TEXTURE_MIP_LEVEL@pecker_texture_2d_gles2@pecker_sdk@@2IB
CONST	SEGMENT
?MAX_TEXTURE_MIP_LEVEL@pecker_texture_2d_gles2@pecker_sdk@@2IB DD 0fH ; pecker_sdk::pecker_texture_2d_gles2::MAX_TEXTURE_MIP_LEVEL
CONST	ENDS
;	COMDAT ?MAX_TEXTURE_UNIT_COUNT@pecker_texture_2d_gles2@pecker_sdk@@2IB
CONST	SEGMENT
?MAX_TEXTURE_UNIT_COUNT@pecker_texture_2d_gles2@pecker_sdk@@2IB DD 020H ; pecker_sdk::pecker_texture_2d_gles2::MAX_TEXTURE_UNIT_COUNT
CONST	ENDS
PUBLIC	??_7pecker_texture_2d_gles2@pecker_sdk@@6Bpecker_opengles_v2_object@1@@ ; pecker_sdk::pecker_texture_2d_gles2::`vftable'
PUBLIC	??_7pecker_texture_2d_gles2@pecker_sdk@@6BIpecker_texture2d@1@@ ; pecker_sdk::pecker_texture_2d_gles2::`vftable'
PUBLIC	??0Ipecker_texture2d@pecker_sdk@@QAE@XZ		; pecker_sdk::Ipecker_texture2d::Ipecker_texture2d
PUBLIC	??0pecker_opengles_v2_object@pecker_sdk@@QAE@XZ	; pecker_sdk::pecker_opengles_v2_object::pecker_opengles_v2_object
PUBLIC	??_8pecker_texture_2d_gles2@pecker_sdk@@7B@	; pecker_sdk::pecker_texture_2d_gles2::`vbtable'
PUBLIC	??0pecker_texture_2d_gles2@pecker_sdk@@QAE@XZ	; pecker_sdk::pecker_texture_2d_gles2::pecker_texture_2d_gles2
PUBLIC	??_R4pecker_texture_2d_gles2@pecker_sdk@@6BIpecker_texture2d@1@@ ; pecker_sdk::pecker_texture_2d_gles2::`RTTI Complete Object Locator'
PUBLIC	??_R0?AVpecker_texture_2d_gles2@pecker_sdk@@@8	; pecker_sdk::pecker_texture_2d_gles2 `RTTI Type Descriptor'
PUBLIC	??_R3pecker_texture_2d_gles2@pecker_sdk@@8	; pecker_sdk::pecker_texture_2d_gles2::`RTTI Class Hierarchy Descriptor'
PUBLIC	??_R2pecker_texture_2d_gles2@pecker_sdk@@8	; pecker_sdk::pecker_texture_2d_gles2::`RTTI Base Class Array'
PUBLIC	??_R1A@?0A@EA@pecker_texture_2d_gles2@pecker_sdk@@8 ; pecker_sdk::pecker_texture_2d_gles2::`RTTI Base Class Descriptor at (0,-1,0,64)'
PUBLIC	??_R1A@?0A@EA@Ipecker_texture2d@pecker_sdk@@8	; pecker_sdk::Ipecker_texture2d::`RTTI Base Class Descriptor at (0,-1,0,64)'
PUBLIC	??_R0?AUIpecker_texture2d@pecker_sdk@@@8	; pecker_sdk::Ipecker_texture2d `RTTI Type Descriptor'
PUBLIC	??_R3Ipecker_texture2d@pecker_sdk@@8		; pecker_sdk::Ipecker_texture2d::`RTTI Class Hierarchy Descriptor'
PUBLIC	??_R2Ipecker_texture2d@pecker_sdk@@8		; pecker_sdk::Ipecker_texture2d::`RTTI Base Class Array'
PUBLIC	??_R1A@?0A@EA@Ipecker_texture@pecker_sdk@@8	; pecker_sdk::Ipecker_texture::`RTTI Base Class Descriptor at (0,-1,0,64)'
PUBLIC	??_R0?AUIpecker_texture@pecker_sdk@@@8		; pecker_sdk::Ipecker_texture `RTTI Type Descriptor'
PUBLIC	??_R3Ipecker_texture@pecker_sdk@@8		; pecker_sdk::Ipecker_texture::`RTTI Class Hierarchy Descriptor'
PUBLIC	??_R2Ipecker_texture@pecker_sdk@@8		; pecker_sdk::Ipecker_texture::`RTTI Base Class Array'
PUBLIC	??_R1A@?0A@EA@Ipecker_frame_buffer_object@pecker_sdk@@8 ; pecker_sdk::Ipecker_frame_buffer_object::`RTTI Base Class Descriptor at (0,-1,0,64)'
PUBLIC	??_R0?AUIpecker_frame_buffer_object@pecker_sdk@@@8 ; pecker_sdk::Ipecker_frame_buffer_object `RTTI Type Descriptor'
PUBLIC	??_R3Ipecker_frame_buffer_object@pecker_sdk@@8	; pecker_sdk::Ipecker_frame_buffer_object::`RTTI Class Hierarchy Descriptor'
PUBLIC	??_R2Ipecker_frame_buffer_object@pecker_sdk@@8	; pecker_sdk::Ipecker_frame_buffer_object::`RTTI Base Class Array'
PUBLIC	??_R1A@33FA@pecker_opengles_v2_object@pecker_sdk@@8 ; pecker_sdk::pecker_opengles_v2_object::`RTTI Base Class Descriptor at (0,4,4,80)'
PUBLIC	??_R0?AVpecker_opengles_v2_object@pecker_sdk@@@8 ; pecker_sdk::pecker_opengles_v2_object `RTTI Type Descriptor'
PUBLIC	??_R3pecker_opengles_v2_object@pecker_sdk@@8	; pecker_sdk::pecker_opengles_v2_object::`RTTI Class Hierarchy Descriptor'
PUBLIC	??_R2pecker_opengles_v2_object@pecker_sdk@@8	; pecker_sdk::pecker_opengles_v2_object::`RTTI Base Class Array'
PUBLIC	??_R1A@?0A@EA@pecker_opengles_v2_object@pecker_sdk@@8 ; pecker_sdk::pecker_opengles_v2_object::`RTTI Base Class Descriptor at (0,-1,0,64)'
PUBLIC	??_R1A@?0A@EA@pecker_render_object@pecker_sdk@@8 ; pecker_sdk::pecker_render_object::`RTTI Base Class Descriptor at (0,-1,0,64)'
PUBLIC	??_R0?AVpecker_render_object@pecker_sdk@@@8	; pecker_sdk::pecker_render_object `RTTI Type Descriptor'
PUBLIC	??_R3pecker_render_object@pecker_sdk@@8		; pecker_sdk::pecker_render_object::`RTTI Class Hierarchy Descriptor'
PUBLIC	??_R2pecker_render_object@pecker_sdk@@8		; pecker_sdk::pecker_render_object::`RTTI Base Class Array'
PUBLIC	??_R1A@33EA@pecker_render_object@pecker_sdk@@8	; pecker_sdk::pecker_render_object::`RTTI Base Class Descriptor at (0,4,4,64)'
PUBLIC	?attach_by_frame_buffer@pecker_texture_2d_gles2@pecker_sdk@@UAEJPAUIpecker_frame_buffer@2@I@Z ; pecker_sdk::pecker_texture_2d_gles2::attach_by_frame_buffer
PUBLIC	?bind@pecker_texture_2d_gles2@pecker_sdk@@UAEJXZ ; pecker_sdk::pecker_texture_2d_gles2::bind
PUBLIC	?get_mip_level@pecker_texture_2d_gles2@pecker_sdk@@UBEIXZ ; pecker_sdk::pecker_texture_2d_gles2::get_mip_level
PUBLIC	?allocate_texture_from_gpu_ram@pecker_texture_2d_gles2@pecker_sdk@@UAEJABUpecker_texture_layer_info@2@@Z ; pecker_sdk::pecker_texture_2d_gles2::allocate_texture_from_gpu_ram
PUBLIC	?release_texture_from_gpu_ram@pecker_texture_2d_gles2@pecker_sdk@@UAEJXZ ; pecker_sdk::pecker_texture_2d_gles2::release_texture_from_gpu_ram
PUBLIC	?use_defualt_texture_filters@pecker_texture_2d_gles2@pecker_sdk@@UAEJXZ ; pecker_sdk::pecker_texture_2d_gles2::use_defualt_texture_filters
PUBLIC	?use_texture_filters@pecker_texture_2d_gles2@pecker_sdk@@UAEJPBUpecker_texture_filter_info@2@H@Z ; pecker_sdk::pecker_texture_2d_gles2::use_texture_filters
PUBLIC	?bind_texture_to_shader_sample@pecker_texture_2d_gles2@pecker_sdk@@UAEJII@Z ; pecker_sdk::pecker_texture_2d_gles2::bind_texture_to_shader_sample
PUBLIC	?get_texture_info@pecker_texture_2d_gles2@pecker_sdk@@UAEABUpecker_texture_layer_info@2@I@Z ; pecker_sdk::pecker_texture_2d_gles2::get_texture_info
PUBLIC	?update_gpu_buffer@pecker_texture_2d_gles2@pecker_sdk@@UAEJHQAX_N@Z ; pecker_sdk::pecker_texture_2d_gles2::update_gpu_buffer
PUBLIC	?update_gpu_sub_buffer@pecker_texture_2d_gles2@pecker_sdk@@UAEJHHHHHQAX_N@Z ; pecker_sdk::pecker_texture_2d_gles2::update_gpu_sub_buffer
PUBLIC	?set_active_miplevel@pecker_texture_2d_gles2@pecker_sdk@@UAEJI@Z ; pecker_sdk::pecker_texture_2d_gles2::set_active_miplevel
PUBLIC	?get_active_miplevel@pecker_texture_2d_gles2@pecker_sdk@@UBEIXZ ; pecker_sdk::pecker_texture_2d_gles2::get_active_miplevel
PUBLIC	?set_render_type@pecker_texture_2d_gles2@pecker_sdk@@UAEJI@Z ; pecker_sdk::pecker_texture_2d_gles2::set_render_type
PUBLIC	?get_render_type@pecker_texture_2d_gles2@pecker_sdk@@UBEIXZ ; pecker_sdk::pecker_texture_2d_gles2::get_render_type
PUBLIC	??_R4pecker_texture_2d_gles2@pecker_sdk@@6Bpecker_opengles_v2_object@1@@ ; pecker_sdk::pecker_texture_2d_gles2::`RTTI Complete Object Locator'
PUBLIC	??_Epecker_texture_2d_gles2@pecker_sdk@@$4PPPPPPPM@PA@AEPAXI@Z ; pecker_sdk::pecker_texture_2d_gles2::`vector deleting destructor'
PUBLIC	?get_object_location@pecker_texture_2d_gles2@pecker_sdk@@$4PPPPPPPM@A@BEIXZ ; pecker_sdk::pecker_texture_2d_gles2::get_object_location
EXTRN	__RTC_CheckEsp:PROC
EXTRN	__RTC_Shutdown:PROC
EXTRN	__RTC_InitBase:PROC
EXTRN	??_7type_info@@6B@:QWORD			; type_info::`vftable'
EXTRN	??_Epecker_texture_2d_gles2@pecker_sdk@@UAEPAXI@Z:PROC ; pecker_sdk::pecker_texture_2d_gles2::`vector deleting destructor'
EXTRN	?get_frame_buffer_object_type@Ipecker_texture@pecker_sdk@@UBEIXZ:PROC ; pecker_sdk::Ipecker_texture::get_frame_buffer_object_type
EXTRN	__purecall:PROC
EXTRN	?get_texture_type@Ipecker_texture2d@pecker_sdk@@UBEIXZ:PROC ; pecker_sdk::Ipecker_texture2d::get_texture_type
EXTRN	?toString@pecker_render_object@pecker_sdk@@UBEABV?$pecker_share_string_base_t@DU?$pecker_value_compare@D@pecker_sdk@@V?$pecker_simple_allocator@D@2@$0BA@@2@AAV32@@Z:PROC ; pecker_sdk::pecker_render_object::toString
EXTRN	?get_render_system_info@pecker_opengles_v2_object@pecker_sdk@@UBEABUpecker_render_system_info@2@AAU32@@Z:PROC ; pecker_sdk::pecker_opengles_v2_object::get_render_system_info
EXTRN	?get_this_reference@pecker_render_object@pecker_sdk@@UAEPAV12@XZ:PROC ; pecker_sdk::pecker_render_object::get_this_reference
EXTRN	?release_this_reference@pecker_render_object@pecker_sdk@@UAEJXZ:PROC ; pecker_sdk::pecker_render_object::release_this_reference
;	COMDAT ??_R4pecker_texture_2d_gles2@pecker_sdk@@6Bpecker_opengles_v2_object@1@@
; File f:\codes\pecker_framework_git\pecker_src\pecker_framework\render\render_system\opengles\pecker_texture_gl.cpp
rdata$r	SEGMENT
??_R4pecker_texture_2d_gles2@pecker_sdk@@6Bpecker_opengles_v2_object@1@@ DD 00H ; pecker_sdk::pecker_texture_2d_gles2::`RTTI Complete Object Locator'
	DD	0f0H
	DD	04H
	DD	FLAT:??_R0?AVpecker_texture_2d_gles2@pecker_sdk@@@8
	DD	FLAT:??_R3pecker_texture_2d_gles2@pecker_sdk@@8
rdata$r	ENDS
;	COMDAT ??_R1A@33EA@pecker_render_object@pecker_sdk@@8
rdata$r	SEGMENT
??_R1A@33EA@pecker_render_object@pecker_sdk@@8 DD FLAT:??_R0?AVpecker_render_object@pecker_sdk@@@8 ; pecker_sdk::pecker_render_object::`RTTI Base Class Descriptor at (0,4,4,64)'
	DD	00H
	DD	00H
	DD	04H
	DD	04H
	DD	040H
	DD	FLAT:??_R3pecker_render_object@pecker_sdk@@8
rdata$r	ENDS
;	COMDAT ??_R2pecker_render_object@pecker_sdk@@8
rdata$r	SEGMENT
??_R2pecker_render_object@pecker_sdk@@8 DD FLAT:??_R1A@?0A@EA@pecker_render_object@pecker_sdk@@8 ; pecker_sdk::pecker_render_object::`RTTI Base Class Array'
rdata$r	ENDS
;	COMDAT ??_R3pecker_render_object@pecker_sdk@@8
rdata$r	SEGMENT
??_R3pecker_render_object@pecker_sdk@@8 DD 00H		; pecker_sdk::pecker_render_object::`RTTI Class Hierarchy Descriptor'
	DD	00H
	DD	01H
	DD	FLAT:??_R2pecker_render_object@pecker_sdk@@8
rdata$r	ENDS
;	COMDAT ??_R0?AVpecker_render_object@pecker_sdk@@@8
_DATA	SEGMENT
??_R0?AVpecker_render_object@pecker_sdk@@@8 DD FLAT:??_7type_info@@6B@ ; pecker_sdk::pecker_render_object `RTTI Type Descriptor'
	DD	00H
	DB	'.?AVpecker_render_object@pecker_sdk@@', 00H
_DATA	ENDS
;	COMDAT ??_R1A@?0A@EA@pecker_render_object@pecker_sdk@@8
rdata$r	SEGMENT
??_R1A@?0A@EA@pecker_render_object@pecker_sdk@@8 DD FLAT:??_R0?AVpecker_render_object@pecker_sdk@@@8 ; pecker_sdk::pecker_render_object::`RTTI Base Class Descriptor at (0,-1,0,64)'
	DD	00H
	DD	00H
	DD	0ffffffffH
	DD	00H
	DD	040H
	DD	FLAT:??_R3pecker_render_object@pecker_sdk@@8
rdata$r	ENDS
;	COMDAT ??_R1A@?0A@EA@pecker_opengles_v2_object@pecker_sdk@@8
rdata$r	SEGMENT
??_R1A@?0A@EA@pecker_opengles_v2_object@pecker_sdk@@8 DD FLAT:??_R0?AVpecker_opengles_v2_object@pecker_sdk@@@8 ; pecker_sdk::pecker_opengles_v2_object::`RTTI Base Class Descriptor at (0,-1,0,64)'
	DD	01H
	DD	00H
	DD	0ffffffffH
	DD	00H
	DD	040H
	DD	FLAT:??_R3pecker_opengles_v2_object@pecker_sdk@@8
rdata$r	ENDS
;	COMDAT ??_R2pecker_opengles_v2_object@pecker_sdk@@8
rdata$r	SEGMENT
??_R2pecker_opengles_v2_object@pecker_sdk@@8 DD FLAT:??_R1A@?0A@EA@pecker_opengles_v2_object@pecker_sdk@@8 ; pecker_sdk::pecker_opengles_v2_object::`RTTI Base Class Array'
	DD	FLAT:??_R1A@?0A@EA@pecker_render_object@pecker_sdk@@8
rdata$r	ENDS
;	COMDAT ??_R3pecker_opengles_v2_object@pecker_sdk@@8
rdata$r	SEGMENT
??_R3pecker_opengles_v2_object@pecker_sdk@@8 DD 00H	; pecker_sdk::pecker_opengles_v2_object::`RTTI Class Hierarchy Descriptor'
	DD	00H
	DD	02H
	DD	FLAT:??_R2pecker_opengles_v2_object@pecker_sdk@@8
rdata$r	ENDS
;	COMDAT ??_R0?AVpecker_opengles_v2_object@pecker_sdk@@@8
_DATA	SEGMENT
??_R0?AVpecker_opengles_v2_object@pecker_sdk@@@8 DD FLAT:??_7type_info@@6B@ ; pecker_sdk::pecker_opengles_v2_object `RTTI Type Descriptor'
	DD	00H
	DB	'.?AVpecker_opengles_v2_object@pecker_sdk@@', 00H
_DATA	ENDS
;	COMDAT ??_R1A@33FA@pecker_opengles_v2_object@pecker_sdk@@8
rdata$r	SEGMENT
??_R1A@33FA@pecker_opengles_v2_object@pecker_sdk@@8 DD FLAT:??_R0?AVpecker_opengles_v2_object@pecker_sdk@@@8 ; pecker_sdk::pecker_opengles_v2_object::`RTTI Base Class Descriptor at (0,4,4,80)'
	DD	01H
	DD	00H
	DD	04H
	DD	04H
	DD	050H
	DD	FLAT:??_R3pecker_opengles_v2_object@pecker_sdk@@8
rdata$r	ENDS
;	COMDAT ??_R2Ipecker_frame_buffer_object@pecker_sdk@@8
rdata$r	SEGMENT
??_R2Ipecker_frame_buffer_object@pecker_sdk@@8 DD FLAT:??_R1A@?0A@EA@Ipecker_frame_buffer_object@pecker_sdk@@8 ; pecker_sdk::Ipecker_frame_buffer_object::`RTTI Base Class Array'
rdata$r	ENDS
;	COMDAT ??_R3Ipecker_frame_buffer_object@pecker_sdk@@8
rdata$r	SEGMENT
??_R3Ipecker_frame_buffer_object@pecker_sdk@@8 DD 00H	; pecker_sdk::Ipecker_frame_buffer_object::`RTTI Class Hierarchy Descriptor'
	DD	00H
	DD	01H
	DD	FLAT:??_R2Ipecker_frame_buffer_object@pecker_sdk@@8
rdata$r	ENDS
;	COMDAT ??_R0?AUIpecker_frame_buffer_object@pecker_sdk@@@8
_DATA	SEGMENT
??_R0?AUIpecker_frame_buffer_object@pecker_sdk@@@8 DD FLAT:??_7type_info@@6B@ ; pecker_sdk::Ipecker_frame_buffer_object `RTTI Type Descriptor'
	DD	00H
	DB	'.?AUIpecker_frame_buffer_object@pecker_sdk@@', 00H
_DATA	ENDS
;	COMDAT ??_R1A@?0A@EA@Ipecker_frame_buffer_object@pecker_sdk@@8
rdata$r	SEGMENT
??_R1A@?0A@EA@Ipecker_frame_buffer_object@pecker_sdk@@8 DD FLAT:??_R0?AUIpecker_frame_buffer_object@pecker_sdk@@@8 ; pecker_sdk::Ipecker_frame_buffer_object::`RTTI Base Class Descriptor at (0,-1,0,64)'
	DD	00H
	DD	00H
	DD	0ffffffffH
	DD	00H
	DD	040H
	DD	FLAT:??_R3Ipecker_frame_buffer_object@pecker_sdk@@8
rdata$r	ENDS
;	COMDAT ??_R2Ipecker_texture@pecker_sdk@@8
rdata$r	SEGMENT
??_R2Ipecker_texture@pecker_sdk@@8 DD FLAT:??_R1A@?0A@EA@Ipecker_texture@pecker_sdk@@8 ; pecker_sdk::Ipecker_texture::`RTTI Base Class Array'
	DD	FLAT:??_R1A@?0A@EA@Ipecker_frame_buffer_object@pecker_sdk@@8
rdata$r	ENDS
;	COMDAT ??_R3Ipecker_texture@pecker_sdk@@8
rdata$r	SEGMENT
??_R3Ipecker_texture@pecker_sdk@@8 DD 00H		; pecker_sdk::Ipecker_texture::`RTTI Class Hierarchy Descriptor'
	DD	00H
	DD	02H
	DD	FLAT:??_R2Ipecker_texture@pecker_sdk@@8
rdata$r	ENDS
;	COMDAT ??_R0?AUIpecker_texture@pecker_sdk@@@8
_DATA	SEGMENT
??_R0?AUIpecker_texture@pecker_sdk@@@8 DD FLAT:??_7type_info@@6B@ ; pecker_sdk::Ipecker_texture `RTTI Type Descriptor'
	DD	00H
	DB	'.?AUIpecker_texture@pecker_sdk@@', 00H
_DATA	ENDS
;	COMDAT ??_R1A@?0A@EA@Ipecker_texture@pecker_sdk@@8
rdata$r	SEGMENT
??_R1A@?0A@EA@Ipecker_texture@pecker_sdk@@8 DD FLAT:??_R0?AUIpecker_texture@pecker_sdk@@@8 ; pecker_sdk::Ipecker_texture::`RTTI Base Class Descriptor at (0,-1,0,64)'
	DD	01H
	DD	00H
	DD	0ffffffffH
	DD	00H
	DD	040H
	DD	FLAT:??_R3Ipecker_texture@pecker_sdk@@8
rdata$r	ENDS
;	COMDAT ??_R2Ipecker_texture2d@pecker_sdk@@8
rdata$r	SEGMENT
??_R2Ipecker_texture2d@pecker_sdk@@8 DD FLAT:??_R1A@?0A@EA@Ipecker_texture2d@pecker_sdk@@8 ; pecker_sdk::Ipecker_texture2d::`RTTI Base Class Array'
	DD	FLAT:??_R1A@?0A@EA@Ipecker_texture@pecker_sdk@@8
	DD	FLAT:??_R1A@?0A@EA@Ipecker_frame_buffer_object@pecker_sdk@@8
rdata$r	ENDS
;	COMDAT ??_R3Ipecker_texture2d@pecker_sdk@@8
rdata$r	SEGMENT
??_R3Ipecker_texture2d@pecker_sdk@@8 DD 00H		; pecker_sdk::Ipecker_texture2d::`RTTI Class Hierarchy Descriptor'
	DD	00H
	DD	03H
	DD	FLAT:??_R2Ipecker_texture2d@pecker_sdk@@8
rdata$r	ENDS
;	COMDAT ??_R0?AUIpecker_texture2d@pecker_sdk@@@8
_DATA	SEGMENT
??_R0?AUIpecker_texture2d@pecker_sdk@@@8 DD FLAT:??_7type_info@@6B@ ; pecker_sdk::Ipecker_texture2d `RTTI Type Descriptor'
	DD	00H
	DB	'.?AUIpecker_texture2d@pecker_sdk@@', 00H
_DATA	ENDS
;	COMDAT ??_R1A@?0A@EA@Ipecker_texture2d@pecker_sdk@@8
rdata$r	SEGMENT
??_R1A@?0A@EA@Ipecker_texture2d@pecker_sdk@@8 DD FLAT:??_R0?AUIpecker_texture2d@pecker_sdk@@@8 ; pecker_sdk::Ipecker_texture2d::`RTTI Base Class Descriptor at (0,-1,0,64)'
	DD	02H
	DD	00H
	DD	0ffffffffH
	DD	00H
	DD	040H
	DD	FLAT:??_R3Ipecker_texture2d@pecker_sdk@@8
rdata$r	ENDS
;	COMDAT ??_R1A@?0A@EA@pecker_texture_2d_gles2@pecker_sdk@@8
rdata$r	SEGMENT
??_R1A@?0A@EA@pecker_texture_2d_gles2@pecker_sdk@@8 DD FLAT:??_R0?AVpecker_texture_2d_gles2@pecker_sdk@@@8 ; pecker_sdk::pecker_texture_2d_gles2::`RTTI Base Class Descriptor at (0,-1,0,64)'
	DD	05H
	DD	00H
	DD	0ffffffffH
	DD	00H
	DD	040H
	DD	FLAT:??_R3pecker_texture_2d_gles2@pecker_sdk@@8
rdata$r	ENDS
;	COMDAT ??_R2pecker_texture_2d_gles2@pecker_sdk@@8
rdata$r	SEGMENT
??_R2pecker_texture_2d_gles2@pecker_sdk@@8 DD FLAT:??_R1A@?0A@EA@pecker_texture_2d_gles2@pecker_sdk@@8 ; pecker_sdk::pecker_texture_2d_gles2::`RTTI Base Class Array'
	DD	FLAT:??_R1A@?0A@EA@Ipecker_texture2d@pecker_sdk@@8
	DD	FLAT:??_R1A@?0A@EA@Ipecker_texture@pecker_sdk@@8
	DD	FLAT:??_R1A@?0A@EA@Ipecker_frame_buffer_object@pecker_sdk@@8
	DD	FLAT:??_R1A@33FA@pecker_opengles_v2_object@pecker_sdk@@8
	DD	FLAT:??_R1A@33EA@pecker_render_object@pecker_sdk@@8
rdata$r	ENDS
;	COMDAT ??_R3pecker_texture_2d_gles2@pecker_sdk@@8
rdata$r	SEGMENT
??_R3pecker_texture_2d_gles2@pecker_sdk@@8 DD 00H	; pecker_sdk::pecker_texture_2d_gles2::`RTTI Class Hierarchy Descriptor'
	DD	03H
	DD	06H
	DD	FLAT:??_R2pecker_texture_2d_gles2@pecker_sdk@@8
rdata$r	ENDS
;	COMDAT ??_R0?AVpecker_texture_2d_gles2@pecker_sdk@@@8
_DATA	SEGMENT
??_R0?AVpecker_texture_2d_gles2@pecker_sdk@@@8 DD FLAT:??_7type_info@@6B@ ; pecker_sdk::pecker_texture_2d_gles2 `RTTI Type Descriptor'
	DD	00H
	DB	'.?AVpecker_texture_2d_gles2@pecker_sdk@@', 00H
_DATA	ENDS
;	COMDAT ??_R4pecker_texture_2d_gles2@pecker_sdk@@6BIpecker_texture2d@1@@
rdata$r	SEGMENT
??_R4pecker_texture_2d_gles2@pecker_sdk@@6BIpecker_texture2d@1@@ DD 00H ; pecker_sdk::pecker_texture_2d_gles2::`RTTI Complete Object Locator'
	DD	00H
	DD	00H
	DD	FLAT:??_R0?AVpecker_texture_2d_gles2@pecker_sdk@@@8
	DD	FLAT:??_R3pecker_texture_2d_gles2@pecker_sdk@@8
rdata$r	ENDS
;	COMDAT ??_7pecker_texture_2d_gles2@pecker_sdk@@6Bpecker_opengles_v2_object@1@@
CONST	SEGMENT
??_7pecker_texture_2d_gles2@pecker_sdk@@6Bpecker_opengles_v2_object@1@@ DD FLAT:??_R4pecker_texture_2d_gles2@pecker_sdk@@6Bpecker_opengles_v2_object@1@@ ; pecker_sdk::pecker_texture_2d_gles2::`vftable'
	DD	FLAT:??_Epecker_texture_2d_gles2@pecker_sdk@@$4PPPPPPPM@PA@AEPAXI@Z
	DD	FLAT:?toString@pecker_render_object@pecker_sdk@@UBEABV?$pecker_share_string_base_t@DU?$pecker_value_compare@D@pecker_sdk@@V?$pecker_simple_allocator@D@2@$0BA@@2@AAV32@@Z
	DD	FLAT:?get_render_system_info@pecker_opengles_v2_object@pecker_sdk@@UBEABUpecker_render_system_info@2@AAU32@@Z
	DD	FLAT:?get_this_reference@pecker_render_object@pecker_sdk@@UAEPAV12@XZ
	DD	FLAT:?release_this_reference@pecker_render_object@pecker_sdk@@UAEJXZ
	DD	FLAT:?get_object_location@pecker_texture_2d_gles2@pecker_sdk@@$4PPPPPPPM@A@BEIXZ
CONST	ENDS
;	COMDAT ??_7pecker_texture_2d_gles2@pecker_sdk@@6BIpecker_texture2d@1@@
CONST	SEGMENT
??_7pecker_texture_2d_gles2@pecker_sdk@@6BIpecker_texture2d@1@@ DD FLAT:??_R4pecker_texture_2d_gles2@pecker_sdk@@6BIpecker_texture2d@1@@ ; pecker_sdk::pecker_texture_2d_gles2::`vftable'
	DD	FLAT:??_Epecker_texture_2d_gles2@pecker_sdk@@UAEPAXI@Z
	DD	FLAT:?attach_by_frame_buffer@pecker_texture_2d_gles2@pecker_sdk@@UAEJPAUIpecker_frame_buffer@2@I@Z
	DD	FLAT:?bind@pecker_texture_2d_gles2@pecker_sdk@@UAEJXZ
	DD	FLAT:?get_frame_buffer_object_type@Ipecker_texture@pecker_sdk@@UBEIXZ
	DD	FLAT:?get_mip_level@pecker_texture_2d_gles2@pecker_sdk@@UBEIXZ
	DD	FLAT:__purecall
	DD	FLAT:?allocate_texture_from_gpu_ram@pecker_texture_2d_gles2@pecker_sdk@@UAEJABUpecker_texture_layer_info@2@@Z
	DD	FLAT:?release_texture_from_gpu_ram@pecker_texture_2d_gles2@pecker_sdk@@UAEJXZ
	DD	FLAT:?use_defualt_texture_filters@pecker_texture_2d_gles2@pecker_sdk@@UAEJXZ
	DD	FLAT:?use_texture_filters@pecker_texture_2d_gles2@pecker_sdk@@UAEJPBUpecker_texture_filter_info@2@H@Z
	DD	FLAT:?bind_texture_to_shader_sample@pecker_texture_2d_gles2@pecker_sdk@@UAEJII@Z
	DD	FLAT:?get_texture_info@pecker_texture_2d_gles2@pecker_sdk@@UAEABUpecker_texture_layer_info@2@I@Z
	DD	FLAT:?update_gpu_buffer@pecker_texture_2d_gles2@pecker_sdk@@UAEJHQAX_N@Z
	DD	FLAT:?update_gpu_sub_buffer@pecker_texture_2d_gles2@pecker_sdk@@UAEJHHHHHQAX_N@Z
	DD	FLAT:?get_texture_type@Ipecker_texture2d@pecker_sdk@@UBEIXZ
	DD	FLAT:?set_active_miplevel@pecker_texture_2d_gles2@pecker_sdk@@UAEJI@Z
	DD	FLAT:?get_active_miplevel@pecker_texture_2d_gles2@pecker_sdk@@UBEIXZ
	DD	FLAT:?set_render_type@pecker_texture_2d_gles2@pecker_sdk@@UAEJI@Z
	DD	FLAT:?get_render_type@pecker_texture_2d_gles2@pecker_sdk@@UBEIXZ
CONST	ENDS
;	COMDAT ??_8pecker_texture_2d_gles2@pecker_sdk@@7B@
CONST	SEGMENT
??_8pecker_texture_2d_gles2@pecker_sdk@@7B@ DD 0fffffffcH ; pecker_sdk::pecker_texture_2d_gles2::`vbtable'
	DD	0ecH
CONST	ENDS
;	COMDAT rtc$TMZ
rtc$TMZ	SEGMENT
__RTC_Shutdown.rtc$TMZ DD FLAT:__RTC_Shutdown
rtc$TMZ	ENDS
;	COMDAT rtc$IMZ
rtc$IMZ	SEGMENT
__RTC_InitBase.rtc$IMZ DD FLAT:__RTC_InitBase
; Function compile flags: /Odtp /RTCsu /ZI
rtc$IMZ	ENDS
;	COMDAT ??0pecker_texture_2d_gles2@pecker_sdk@@QAE@XZ
_TEXT	SEGMENT
$T69412 = -212						; size = 4
_this$ = -8						; size = 4
_$initVBases$ = 8					; size = 4
??0pecker_texture_2d_gles2@pecker_sdk@@QAE@XZ PROC	; pecker_sdk::pecker_texture_2d_gles2::pecker_texture_2d_gles2, COMDAT
; _this$ = ecx

; 26   : {

	push	ebp
	mov	ebp, esp
	sub	esp, 216				; 000000d8H
	push	ebx
	push	esi
	push	edi
	push	ecx
	lea	edi, DWORD PTR [ebp-216]
	mov	ecx, 54					; 00000036H
	mov	eax, -858993460				; ccccccccH
	rep stosd
	pop	ecx
	mov	DWORD PTR _this$[ebp], ecx
	mov	DWORD PTR $T69412[ebp], 0
	cmp	DWORD PTR _$initVBases$[ebp], 0
	je	SHORT $LN1@pecker_tex
	mov	eax, DWORD PTR _this$[ebp]
	mov	DWORD PTR [eax+4], OFFSET ??_8pecker_texture_2d_gles2@pecker_sdk@@7B@
	mov	ecx, DWORD PTR _this$[ebp]
	add	ecx, 240				; 000000f0H
	call	??0pecker_opengles_v2_object@pecker_sdk@@QAE@XZ
	mov	eax, DWORD PTR $T69412[ebp]
	or	eax, 1
	mov	DWORD PTR $T69412[ebp], eax
$LN1@pecker_tex:
	mov	ecx, DWORD PTR _this$[ebp]
	call	??0Ipecker_texture2d@pecker_sdk@@QAE@XZ
	mov	eax, DWORD PTR _this$[ebp]
	mov	DWORD PTR [eax], OFFSET ??_7pecker_texture_2d_gles2@pecker_sdk@@6BIpecker_texture2d@1@@
	mov	eax, DWORD PTR _this$[ebp]
	mov	ecx, DWORD PTR [eax+4]
	mov	edx, DWORD PTR [ecx+4]
	mov	eax, DWORD PTR _this$[ebp]
	mov	DWORD PTR [eax+edx+4], OFFSET ??_7pecker_texture_2d_gles2@pecker_sdk@@6Bpecker_opengles_v2_object@1@@
	mov	eax, DWORD PTR _this$[ebp]
	mov	ecx, DWORD PTR [eax+4]
	mov	edx, DWORD PTR [ecx+4]
	sub	edx, 236				; 000000ecH
	mov	eax, DWORD PTR _this$[ebp]
	mov	ecx, DWORD PTR [eax+4]
	mov	eax, DWORD PTR [ecx+4]
	mov	ecx, DWORD PTR _this$[ebp]
	mov	DWORD PTR [ecx+eax], edx
	mov	eax, DWORD PTR _this$[ebp]
	mov	DWORD PTR [eax+8], 0
	mov	eax, DWORD PTR _this$[ebp]
	mov	DWORD PTR [eax+12], 0
	mov	eax, DWORD PTR _this$[ebp]
	mov	DWORD PTR [eax+16], 0
	mov	eax, DWORD PTR _this$[ebp]
	mov	DWORD PTR [eax+20], 0
	mov	eax, DWORD PTR _this$[ebp]
	mov	DWORD PTR [eax+24], 0

; 27   : 
; 28   : }

	mov	eax, DWORD PTR _this$[ebp]
	pop	edi
	pop	esi
	pop	ebx
	add	esp, 216				; 000000d8H
	cmp	ebp, esp
	call	__RTC_CheckEsp
	mov	esp, ebp
	pop	ebp
	ret	4
??0pecker_texture_2d_gles2@pecker_sdk@@QAE@XZ ENDP	; pecker_sdk::pecker_texture_2d_gles2::pecker_texture_2d_gles2
_TEXT	ENDS
PUBLIC	??_Dpecker_texture_2d_gles2@pecker_sdk@@QAEXXZ	; pecker_sdk::pecker_texture_2d_gles2::`vbase destructor'
EXTRN	??3@YAXPAX@Z:PROC				; operator delete
; Function compile flags: /Odtp /RTCsu /ZI
;	COMDAT ??_Gpecker_texture_2d_gles2@pecker_sdk@@UAEPAXI@Z
_TEXT	SEGMENT
_this$ = -8						; size = 4
___flags$ = 8						; size = 4
??_Gpecker_texture_2d_gles2@pecker_sdk@@UAEPAXI@Z PROC	; pecker_sdk::pecker_texture_2d_gles2::`scalar deleting destructor', COMDAT
; _this$ = ecx
	push	ebp
	mov	ebp, esp
	sub	esp, 204				; 000000ccH
	push	ebx
	push	esi
	push	edi
	push	ecx
	lea	edi, DWORD PTR [ebp-204]
	mov	ecx, 51					; 00000033H
	mov	eax, -858993460				; ccccccccH
	rep stosd
	pop	ecx
	mov	DWORD PTR _this$[ebp], ecx
	mov	ecx, DWORD PTR _this$[ebp]
	call	??_Dpecker_texture_2d_gles2@pecker_sdk@@QAEXXZ
	mov	eax, DWORD PTR ___flags$[ebp]
	and	eax, 1
	je	SHORT $LN1@scalar
	mov	eax, DWORD PTR _this$[ebp]
	push	eax
	call	??3@YAXPAX@Z				; operator delete
	add	esp, 4
$LN1@scalar:
	mov	eax, DWORD PTR _this$[ebp]
	pop	edi
	pop	esi
	pop	ebx
	add	esp, 204				; 000000ccH
	cmp	ebp, esp
	call	__RTC_CheckEsp
	mov	esp, ebp
	pop	ebp
	ret	4
??_Gpecker_texture_2d_gles2@pecker_sdk@@UAEPAXI@Z ENDP	; pecker_sdk::pecker_texture_2d_gles2::`scalar deleting destructor'
_TEXT	ENDS
PUBLIC	??_7pecker_opengles_v2_object@pecker_sdk@@6B@	; pecker_sdk::pecker_opengles_v2_object::`vftable'
PUBLIC	??_R4pecker_opengles_v2_object@pecker_sdk@@6B@	; pecker_sdk::pecker_opengles_v2_object::`RTTI Complete Object Locator'
EXTRN	??0pecker_render_object@pecker_sdk@@QAE@XZ:PROC	; pecker_sdk::pecker_render_object::pecker_render_object
EXTRN	??_Epecker_opengles_v2_object@pecker_sdk@@UAEPAXI@Z:PROC ; pecker_sdk::pecker_opengles_v2_object::`vector deleting destructor'
EXTRN	?get_object_location@pecker_opengles_v2_object@pecker_sdk@@UBEIXZ:PROC ; pecker_sdk::pecker_opengles_v2_object::get_object_location
;	COMDAT ??_R4pecker_opengles_v2_object@pecker_sdk@@6B@
rdata$r	SEGMENT
??_R4pecker_opengles_v2_object@pecker_sdk@@6B@ DD 00H	; pecker_sdk::pecker_opengles_v2_object::`RTTI Complete Object Locator'
	DD	00H
	DD	00H
	DD	FLAT:??_R0?AVpecker_opengles_v2_object@pecker_sdk@@@8
	DD	FLAT:??_R3pecker_opengles_v2_object@pecker_sdk@@8
rdata$r	ENDS
;	COMDAT ??_7pecker_opengles_v2_object@pecker_sdk@@6B@
CONST	SEGMENT
??_7pecker_opengles_v2_object@pecker_sdk@@6B@ DD FLAT:??_R4pecker_opengles_v2_object@pecker_sdk@@6B@ ; pecker_sdk::pecker_opengles_v2_object::`vftable'
	DD	FLAT:??_Epecker_opengles_v2_object@pecker_sdk@@UAEPAXI@Z
	DD	FLAT:?toString@pecker_render_object@pecker_sdk@@UBEABV?$pecker_share_string_base_t@DU?$pecker_value_compare@D@pecker_sdk@@V?$pecker_simple_allocator@D@2@$0BA@@2@AAV32@@Z
	DD	FLAT:?get_render_system_info@pecker_opengles_v2_object@pecker_sdk@@UBEABUpecker_render_system_info@2@AAU32@@Z
	DD	FLAT:?get_this_reference@pecker_render_object@pecker_sdk@@UAEPAV12@XZ
	DD	FLAT:?release_this_reference@pecker_render_object@pecker_sdk@@UAEJXZ
	DD	FLAT:?get_object_location@pecker_opengles_v2_object@pecker_sdk@@UBEIXZ
; Function compile flags: /Odtp /RTCsu /ZI
CONST	ENDS
;	COMDAT ??0pecker_opengles_v2_object@pecker_sdk@@QAE@XZ
_TEXT	SEGMENT
_this$ = -8						; size = 4
??0pecker_opengles_v2_object@pecker_sdk@@QAE@XZ PROC	; pecker_sdk::pecker_opengles_v2_object::pecker_opengles_v2_object, COMDAT
; _this$ = ecx
	push	ebp
	mov	ebp, esp
	sub	esp, 204				; 000000ccH
	push	ebx
	push	esi
	push	edi
	push	ecx
	lea	edi, DWORD PTR [ebp-204]
	mov	ecx, 51					; 00000033H
	mov	eax, -858993460				; ccccccccH
	rep stosd
	pop	ecx
	mov	DWORD PTR _this$[ebp], ecx
	mov	ecx, DWORD PTR _this$[ebp]
	call	??0pecker_render_object@pecker_sdk@@QAE@XZ ; pecker_sdk::pecker_render_object::pecker_render_object
	mov	eax, DWORD PTR _this$[ebp]
	mov	DWORD PTR [eax], OFFSET ??_7pecker_opengles_v2_object@pecker_sdk@@6B@
	mov	eax, DWORD PTR _this$[ebp]
	pop	edi
	pop	esi
	pop	ebx
	add	esp, 204				; 000000ccH
	cmp	ebp, esp
	call	__RTC_CheckEsp
	mov	esp, ebp
	pop	ebp
	ret	0
??0pecker_opengles_v2_object@pecker_sdk@@QAE@XZ ENDP	; pecker_sdk::pecker_opengles_v2_object::pecker_opengles_v2_object
_TEXT	ENDS
PUBLIC	??_7Ipecker_texture2d@pecker_sdk@@6B@		; pecker_sdk::Ipecker_texture2d::`vftable'
PUBLIC	??0Ipecker_texture@pecker_sdk@@QAE@XZ		; pecker_sdk::Ipecker_texture::Ipecker_texture
PUBLIC	??_R4Ipecker_texture2d@pecker_sdk@@6B@		; pecker_sdk::Ipecker_texture2d::`RTTI Complete Object Locator'
EXTRN	??_EIpecker_texture2d@pecker_sdk@@UAEPAXI@Z:PROC ; pecker_sdk::Ipecker_texture2d::`vector deleting destructor'
;	COMDAT ??_R4Ipecker_texture2d@pecker_sdk@@6B@
rdata$r	SEGMENT
??_R4Ipecker_texture2d@pecker_sdk@@6B@ DD 00H		; pecker_sdk::Ipecker_texture2d::`RTTI Complete Object Locator'
	DD	00H
	DD	00H
	DD	FLAT:??_R0?AUIpecker_texture2d@pecker_sdk@@@8
	DD	FLAT:??_R3Ipecker_texture2d@pecker_sdk@@8
rdata$r	ENDS
;	COMDAT ??_7Ipecker_texture2d@pecker_sdk@@6B@
CONST	SEGMENT
??_7Ipecker_texture2d@pecker_sdk@@6B@ DD FLAT:??_R4Ipecker_texture2d@pecker_sdk@@6B@ ; pecker_sdk::Ipecker_texture2d::`vftable'
	DD	FLAT:??_EIpecker_texture2d@pecker_sdk@@UAEPAXI@Z
	DD	FLAT:__purecall
	DD	FLAT:__purecall
	DD	FLAT:?get_frame_buffer_object_type@Ipecker_texture@pecker_sdk@@UBEIXZ
	DD	FLAT:__purecall
	DD	FLAT:__purecall
	DD	FLAT:__purecall
	DD	FLAT:__purecall
	DD	FLAT:__purecall
	DD	FLAT:__purecall
	DD	FLAT:__purecall
	DD	FLAT:__purecall
	DD	FLAT:__purecall
	DD	FLAT:__purecall
	DD	FLAT:?get_texture_type@Ipecker_texture2d@pecker_sdk@@UBEIXZ
	DD	FLAT:__purecall
	DD	FLAT:__purecall
	DD	FLAT:__purecall
	DD	FLAT:__purecall
; Function compile flags: /Odtp /RTCsu /ZI
CONST	ENDS
;	COMDAT ??0Ipecker_texture2d@pecker_sdk@@QAE@XZ
_TEXT	SEGMENT
_this$ = -8						; size = 4
??0Ipecker_texture2d@pecker_sdk@@QAE@XZ PROC		; pecker_sdk::Ipecker_texture2d::Ipecker_texture2d, COMDAT
; _this$ = ecx
	push	ebp
	mov	ebp, esp
	sub	esp, 204				; 000000ccH
	push	ebx
	push	esi
	push	edi
	push	ecx
	lea	edi, DWORD PTR [ebp-204]
	mov	ecx, 51					; 00000033H
	mov	eax, -858993460				; ccccccccH
	rep stosd
	pop	ecx
	mov	DWORD PTR _this$[ebp], ecx
	mov	ecx, DWORD PTR _this$[ebp]
	call	??0Ipecker_texture@pecker_sdk@@QAE@XZ
	mov	eax, DWORD PTR _this$[ebp]
	mov	DWORD PTR [eax], OFFSET ??_7Ipecker_texture2d@pecker_sdk@@6B@
	mov	eax, DWORD PTR _this$[ebp]
	pop	edi
	pop	esi
	pop	ebx
	add	esp, 204				; 000000ccH
	cmp	ebp, esp
	call	__RTC_CheckEsp
	mov	esp, ebp
	pop	ebp
	ret	0
??0Ipecker_texture2d@pecker_sdk@@QAE@XZ ENDP		; pecker_sdk::Ipecker_texture2d::Ipecker_texture2d
_TEXT	ENDS
PUBLIC	??1Ipecker_texture2d@pecker_sdk@@UAE@XZ		; pecker_sdk::Ipecker_texture2d::~Ipecker_texture2d
; Function compile flags: /Odtp /RTCsu /ZI
;	COMDAT ??_GIpecker_texture2d@pecker_sdk@@UAEPAXI@Z
_TEXT	SEGMENT
_this$ = -8						; size = 4
___flags$ = 8						; size = 4
??_GIpecker_texture2d@pecker_sdk@@UAEPAXI@Z PROC	; pecker_sdk::Ipecker_texture2d::`scalar deleting destructor', COMDAT
; _this$ = ecx
	push	ebp
	mov	ebp, esp
	sub	esp, 204				; 000000ccH
	push	ebx
	push	esi
	push	edi
	push	ecx
	lea	edi, DWORD PTR [ebp-204]
	mov	ecx, 51					; 00000033H
	mov	eax, -858993460				; ccccccccH
	rep stosd
	pop	ecx
	mov	DWORD PTR _this$[ebp], ecx
	mov	ecx, DWORD PTR _this$[ebp]
	call	??1Ipecker_texture2d@pecker_sdk@@UAE@XZ	; pecker_sdk::Ipecker_texture2d::~Ipecker_texture2d
	mov	eax, DWORD PTR ___flags$[ebp]
	and	eax, 1
	je	SHORT $LN1@scalar@2
	mov	eax, DWORD PTR _this$[ebp]
	push	eax
	call	??3@YAXPAX@Z				; operator delete
	add	esp, 4
$LN1@scalar@2:
	mov	eax, DWORD PTR _this$[ebp]
	pop	edi
	pop	esi
	pop	ebx
	add	esp, 204				; 000000ccH
	cmp	ebp, esp
	call	__RTC_CheckEsp
	mov	esp, ebp
	pop	ebp
	ret	4
??_GIpecker_texture2d@pecker_sdk@@UAEPAXI@Z ENDP	; pecker_sdk::Ipecker_texture2d::`scalar deleting destructor'
_TEXT	ENDS
PUBLIC	??1Ipecker_texture@pecker_sdk@@UAE@XZ		; pecker_sdk::Ipecker_texture::~Ipecker_texture
; Function compile flags: /Odtp /RTCsu /ZI
; File f:\codes\pecker_framework_git\pecker_src\pecker_framework\render\render_system\pecker_texture.h
;	COMDAT ??1Ipecker_texture2d@pecker_sdk@@UAE@XZ
_TEXT	SEGMENT
_this$ = -8						; size = 4
??1Ipecker_texture2d@pecker_sdk@@UAE@XZ PROC		; pecker_sdk::Ipecker_texture2d::~Ipecker_texture2d, COMDAT
; _this$ = ecx

; 81   : 	virtual ~Ipecker_texture2d(){;}

	push	ebp
	mov	ebp, esp
	sub	esp, 204				; 000000ccH
	push	ebx
	push	esi
	push	edi
	push	ecx
	lea	edi, DWORD PTR [ebp-204]
	mov	ecx, 51					; 00000033H
	mov	eax, -858993460				; ccccccccH
	rep stosd
	pop	ecx
	mov	DWORD PTR _this$[ebp], ecx
	mov	eax, DWORD PTR _this$[ebp]
	mov	DWORD PTR [eax], OFFSET ??_7Ipecker_texture2d@pecker_sdk@@6B@
	mov	ecx, DWORD PTR _this$[ebp]
	call	??1Ipecker_texture@pecker_sdk@@UAE@XZ	; pecker_sdk::Ipecker_texture::~Ipecker_texture
	pop	edi
	pop	esi
	pop	ebx
	add	esp, 204				; 000000ccH
	cmp	ebp, esp
	call	__RTC_CheckEsp
	mov	esp, ebp
	pop	ebp
	ret	0
??1Ipecker_texture2d@pecker_sdk@@UAE@XZ ENDP		; pecker_sdk::Ipecker_texture2d::~Ipecker_texture2d
_TEXT	ENDS
PUBLIC	??1Ipecker_frame_buffer_object@pecker_sdk@@UAE@XZ ; pecker_sdk::Ipecker_frame_buffer_object::~Ipecker_frame_buffer_object
PUBLIC	??_7Ipecker_texture@pecker_sdk@@6B@		; pecker_sdk::Ipecker_texture::`vftable'
PUBLIC	??_R4Ipecker_texture@pecker_sdk@@6B@		; pecker_sdk::Ipecker_texture::`RTTI Complete Object Locator'
EXTRN	??_EIpecker_texture@pecker_sdk@@UAEPAXI@Z:PROC	; pecker_sdk::Ipecker_texture::`vector deleting destructor'
;	COMDAT ??_R4Ipecker_texture@pecker_sdk@@6B@
rdata$r	SEGMENT
??_R4Ipecker_texture@pecker_sdk@@6B@ DD 00H		; pecker_sdk::Ipecker_texture::`RTTI Complete Object Locator'
	DD	00H
	DD	00H
	DD	FLAT:??_R0?AUIpecker_texture@pecker_sdk@@@8
	DD	FLAT:??_R3Ipecker_texture@pecker_sdk@@8
rdata$r	ENDS
;	COMDAT ??_7Ipecker_texture@pecker_sdk@@6B@
CONST	SEGMENT
??_7Ipecker_texture@pecker_sdk@@6B@ DD FLAT:??_R4Ipecker_texture@pecker_sdk@@6B@ ; pecker_sdk::Ipecker_texture::`vftable'
	DD	FLAT:??_EIpecker_texture@pecker_sdk@@UAEPAXI@Z
	DD	FLAT:__purecall
	DD	FLAT:__purecall
	DD	FLAT:?get_frame_buffer_object_type@Ipecker_texture@pecker_sdk@@UBEIXZ
	DD	FLAT:__purecall
	DD	FLAT:__purecall
	DD	FLAT:__purecall
	DD	FLAT:__purecall
	DD	FLAT:__purecall
	DD	FLAT:__purecall
	DD	FLAT:__purecall
	DD	FLAT:__purecall
	DD	FLAT:__purecall
	DD	FLAT:__purecall
	DD	FLAT:__purecall
	DD	FLAT:__purecall
	DD	FLAT:__purecall
	DD	FLAT:__purecall
	DD	FLAT:__purecall
; Function compile flags: /Odtp /RTCsu /ZI
CONST	ENDS
;	COMDAT ??1Ipecker_texture@pecker_sdk@@UAE@XZ
_TEXT	SEGMENT
_this$ = -8						; size = 4
??1Ipecker_texture@pecker_sdk@@UAE@XZ PROC		; pecker_sdk::Ipecker_texture::~Ipecker_texture, COMDAT
; _this$ = ecx

; 49   : 	virtual ~Ipecker_texture(){;}

	push	ebp
	mov	ebp, esp
	sub	esp, 204				; 000000ccH
	push	ebx
	push	esi
	push	edi
	push	ecx
	lea	edi, DWORD PTR [ebp-204]
	mov	ecx, 51					; 00000033H
	mov	eax, -858993460				; ccccccccH
	rep stosd
	pop	ecx
	mov	DWORD PTR _this$[ebp], ecx
	mov	eax, DWORD PTR _this$[ebp]
	mov	DWORD PTR [eax], OFFSET ??_7Ipecker_texture@pecker_sdk@@6B@
	mov	ecx, DWORD PTR _this$[ebp]
	call	??1Ipecker_frame_buffer_object@pecker_sdk@@UAE@XZ ; pecker_sdk::Ipecker_frame_buffer_object::~Ipecker_frame_buffer_object
	pop	edi
	pop	esi
	pop	ebx
	add	esp, 204				; 000000ccH
	cmp	ebp, esp
	call	__RTC_CheckEsp
	mov	esp, ebp
	pop	ebp
	ret	0
??1Ipecker_texture@pecker_sdk@@UAE@XZ ENDP		; pecker_sdk::Ipecker_texture::~Ipecker_texture
_TEXT	ENDS
PUBLIC	??_7Ipecker_frame_buffer_object@pecker_sdk@@6B@	; pecker_sdk::Ipecker_frame_buffer_object::`vftable'
PUBLIC	??_R4Ipecker_frame_buffer_object@pecker_sdk@@6B@ ; pecker_sdk::Ipecker_frame_buffer_object::`RTTI Complete Object Locator'
EXTRN	??_EIpecker_frame_buffer_object@pecker_sdk@@UAEPAXI@Z:PROC ; pecker_sdk::Ipecker_frame_buffer_object::`vector deleting destructor'
;	COMDAT ??_R4Ipecker_frame_buffer_object@pecker_sdk@@6B@
; File f:\codes\pecker_framework_git\pecker_src\pecker_framework\render\pecker_render_object.h
rdata$r	SEGMENT
??_R4Ipecker_frame_buffer_object@pecker_sdk@@6B@ DD 00H	; pecker_sdk::Ipecker_frame_buffer_object::`RTTI Complete Object Locator'
	DD	00H
	DD	00H
	DD	FLAT:??_R0?AUIpecker_frame_buffer_object@pecker_sdk@@@8
	DD	FLAT:??_R3Ipecker_frame_buffer_object@pecker_sdk@@8
rdata$r	ENDS
;	COMDAT ??_7Ipecker_frame_buffer_object@pecker_sdk@@6B@
CONST	SEGMENT
??_7Ipecker_frame_buffer_object@pecker_sdk@@6B@ DD FLAT:??_R4Ipecker_frame_buffer_object@pecker_sdk@@6B@ ; pecker_sdk::Ipecker_frame_buffer_object::`vftable'
	DD	FLAT:??_EIpecker_frame_buffer_object@pecker_sdk@@UAEPAXI@Z
	DD	FLAT:__purecall
	DD	FLAT:__purecall
	DD	FLAT:__purecall
; Function compile flags: /Odtp /RTCsu /ZI
CONST	ENDS
;	COMDAT ??1Ipecker_frame_buffer_object@pecker_sdk@@UAE@XZ
_TEXT	SEGMENT
_this$ = -8						; size = 4
??1Ipecker_frame_buffer_object@pecker_sdk@@UAE@XZ PROC	; pecker_sdk::Ipecker_frame_buffer_object::~Ipecker_frame_buffer_object, COMDAT
; _this$ = ecx

; 220  : 	virtual ~Ipecker_frame_buffer_object(){;}

	push	ebp
	mov	ebp, esp
	sub	esp, 204				; 000000ccH
	push	ebx
	push	esi
	push	edi
	push	ecx
	lea	edi, DWORD PTR [ebp-204]
	mov	ecx, 51					; 00000033H
	mov	eax, -858993460				; ccccccccH
	rep stosd
	pop	ecx
	mov	DWORD PTR _this$[ebp], ecx
	mov	eax, DWORD PTR _this$[ebp]
	mov	DWORD PTR [eax], OFFSET ??_7Ipecker_frame_buffer_object@pecker_sdk@@6B@
	pop	edi
	pop	esi
	pop	ebx
	mov	esp, ebp
	pop	ebp
	ret	0
??1Ipecker_frame_buffer_object@pecker_sdk@@UAE@XZ ENDP	; pecker_sdk::Ipecker_frame_buffer_object::~Ipecker_frame_buffer_object
; Function compile flags: /Odtp /RTCsu /ZI
_TEXT	ENDS
;	COMDAT ??_GIpecker_frame_buffer_object@pecker_sdk@@UAEPAXI@Z
_TEXT	SEGMENT
_this$ = -8						; size = 4
___flags$ = 8						; size = 4
??_GIpecker_frame_buffer_object@pecker_sdk@@UAEPAXI@Z PROC ; pecker_sdk::Ipecker_frame_buffer_object::`scalar deleting destructor', COMDAT
; _this$ = ecx
	push	ebp
	mov	ebp, esp
	sub	esp, 204				; 000000ccH
	push	ebx
	push	esi
	push	edi
	push	ecx
	lea	edi, DWORD PTR [ebp-204]
	mov	ecx, 51					; 00000033H
	mov	eax, -858993460				; ccccccccH
	rep stosd
	pop	ecx
	mov	DWORD PTR _this$[ebp], ecx
	mov	ecx, DWORD PTR _this$[ebp]
	call	??1Ipecker_frame_buffer_object@pecker_sdk@@UAE@XZ ; pecker_sdk::Ipecker_frame_buffer_object::~Ipecker_frame_buffer_object
	mov	eax, DWORD PTR ___flags$[ebp]
	and	eax, 1
	je	SHORT $LN1@scalar@3
	mov	eax, DWORD PTR _this$[ebp]
	push	eax
	call	??3@YAXPAX@Z				; operator delete
	add	esp, 4
$LN1@scalar@3:
	mov	eax, DWORD PTR _this$[ebp]
	pop	edi
	pop	esi
	pop	ebx
	add	esp, 204				; 000000ccH
	cmp	ebp, esp
	call	__RTC_CheckEsp
	mov	esp, ebp
	pop	ebp
	ret	4
??_GIpecker_frame_buffer_object@pecker_sdk@@UAEPAXI@Z ENDP ; pecker_sdk::Ipecker_frame_buffer_object::`scalar deleting destructor'
; Function compile flags: /Odtp /RTCsu /ZI
_TEXT	ENDS
;	COMDAT ??_GIpecker_texture@pecker_sdk@@UAEPAXI@Z
_TEXT	SEGMENT
_this$ = -8						; size = 4
___flags$ = 8						; size = 4
??_GIpecker_texture@pecker_sdk@@UAEPAXI@Z PROC		; pecker_sdk::Ipecker_texture::`scalar deleting destructor', COMDAT
; _this$ = ecx
	push	ebp
	mov	ebp, esp
	sub	esp, 204				; 000000ccH
	push	ebx
	push	esi
	push	edi
	push	ecx
	lea	edi, DWORD PTR [ebp-204]
	mov	ecx, 51					; 00000033H
	mov	eax, -858993460				; ccccccccH
	rep stosd
	pop	ecx
	mov	DWORD PTR _this$[ebp], ecx
	mov	ecx, DWORD PTR _this$[ebp]
	call	??1Ipecker_texture@pecker_sdk@@UAE@XZ	; pecker_sdk::Ipecker_texture::~Ipecker_texture
	mov	eax, DWORD PTR ___flags$[ebp]
	and	eax, 1
	je	SHORT $LN1@scalar@4
	mov	eax, DWORD PTR _this$[ebp]
	push	eax
	call	??3@YAXPAX@Z				; operator delete
	add	esp, 4
$LN1@scalar@4:
	mov	eax, DWORD PTR _this$[ebp]
	pop	edi
	pop	esi
	pop	ebx
	add	esp, 204				; 000000ccH
	cmp	ebp, esp
	call	__RTC_CheckEsp
	mov	esp, ebp
	pop	ebp
	ret	4
??_GIpecker_texture@pecker_sdk@@UAEPAXI@Z ENDP		; pecker_sdk::Ipecker_texture::`scalar deleting destructor'
_TEXT	ENDS
PUBLIC	??1pecker_opengles_v2_object@pecker_sdk@@UAE@XZ	; pecker_sdk::pecker_opengles_v2_object::~pecker_opengles_v2_object
PUBLIC	??1pecker_texture_2d_gles2@pecker_sdk@@UAE@XZ	; pecker_sdk::pecker_texture_2d_gles2::~pecker_texture_2d_gles2
; Function compile flags: /Odtp /RTCsu /ZI
;	COMDAT ??_Dpecker_texture_2d_gles2@pecker_sdk@@QAEXXZ
_TEXT	SEGMENT
_this$ = -8						; size = 4
??_Dpecker_texture_2d_gles2@pecker_sdk@@QAEXXZ PROC	; pecker_sdk::pecker_texture_2d_gles2::`vbase destructor', COMDAT
; _this$ = ecx
	push	ebp
	mov	ebp, esp
	sub	esp, 204				; 000000ccH
	push	ebx
	push	esi
	push	edi
	push	ecx
	lea	edi, DWORD PTR [ebp-204]
	mov	ecx, 51					; 00000033H
	mov	eax, -858993460				; ccccccccH
	rep stosd
	pop	ecx
	mov	DWORD PTR _this$[ebp], ecx
	mov	ecx, DWORD PTR _this$[ebp]
	call	??1pecker_texture_2d_gles2@pecker_sdk@@UAE@XZ ; pecker_sdk::pecker_texture_2d_gles2::~pecker_texture_2d_gles2
	mov	ecx, DWORD PTR _this$[ebp]
	add	ecx, 240				; 000000f0H
	call	??1pecker_opengles_v2_object@pecker_sdk@@UAE@XZ
	pop	edi
	pop	esi
	pop	ebx
	add	esp, 204				; 000000ccH
	cmp	ebp, esp
	call	__RTC_CheckEsp
	mov	esp, ebp
	pop	ebp
	ret	0
??_Dpecker_texture_2d_gles2@pecker_sdk@@QAEXXZ ENDP	; pecker_sdk::pecker_texture_2d_gles2::`vbase destructor'
_TEXT	ENDS
EXTRN	??1pecker_render_object@pecker_sdk@@UAE@XZ:PROC	; pecker_sdk::pecker_render_object::~pecker_render_object
; Function compile flags: /Odtp /RTCsu /ZI
;	COMDAT ??1pecker_opengles_v2_object@pecker_sdk@@UAE@XZ
_TEXT	SEGMENT
_this$ = -8						; size = 4
??1pecker_opengles_v2_object@pecker_sdk@@UAE@XZ PROC	; pecker_sdk::pecker_opengles_v2_object::~pecker_opengles_v2_object, COMDAT
; _this$ = ecx
	push	ebp
	mov	ebp, esp
	sub	esp, 204				; 000000ccH
	push	ebx
	push	esi
	push	edi
	push	ecx
	lea	edi, DWORD PTR [ebp-204]
	mov	ecx, 51					; 00000033H
	mov	eax, -858993460				; ccccccccH
	rep stosd
	pop	ecx
	mov	DWORD PTR _this$[ebp], ecx
	mov	ecx, DWORD PTR _this$[ebp]
	call	??1pecker_render_object@pecker_sdk@@UAE@XZ ; pecker_sdk::pecker_render_object::~pecker_render_object
	pop	edi
	pop	esi
	pop	ebx
	add	esp, 204				; 000000ccH
	cmp	ebp, esp
	call	__RTC_CheckEsp
	mov	esp, ebp
	pop	ebp
	ret	0
??1pecker_opengles_v2_object@pecker_sdk@@UAE@XZ ENDP	; pecker_sdk::pecker_opengles_v2_object::~pecker_opengles_v2_object
; Function compile flags: /Odtp /RTCsu /ZI
_TEXT	ENDS
;	COMDAT ??_Gpecker_opengles_v2_object@pecker_sdk@@UAEPAXI@Z
_TEXT	SEGMENT
_this$ = -8						; size = 4
___flags$ = 8						; size = 4
??_Gpecker_opengles_v2_object@pecker_sdk@@UAEPAXI@Z PROC ; pecker_sdk::pecker_opengles_v2_object::`scalar deleting destructor', COMDAT
; _this$ = ecx
	push	ebp
	mov	ebp, esp
	sub	esp, 204				; 000000ccH
	push	ebx
	push	esi
	push	edi
	push	ecx
	lea	edi, DWORD PTR [ebp-204]
	mov	ecx, 51					; 00000033H
	mov	eax, -858993460				; ccccccccH
	rep stosd
	pop	ecx
	mov	DWORD PTR _this$[ebp], ecx
	mov	ecx, DWORD PTR _this$[ebp]
	call	??1pecker_opengles_v2_object@pecker_sdk@@UAE@XZ
	mov	eax, DWORD PTR ___flags$[ebp]
	and	eax, 1
	je	SHORT $LN1@scalar@5
	mov	eax, DWORD PTR _this$[ebp]
	push	eax
	call	??3@YAXPAX@Z				; operator delete
	add	esp, 4
$LN1@scalar@5:
	mov	eax, DWORD PTR _this$[ebp]
	pop	edi
	pop	esi
	pop	ebx
	add	esp, 204				; 000000ccH
	cmp	ebp, esp
	call	__RTC_CheckEsp
	mov	esp, ebp
	pop	ebp
	ret	4
??_Gpecker_opengles_v2_object@pecker_sdk@@UAEPAXI@Z ENDP ; pecker_sdk::pecker_opengles_v2_object::`scalar deleting destructor'
_TEXT	ENDS
PUBLIC	??0Ipecker_frame_buffer_object@pecker_sdk@@QAE@XZ ; pecker_sdk::Ipecker_frame_buffer_object::Ipecker_frame_buffer_object
; Function compile flags: /Odtp /RTCsu /ZI
;	COMDAT ??0Ipecker_texture@pecker_sdk@@QAE@XZ
_TEXT	SEGMENT
_this$ = -8						; size = 4
??0Ipecker_texture@pecker_sdk@@QAE@XZ PROC		; pecker_sdk::Ipecker_texture::Ipecker_texture, COMDAT
; _this$ = ecx
	push	ebp
	mov	ebp, esp
	sub	esp, 204				; 000000ccH
	push	ebx
	push	esi
	push	edi
	push	ecx
	lea	edi, DWORD PTR [ebp-204]
	mov	ecx, 51					; 00000033H
	mov	eax, -858993460				; ccccccccH
	rep stosd
	pop	ecx
	mov	DWORD PTR _this$[ebp], ecx
	mov	ecx, DWORD PTR _this$[ebp]
	call	??0Ipecker_frame_buffer_object@pecker_sdk@@QAE@XZ
	mov	eax, DWORD PTR _this$[ebp]
	mov	DWORD PTR [eax], OFFSET ??_7Ipecker_texture@pecker_sdk@@6B@
	mov	eax, DWORD PTR _this$[ebp]
	pop	edi
	pop	esi
	pop	ebx
	add	esp, 204				; 000000ccH
	cmp	ebp, esp
	call	__RTC_CheckEsp
	mov	esp, ebp
	pop	ebp
	ret	0
??0Ipecker_texture@pecker_sdk@@QAE@XZ ENDP		; pecker_sdk::Ipecker_texture::Ipecker_texture
; Function compile flags: /Odtp /RTCsu /ZI
_TEXT	ENDS
;	COMDAT ??0Ipecker_frame_buffer_object@pecker_sdk@@QAE@XZ
_TEXT	SEGMENT
_this$ = -8						; size = 4
??0Ipecker_frame_buffer_object@pecker_sdk@@QAE@XZ PROC	; pecker_sdk::Ipecker_frame_buffer_object::Ipecker_frame_buffer_object, COMDAT
; _this$ = ecx
	push	ebp
	mov	ebp, esp
	sub	esp, 204				; 000000ccH
	push	ebx
	push	esi
	push	edi
	push	ecx
	lea	edi, DWORD PTR [ebp-204]
	mov	ecx, 51					; 00000033H
	mov	eax, -858993460				; ccccccccH
	rep stosd
	pop	ecx
	mov	DWORD PTR _this$[ebp], ecx
	mov	eax, DWORD PTR _this$[ebp]
	mov	DWORD PTR [eax], OFFSET ??_7Ipecker_frame_buffer_object@pecker_sdk@@6B@
	mov	eax, DWORD PTR _this$[ebp]
	pop	edi
	pop	esi
	pop	ebx
	mov	esp, ebp
	pop	ebp
	ret	0
??0Ipecker_frame_buffer_object@pecker_sdk@@QAE@XZ ENDP	; pecker_sdk::Ipecker_frame_buffer_object::Ipecker_frame_buffer_object
_TEXT	ENDS
EXTRN	___security_cookie:DWORD
EXTRN	___CxxFrameHandler3:PROC
EXTRN	@__security_check_cookie@4:PROC
;	COMDAT xdata$x
; File f:\codes\pecker_framework_git\pecker_src\pecker_framework\render\render_system\opengles\pecker_texture_gl.cpp
xdata$x	SEGMENT
__unwindtable$??1pecker_texture_2d_gles2@pecker_sdk@@UAE@XZ DD 0ffffffffH
	DD	FLAT:__unwindfunclet$??1pecker_texture_2d_gles2@pecker_sdk@@UAE@XZ$0
__ehfuncinfo$??1pecker_texture_2d_gles2@pecker_sdk@@UAE@XZ DD 019930522H
	DD	01H
	DD	FLAT:__unwindtable$??1pecker_texture_2d_gles2@pecker_sdk@@UAE@XZ
	DD	2 DUP(00H)
	DD	2 DUP(00H)
	DD	00H
	DD	01H
; Function compile flags: /Odtp /RTCsu /ZI
xdata$x	ENDS
;	COMDAT ??1pecker_texture_2d_gles2@pecker_sdk@@UAE@XZ
_TEXT	SEGMENT
_this$ = -20						; size = 4
__$EHRec$ = -12						; size = 12
??1pecker_texture_2d_gles2@pecker_sdk@@UAE@XZ PROC	; pecker_sdk::pecker_texture_2d_gles2::~pecker_texture_2d_gles2, COMDAT
; _this$ = ecx

; 31   : {

	push	ebp
	mov	ebp, esp
	push	-1
	push	__ehhandler$??1pecker_texture_2d_gles2@pecker_sdk@@UAE@XZ
	mov	eax, DWORD PTR fs:0
	push	eax
	sub	esp, 204				; 000000ccH
	push	ebx
	push	esi
	push	edi
	push	ecx
	lea	edi, DWORD PTR [ebp-216]
	mov	ecx, 51					; 00000033H
	mov	eax, -858993460				; ccccccccH
	rep stosd
	pop	ecx
	mov	eax, DWORD PTR ___security_cookie
	xor	eax, ebp
	push	eax
	lea	eax, DWORD PTR __$EHRec$[ebp]
	mov	DWORD PTR fs:0, eax
	mov	DWORD PTR _this$[ebp], ecx
	mov	eax, DWORD PTR _this$[ebp]
	mov	DWORD PTR [eax], OFFSET ??_7pecker_texture_2d_gles2@pecker_sdk@@6BIpecker_texture2d@1@@
	mov	eax, DWORD PTR _this$[ebp]
	mov	ecx, DWORD PTR [eax+4]
	mov	edx, DWORD PTR [ecx+4]
	mov	eax, DWORD PTR _this$[ebp]
	mov	DWORD PTR [eax+edx+4], OFFSET ??_7pecker_texture_2d_gles2@pecker_sdk@@6Bpecker_opengles_v2_object@1@@
	mov	eax, DWORD PTR _this$[ebp]
	mov	ecx, DWORD PTR [eax+4]
	mov	edx, DWORD PTR [ecx+4]
	sub	edx, 236				; 000000ecH
	mov	eax, DWORD PTR _this$[ebp]
	mov	ecx, DWORD PTR [eax+4]
	mov	eax, DWORD PTR [ecx+4]
	mov	ecx, DWORD PTR _this$[ebp]
	mov	DWORD PTR [ecx+eax], edx
	mov	DWORD PTR __$EHRec$[ebp+8], 0

; 32   : 	release_texture_from_gpu_ram();

	mov	ecx, DWORD PTR _this$[ebp]
	call	?release_texture_from_gpu_ram@pecker_texture_2d_gles2@pecker_sdk@@UAEJXZ ; pecker_sdk::pecker_texture_2d_gles2::release_texture_from_gpu_ram

; 33   : 	_M_gpu_target = 0;

	mov	eax, DWORD PTR _this$[ebp]
	mov	DWORD PTR [eax+8], 0

; 34   : 	_M_mip_level_count = 0;

	mov	eax, DWORD PTR _this$[ebp]
	mov	DWORD PTR [eax+12], 0

; 35   : 	_M_defualt_texture_filter_count = 0;

	mov	eax, DWORD PTR _this$[ebp]
	mov	DWORD PTR [eax+16], 0

; 36   : }

	mov	DWORD PTR __$EHRec$[ebp+8], -1
	mov	ecx, DWORD PTR _this$[ebp]
	call	??1Ipecker_texture2d@pecker_sdk@@UAE@XZ	; pecker_sdk::Ipecker_texture2d::~Ipecker_texture2d
	mov	ecx, DWORD PTR __$EHRec$[ebp]
	mov	DWORD PTR fs:0, ecx
	pop	ecx
	pop	edi
	pop	esi
	pop	ebx
	add	esp, 216				; 000000d8H
	cmp	ebp, esp
	call	__RTC_CheckEsp
	mov	esp, ebp
	pop	ebp
	ret	0
_TEXT	ENDS
;	COMDAT text$x
text$x	SEGMENT
__unwindfunclet$??1pecker_texture_2d_gles2@pecker_sdk@@UAE@XZ$0:
	mov	ecx, DWORD PTR _this$[ebp]
	jmp	??1Ipecker_texture2d@pecker_sdk@@UAE@XZ	; pecker_sdk::Ipecker_texture2d::~Ipecker_texture2d
__ehhandler$??1pecker_texture_2d_gles2@pecker_sdk@@UAE@XZ:
	mov	edx, DWORD PTR [esp+8]
	lea	eax, DWORD PTR [edx+12]
	mov	ecx, DWORD PTR [edx-220]
	xor	ecx, eax
	call	@__security_check_cookie@4
	mov	eax, OFFSET __ehfuncinfo$??1pecker_texture_2d_gles2@pecker_sdk@@UAE@XZ
	jmp	___CxxFrameHandler3
text$x	ENDS
??1pecker_texture_2d_gles2@pecker_sdk@@UAE@XZ ENDP	; pecker_sdk::pecker_texture_2d_gles2::~pecker_texture_2d_gles2
; Function compile flags: /Odtp /RTCsu /ZI
;	COMDAT ?attach_by_frame_buffer@pecker_texture_2d_gles2@pecker_sdk@@UAEJPAUIpecker_frame_buffer@2@I@Z
_TEXT	SEGMENT
_this$ = -8						; size = 4
_pframe_buffer$ = 8					; size = 4
_attach_index$ = 12					; size = 4
?attach_by_frame_buffer@pecker_texture_2d_gles2@pecker_sdk@@UAEJPAUIpecker_frame_buffer@2@I@Z PROC ; pecker_sdk::pecker_texture_2d_gles2::attach_by_frame_buffer, COMDAT
; _this$ = ecx

; 39   : {

	push	ebp
	mov	ebp, esp
	sub	esp, 204				; 000000ccH
	push	ebx
	push	esi
	push	edi
	push	ecx
	lea	edi, DWORD PTR [ebp-204]
	mov	ecx, 51					; 00000033H
	mov	eax, -858993460				; ccccccccH
	rep stosd
	pop	ecx
	mov	DWORD PTR _this$[ebp], ecx

; 40   : 	if (null == pframe_buffer)

	cmp	DWORD PTR _pframe_buffer$[ebp], 0
	jne	SHORT $LN1@attach_by_

; 41   : 	{
; 42   : 		return P_INVALID_VALUE;

	mov	eax, -2					; fffffffeH
	jmp	SHORT $LN2@attach_by_
$LN1@attach_by_:

; 43   : 	}
; 44   : 	return pframe_buffer->attach_texture(this,attach_index);//,face_type,zoffset);

	mov	esi, esp
	mov	eax, DWORD PTR _attach_index$[ebp]
	push	eax
	mov	ecx, DWORD PTR _this$[ebp]
	push	ecx
	mov	edx, DWORD PTR _pframe_buffer$[ebp]
	mov	eax, DWORD PTR [edx]
	mov	ecx, DWORD PTR _pframe_buffer$[ebp]
	mov	edx, DWORD PTR [eax+16]
	call	edx
	cmp	esi, esp
	call	__RTC_CheckEsp
$LN2@attach_by_:

; 45   : }

	pop	edi
	pop	esi
	pop	ebx
	add	esp, 204				; 000000ccH
	cmp	ebp, esp
	call	__RTC_CheckEsp
	mov	esp, ebp
	pop	ebp
	ret	8
?attach_by_frame_buffer@pecker_texture_2d_gles2@pecker_sdk@@UAEJPAUIpecker_frame_buffer@2@I@Z ENDP ; pecker_sdk::pecker_texture_2d_gles2::attach_by_frame_buffer
_TEXT	ENDS
EXTRN	?get_last_error_code@pecker_opengles_v2_object@pecker_sdk@@SAJXZ:PROC ; pecker_sdk::pecker_opengles_v2_object::get_last_error_code
EXTRN	__imp__glBindTexture@8:PROC
; Function compile flags: /Odtp /RTCsu /ZI
;	COMDAT ?bind@pecker_texture_2d_gles2@pecker_sdk@@UAEJXZ
_TEXT	SEGMENT
_this$ = -8						; size = 4
?bind@pecker_texture_2d_gles2@pecker_sdk@@UAEJXZ PROC	; pecker_sdk::pecker_texture_2d_gles2::bind, COMDAT
; _this$ = ecx

; 48   : {

	push	ebp
	mov	ebp, esp
	sub	esp, 204				; 000000ccH
	push	ebx
	push	esi
	push	edi
	push	ecx
	lea	edi, DWORD PTR [ebp-204]
	mov	ecx, 51					; 00000033H
	mov	eax, -858993460				; ccccccccH
	rep stosd
	pop	ecx
	mov	DWORD PTR _this$[ebp], ecx

; 49   : 	glBindTexture(GL_TEXTURE_2D,_M_gpu_target);

	mov	esi, esp
	mov	eax, DWORD PTR _this$[ebp]
	mov	ecx, DWORD PTR [eax+8]
	push	ecx
	push	3553					; 00000de1H
	call	DWORD PTR __imp__glBindTexture@8
	cmp	esi, esp
	call	__RTC_CheckEsp

; 50   : 	return pecker_opengles_v2_object::get_last_error_code();

	call	?get_last_error_code@pecker_opengles_v2_object@pecker_sdk@@SAJXZ ; pecker_sdk::pecker_opengles_v2_object::get_last_error_code

; 51   : }

	pop	edi
	pop	esi
	pop	ebx
	add	esp, 204				; 000000ccH
	cmp	ebp, esp
	call	__RTC_CheckEsp
	mov	esp, ebp
	pop	ebp
	ret	0
?bind@pecker_texture_2d_gles2@pecker_sdk@@UAEJXZ ENDP	; pecker_sdk::pecker_texture_2d_gles2::bind
; Function compile flags: /Odtp /RTCsu /ZI
_TEXT	ENDS
;	COMDAT ?get_mip_level@pecker_texture_2d_gles2@pecker_sdk@@UBEIXZ
_TEXT	SEGMENT
_this$ = -8						; size = 4
?get_mip_level@pecker_texture_2d_gles2@pecker_sdk@@UBEIXZ PROC ; pecker_sdk::pecker_texture_2d_gles2::get_mip_level, COMDAT
; _this$ = ecx

; 54   : {

	push	ebp
	mov	ebp, esp
	sub	esp, 204				; 000000ccH
	push	ebx
	push	esi
	push	edi
	push	ecx
	lea	edi, DWORD PTR [ebp-204]
	mov	ecx, 51					; 00000033H
	mov	eax, -858993460				; ccccccccH
	rep stosd
	pop	ecx
	mov	DWORD PTR _this$[ebp], ecx

; 55   : 	return _M_mip_level_count;

	mov	eax, DWORD PTR _this$[ebp]
	mov	eax, DWORD PTR [eax+12]

; 56   : }

	pop	edi
	pop	esi
	pop	ebx
	mov	esp, ebp
	pop	ebp
	ret	0
?get_mip_level@pecker_texture_2d_gles2@pecker_sdk@@UBEIXZ ENDP ; pecker_sdk::pecker_texture_2d_gles2::get_mip_level
_TEXT	ENDS
PUBLIC	?set_defualt_texture_filters_info@pecker_texture_2d_gles2@pecker_sdk@@QAEJPBUpecker_texture_filter_info@2@H@Z ; pecker_sdk::pecker_texture_2d_gles2::set_defualt_texture_filters_info
; Function compile flags: /Odtp /RTCsu /ZI
;	COMDAT ?set_defualt_texture_filters_info@pecker_texture_2d_gles2@pecker_sdk@@QAEJPBUpecker_texture_filter_info@2@H@Z
_TEXT	SEGMENT
_i$68746 = -20						; size = 4
_this$ = -8						; size = 4
_filters$ = 8						; size = 4
_filters_count$ = 12					; size = 4
?set_defualt_texture_filters_info@pecker_texture_2d_gles2@pecker_sdk@@QAEJPBUpecker_texture_filter_info@2@H@Z PROC ; pecker_sdk::pecker_texture_2d_gles2::set_defualt_texture_filters_info, COMDAT
; _this$ = ecx

; 59   : {

	push	ebp
	mov	ebp, esp
	sub	esp, 216				; 000000d8H
	push	ebx
	push	esi
	push	edi
	push	ecx
	lea	edi, DWORD PTR [ebp-216]
	mov	ecx, 54					; 00000036H
	mov	eax, -858993460				; ccccccccH
	rep stosd
	pop	ecx
	mov	DWORD PTR _this$[ebp], ecx

; 60   : 	if (filters_count <= 0 || null == filters)

	cmp	DWORD PTR _filters_count$[ebp], 0
	jle	SHORT $LN4@set_defual
	cmp	DWORD PTR _filters$[ebp], 0
	jne	SHORT $LN5@set_defual
$LN4@set_defual:

; 61   : 		return P_INVALID_VALUE;

	mov	eax, -2					; fffffffeH
	jmp	SHORT $LN6@set_defual
$LN5@set_defual:

; 62   : 
; 63   : 	_M_defualt_texture_filter_count = filters_count;

	mov	eax, DWORD PTR _this$[ebp]
	mov	ecx, DWORD PTR _filters_count$[ebp]
	mov	DWORD PTR [eax+16], ecx

; 64   : 	for (nINDEX i=0;i<filters_count;++i)

	mov	DWORD PTR _i$68746[ebp], 0
	jmp	SHORT $LN3@set_defual
$LN2@set_defual:
	mov	eax, DWORD PTR _i$68746[ebp]
	add	eax, 1
	mov	DWORD PTR _i$68746[ebp], eax
$LN3@set_defual:
	mov	eax, DWORD PTR _i$68746[ebp]
	cmp	eax, DWORD PTR _filters_count$[ebp]
	jge	SHORT $LN1@set_defual

; 65   : 	{
; 66   : 		_M_defualt_texture_filter[i] = filters[i];

	mov	eax, DWORD PTR _i$68746[ebp]
	mov	ecx, DWORD PTR _filters$[ebp]
	mov	edx, DWORD PTR [ecx+eax*8]
	mov	eax, DWORD PTR [ecx+eax*8+4]
	mov	ecx, DWORD PTR _i$68746[ebp]
	mov	esi, DWORD PTR _this$[ebp]
	mov	DWORD PTR [esi+ecx*8+108], edx
	mov	DWORD PTR [esi+ecx*8+112], eax

; 67   : 	}

	jmp	SHORT $LN2@set_defual
$LN1@set_defual:

; 68   : 	return P_OK;

	xor	eax, eax
$LN6@set_defual:

; 69   : }

	pop	edi
	pop	esi
	pop	ebx
	mov	esp, ebp
	pop	ebp
	ret	8
?set_defualt_texture_filters_info@pecker_texture_2d_gles2@pecker_sdk@@QAEJPBUpecker_texture_filter_info@2@H@Z ENDP ; pecker_sdk::pecker_texture_2d_gles2::set_defualt_texture_filters_info
_TEXT	ENDS
EXTRN	__imp__glGenTextures@8:PROC
; Function compile flags: /Odtp /RTCsu /ZI
;	COMDAT ?allocate_texture_from_gpu_ram@pecker_texture_2d_gles2@pecker_sdk@@UAEJABUpecker_texture_layer_info@2@@Z
_TEXT	SEGMENT
_temp_max_miplevel$68761 = -56				; size = 4
_temp_miplevel$68760 = -44				; size = 4
_temp_value$68759 = -32					; size = 4
_result_$68757 = -20					; size = 4
_this$ = -8						; size = 4
_top_most_mipinfo$ = 8					; size = 4
?allocate_texture_from_gpu_ram@pecker_texture_2d_gles2@pecker_sdk@@UAEJABUpecker_texture_layer_info@2@@Z PROC ; pecker_sdk::pecker_texture_2d_gles2::allocate_texture_from_gpu_ram, COMDAT
; _this$ = ecx

; 72   : {

	push	ebp
	mov	ebp, esp
	sub	esp, 252				; 000000fcH
	push	ebx
	push	esi
	push	edi
	push	ecx
	lea	edi, DWORD PTR [ebp-252]
	mov	ecx, 63					; 0000003fH
	mov	eax, -858993460				; ccccccccH
	rep stosd
	pop	ecx
	mov	DWORD PTR _this$[ebp], ecx

; 73   : 
; 74   : 	if (top_most_mipinfo._M_height < 1 || top_most_mipinfo._M_height > MAX_TEXTURE_SIZE || top_most_mipinfo._M_width < 1 || top_most_mipinfo._M_width > MAX_TEXTURE_SIZE)

	mov	eax, DWORD PTR _top_most_mipinfo$[ebp]
	cmp	DWORD PTR [eax+32], 1
	jl	SHORT $LN13@allocate_t
	mov	eax, DWORD PTR _top_most_mipinfo$[ebp]
	cmp	DWORD PTR [eax+32], 32768		; 00008000H
	ja	SHORT $LN13@allocate_t
	mov	eax, DWORD PTR _top_most_mipinfo$[ebp]
	cmp	DWORD PTR [eax+28], 1
	jl	SHORT $LN13@allocate_t
	mov	eax, DWORD PTR _top_most_mipinfo$[ebp]
	cmp	DWORD PTR [eax+28], 32768		; 00008000H
	jbe	SHORT $LN14@allocate_t
$LN13@allocate_t:

; 75   : 	{
; 76   : 		return P_INVALID_VALUE;

	mov	eax, -2					; fffffffeH
	jmp	$LN15@allocate_t
$LN14@allocate_t:

; 77   : 	}
; 78   : 
; 79   : 	if (0 == _M_gpu_target)

	mov	eax, DWORD PTR _this$[ebp]
	cmp	DWORD PTR [eax+8], 0
	jne	$LN12@allocate_t

; 80   : 	{
; 81   : 		glGenTextures(1,&_M_gpu_target);

	mov	eax, DWORD PTR _this$[ebp]
	add	eax, 8
	mov	esi, esp
	push	eax
	push	1
	call	DWORD PTR __imp__glGenTextures@8
	cmp	esi, esp
	call	__RTC_CheckEsp

; 82   : 		HResult result_ = pecker_opengles_v2_object::get_last_error_code();

	call	?get_last_error_code@pecker_opengles_v2_object@pecker_sdk@@SAJXZ ; pecker_sdk::pecker_opengles_v2_object::get_last_error_code
	mov	DWORD PTR _result_$68757[ebp], eax

; 83   : 		if (P_OK == result_)

	cmp	DWORD PTR _result_$68757[ebp], 0
	jne	$LN11@allocate_t

; 84   : 		{
; 85   : 			UInt temp_value = top_most_mipinfo._M_height;

	mov	eax, DWORD PTR _top_most_mipinfo$[ebp]
	mov	ecx, DWORD PTR [eax+32]
	mov	DWORD PTR _temp_value$68759[ebp], ecx

; 86   : 			UInt temp_miplevel = 0;

	mov	DWORD PTR _temp_miplevel$68760[ebp], 0

; 87   : 			UInt temp_max_miplevel = 0;

	mov	DWORD PTR _temp_max_miplevel$68761[ebp], 0

; 88   : 			_M_texture_info = top_most_mipinfo;

	mov	esi, DWORD PTR _top_most_mipinfo$[ebp]
	mov	edi, DWORD PTR _this$[ebp]
	add	edi, 28					; 0000001cH
	mov	ecx, 10					; 0000000aH
	rep movsd

; 89   : 			_M_active_miplevel = 0;

	mov	eax, DWORD PTR _this$[ebp]
	mov	DWORD PTR [eax+24], 0

; 90   : 			
; 91   : 			// 1621
; 92   : 			temp_value = (temp_value&0x5555) + ((temp_value>>1)&0x5555);     

	mov	eax, DWORD PTR _temp_value$68759[ebp]
	and	eax, 21845				; 00005555H
	mov	ecx, DWORD PTR _temp_value$68759[ebp]
	shr	ecx, 1
	and	ecx, 21845				; 00005555H
	add	eax, ecx
	mov	DWORD PTR _temp_value$68759[ebp], eax

; 93   : 			temp_value = (temp_value&0x3333) + ((temp_value>>2)&0x3333);

	mov	eax, DWORD PTR _temp_value$68759[ebp]
	and	eax, 13107				; 00003333H
	mov	ecx, DWORD PTR _temp_value$68759[ebp]
	shr	ecx, 2
	and	ecx, 13107				; 00003333H
	add	eax, ecx
	mov	DWORD PTR _temp_value$68759[ebp], eax

; 94   : 			temp_value = (temp_value&0x0f0f) + ((temp_value>>4)&0x0f0f);     

	mov	eax, DWORD PTR _temp_value$68759[ebp]
	and	eax, 3855				; 00000f0fH
	mov	ecx, DWORD PTR _temp_value$68759[ebp]
	shr	ecx, 4
	and	ecx, 3855				; 00000f0fH
	add	eax, ecx
	mov	DWORD PTR _temp_value$68759[ebp], eax

; 95   : 			temp_value = (temp_value&0x00ff) + ((temp_value>>8)&0x00ff);     

	mov	eax, DWORD PTR _temp_value$68759[ebp]
	and	eax, 255				; 000000ffH
	mov	ecx, DWORD PTR _temp_value$68759[ebp]
	shr	ecx, 8
	and	ecx, 255				; 000000ffH
	add	eax, ecx
	mov	DWORD PTR _temp_value$68759[ebp], eax

; 96   : 
; 97   : 			// 16211
; 98   : 			temp_value = top_most_mipinfo._M_height;

	mov	eax, DWORD PTR _top_most_mipinfo$[ebp]
	mov	ecx, DWORD PTR [eax+32]
	mov	DWORD PTR _temp_value$68759[ebp], ecx

; 99   : 			temp_miplevel = 1;

	mov	DWORD PTR _temp_miplevel$68760[ebp], 1

; 100  : 			if ((temp_value >> 8) == 0) {temp_miplevel = temp_miplevel +8; temp_value = temp_value <<8;}

	mov	eax, DWORD PTR _temp_value$68759[ebp]
	shr	eax, 8
	test	eax, eax
	jne	SHORT $LN10@allocate_t
	mov	eax, DWORD PTR _temp_miplevel$68760[ebp]
	add	eax, 8
	mov	DWORD PTR _temp_miplevel$68760[ebp], eax
	mov	eax, DWORD PTR _temp_value$68759[ebp]
	shl	eax, 8
	mov	DWORD PTR _temp_value$68759[ebp], eax
$LN10@allocate_t:

; 101  : 			if ((temp_value >> 12) == 0) {temp_miplevel = temp_miplevel + 4; temp_value = temp_value << 4;}

	mov	eax, DWORD PTR _temp_value$68759[ebp]
	shr	eax, 12					; 0000000cH
	test	eax, eax
	jne	SHORT $LN9@allocate_t
	mov	eax, DWORD PTR _temp_miplevel$68760[ebp]
	add	eax, 4
	mov	DWORD PTR _temp_miplevel$68760[ebp], eax
	mov	eax, DWORD PTR _temp_value$68759[ebp]
	shl	eax, 4
	mov	DWORD PTR _temp_value$68759[ebp], eax
$LN9@allocate_t:

; 102  : 			if ((temp_value >> 14) == 0) {temp_miplevel = temp_miplevel + 2; temp_value = temp_value << 2;}

	mov	eax, DWORD PTR _temp_value$68759[ebp]
	shr	eax, 14					; 0000000eH
	test	eax, eax
	jne	SHORT $LN8@allocate_t
	mov	eax, DWORD PTR _temp_miplevel$68760[ebp]
	add	eax, 2
	mov	DWORD PTR _temp_miplevel$68760[ebp], eax
	mov	eax, DWORD PTR _temp_value$68759[ebp]
	shl	eax, 2
	mov	DWORD PTR _temp_value$68759[ebp], eax
$LN8@allocate_t:

; 103  : 			temp_miplevel = 16 - (temp_miplevel - (temp_value >> 15));

	mov	eax, DWORD PTR _temp_value$68759[ebp]
	shr	eax, 15					; 0000000fH
	mov	ecx, DWORD PTR _temp_miplevel$68760[ebp]
	sub	ecx, eax
	mov	edx, 16					; 00000010H
	sub	edx, ecx
	mov	DWORD PTR _temp_miplevel$68760[ebp], edx

; 104  : 			temp_max_miplevel = temp_miplevel;

	mov	eax, DWORD PTR _temp_miplevel$68760[ebp]
	mov	DWORD PTR _temp_max_miplevel$68761[ebp], eax

; 105  : 
; 106  : 			// 2N211
; 107  : 			if ( 1 < temp_value)

	cmp	DWORD PTR _temp_value$68759[ebp], 1
	jbe	SHORT $LN7@allocate_t

; 108  : 			{
; 109  : 				_M_texture_info._M_height = 1 << temp_miplevel;

	mov	eax, 1
	mov	ecx, DWORD PTR _temp_miplevel$68760[ebp]
	shl	eax, cl
	mov	ecx, DWORD PTR _this$[ebp]
	mov	DWORD PTR [ecx+60], eax
$LN7@allocate_t:

; 110  : 			}
; 111  : 			
; 112  : 			temp_value = top_most_mipinfo._M_width;

	mov	eax, DWORD PTR _top_most_mipinfo$[ebp]
	mov	ecx, DWORD PTR [eax+28]
	mov	DWORD PTR _temp_value$68759[ebp], ecx

; 113  : 			// 1621
; 114  : 			temp_value = (temp_value&0x5555) + ((temp_value>>1)&0x5555);     

	mov	eax, DWORD PTR _temp_value$68759[ebp]
	and	eax, 21845				; 00005555H
	mov	ecx, DWORD PTR _temp_value$68759[ebp]
	shr	ecx, 1
	and	ecx, 21845				; 00005555H
	add	eax, ecx
	mov	DWORD PTR _temp_value$68759[ebp], eax

; 115  : 			temp_value = (temp_value&0x3333) + ((temp_value>>2)&0x3333);

	mov	eax, DWORD PTR _temp_value$68759[ebp]
	and	eax, 13107				; 00003333H
	mov	ecx, DWORD PTR _temp_value$68759[ebp]
	shr	ecx, 2
	and	ecx, 13107				; 00003333H
	add	eax, ecx
	mov	DWORD PTR _temp_value$68759[ebp], eax

; 116  : 			temp_value = (temp_value&0x0f0f) + ((temp_value>>4)&0x0f0f);     

	mov	eax, DWORD PTR _temp_value$68759[ebp]
	and	eax, 3855				; 00000f0fH
	mov	ecx, DWORD PTR _temp_value$68759[ebp]
	shr	ecx, 4
	and	ecx, 3855				; 00000f0fH
	add	eax, ecx
	mov	DWORD PTR _temp_value$68759[ebp], eax

; 117  : 			temp_value = (temp_value&0x00ff) + ((temp_value>>8)&0x00ff);     

	mov	eax, DWORD PTR _temp_value$68759[ebp]
	and	eax, 255				; 000000ffH
	mov	ecx, DWORD PTR _temp_value$68759[ebp]
	shr	ecx, 8
	and	ecx, 255				; 000000ffH
	add	eax, ecx
	mov	DWORD PTR _temp_value$68759[ebp], eax

; 118  : 
; 119  : 			// 16211
; 120  : 			temp_value = top_most_mipinfo._M_width;

	mov	eax, DWORD PTR _top_most_mipinfo$[ebp]
	mov	ecx, DWORD PTR [eax+28]
	mov	DWORD PTR _temp_value$68759[ebp], ecx

; 121  : 			temp_miplevel = 1;

	mov	DWORD PTR _temp_miplevel$68760[ebp], 1

; 122  : 			if ((temp_value >> 8) == 0) {temp_miplevel = temp_miplevel +8; temp_value = temp_value <<8;}

	mov	eax, DWORD PTR _temp_value$68759[ebp]
	shr	eax, 8
	test	eax, eax
	jne	SHORT $LN6@allocate_t
	mov	eax, DWORD PTR _temp_miplevel$68760[ebp]
	add	eax, 8
	mov	DWORD PTR _temp_miplevel$68760[ebp], eax
	mov	eax, DWORD PTR _temp_value$68759[ebp]
	shl	eax, 8
	mov	DWORD PTR _temp_value$68759[ebp], eax
$LN6@allocate_t:

; 123  : 			if ((temp_value >> 12) == 0) {temp_miplevel = temp_miplevel + 4; temp_value = temp_value << 4;}

	mov	eax, DWORD PTR _temp_value$68759[ebp]
	shr	eax, 12					; 0000000cH
	test	eax, eax
	jne	SHORT $LN5@allocate_t
	mov	eax, DWORD PTR _temp_miplevel$68760[ebp]
	add	eax, 4
	mov	DWORD PTR _temp_miplevel$68760[ebp], eax
	mov	eax, DWORD PTR _temp_value$68759[ebp]
	shl	eax, 4
	mov	DWORD PTR _temp_value$68759[ebp], eax
$LN5@allocate_t:

; 124  : 			if ((temp_value >> 14) == 0) {temp_miplevel = temp_miplevel + 2; temp_value = temp_value << 2;}

	mov	eax, DWORD PTR _temp_value$68759[ebp]
	shr	eax, 14					; 0000000eH
	test	eax, eax
	jne	SHORT $LN4@allocate_t
	mov	eax, DWORD PTR _temp_miplevel$68760[ebp]
	add	eax, 2
	mov	DWORD PTR _temp_miplevel$68760[ebp], eax
	mov	eax, DWORD PTR _temp_value$68759[ebp]
	shl	eax, 2
	mov	DWORD PTR _temp_value$68759[ebp], eax
$LN4@allocate_t:

; 125  : 			temp_miplevel = 16 - (temp_miplevel - (temp_value >> 15));

	mov	eax, DWORD PTR _temp_value$68759[ebp]
	shr	eax, 15					; 0000000fH
	mov	ecx, DWORD PTR _temp_miplevel$68760[ebp]
	sub	ecx, eax
	mov	edx, 16					; 00000010H
	sub	edx, ecx
	mov	DWORD PTR _temp_miplevel$68760[ebp], edx

; 126  : 			
; 127  : 			if (temp_miplevel >  temp_max_miplevel)

	mov	eax, DWORD PTR _temp_miplevel$68760[ebp]
	cmp	eax, DWORD PTR _temp_max_miplevel$68761[ebp]
	jbe	SHORT $LN3@allocate_t

; 128  : 			{
; 129  : 				temp_max_miplevel = temp_miplevel;

	mov	eax, DWORD PTR _temp_miplevel$68760[ebp]
	mov	DWORD PTR _temp_max_miplevel$68761[ebp], eax
$LN3@allocate_t:

; 130  : 			}
; 131  : 			
; 132  : 			// 2N211
; 133  : 			if ( 1 < temp_value)

	cmp	DWORD PTR _temp_value$68759[ebp], 1
	jbe	SHORT $LN2@allocate_t

; 134  : 			{
; 135  : 				_M_texture_info._M_width = 1 << temp_miplevel;

	mov	eax, 1
	mov	ecx, DWORD PTR _temp_miplevel$68760[ebp]
	shl	eax, cl
	mov	ecx, DWORD PTR _this$[ebp]
	mov	DWORD PTR [ecx+56], eax
$LN2@allocate_t:

; 136  : 			}
; 137  : 
; 138  : 			_M_mip_level_count = temp_max_miplevel;

	mov	eax, DWORD PTR _this$[ebp]
	mov	ecx, DWORD PTR _temp_max_miplevel$68761[ebp]
	mov	DWORD PTR [eax+12], ecx

; 139  : 			_M_mip_tmp_info = _M_texture_info;

	mov	esi, DWORD PTR _this$[ebp]
	add	esi, 28					; 0000001cH
	mov	edi, DWORD PTR _this$[ebp]
	add	edi, 68					; 00000044H
	mov	ecx, 10					; 0000000aH
	rep movsd
$LN11@allocate_t:

; 140  : 			
; 141  : 		}
; 142  : 		return result_;

	mov	eax, DWORD PTR _result_$68757[ebp]
	jmp	SHORT $LN15@allocate_t

; 143  : 	}
; 144  : 	else

	jmp	SHORT $LN15@allocate_t
$LN12@allocate_t:

; 145  : 	{
; 146  : 		return P_UNIQUE_ERR;

	mov	eax, -4					; fffffffcH
$LN15@allocate_t:

; 147  : 	}
; 148  : 	
; 149  : }

	pop	edi
	pop	esi
	pop	ebx
	add	esp, 252				; 000000fcH
	cmp	ebp, esp
	call	__RTC_CheckEsp
	mov	esp, ebp
	pop	ebp
	ret	4
?allocate_texture_from_gpu_ram@pecker_texture_2d_gles2@pecker_sdk@@UAEJABUpecker_texture_layer_info@2@@Z ENDP ; pecker_sdk::pecker_texture_2d_gles2::allocate_texture_from_gpu_ram
_TEXT	ENDS
EXTRN	__imp__glDeleteTextures@8:PROC
; Function compile flags: /Odtp /RTCsu /ZI
;	COMDAT ?release_texture_from_gpu_ram@pecker_texture_2d_gles2@pecker_sdk@@UAEJXZ
_TEXT	SEGMENT
_this$ = -8						; size = 4
?release_texture_from_gpu_ram@pecker_texture_2d_gles2@pecker_sdk@@UAEJXZ PROC ; pecker_sdk::pecker_texture_2d_gles2::release_texture_from_gpu_ram, COMDAT
; _this$ = ecx

; 152  : {

	push	ebp
	mov	ebp, esp
	sub	esp, 204				; 000000ccH
	push	ebx
	push	esi
	push	edi
	push	ecx
	lea	edi, DWORD PTR [ebp-204]
	mov	ecx, 51					; 00000033H
	mov	eax, -858993460				; ccccccccH
	rep stosd
	pop	ecx
	mov	DWORD PTR _this$[ebp], ecx

; 153  : 	if (0 != _M_gpu_target)

	mov	eax, DWORD PTR _this$[ebp]
	cmp	DWORD PTR [eax+8], 0
	je	SHORT $LN2@release_te

; 154  : 	{
; 155  : 		glDeleteTextures(1,&_M_gpu_target);

	mov	eax, DWORD PTR _this$[ebp]
	add	eax, 8
	mov	esi, esp
	push	eax
	push	1
	call	DWORD PTR __imp__glDeleteTextures@8
	cmp	esi, esp
	call	__RTC_CheckEsp

; 156  : 		return pecker_opengles_v2_object::get_last_error_code();

	call	?get_last_error_code@pecker_opengles_v2_object@pecker_sdk@@SAJXZ ; pecker_sdk::pecker_opengles_v2_object::get_last_error_code
	jmp	SHORT $LN3@release_te

; 157  : 	}
; 158  : 	else

	jmp	SHORT $LN3@release_te
$LN2@release_te:

; 159  : 	{
; 160  : 		return P_OK;

	xor	eax, eax
$LN3@release_te:

; 161  : 	}
; 162  : 	
; 163  : }

	pop	edi
	pop	esi
	pop	ebx
	add	esp, 204				; 000000ccH
	cmp	ebp, esp
	call	__RTC_CheckEsp
	mov	esp, ebp
	pop	ebp
	ret	0
?release_texture_from_gpu_ram@pecker_texture_2d_gles2@pecker_sdk@@UAEJXZ ENDP ; pecker_sdk::pecker_texture_2d_gles2::release_texture_from_gpu_ram
; Function compile flags: /Odtp /RTCsu /ZI
_TEXT	ENDS
;	COMDAT ?use_defualt_texture_filters@pecker_texture_2d_gles2@pecker_sdk@@UAEJXZ
_TEXT	SEGMENT
_this$ = -8						; size = 4
?use_defualt_texture_filters@pecker_texture_2d_gles2@pecker_sdk@@UAEJXZ PROC ; pecker_sdk::pecker_texture_2d_gles2::use_defualt_texture_filters, COMDAT
; _this$ = ecx

; 166  : {

	push	ebp
	mov	ebp, esp
	sub	esp, 204				; 000000ccH
	push	ebx
	push	esi
	push	edi
	push	ecx
	lea	edi, DWORD PTR [ebp-204]
	mov	ecx, 51					; 00000033H
	mov	eax, -858993460				; ccccccccH
	rep stosd
	pop	ecx
	mov	DWORD PTR _this$[ebp], ecx

; 167  : 	return use_texture_filters(_M_defualt_texture_filter,_M_defualt_texture_filter_count);

	mov	esi, esp
	mov	eax, DWORD PTR _this$[ebp]
	mov	ecx, DWORD PTR [eax+16]
	push	ecx
	mov	edx, DWORD PTR _this$[ebp]
	add	edx, 108				; 0000006cH
	push	edx
	mov	eax, DWORD PTR _this$[ebp]
	mov	edx, DWORD PTR [eax]
	mov	ecx, DWORD PTR _this$[ebp]
	mov	eax, DWORD PTR [edx+36]
	call	eax
	cmp	esi, esp
	call	__RTC_CheckEsp

; 168  : }

	pop	edi
	pop	esi
	pop	ebx
	add	esp, 204				; 000000ccH
	cmp	ebp, esp
	call	__RTC_CheckEsp
	mov	esp, ebp
	pop	ebp
	ret	0
?use_defualt_texture_filters@pecker_texture_2d_gles2@pecker_sdk@@UAEJXZ ENDP ; pecker_sdk::pecker_texture_2d_gles2::use_defualt_texture_filters
_TEXT	ENDS
EXTRN	__imp__glTexParameteri@12:PROC
; Function compile flags: /Odtp /RTCsu /ZI
;	COMDAT ?use_texture_filters@pecker_texture_2d_gles2@pecker_sdk@@UAEJPBUpecker_texture_filter_info@2@H@Z
_TEXT	SEGMENT
_i$68786 = -20						; size = 4
_this$ = -8						; size = 4
_filters$ = 8						; size = 4
_filters_count$ = 12					; size = 4
?use_texture_filters@pecker_texture_2d_gles2@pecker_sdk@@UAEJPBUpecker_texture_filter_info@2@H@Z PROC ; pecker_sdk::pecker_texture_2d_gles2::use_texture_filters, COMDAT
; _this$ = ecx

; 171  : {

	push	ebp
	mov	ebp, esp
	sub	esp, 216				; 000000d8H
	push	ebx
	push	esi
	push	edi
	push	ecx
	lea	edi, DWORD PTR [ebp-216]
	mov	ecx, 54					; 00000036H
	mov	eax, -858993460				; ccccccccH
	rep stosd
	pop	ecx
	mov	DWORD PTR _this$[ebp], ecx

; 172  : 	if (0 != _M_gpu_target)

	mov	eax, DWORD PTR _this$[ebp]
	cmp	DWORD PTR [eax+8], 0
	je	SHORT $LN5@use_textur

; 173  : 	{
; 174  : 		glBindTexture(GL_TEXTURE_2D,_M_gpu_target);

	mov	esi, esp
	mov	eax, DWORD PTR _this$[ebp]
	mov	ecx, DWORD PTR [eax+8]
	push	ecx
	push	3553					; 00000de1H
	call	DWORD PTR __imp__glBindTexture@8
	cmp	esi, esp
	call	__RTC_CheckEsp

; 175  : 		for (nINDEX i=0;i<_M_defualt_texture_filter_count;++i)

	mov	DWORD PTR _i$68786[ebp], 0
	jmp	SHORT $LN4@use_textur
$LN3@use_textur:
	mov	eax, DWORD PTR _i$68786[ebp]
	add	eax, 1
	mov	DWORD PTR _i$68786[ebp], eax
$LN4@use_textur:
	mov	eax, DWORD PTR _this$[ebp]
	mov	ecx, DWORD PTR _i$68786[ebp]
	cmp	ecx, DWORD PTR [eax+16]
	jge	SHORT $LN2@use_textur

; 176  : 		{
; 177  : 			glTexParameteri(GL_TEXTURE_2D,_M_defualt_texture_filter[i]._M_filter_name,_M_defualt_texture_filter[i]._M_filter_param._M_uinteger);

	mov	esi, esp
	mov	eax, DWORD PTR _i$68786[ebp]
	mov	ecx, DWORD PTR _this$[ebp]
	mov	edx, DWORD PTR [ecx+eax*8+112]
	push	edx
	mov	eax, DWORD PTR _i$68786[ebp]
	mov	ecx, DWORD PTR _this$[ebp]
	mov	edx, DWORD PTR [ecx+eax*8+108]
	push	edx
	push	3553					; 00000de1H
	call	DWORD PTR __imp__glTexParameteri@12
	cmp	esi, esp
	call	__RTC_CheckEsp

; 178  : 		}

	jmp	SHORT $LN3@use_textur
$LN2@use_textur:

; 179  : 		return P_OK;

	xor	eax, eax
	jmp	SHORT $LN6@use_textur

; 180  : 	}
; 181  : 	else

	jmp	SHORT $LN6@use_textur
$LN5@use_textur:

; 182  : 	{
; 183  : 		return P_FAIL;

	mov	eax, 1
$LN6@use_textur:

; 184  : 	}
; 185  : 
; 186  : }

	pop	edi
	pop	esi
	pop	ebx
	add	esp, 216				; 000000d8H
	cmp	ebp, esp
	call	__RTC_CheckEsp
	mov	esp, ebp
	pop	ebp
	ret	8
?use_texture_filters@pecker_texture_2d_gles2@pecker_sdk@@UAEJPBUpecker_texture_filter_info@2@H@Z ENDP ; pecker_sdk::pecker_texture_2d_gles2::use_texture_filters
_TEXT	ENDS
EXTRN	__imp__glUniform1i@8:PROC
EXTRN	__imp__glActiveTexture@4:PROC
; Function compile flags: /Odtp /RTCsu /ZI
;	COMDAT ?bind_texture_to_shader_sample@pecker_texture_2d_gles2@pecker_sdk@@UAEJII@Z
_TEXT	SEGMENT
_this$ = -8						; size = 4
_sample_location$ = 8					; size = 4
_texture_unit$ = 12					; size = 4
?bind_texture_to_shader_sample@pecker_texture_2d_gles2@pecker_sdk@@UAEJII@Z PROC ; pecker_sdk::pecker_texture_2d_gles2::bind_texture_to_shader_sample, COMDAT
; _this$ = ecx

; 189  : {

	push	ebp
	mov	ebp, esp
	sub	esp, 204				; 000000ccH
	push	ebx
	push	esi
	push	edi
	push	ecx
	lea	edi, DWORD PTR [ebp-204]
	mov	ecx, 51					; 00000033H
	mov	eax, -858993460				; ccccccccH
	rep stosd
	pop	ecx
	mov	DWORD PTR _this$[ebp], ecx

; 190  : 	if (0 != _M_gpu_target)

	mov	eax, DWORD PTR _this$[ebp]
	cmp	DWORD PTR [eax+8], 0
	je	SHORT $LN3@bind_textu

; 191  : 	{
; 192  : 		if (texture_unit < MAX_TEXTURE_UNIT_COUNT)

	cmp	DWORD PTR _texture_unit$[ebp], 32	; 00000020H
	jae	SHORT $LN2@bind_textu

; 193  : 		{
; 194  : 			glActiveTexture(GL_TEXTURE0 + texture_unit);

	mov	eax, DWORD PTR _texture_unit$[ebp]
	add	eax, 33984				; 000084c0H
	mov	esi, esp
	push	eax
	call	DWORD PTR __imp__glActiveTexture@4
	cmp	esi, esp
	call	__RTC_CheckEsp

; 195  : 			glBindTexture(GL_TEXTURE_2D,_M_gpu_target);

	mov	esi, esp
	mov	eax, DWORD PTR _this$[ebp]
	mov	ecx, DWORD PTR [eax+8]
	push	ecx
	push	3553					; 00000de1H
	call	DWORD PTR __imp__glBindTexture@8
	cmp	esi, esp
	call	__RTC_CheckEsp

; 196  : 			glUniform1i(sample_location,texture_unit);

	mov	esi, esp
	mov	eax, DWORD PTR _texture_unit$[ebp]
	push	eax
	mov	ecx, DWORD PTR _sample_location$[ebp]
	push	ecx
	call	DWORD PTR __imp__glUniform1i@8
	cmp	esi, esp
	call	__RTC_CheckEsp

; 197  : 			return pecker_texture_2d_gles2::get_last_error_code();

	call	?get_last_error_code@pecker_opengles_v2_object@pecker_sdk@@SAJXZ ; pecker_sdk::pecker_opengles_v2_object::get_last_error_code
	jmp	SHORT $LN4@bind_textu
$LN2@bind_textu:

; 198  : 		}
; 199  : 		return P_INVALID_VALUE;

	mov	eax, -2					; fffffffeH
	jmp	SHORT $LN4@bind_textu

; 200  : 	}
; 201  : 	else

	jmp	SHORT $LN4@bind_textu
$LN3@bind_textu:

; 202  : 	{
; 203  : 		return P_FAIL;

	mov	eax, 1
$LN4@bind_textu:

; 204  : 	}
; 205  : 
; 206  : }

	pop	edi
	pop	esi
	pop	ebx
	add	esp, 204				; 000000ccH
	cmp	ebp, esp
	call	__RTC_CheckEsp
	mov	esp, ebp
	pop	ebp
	ret	8
?bind_texture_to_shader_sample@pecker_texture_2d_gles2@pecker_sdk@@UAEJII@Z ENDP ; pecker_sdk::pecker_texture_2d_gles2::bind_texture_to_shader_sample
; Function compile flags: /Odtp /RTCsu /ZI
_TEXT	ENDS
;	COMDAT ?get_texture_info@pecker_texture_2d_gles2@pecker_sdk@@UAEABUpecker_texture_layer_info@2@I@Z
_TEXT	SEGMENT
_this$ = -8						; size = 4
_miplevel$ = 8						; size = 4
?get_texture_info@pecker_texture_2d_gles2@pecker_sdk@@UAEABUpecker_texture_layer_info@2@I@Z PROC ; pecker_sdk::pecker_texture_2d_gles2::get_texture_info, COMDAT
; _this$ = ecx

; 209  : {

	push	ebp
	mov	ebp, esp
	sub	esp, 204				; 000000ccH
	push	ebx
	push	esi
	push	edi
	push	ecx
	lea	edi, DWORD PTR [ebp-204]
	mov	ecx, 51					; 00000033H
	mov	eax, -858993460				; ccccccccH
	rep stosd
	pop	ecx
	mov	DWORD PTR _this$[ebp], ecx

; 210  : 		_M_mip_tmp_info._M_height = _M_texture_info._M_height >> miplevel;

	mov	eax, DWORD PTR _this$[ebp]
	mov	edx, DWORD PTR [eax+60]
	mov	ecx, DWORD PTR _miplevel$[ebp]
	sar	edx, cl
	mov	eax, DWORD PTR _this$[ebp]
	mov	DWORD PTR [eax+100], edx

; 211  : 		_M_mip_tmp_info._M_width = _M_texture_info._M_width >> miplevel;

	mov	eax, DWORD PTR _this$[ebp]
	mov	edx, DWORD PTR [eax+56]
	mov	ecx, DWORD PTR _miplevel$[ebp]
	sar	edx, cl
	mov	eax, DWORD PTR _this$[ebp]
	mov	DWORD PTR [eax+96], edx

; 212  : 
; 213  : 	return _M_mip_tmp_info;

	mov	eax, DWORD PTR _this$[ebp]
	add	eax, 68					; 00000044H

; 214  : }

	pop	edi
	pop	esi
	pop	ebx
	mov	esp, ebp
	pop	ebp
	ret	4
?get_texture_info@pecker_texture_2d_gles2@pecker_sdk@@UAEABUpecker_texture_layer_info@2@I@Z ENDP ; pecker_sdk::pecker_texture_2d_gles2::get_texture_info
_TEXT	ENDS
EXTRN	__imp__glCompressedTexImage2D@32:PROC
EXTRN	__imp__glTexImage2D@36:PROC
; Function compile flags: /Odtp /RTCsu /ZI
;	COMDAT ?update_gpu_buffer@pecker_texture_2d_gles2@pecker_sdk@@UAEJHQAX_N@Z
_TEXT	SEGMENT
_result_$68813 = -32					; size = 4
_tex_info$68810 = -20					; size = 4
_this$ = -8						; size = 4
_data_size$ = 8						; size = 4
_pdata$ = 12						; size = 4
_is_compress$ = 16					; size = 1
?update_gpu_buffer@pecker_texture_2d_gles2@pecker_sdk@@UAEJHQAX_N@Z PROC ; pecker_sdk::pecker_texture_2d_gles2::update_gpu_buffer, COMDAT
; _this$ = ecx

; 217  : {

	push	ebp
	mov	ebp, esp
	sub	esp, 228				; 000000e4H
	push	ebx
	push	esi
	push	edi
	push	ecx
	lea	edi, DWORD PTR [ebp-228]
	mov	ecx, 57					; 00000039H
	mov	eax, -858993460				; ccccccccH
	rep stosd
	pop	ecx
	mov	DWORD PTR _this$[ebp], ecx

; 218  : 	if (0 != _M_gpu_target)

	mov	eax, DWORD PTR _this$[ebp]
	cmp	DWORD PTR [eax+8], 0
	je	$LN3@update_gpu

; 219  : 	{
; 220  : 		const pecker_texture_layer_info& tex_info =  get_texture_info(_M_active_miplevel);

	mov	esi, esp
	mov	eax, DWORD PTR _this$[ebp]
	mov	ecx, DWORD PTR [eax+24]
	push	ecx
	mov	edx, DWORD PTR _this$[ebp]
	mov	eax, DWORD PTR [edx]
	mov	ecx, DWORD PTR _this$[ebp]
	mov	edx, DWORD PTR [eax+44]
	call	edx
	cmp	esi, esp
	call	__RTC_CheckEsp
	mov	DWORD PTR _tex_info$68810[ebp], eax

; 221  : 		glBindTexture(GL_TEXTURE_2D,_M_gpu_target);

	mov	esi, esp
	mov	eax, DWORD PTR _this$[ebp]
	mov	ecx, DWORD PTR [eax+8]
	push	ecx
	push	3553					; 00000de1H
	call	DWORD PTR __imp__glBindTexture@8
	cmp	esi, esp
	call	__RTC_CheckEsp

; 222  : 		if (false == is_compress)

	movzx	eax, BYTE PTR _is_compress$[ebp]
	test	eax, eax
	jne	SHORT $LN2@update_gpu

; 223  : 		{
; 224  : 			glTexImage2D(GL_TEXTURE_2D,
; 225  : 				_M_active_miplevel,
; 226  : 				tex_info._M_internal_format,
; 227  : 				tex_info._M_width,
; 228  : 				tex_info._M_height,
; 229  : 				tex_info._M_border,
; 230  : 				tex_info._M_bit_format,
; 231  : 				tex_info._M_data_type,
; 232  : 				pdata);

	mov	esi, esp
	mov	eax, DWORD PTR _pdata$[ebp]
	push	eax
	mov	ecx, DWORD PTR _tex_info$68810[ebp]
	mov	edx, DWORD PTR [ecx+12]
	push	edx
	mov	eax, DWORD PTR _tex_info$68810[ebp]
	mov	ecx, DWORD PTR [eax+8]
	push	ecx
	mov	edx, DWORD PTR _tex_info$68810[ebp]
	mov	eax, DWORD PTR [edx+24]
	push	eax
	mov	ecx, DWORD PTR _tex_info$68810[ebp]
	mov	edx, DWORD PTR [ecx+32]
	push	edx
	mov	eax, DWORD PTR _tex_info$68810[ebp]
	mov	ecx, DWORD PTR [eax+28]
	push	ecx
	mov	edx, DWORD PTR _tex_info$68810[ebp]
	mov	eax, DWORD PTR [edx+4]
	push	eax
	mov	ecx, DWORD PTR _this$[ebp]
	mov	edx, DWORD PTR [ecx+24]
	push	edx
	push	3553					; 00000de1H
	call	DWORD PTR __imp__glTexImage2D@36
	cmp	esi, esp
	call	__RTC_CheckEsp

; 233  : 		}
; 234  : 		else

	jmp	SHORT $LN1@update_gpu
$LN2@update_gpu:

; 235  : 		{
; 236  : 			glCompressedTexImage2D(GL_TEXTURE_2D,
; 237  : 				_M_active_miplevel,
; 238  : 				tex_info._M_internal_format,
; 239  : 				tex_info._M_width,
; 240  : 				tex_info._M_height,
; 241  : 				tex_info._M_border,
; 242  : 				data_size,
; 243  : 				pdata);

	mov	esi, esp
	mov	eax, DWORD PTR _pdata$[ebp]
	push	eax
	mov	ecx, DWORD PTR _data_size$[ebp]
	push	ecx
	mov	edx, DWORD PTR _tex_info$68810[ebp]
	mov	eax, DWORD PTR [edx+24]
	push	eax
	mov	ecx, DWORD PTR _tex_info$68810[ebp]
	mov	edx, DWORD PTR [ecx+32]
	push	edx
	mov	eax, DWORD PTR _tex_info$68810[ebp]
	mov	ecx, DWORD PTR [eax+28]
	push	ecx
	mov	edx, DWORD PTR _tex_info$68810[ebp]
	mov	eax, DWORD PTR [edx+4]
	push	eax
	mov	ecx, DWORD PTR _this$[ebp]
	mov	edx, DWORD PTR [ecx+24]
	push	edx
	push	3553					; 00000de1H
	call	DWORD PTR __imp__glCompressedTexImage2D@32
	cmp	esi, esp
	call	__RTC_CheckEsp
$LN1@update_gpu:

; 244  : 		}
; 245  : 
; 246  : 		UInt result_ = pecker_opengles_v2_object::get_last_error_code();

	call	?get_last_error_code@pecker_opengles_v2_object@pecker_sdk@@SAJXZ ; pecker_sdk::pecker_opengles_v2_object::get_last_error_code
	mov	DWORD PTR _result_$68813[ebp], eax

; 247  : 		return result_;

	mov	eax, DWORD PTR _result_$68813[ebp]
	jmp	SHORT $LN4@update_gpu
$LN3@update_gpu:

; 248  : 	}
; 249  : 	return P_FAIL;

	mov	eax, 1
$LN4@update_gpu:

; 250  : }

	pop	edi
	pop	esi
	pop	ebx
	add	esp, 228				; 000000e4H
	cmp	ebp, esp
	call	__RTC_CheckEsp
	mov	esp, ebp
	pop	ebp
	ret	12					; 0000000cH
?update_gpu_buffer@pecker_texture_2d_gles2@pecker_sdk@@UAEJHQAX_N@Z ENDP ; pecker_sdk::pecker_texture_2d_gles2::update_gpu_buffer
_TEXT	ENDS
EXTRN	__imp__glCompressedTexSubImage2D@36:PROC
EXTRN	__imp__glTexSubImage2D@36:PROC
; Function compile flags: /Odtp /RTCsu /ZI
;	COMDAT ?update_gpu_sub_buffer@pecker_texture_2d_gles2@pecker_sdk@@UAEJHHHHHQAX_N@Z
_TEXT	SEGMENT
_result_$68827 = -20					; size = 4
_this$ = -8						; size = 4
_xoffset$ = 8						; size = 4
_yoffset$ = 12						; size = 4
_width$ = 16						; size = 4
_height$ = 20						; size = 4
_data_size$ = 24					; size = 4
_pdata$ = 28						; size = 4
_is_compress$ = 32					; size = 1
?update_gpu_sub_buffer@pecker_texture_2d_gles2@pecker_sdk@@UAEJHHHHHQAX_N@Z PROC ; pecker_sdk::pecker_texture_2d_gles2::update_gpu_sub_buffer, COMDAT
; _this$ = ecx

; 252  : {

	push	ebp
	mov	ebp, esp
	sub	esp, 216				; 000000d8H
	push	ebx
	push	esi
	push	edi
	push	ecx
	lea	edi, DWORD PTR [ebp-216]
	mov	ecx, 54					; 00000036H
	mov	eax, -858993460				; ccccccccH
	rep stosd
	pop	ecx
	mov	DWORD PTR _this$[ebp], ecx

; 253  : 	if (0 != _M_gpu_target)

	mov	eax, DWORD PTR _this$[ebp]
	cmp	DWORD PTR [eax+8], 0
	je	$LN3@update_gpu@2

; 254  : 	{
; 255  : 		glBindTexture(GL_TEXTURE_2D,_M_gpu_target);

	mov	esi, esp
	mov	eax, DWORD PTR _this$[ebp]
	mov	ecx, DWORD PTR [eax+8]
	push	ecx
	push	3553					; 00000de1H
	call	DWORD PTR __imp__glBindTexture@8
	cmp	esi, esp
	call	__RTC_CheckEsp

; 256  : 		if (!is_compress)

	movzx	eax, BYTE PTR _is_compress$[ebp]
	test	eax, eax
	jne	SHORT $LN2@update_gpu@2

; 257  : 		{
; 258  : 			glTexSubImage2D(GL_TEXTURE_2D,
; 259  : 				_M_active_miplevel,
; 260  : 				xoffset,
; 261  : 				yoffset,
; 262  : 				width,
; 263  : 				height,
; 264  : 				_M_texture_info._M_bit_format,
; 265  : 				_M_texture_info._M_data_type,
; 266  : 				pdata);

	mov	esi, esp
	mov	eax, DWORD PTR _pdata$[ebp]
	push	eax
	mov	ecx, DWORD PTR _this$[ebp]
	mov	edx, DWORD PTR [ecx+40]
	push	edx
	mov	eax, DWORD PTR _this$[ebp]
	mov	ecx, DWORD PTR [eax+36]
	push	ecx
	mov	edx, DWORD PTR _height$[ebp]
	push	edx
	mov	eax, DWORD PTR _width$[ebp]
	push	eax
	mov	ecx, DWORD PTR _yoffset$[ebp]
	push	ecx
	mov	edx, DWORD PTR _xoffset$[ebp]
	push	edx
	mov	eax, DWORD PTR _this$[ebp]
	mov	ecx, DWORD PTR [eax+24]
	push	ecx
	push	3553					; 00000de1H
	call	DWORD PTR __imp__glTexSubImage2D@36
	cmp	esi, esp
	call	__RTC_CheckEsp

; 267  : 		}
; 268  : 		else

	jmp	SHORT $LN1@update_gpu@2
$LN2@update_gpu@2:

; 269  : 		{
; 270  : 			glCompressedTexSubImage2D(GL_TEXTURE_2D,
; 271  : 				_M_active_miplevel,
; 272  : 				xoffset,
; 273  : 				yoffset,
; 274  : 				width,
; 275  : 				height,
; 276  : 				_M_texture_info._M_bit_format,
; 277  : 				data_size,
; 278  : 				pdata);

	mov	esi, esp
	mov	eax, DWORD PTR _pdata$[ebp]
	push	eax
	mov	ecx, DWORD PTR _data_size$[ebp]
	push	ecx
	mov	edx, DWORD PTR _this$[ebp]
	mov	eax, DWORD PTR [edx+36]
	push	eax
	mov	ecx, DWORD PTR _height$[ebp]
	push	ecx
	mov	edx, DWORD PTR _width$[ebp]
	push	edx
	mov	eax, DWORD PTR _yoffset$[ebp]
	push	eax
	mov	ecx, DWORD PTR _xoffset$[ebp]
	push	ecx
	mov	edx, DWORD PTR _this$[ebp]
	mov	eax, DWORD PTR [edx+24]
	push	eax
	push	3553					; 00000de1H
	call	DWORD PTR __imp__glCompressedTexSubImage2D@36
	cmp	esi, esp
	call	__RTC_CheckEsp
$LN1@update_gpu@2:

; 279  : 		}
; 280  : 
; 281  : 		UInt result_ = pecker_opengles_v2_object::get_last_error_code();

	call	?get_last_error_code@pecker_opengles_v2_object@pecker_sdk@@SAJXZ ; pecker_sdk::pecker_opengles_v2_object::get_last_error_code
	mov	DWORD PTR _result_$68827[ebp], eax

; 282  : 		return result_;

	mov	eax, DWORD PTR _result_$68827[ebp]
	jmp	SHORT $LN4@update_gpu@2
$LN3@update_gpu@2:

; 283  : 	}
; 284  : 	return P_FAIL;

	mov	eax, 1
$LN4@update_gpu@2:

; 285  : }

	pop	edi
	pop	esi
	pop	ebx
	add	esp, 216				; 000000d8H
	cmp	ebp, esp
	call	__RTC_CheckEsp
	mov	esp, ebp
	pop	ebp
	ret	28					; 0000001cH
?update_gpu_sub_buffer@pecker_texture_2d_gles2@pecker_sdk@@UAEJHHHHHQAX_N@Z ENDP ; pecker_sdk::pecker_texture_2d_gles2::update_gpu_sub_buffer
; Function compile flags: /Odtp /RTCsu /ZI
_TEXT	ENDS
;	COMDAT ?set_render_type@pecker_texture_2d_gles2@pecker_sdk@@UAEJI@Z
_TEXT	SEGMENT
_this$ = -8						; size = 4
_attach_type$ = 8					; size = 4
?set_render_type@pecker_texture_2d_gles2@pecker_sdk@@UAEJI@Z PROC ; pecker_sdk::pecker_texture_2d_gles2::set_render_type, COMDAT
; _this$ = ecx

; 288  : {

	push	ebp
	mov	ebp, esp
	sub	esp, 204				; 000000ccH
	push	ebx
	push	esi
	push	edi
	push	ecx
	lea	edi, DWORD PTR [ebp-204]
	mov	ecx, 51					; 00000033H
	mov	eax, -858993460				; ccccccccH
	rep stosd
	pop	ecx
	mov	DWORD PTR _this$[ebp], ecx

; 289  : 	if (attach_type >= 0 && attach_type < STENCIL_BUFFER_TYPE)

	cmp	DWORD PTR _attach_type$[ebp], 0
	jb	SHORT $LN2@set_render
	cmp	DWORD PTR _attach_type$[ebp], 2
	jae	SHORT $LN2@set_render

; 290  : 	{
; 291  : 		_M_render_type = attach_type;

	mov	eax, DWORD PTR _this$[ebp]
	mov	ecx, DWORD PTR _attach_type$[ebp]
	mov	DWORD PTR [eax+20], ecx

; 292  : 		return P_OK;

	xor	eax, eax
	jmp	SHORT $LN3@set_render

; 293  : 	}
; 294  : 	else

	jmp	SHORT $LN3@set_render
$LN2@set_render:

; 295  : 	{
; 296  : 		return P_INVALID_VALUE;

	mov	eax, -2					; fffffffeH
$LN3@set_render:

; 297  : 	}
; 298  : 
; 299  : }

	pop	edi
	pop	esi
	pop	ebx
	mov	esp, ebp
	pop	ebp
	ret	4
?set_render_type@pecker_texture_2d_gles2@pecker_sdk@@UAEJI@Z ENDP ; pecker_sdk::pecker_texture_2d_gles2::set_render_type
; Function compile flags: /Odtp /RTCsu /ZI
_TEXT	ENDS
;	COMDAT ?set_active_miplevel@pecker_texture_2d_gles2@pecker_sdk@@UAEJI@Z
_TEXT	SEGMENT
_this$ = -8						; size = 4
_miplevel$ = 8						; size = 4
?set_active_miplevel@pecker_texture_2d_gles2@pecker_sdk@@UAEJI@Z PROC ; pecker_sdk::pecker_texture_2d_gles2::set_active_miplevel, COMDAT
; _this$ = ecx

; 302  : {

	push	ebp
	mov	ebp, esp
	sub	esp, 204				; 000000ccH
	push	ebx
	push	esi
	push	edi
	push	ecx
	lea	edi, DWORD PTR [ebp-204]
	mov	ecx, 51					; 00000033H
	mov	eax, -858993460				; ccccccccH
	rep stosd
	pop	ecx
	mov	DWORD PTR _this$[ebp], ecx

; 303  : 	if (miplevel < _M_mip_level_count)

	mov	eax, DWORD PTR _this$[ebp]
	mov	ecx, DWORD PTR _miplevel$[ebp]
	cmp	ecx, DWORD PTR [eax+12]
	jae	SHORT $LN1@set_active

; 304  : 	{
; 305  : 		_M_active_miplevel = miplevel;

	mov	eax, DWORD PTR _this$[ebp]
	mov	ecx, DWORD PTR _miplevel$[ebp]
	mov	DWORD PTR [eax+24], ecx

; 306  : 		return P_OK;

	xor	eax, eax
	jmp	SHORT $LN2@set_active
$LN1@set_active:

; 307  : 	}
; 308  : 	return P_INVALID_VALUE;

	mov	eax, -2					; fffffffeH
$LN2@set_active:

; 309  : }

	pop	edi
	pop	esi
	pop	ebx
	mov	esp, ebp
	pop	ebp
	ret	4
?set_active_miplevel@pecker_texture_2d_gles2@pecker_sdk@@UAEJI@Z ENDP ; pecker_sdk::pecker_texture_2d_gles2::set_active_miplevel
; Function compile flags: /Odtp /RTCsu /ZI
_TEXT	ENDS
;	COMDAT ?get_active_miplevel@pecker_texture_2d_gles2@pecker_sdk@@UBEIXZ
_TEXT	SEGMENT
_this$ = -8						; size = 4
?get_active_miplevel@pecker_texture_2d_gles2@pecker_sdk@@UBEIXZ PROC ; pecker_sdk::pecker_texture_2d_gles2::get_active_miplevel, COMDAT
; _this$ = ecx

; 312  : {

	push	ebp
	mov	ebp, esp
	sub	esp, 204				; 000000ccH
	push	ebx
	push	esi
	push	edi
	push	ecx
	lea	edi, DWORD PTR [ebp-204]
	mov	ecx, 51					; 00000033H
	mov	eax, -858993460				; ccccccccH
	rep stosd
	pop	ecx
	mov	DWORD PTR _this$[ebp], ecx

; 313  : 	return _M_active_miplevel;

	mov	eax, DWORD PTR _this$[ebp]
	mov	eax, DWORD PTR [eax+24]

; 314  : }

	pop	edi
	pop	esi
	pop	ebx
	mov	esp, ebp
	pop	ebp
	ret	0
?get_active_miplevel@pecker_texture_2d_gles2@pecker_sdk@@UBEIXZ ENDP ; pecker_sdk::pecker_texture_2d_gles2::get_active_miplevel
; Function compile flags: /Odtp /RTCsu /ZI
_TEXT	ENDS
;	COMDAT ?get_render_type@pecker_texture_2d_gles2@pecker_sdk@@UBEIXZ
_TEXT	SEGMENT
_this$ = -8						; size = 4
?get_render_type@pecker_texture_2d_gles2@pecker_sdk@@UBEIXZ PROC ; pecker_sdk::pecker_texture_2d_gles2::get_render_type, COMDAT
; _this$ = ecx

; 317  : {

	push	ebp
	mov	ebp, esp
	sub	esp, 204				; 000000ccH
	push	ebx
	push	esi
	push	edi
	push	ecx
	lea	edi, DWORD PTR [ebp-204]
	mov	ecx, 51					; 00000033H
	mov	eax, -858993460				; ccccccccH
	rep stosd
	pop	ecx
	mov	DWORD PTR _this$[ebp], ecx

; 318  : 	return _M_render_type;

	mov	eax, DWORD PTR _this$[ebp]
	mov	eax, DWORD PTR [eax+20]

; 319  : }

	pop	edi
	pop	esi
	pop	ebx
	mov	esp, ebp
	pop	ebp
	ret	0
?get_render_type@pecker_texture_2d_gles2@pecker_sdk@@UBEIXZ ENDP ; pecker_sdk::pecker_texture_2d_gles2::get_render_type
_TEXT	ENDS
PUBLIC	?get_object_location@pecker_texture_2d_gles2@pecker_sdk@@UBEIXZ ; pecker_sdk::pecker_texture_2d_gles2::get_object_location
; Function compile flags: /Odtp /RTCsu /ZI
;	COMDAT ?get_object_location@pecker_texture_2d_gles2@pecker_sdk@@UBEIXZ
_TEXT	SEGMENT
_this$ = -8						; size = 4
?get_object_location@pecker_texture_2d_gles2@pecker_sdk@@UBEIXZ PROC ; pecker_sdk::pecker_texture_2d_gles2::get_object_location, COMDAT
; _this$ = ecx

; 322  : {

	push	ebp
	mov	ebp, esp
	sub	esp, 204				; 000000ccH
	push	ebx
	push	esi
	push	edi
	push	ecx
	lea	edi, DWORD PTR [ebp-204]
	mov	ecx, 51					; 00000033H
	mov	eax, -858993460				; ccccccccH
	rep stosd
	pop	ecx
	mov	DWORD PTR _this$[ebp], ecx

; 323  : 	return _M_gpu_target;

	mov	eax, DWORD PTR _this$[ebp]
	mov	eax, DWORD PTR [eax-232]

; 324  : }

	pop	edi
	pop	esi
	pop	ebx
	mov	esp, ebp
	pop	ebp
	ret	0
?get_object_location@pecker_texture_2d_gles2@pecker_sdk@@UBEIXZ ENDP ; pecker_sdk::pecker_texture_2d_gles2::get_object_location
_TEXT	ENDS
PUBLIC	??_7pecker_texture_cube_gles2@pecker_sdk@@6Bpecker_opengles_v2_object@1@@ ; pecker_sdk::pecker_texture_cube_gles2::`vftable'
PUBLIC	??_7pecker_texture_cube_gles2@pecker_sdk@@6BIpecker_texture_cube@1@@ ; pecker_sdk::pecker_texture_cube_gles2::`vftable'
PUBLIC	??0Ipecker_texture_cube@pecker_sdk@@QAE@XZ	; pecker_sdk::Ipecker_texture_cube::Ipecker_texture_cube
PUBLIC	??_8pecker_texture_cube_gles2@pecker_sdk@@7B@	; pecker_sdk::pecker_texture_cube_gles2::`vbtable'
PUBLIC	??0pecker_texture_cube_gles2@pecker_sdk@@QAE@XZ	; pecker_sdk::pecker_texture_cube_gles2::pecker_texture_cube_gles2
PUBLIC	??_R4pecker_texture_cube_gles2@pecker_sdk@@6BIpecker_texture_cube@1@@ ; pecker_sdk::pecker_texture_cube_gles2::`RTTI Complete Object Locator'
PUBLIC	??_R0?AVpecker_texture_cube_gles2@pecker_sdk@@@8 ; pecker_sdk::pecker_texture_cube_gles2 `RTTI Type Descriptor'
PUBLIC	??_R3pecker_texture_cube_gles2@pecker_sdk@@8	; pecker_sdk::pecker_texture_cube_gles2::`RTTI Class Hierarchy Descriptor'
PUBLIC	??_R2pecker_texture_cube_gles2@pecker_sdk@@8	; pecker_sdk::pecker_texture_cube_gles2::`RTTI Base Class Array'
PUBLIC	??_R1A@?0A@EA@pecker_texture_cube_gles2@pecker_sdk@@8 ; pecker_sdk::pecker_texture_cube_gles2::`RTTI Base Class Descriptor at (0,-1,0,64)'
PUBLIC	??_R1A@?0A@EA@Ipecker_texture_cube@pecker_sdk@@8 ; pecker_sdk::Ipecker_texture_cube::`RTTI Base Class Descriptor at (0,-1,0,64)'
PUBLIC	??_R0?AUIpecker_texture_cube@pecker_sdk@@@8	; pecker_sdk::Ipecker_texture_cube `RTTI Type Descriptor'
PUBLIC	??_R3Ipecker_texture_cube@pecker_sdk@@8		; pecker_sdk::Ipecker_texture_cube::`RTTI Class Hierarchy Descriptor'
PUBLIC	??_R2Ipecker_texture_cube@pecker_sdk@@8		; pecker_sdk::Ipecker_texture_cube::`RTTI Base Class Array'
PUBLIC	?attach_by_frame_buffer@pecker_texture_cube_gles2@pecker_sdk@@UAEJPAUIpecker_frame_buffer@2@I@Z ; pecker_sdk::pecker_texture_cube_gles2::attach_by_frame_buffer
PUBLIC	?bind@pecker_texture_cube_gles2@pecker_sdk@@UAEJXZ ; pecker_sdk::pecker_texture_cube_gles2::bind
PUBLIC	?get_mip_level@pecker_texture_cube_gles2@pecker_sdk@@UBEIXZ ; pecker_sdk::pecker_texture_cube_gles2::get_mip_level
PUBLIC	?allocate_texture_from_gpu_ram@pecker_texture_cube_gles2@pecker_sdk@@UAEJABUpecker_texture_layer_info@2@@Z ; pecker_sdk::pecker_texture_cube_gles2::allocate_texture_from_gpu_ram
PUBLIC	?release_texture_from_gpu_ram@pecker_texture_cube_gles2@pecker_sdk@@UAEJXZ ; pecker_sdk::pecker_texture_cube_gles2::release_texture_from_gpu_ram
PUBLIC	?use_defualt_texture_filters@pecker_texture_cube_gles2@pecker_sdk@@UAEJXZ ; pecker_sdk::pecker_texture_cube_gles2::use_defualt_texture_filters
PUBLIC	?use_texture_filters@pecker_texture_cube_gles2@pecker_sdk@@UAEJPBUpecker_texture_filter_info@2@H@Z ; pecker_sdk::pecker_texture_cube_gles2::use_texture_filters
PUBLIC	?bind_texture_to_shader_sample@pecker_texture_cube_gles2@pecker_sdk@@UAEJII@Z ; pecker_sdk::pecker_texture_cube_gles2::bind_texture_to_shader_sample
PUBLIC	?get_texture_info@pecker_texture_cube_gles2@pecker_sdk@@UAEABUpecker_texture_layer_info@2@I@Z ; pecker_sdk::pecker_texture_cube_gles2::get_texture_info
PUBLIC	?update_gpu_buffer@pecker_texture_cube_gles2@pecker_sdk@@UAEJHQAX_N@Z ; pecker_sdk::pecker_texture_cube_gles2::update_gpu_buffer
PUBLIC	?update_gpu_sub_buffer@pecker_texture_cube_gles2@pecker_sdk@@UAEJHHHHHQAX_N@Z ; pecker_sdk::pecker_texture_cube_gles2::update_gpu_sub_buffer
PUBLIC	?set_active_miplevel@pecker_texture_cube_gles2@pecker_sdk@@UAEJI@Z ; pecker_sdk::pecker_texture_cube_gles2::set_active_miplevel
PUBLIC	?get_active_miplevel@pecker_texture_cube_gles2@pecker_sdk@@UBEIXZ ; pecker_sdk::pecker_texture_cube_gles2::get_active_miplevel
PUBLIC	?set_render_type@pecker_texture_cube_gles2@pecker_sdk@@UAEJI@Z ; pecker_sdk::pecker_texture_cube_gles2::set_render_type
PUBLIC	?get_render_type@pecker_texture_cube_gles2@pecker_sdk@@UBEIXZ ; pecker_sdk::pecker_texture_cube_gles2::get_render_type
PUBLIC	?set_active_face@pecker_texture_cube_gles2@pecker_sdk@@UAEJI@Z ; pecker_sdk::pecker_texture_cube_gles2::set_active_face
PUBLIC	?get_active_face@pecker_texture_cube_gles2@pecker_sdk@@UBEIXZ ; pecker_sdk::pecker_texture_cube_gles2::get_active_face
PUBLIC	?allocate_texture_from_gpu_ram@pecker_texture_cube_gles2@pecker_sdk@@UAEJPBUpecker_texture_layer_info@2@H@Z ; pecker_sdk::pecker_texture_cube_gles2::allocate_texture_from_gpu_ram
PUBLIC	??_R4pecker_texture_cube_gles2@pecker_sdk@@6Bpecker_opengles_v2_object@1@@ ; pecker_sdk::pecker_texture_cube_gles2::`RTTI Complete Object Locator'
PUBLIC	??_Epecker_texture_cube_gles2@pecker_sdk@@$4PPPPPPPM@BLM@AEPAXI@Z ; pecker_sdk::pecker_texture_cube_gles2::`vector deleting destructor'
PUBLIC	?get_object_location@pecker_texture_cube_gles2@pecker_sdk@@$4PPPPPPPM@A@BEIXZ ; pecker_sdk::pecker_texture_cube_gles2::get_object_location
EXTRN	??_Epecker_texture_cube_gles2@pecker_sdk@@UAEPAXI@Z:PROC ; pecker_sdk::pecker_texture_cube_gles2::`vector deleting destructor'
EXTRN	?get_texture_type@Ipecker_texture_cube@pecker_sdk@@UBEIXZ:PROC ; pecker_sdk::Ipecker_texture_cube::get_texture_type
;	COMDAT ??_R4pecker_texture_cube_gles2@pecker_sdk@@6Bpecker_opengles_v2_object@1@@
rdata$r	SEGMENT
??_R4pecker_texture_cube_gles2@pecker_sdk@@6Bpecker_opengles_v2_object@1@@ DD 00H ; pecker_sdk::pecker_texture_cube_gles2::`RTTI Complete Object Locator'
	DD	01bcH
	DD	04H
	DD	FLAT:??_R0?AVpecker_texture_cube_gles2@pecker_sdk@@@8
	DD	FLAT:??_R3pecker_texture_cube_gles2@pecker_sdk@@8
rdata$r	ENDS
;	COMDAT ??_R2Ipecker_texture_cube@pecker_sdk@@8
rdata$r	SEGMENT
??_R2Ipecker_texture_cube@pecker_sdk@@8 DD FLAT:??_R1A@?0A@EA@Ipecker_texture_cube@pecker_sdk@@8 ; pecker_sdk::Ipecker_texture_cube::`RTTI Base Class Array'
	DD	FLAT:??_R1A@?0A@EA@Ipecker_texture@pecker_sdk@@8
	DD	FLAT:??_R1A@?0A@EA@Ipecker_frame_buffer_object@pecker_sdk@@8
rdata$r	ENDS
;	COMDAT ??_R3Ipecker_texture_cube@pecker_sdk@@8
rdata$r	SEGMENT
??_R3Ipecker_texture_cube@pecker_sdk@@8 DD 00H		; pecker_sdk::Ipecker_texture_cube::`RTTI Class Hierarchy Descriptor'
	DD	00H
	DD	03H
	DD	FLAT:??_R2Ipecker_texture_cube@pecker_sdk@@8
rdata$r	ENDS
;	COMDAT ??_R0?AUIpecker_texture_cube@pecker_sdk@@@8
_DATA	SEGMENT
??_R0?AUIpecker_texture_cube@pecker_sdk@@@8 DD FLAT:??_7type_info@@6B@ ; pecker_sdk::Ipecker_texture_cube `RTTI Type Descriptor'
	DD	00H
	DB	'.?AUIpecker_texture_cube@pecker_sdk@@', 00H
_DATA	ENDS
;	COMDAT ??_R1A@?0A@EA@Ipecker_texture_cube@pecker_sdk@@8
rdata$r	SEGMENT
??_R1A@?0A@EA@Ipecker_texture_cube@pecker_sdk@@8 DD FLAT:??_R0?AUIpecker_texture_cube@pecker_sdk@@@8 ; pecker_sdk::Ipecker_texture_cube::`RTTI Base Class Descriptor at (0,-1,0,64)'
	DD	02H
	DD	00H
	DD	0ffffffffH
	DD	00H
	DD	040H
	DD	FLAT:??_R3Ipecker_texture_cube@pecker_sdk@@8
rdata$r	ENDS
;	COMDAT ??_R1A@?0A@EA@pecker_texture_cube_gles2@pecker_sdk@@8
rdata$r	SEGMENT
??_R1A@?0A@EA@pecker_texture_cube_gles2@pecker_sdk@@8 DD FLAT:??_R0?AVpecker_texture_cube_gles2@pecker_sdk@@@8 ; pecker_sdk::pecker_texture_cube_gles2::`RTTI Base Class Descriptor at (0,-1,0,64)'
	DD	05H
	DD	00H
	DD	0ffffffffH
	DD	00H
	DD	040H
	DD	FLAT:??_R3pecker_texture_cube_gles2@pecker_sdk@@8
rdata$r	ENDS
;	COMDAT ??_R2pecker_texture_cube_gles2@pecker_sdk@@8
rdata$r	SEGMENT
??_R2pecker_texture_cube_gles2@pecker_sdk@@8 DD FLAT:??_R1A@?0A@EA@pecker_texture_cube_gles2@pecker_sdk@@8 ; pecker_sdk::pecker_texture_cube_gles2::`RTTI Base Class Array'
	DD	FLAT:??_R1A@?0A@EA@Ipecker_texture_cube@pecker_sdk@@8
	DD	FLAT:??_R1A@?0A@EA@Ipecker_texture@pecker_sdk@@8
	DD	FLAT:??_R1A@?0A@EA@Ipecker_frame_buffer_object@pecker_sdk@@8
	DD	FLAT:??_R1A@33FA@pecker_opengles_v2_object@pecker_sdk@@8
	DD	FLAT:??_R1A@33EA@pecker_render_object@pecker_sdk@@8
rdata$r	ENDS
;	COMDAT ??_R3pecker_texture_cube_gles2@pecker_sdk@@8
rdata$r	SEGMENT
??_R3pecker_texture_cube_gles2@pecker_sdk@@8 DD 00H	; pecker_sdk::pecker_texture_cube_gles2::`RTTI Class Hierarchy Descriptor'
	DD	03H
	DD	06H
	DD	FLAT:??_R2pecker_texture_cube_gles2@pecker_sdk@@8
rdata$r	ENDS
;	COMDAT ??_R0?AVpecker_texture_cube_gles2@pecker_sdk@@@8
_DATA	SEGMENT
??_R0?AVpecker_texture_cube_gles2@pecker_sdk@@@8 DD FLAT:??_7type_info@@6B@ ; pecker_sdk::pecker_texture_cube_gles2 `RTTI Type Descriptor'
	DD	00H
	DB	'.?AVpecker_texture_cube_gles2@pecker_sdk@@', 00H
_DATA	ENDS
;	COMDAT ??_R4pecker_texture_cube_gles2@pecker_sdk@@6BIpecker_texture_cube@1@@
rdata$r	SEGMENT
??_R4pecker_texture_cube_gles2@pecker_sdk@@6BIpecker_texture_cube@1@@ DD 00H ; pecker_sdk::pecker_texture_cube_gles2::`RTTI Complete Object Locator'
	DD	00H
	DD	00H
	DD	FLAT:??_R0?AVpecker_texture_cube_gles2@pecker_sdk@@@8
	DD	FLAT:??_R3pecker_texture_cube_gles2@pecker_sdk@@8
rdata$r	ENDS
;	COMDAT ??_7pecker_texture_cube_gles2@pecker_sdk@@6Bpecker_opengles_v2_object@1@@
CONST	SEGMENT
??_7pecker_texture_cube_gles2@pecker_sdk@@6Bpecker_opengles_v2_object@1@@ DD FLAT:??_R4pecker_texture_cube_gles2@pecker_sdk@@6Bpecker_opengles_v2_object@1@@ ; pecker_sdk::pecker_texture_cube_gles2::`vftable'
	DD	FLAT:??_Epecker_texture_cube_gles2@pecker_sdk@@$4PPPPPPPM@BLM@AEPAXI@Z
	DD	FLAT:?toString@pecker_render_object@pecker_sdk@@UBEABV?$pecker_share_string_base_t@DU?$pecker_value_compare@D@pecker_sdk@@V?$pecker_simple_allocator@D@2@$0BA@@2@AAV32@@Z
	DD	FLAT:?get_render_system_info@pecker_opengles_v2_object@pecker_sdk@@UBEABUpecker_render_system_info@2@AAU32@@Z
	DD	FLAT:?get_this_reference@pecker_render_object@pecker_sdk@@UAEPAV12@XZ
	DD	FLAT:?release_this_reference@pecker_render_object@pecker_sdk@@UAEJXZ
	DD	FLAT:?get_object_location@pecker_texture_cube_gles2@pecker_sdk@@$4PPPPPPPM@A@BEIXZ
CONST	ENDS
;	COMDAT ??_7pecker_texture_cube_gles2@pecker_sdk@@6BIpecker_texture_cube@1@@
CONST	SEGMENT
??_7pecker_texture_cube_gles2@pecker_sdk@@6BIpecker_texture_cube@1@@ DD FLAT:??_R4pecker_texture_cube_gles2@pecker_sdk@@6BIpecker_texture_cube@1@@ ; pecker_sdk::pecker_texture_cube_gles2::`vftable'
	DD	FLAT:??_Epecker_texture_cube_gles2@pecker_sdk@@UAEPAXI@Z
	DD	FLAT:?attach_by_frame_buffer@pecker_texture_cube_gles2@pecker_sdk@@UAEJPAUIpecker_frame_buffer@2@I@Z
	DD	FLAT:?bind@pecker_texture_cube_gles2@pecker_sdk@@UAEJXZ
	DD	FLAT:?get_frame_buffer_object_type@Ipecker_texture@pecker_sdk@@UBEIXZ
	DD	FLAT:?get_mip_level@pecker_texture_cube_gles2@pecker_sdk@@UBEIXZ
	DD	FLAT:__purecall
	DD	FLAT:?allocate_texture_from_gpu_ram@pecker_texture_cube_gles2@pecker_sdk@@UAEJABUpecker_texture_layer_info@2@@Z
	DD	FLAT:?release_texture_from_gpu_ram@pecker_texture_cube_gles2@pecker_sdk@@UAEJXZ
	DD	FLAT:?use_defualt_texture_filters@pecker_texture_cube_gles2@pecker_sdk@@UAEJXZ
	DD	FLAT:?use_texture_filters@pecker_texture_cube_gles2@pecker_sdk@@UAEJPBUpecker_texture_filter_info@2@H@Z
	DD	FLAT:?bind_texture_to_shader_sample@pecker_texture_cube_gles2@pecker_sdk@@UAEJII@Z
	DD	FLAT:?get_texture_info@pecker_texture_cube_gles2@pecker_sdk@@UAEABUpecker_texture_layer_info@2@I@Z
	DD	FLAT:?update_gpu_buffer@pecker_texture_cube_gles2@pecker_sdk@@UAEJHQAX_N@Z
	DD	FLAT:?update_gpu_sub_buffer@pecker_texture_cube_gles2@pecker_sdk@@UAEJHHHHHQAX_N@Z
	DD	FLAT:?get_texture_type@Ipecker_texture_cube@pecker_sdk@@UBEIXZ
	DD	FLAT:?set_active_miplevel@pecker_texture_cube_gles2@pecker_sdk@@UAEJI@Z
	DD	FLAT:?get_active_miplevel@pecker_texture_cube_gles2@pecker_sdk@@UBEIXZ
	DD	FLAT:?set_render_type@pecker_texture_cube_gles2@pecker_sdk@@UAEJI@Z
	DD	FLAT:?get_render_type@pecker_texture_cube_gles2@pecker_sdk@@UBEIXZ
	DD	FLAT:?set_active_face@pecker_texture_cube_gles2@pecker_sdk@@UAEJI@Z
	DD	FLAT:?get_active_face@pecker_texture_cube_gles2@pecker_sdk@@UBEIXZ
	DD	FLAT:?allocate_texture_from_gpu_ram@pecker_texture_cube_gles2@pecker_sdk@@UAEJPBUpecker_texture_layer_info@2@H@Z
CONST	ENDS
;	COMDAT ??_8pecker_texture_cube_gles2@pecker_sdk@@7B@
CONST	SEGMENT
??_8pecker_texture_cube_gles2@pecker_sdk@@7B@ DD 0fffffffcH ; pecker_sdk::pecker_texture_cube_gles2::`vbtable'
	DD	01b8H
; Function compile flags: /Odtp /RTCsu /ZI
CONST	ENDS
;	COMDAT ??0pecker_texture_cube_gles2@pecker_sdk@@QAE@XZ
_TEXT	SEGMENT
$T69501 = -212						; size = 4
_this$ = -8						; size = 4
_$initVBases$ = 8					; size = 4
??0pecker_texture_cube_gles2@pecker_sdk@@QAE@XZ PROC	; pecker_sdk::pecker_texture_cube_gles2::pecker_texture_cube_gles2, COMDAT
; _this$ = ecx

; 337  : {

	push	ebp
	mov	ebp, esp
	sub	esp, 216				; 000000d8H
	push	ebx
	push	esi
	push	edi
	push	ecx
	lea	edi, DWORD PTR [ebp-216]
	mov	ecx, 54					; 00000036H
	mov	eax, -858993460				; ccccccccH
	rep stosd
	pop	ecx
	mov	DWORD PTR _this$[ebp], ecx
	mov	DWORD PTR $T69501[ebp], 0
	cmp	DWORD PTR _$initVBases$[ebp], 0
	je	SHORT $LN1@pecker_tex@2
	mov	eax, DWORD PTR _this$[ebp]
	mov	DWORD PTR [eax+4], OFFSET ??_8pecker_texture_cube_gles2@pecker_sdk@@7B@
	mov	ecx, DWORD PTR _this$[ebp]
	add	ecx, 444				; 000001bcH
	call	??0pecker_opengles_v2_object@pecker_sdk@@QAE@XZ
	mov	eax, DWORD PTR $T69501[ebp]
	or	eax, 1
	mov	DWORD PTR $T69501[ebp], eax
$LN1@pecker_tex@2:
	mov	ecx, DWORD PTR _this$[ebp]
	call	??0Ipecker_texture_cube@pecker_sdk@@QAE@XZ
	mov	eax, DWORD PTR _this$[ebp]
	mov	DWORD PTR [eax], OFFSET ??_7pecker_texture_cube_gles2@pecker_sdk@@6BIpecker_texture_cube@1@@
	mov	eax, DWORD PTR _this$[ebp]
	mov	ecx, DWORD PTR [eax+4]
	mov	edx, DWORD PTR [ecx+4]
	mov	eax, DWORD PTR _this$[ebp]
	mov	DWORD PTR [eax+edx+4], OFFSET ??_7pecker_texture_cube_gles2@pecker_sdk@@6Bpecker_opengles_v2_object@1@@
	mov	eax, DWORD PTR _this$[ebp]
	mov	ecx, DWORD PTR [eax+4]
	mov	edx, DWORD PTR [ecx+4]
	sub	edx, 440				; 000001b8H
	mov	eax, DWORD PTR _this$[ebp]
	mov	ecx, DWORD PTR [eax+4]
	mov	eax, DWORD PTR [ecx+4]
	mov	ecx, DWORD PTR _this$[ebp]
	mov	DWORD PTR [ecx+eax], edx
	mov	eax, DWORD PTR _this$[ebp]
	mov	DWORD PTR [eax+8], 0
	mov	eax, DWORD PTR _this$[ebp]
	mov	DWORD PTR [eax+12], 0
	mov	eax, DWORD PTR _this$[ebp]
	mov	DWORD PTR [eax+16], 0
	mov	eax, DWORD PTR _this$[ebp]
	mov	DWORD PTR [eax+20], 0
	mov	eax, DWORD PTR _this$[ebp]
	mov	DWORD PTR [eax+24], 0
	mov	eax, DWORD PTR _this$[ebp]
	mov	DWORD PTR [eax+28], 0

; 338  : 
; 339  : }

	mov	eax, DWORD PTR _this$[ebp]
	pop	edi
	pop	esi
	pop	ebx
	add	esp, 216				; 000000d8H
	cmp	ebp, esp
	call	__RTC_CheckEsp
	mov	esp, ebp
	pop	ebp
	ret	4
??0pecker_texture_cube_gles2@pecker_sdk@@QAE@XZ ENDP	; pecker_sdk::pecker_texture_cube_gles2::pecker_texture_cube_gles2
_TEXT	ENDS
PUBLIC	??_Dpecker_texture_cube_gles2@pecker_sdk@@QAEXXZ ; pecker_sdk::pecker_texture_cube_gles2::`vbase destructor'
; Function compile flags: /Odtp /RTCsu /ZI
;	COMDAT ??_Gpecker_texture_cube_gles2@pecker_sdk@@UAEPAXI@Z
_TEXT	SEGMENT
_this$ = -8						; size = 4
___flags$ = 8						; size = 4
??_Gpecker_texture_cube_gles2@pecker_sdk@@UAEPAXI@Z PROC ; pecker_sdk::pecker_texture_cube_gles2::`scalar deleting destructor', COMDAT
; _this$ = ecx
	push	ebp
	mov	ebp, esp
	sub	esp, 204				; 000000ccH
	push	ebx
	push	esi
	push	edi
	push	ecx
	lea	edi, DWORD PTR [ebp-204]
	mov	ecx, 51					; 00000033H
	mov	eax, -858993460				; ccccccccH
	rep stosd
	pop	ecx
	mov	DWORD PTR _this$[ebp], ecx
	mov	ecx, DWORD PTR _this$[ebp]
	call	??_Dpecker_texture_cube_gles2@pecker_sdk@@QAEXXZ
	mov	eax, DWORD PTR ___flags$[ebp]
	and	eax, 1
	je	SHORT $LN1@scalar@6
	mov	eax, DWORD PTR _this$[ebp]
	push	eax
	call	??3@YAXPAX@Z				; operator delete
	add	esp, 4
$LN1@scalar@6:
	mov	eax, DWORD PTR _this$[ebp]
	pop	edi
	pop	esi
	pop	ebx
	add	esp, 204				; 000000ccH
	cmp	ebp, esp
	call	__RTC_CheckEsp
	mov	esp, ebp
	pop	ebp
	ret	4
??_Gpecker_texture_cube_gles2@pecker_sdk@@UAEPAXI@Z ENDP ; pecker_sdk::pecker_texture_cube_gles2::`scalar deleting destructor'
_TEXT	ENDS
PUBLIC	??_7Ipecker_texture_cube@pecker_sdk@@6B@	; pecker_sdk::Ipecker_texture_cube::`vftable'
PUBLIC	??_R4Ipecker_texture_cube@pecker_sdk@@6B@	; pecker_sdk::Ipecker_texture_cube::`RTTI Complete Object Locator'
EXTRN	??_EIpecker_texture_cube@pecker_sdk@@UAEPAXI@Z:PROC ; pecker_sdk::Ipecker_texture_cube::`vector deleting destructor'
;	COMDAT ??_R4Ipecker_texture_cube@pecker_sdk@@6B@
rdata$r	SEGMENT
??_R4Ipecker_texture_cube@pecker_sdk@@6B@ DD 00H	; pecker_sdk::Ipecker_texture_cube::`RTTI Complete Object Locator'
	DD	00H
	DD	00H
	DD	FLAT:??_R0?AUIpecker_texture_cube@pecker_sdk@@@8
	DD	FLAT:??_R3Ipecker_texture_cube@pecker_sdk@@8
rdata$r	ENDS
;	COMDAT ??_7Ipecker_texture_cube@pecker_sdk@@6B@
CONST	SEGMENT
??_7Ipecker_texture_cube@pecker_sdk@@6B@ DD FLAT:??_R4Ipecker_texture_cube@pecker_sdk@@6B@ ; pecker_sdk::Ipecker_texture_cube::`vftable'
	DD	FLAT:??_EIpecker_texture_cube@pecker_sdk@@UAEPAXI@Z
	DD	FLAT:__purecall
	DD	FLAT:__purecall
	DD	FLAT:?get_frame_buffer_object_type@Ipecker_texture@pecker_sdk@@UBEIXZ
	DD	FLAT:__purecall
	DD	FLAT:__purecall
	DD	FLAT:__purecall
	DD	FLAT:__purecall
	DD	FLAT:__purecall
	DD	FLAT:__purecall
	DD	FLAT:__purecall
	DD	FLAT:__purecall
	DD	FLAT:__purecall
	DD	FLAT:__purecall
	DD	FLAT:?get_texture_type@Ipecker_texture_cube@pecker_sdk@@UBEIXZ
	DD	FLAT:__purecall
	DD	FLAT:__purecall
	DD	FLAT:__purecall
	DD	FLAT:__purecall
	DD	FLAT:__purecall
	DD	FLAT:__purecall
	DD	FLAT:__purecall
; Function compile flags: /Odtp /RTCsu /ZI
CONST	ENDS
;	COMDAT ??0Ipecker_texture_cube@pecker_sdk@@QAE@XZ
_TEXT	SEGMENT
_this$ = -8						; size = 4
??0Ipecker_texture_cube@pecker_sdk@@QAE@XZ PROC		; pecker_sdk::Ipecker_texture_cube::Ipecker_texture_cube, COMDAT
; _this$ = ecx
	push	ebp
	mov	ebp, esp
	sub	esp, 204				; 000000ccH
	push	ebx
	push	esi
	push	edi
	push	ecx
	lea	edi, DWORD PTR [ebp-204]
	mov	ecx, 51					; 00000033H
	mov	eax, -858993460				; ccccccccH
	rep stosd
	pop	ecx
	mov	DWORD PTR _this$[ebp], ecx
	mov	ecx, DWORD PTR _this$[ebp]
	call	??0Ipecker_texture@pecker_sdk@@QAE@XZ
	mov	eax, DWORD PTR _this$[ebp]
	mov	DWORD PTR [eax], OFFSET ??_7Ipecker_texture_cube@pecker_sdk@@6B@
	mov	eax, DWORD PTR _this$[ebp]
	pop	edi
	pop	esi
	pop	ebx
	add	esp, 204				; 000000ccH
	cmp	ebp, esp
	call	__RTC_CheckEsp
	mov	esp, ebp
	pop	ebp
	ret	0
??0Ipecker_texture_cube@pecker_sdk@@QAE@XZ ENDP		; pecker_sdk::Ipecker_texture_cube::Ipecker_texture_cube
_TEXT	ENDS
PUBLIC	??1Ipecker_texture_cube@pecker_sdk@@UAE@XZ	; pecker_sdk::Ipecker_texture_cube::~Ipecker_texture_cube
; Function compile flags: /Odtp /RTCsu /ZI
;	COMDAT ??_GIpecker_texture_cube@pecker_sdk@@UAEPAXI@Z
_TEXT	SEGMENT
_this$ = -8						; size = 4
___flags$ = 8						; size = 4
??_GIpecker_texture_cube@pecker_sdk@@UAEPAXI@Z PROC	; pecker_sdk::Ipecker_texture_cube::`scalar deleting destructor', COMDAT
; _this$ = ecx
	push	ebp
	mov	ebp, esp
	sub	esp, 204				; 000000ccH
	push	ebx
	push	esi
	push	edi
	push	ecx
	lea	edi, DWORD PTR [ebp-204]
	mov	ecx, 51					; 00000033H
	mov	eax, -858993460				; ccccccccH
	rep stosd
	pop	ecx
	mov	DWORD PTR _this$[ebp], ecx
	mov	ecx, DWORD PTR _this$[ebp]
	call	??1Ipecker_texture_cube@pecker_sdk@@UAE@XZ ; pecker_sdk::Ipecker_texture_cube::~Ipecker_texture_cube
	mov	eax, DWORD PTR ___flags$[ebp]
	and	eax, 1
	je	SHORT $LN1@scalar@7
	mov	eax, DWORD PTR _this$[ebp]
	push	eax
	call	??3@YAXPAX@Z				; operator delete
	add	esp, 4
$LN1@scalar@7:
	mov	eax, DWORD PTR _this$[ebp]
	pop	edi
	pop	esi
	pop	ebx
	add	esp, 204				; 000000ccH
	cmp	ebp, esp
	call	__RTC_CheckEsp
	mov	esp, ebp
	pop	ebp
	ret	4
??_GIpecker_texture_cube@pecker_sdk@@UAEPAXI@Z ENDP	; pecker_sdk::Ipecker_texture_cube::`scalar deleting destructor'
; Function compile flags: /Odtp /RTCsu /ZI
; File f:\codes\pecker_framework_git\pecker_src\pecker_framework\render\render_system\pecker_texture.h
_TEXT	ENDS
;	COMDAT ??1Ipecker_texture_cube@pecker_sdk@@UAE@XZ
_TEXT	SEGMENT
_this$ = -8						; size = 4
??1Ipecker_texture_cube@pecker_sdk@@UAE@XZ PROC		; pecker_sdk::Ipecker_texture_cube::~Ipecker_texture_cube, COMDAT
; _this$ = ecx

; 101  : 	virtual ~Ipecker_texture_cube(){;}

	push	ebp
	mov	ebp, esp
	sub	esp, 204				; 000000ccH
	push	ebx
	push	esi
	push	edi
	push	ecx
	lea	edi, DWORD PTR [ebp-204]
	mov	ecx, 51					; 00000033H
	mov	eax, -858993460				; ccccccccH
	rep stosd
	pop	ecx
	mov	DWORD PTR _this$[ebp], ecx
	mov	eax, DWORD PTR _this$[ebp]
	mov	DWORD PTR [eax], OFFSET ??_7Ipecker_texture_cube@pecker_sdk@@6B@
	mov	ecx, DWORD PTR _this$[ebp]
	call	??1Ipecker_texture@pecker_sdk@@UAE@XZ	; pecker_sdk::Ipecker_texture::~Ipecker_texture
	pop	edi
	pop	esi
	pop	ebx
	add	esp, 204				; 000000ccH
	cmp	ebp, esp
	call	__RTC_CheckEsp
	mov	esp, ebp
	pop	ebp
	ret	0
??1Ipecker_texture_cube@pecker_sdk@@UAE@XZ ENDP		; pecker_sdk::Ipecker_texture_cube::~Ipecker_texture_cube
_TEXT	ENDS
PUBLIC	??1pecker_texture_cube_gles2@pecker_sdk@@UAE@XZ	; pecker_sdk::pecker_texture_cube_gles2::~pecker_texture_cube_gles2
; Function compile flags: /Odtp /RTCsu /ZI
;	COMDAT ??_Dpecker_texture_cube_gles2@pecker_sdk@@QAEXXZ
_TEXT	SEGMENT
_this$ = -8						; size = 4
??_Dpecker_texture_cube_gles2@pecker_sdk@@QAEXXZ PROC	; pecker_sdk::pecker_texture_cube_gles2::`vbase destructor', COMDAT
; _this$ = ecx
	push	ebp
	mov	ebp, esp
	sub	esp, 204				; 000000ccH
	push	ebx
	push	esi
	push	edi
	push	ecx
	lea	edi, DWORD PTR [ebp-204]
	mov	ecx, 51					; 00000033H
	mov	eax, -858993460				; ccccccccH
	rep stosd
	pop	ecx
	mov	DWORD PTR _this$[ebp], ecx
	mov	ecx, DWORD PTR _this$[ebp]
	call	??1pecker_texture_cube_gles2@pecker_sdk@@UAE@XZ ; pecker_sdk::pecker_texture_cube_gles2::~pecker_texture_cube_gles2
	mov	ecx, DWORD PTR _this$[ebp]
	add	ecx, 444				; 000001bcH
	call	??1pecker_opengles_v2_object@pecker_sdk@@UAE@XZ
	pop	edi
	pop	esi
	pop	ebx
	add	esp, 204				; 000000ccH
	cmp	ebp, esp
	call	__RTC_CheckEsp
	mov	esp, ebp
	pop	ebp
	ret	0
??_Dpecker_texture_cube_gles2@pecker_sdk@@QAEXXZ ENDP	; pecker_sdk::pecker_texture_cube_gles2::`vbase destructor'
_TEXT	ENDS
;	COMDAT xdata$x
; File f:\codes\pecker_framework_git\pecker_src\pecker_framework\render\render_system\opengles\pecker_texture_gl.cpp
xdata$x	SEGMENT
__unwindtable$??1pecker_texture_cube_gles2@pecker_sdk@@UAE@XZ DD 0ffffffffH
	DD	FLAT:__unwindfunclet$??1pecker_texture_cube_gles2@pecker_sdk@@UAE@XZ$0
__ehfuncinfo$??1pecker_texture_cube_gles2@pecker_sdk@@UAE@XZ DD 019930522H
	DD	01H
	DD	FLAT:__unwindtable$??1pecker_texture_cube_gles2@pecker_sdk@@UAE@XZ
	DD	2 DUP(00H)
	DD	2 DUP(00H)
	DD	00H
	DD	01H
; Function compile flags: /Odtp /RTCsu /ZI
xdata$x	ENDS
;	COMDAT ??1pecker_texture_cube_gles2@pecker_sdk@@UAE@XZ
_TEXT	SEGMENT
_this$ = -20						; size = 4
__$EHRec$ = -12						; size = 12
??1pecker_texture_cube_gles2@pecker_sdk@@UAE@XZ PROC	; pecker_sdk::pecker_texture_cube_gles2::~pecker_texture_cube_gles2, COMDAT
; _this$ = ecx

; 342  : {

	push	ebp
	mov	ebp, esp
	push	-1
	push	__ehhandler$??1pecker_texture_cube_gles2@pecker_sdk@@UAE@XZ
	mov	eax, DWORD PTR fs:0
	push	eax
	sub	esp, 204				; 000000ccH
	push	ebx
	push	esi
	push	edi
	push	ecx
	lea	edi, DWORD PTR [ebp-216]
	mov	ecx, 51					; 00000033H
	mov	eax, -858993460				; ccccccccH
	rep stosd
	pop	ecx
	mov	eax, DWORD PTR ___security_cookie
	xor	eax, ebp
	push	eax
	lea	eax, DWORD PTR __$EHRec$[ebp]
	mov	DWORD PTR fs:0, eax
	mov	DWORD PTR _this$[ebp], ecx
	mov	eax, DWORD PTR _this$[ebp]
	mov	DWORD PTR [eax], OFFSET ??_7pecker_texture_cube_gles2@pecker_sdk@@6BIpecker_texture_cube@1@@
	mov	eax, DWORD PTR _this$[ebp]
	mov	ecx, DWORD PTR [eax+4]
	mov	edx, DWORD PTR [ecx+4]
	mov	eax, DWORD PTR _this$[ebp]
	mov	DWORD PTR [eax+edx+4], OFFSET ??_7pecker_texture_cube_gles2@pecker_sdk@@6Bpecker_opengles_v2_object@1@@
	mov	eax, DWORD PTR _this$[ebp]
	mov	ecx, DWORD PTR [eax+4]
	mov	edx, DWORD PTR [ecx+4]
	sub	edx, 440				; 000001b8H
	mov	eax, DWORD PTR _this$[ebp]
	mov	ecx, DWORD PTR [eax+4]
	mov	eax, DWORD PTR [ecx+4]
	mov	ecx, DWORD PTR _this$[ebp]
	mov	DWORD PTR [ecx+eax], edx
	mov	DWORD PTR __$EHRec$[ebp+8], 0

; 343  : 	release_texture_from_gpu_ram();

	mov	ecx, DWORD PTR _this$[ebp]
	call	?release_texture_from_gpu_ram@pecker_texture_cube_gles2@pecker_sdk@@UAEJXZ ; pecker_sdk::pecker_texture_cube_gles2::release_texture_from_gpu_ram

; 344  : 	_M_gpu_target = 0;

	mov	eax, DWORD PTR _this$[ebp]
	mov	DWORD PTR [eax+8], 0

; 345  : 	_M_mip_level_count = 0;

	mov	eax, DWORD PTR _this$[ebp]
	mov	DWORD PTR [eax+12], 0

; 346  : 	_M_defualt_texture_filter_count = 0;

	mov	eax, DWORD PTR _this$[ebp]
	mov	DWORD PTR [eax+16], 0

; 347  : 	_M_active_face = TEXTURE_CUBE_MAP_POSX;

	mov	eax, DWORD PTR _this$[ebp]
	mov	DWORD PTR [eax+28], 0

; 348  : }

	mov	DWORD PTR __$EHRec$[ebp+8], -1
	mov	ecx, DWORD PTR _this$[ebp]
	call	??1Ipecker_texture_cube@pecker_sdk@@UAE@XZ ; pecker_sdk::Ipecker_texture_cube::~Ipecker_texture_cube
	mov	ecx, DWORD PTR __$EHRec$[ebp]
	mov	DWORD PTR fs:0, ecx
	pop	ecx
	pop	edi
	pop	esi
	pop	ebx
	add	esp, 216				; 000000d8H
	cmp	ebp, esp
	call	__RTC_CheckEsp
	mov	esp, ebp
	pop	ebp
	ret	0
_TEXT	ENDS
;	COMDAT text$x
text$x	SEGMENT
__unwindfunclet$??1pecker_texture_cube_gles2@pecker_sdk@@UAE@XZ$0:
	mov	ecx, DWORD PTR _this$[ebp]
	jmp	??1Ipecker_texture_cube@pecker_sdk@@UAE@XZ ; pecker_sdk::Ipecker_texture_cube::~Ipecker_texture_cube
__ehhandler$??1pecker_texture_cube_gles2@pecker_sdk@@UAE@XZ:
	mov	edx, DWORD PTR [esp+8]
	lea	eax, DWORD PTR [edx+12]
	mov	ecx, DWORD PTR [edx-220]
	xor	ecx, eax
	call	@__security_check_cookie@4
	mov	eax, OFFSET __ehfuncinfo$??1pecker_texture_cube_gles2@pecker_sdk@@UAE@XZ
	jmp	___CxxFrameHandler3
text$x	ENDS
??1pecker_texture_cube_gles2@pecker_sdk@@UAE@XZ ENDP	; pecker_sdk::pecker_texture_cube_gles2::~pecker_texture_cube_gles2
; Function compile flags: /Odtp /RTCsu /ZI
;	COMDAT ?attach_by_frame_buffer@pecker_texture_cube_gles2@pecker_sdk@@UAEJPAUIpecker_frame_buffer@2@I@Z
_TEXT	SEGMENT
_this$ = -8						; size = 4
_pframe_buffer$ = 8					; size = 4
_attach_index$ = 12					; size = 4
?attach_by_frame_buffer@pecker_texture_cube_gles2@pecker_sdk@@UAEJPAUIpecker_frame_buffer@2@I@Z PROC ; pecker_sdk::pecker_texture_cube_gles2::attach_by_frame_buffer, COMDAT
; _this$ = ecx

; 351  : {

	push	ebp
	mov	ebp, esp
	sub	esp, 204				; 000000ccH
	push	ebx
	push	esi
	push	edi
	push	ecx
	lea	edi, DWORD PTR [ebp-204]
	mov	ecx, 51					; 00000033H
	mov	eax, -858993460				; ccccccccH
	rep stosd
	pop	ecx
	mov	DWORD PTR _this$[ebp], ecx

; 352  : 	if (null == pframe_buffer)

	cmp	DWORD PTR _pframe_buffer$[ebp], 0
	jne	SHORT $LN1@attach_by_@2

; 353  : 	{
; 354  : 		return P_INVALID_VALUE;

	mov	eax, -2					; fffffffeH
	jmp	SHORT $LN2@attach_by_@2
$LN1@attach_by_@2:

; 355  : 	}
; 356  : 	return pframe_buffer->attach_texture(this,attach_index);//,face_type,zoffset);

	mov	esi, esp
	mov	eax, DWORD PTR _attach_index$[ebp]
	push	eax
	mov	ecx, DWORD PTR _this$[ebp]
	push	ecx
	mov	edx, DWORD PTR _pframe_buffer$[ebp]
	mov	eax, DWORD PTR [edx]
	mov	ecx, DWORD PTR _pframe_buffer$[ebp]
	mov	edx, DWORD PTR [eax+16]
	call	edx
	cmp	esi, esp
	call	__RTC_CheckEsp
$LN2@attach_by_@2:

; 357  : }

	pop	edi
	pop	esi
	pop	ebx
	add	esp, 204				; 000000ccH
	cmp	ebp, esp
	call	__RTC_CheckEsp
	mov	esp, ebp
	pop	ebp
	ret	8
?attach_by_frame_buffer@pecker_texture_cube_gles2@pecker_sdk@@UAEJPAUIpecker_frame_buffer@2@I@Z ENDP ; pecker_sdk::pecker_texture_cube_gles2::attach_by_frame_buffer
; Function compile flags: /Odtp /RTCsu /ZI
_TEXT	ENDS
;	COMDAT ?bind@pecker_texture_cube_gles2@pecker_sdk@@UAEJXZ
_TEXT	SEGMENT
_this$ = -8						; size = 4
?bind@pecker_texture_cube_gles2@pecker_sdk@@UAEJXZ PROC	; pecker_sdk::pecker_texture_cube_gles2::bind, COMDAT
; _this$ = ecx

; 360  : {

	push	ebp
	mov	ebp, esp
	sub	esp, 204				; 000000ccH
	push	ebx
	push	esi
	push	edi
	push	ecx
	lea	edi, DWORD PTR [ebp-204]
	mov	ecx, 51					; 00000033H
	mov	eax, -858993460				; ccccccccH
	rep stosd
	pop	ecx
	mov	DWORD PTR _this$[ebp], ecx

; 361  : 	glBindTexture(GL_TEXTURE_CUBE_MAP,_M_gpu_target);

	mov	esi, esp
	mov	eax, DWORD PTR _this$[ebp]
	mov	ecx, DWORD PTR [eax+8]
	push	ecx
	push	34067					; 00008513H
	call	DWORD PTR __imp__glBindTexture@8
	cmp	esi, esp
	call	__RTC_CheckEsp

; 362  : 	return pecker_opengles_v2_object::get_last_error_code();

	call	?get_last_error_code@pecker_opengles_v2_object@pecker_sdk@@SAJXZ ; pecker_sdk::pecker_opengles_v2_object::get_last_error_code

; 363  : }

	pop	edi
	pop	esi
	pop	ebx
	add	esp, 204				; 000000ccH
	cmp	ebp, esp
	call	__RTC_CheckEsp
	mov	esp, ebp
	pop	ebp
	ret	0
?bind@pecker_texture_cube_gles2@pecker_sdk@@UAEJXZ ENDP	; pecker_sdk::pecker_texture_cube_gles2::bind
; Function compile flags: /Odtp /RTCsu /ZI
_TEXT	ENDS
;	COMDAT ?get_mip_level@pecker_texture_cube_gles2@pecker_sdk@@UBEIXZ
_TEXT	SEGMENT
_this$ = -8						; size = 4
?get_mip_level@pecker_texture_cube_gles2@pecker_sdk@@UBEIXZ PROC ; pecker_sdk::pecker_texture_cube_gles2::get_mip_level, COMDAT
; _this$ = ecx

; 366  : {

	push	ebp
	mov	ebp, esp
	sub	esp, 204				; 000000ccH
	push	ebx
	push	esi
	push	edi
	push	ecx
	lea	edi, DWORD PTR [ebp-204]
	mov	ecx, 51					; 00000033H
	mov	eax, -858993460				; ccccccccH
	rep stosd
	pop	ecx
	mov	DWORD PTR _this$[ebp], ecx

; 367  : 	return _M_mip_level_count;

	mov	eax, DWORD PTR _this$[ebp]
	mov	eax, DWORD PTR [eax+12]

; 368  : }

	pop	edi
	pop	esi
	pop	ebx
	mov	esp, ebp
	pop	ebp
	ret	0
?get_mip_level@pecker_texture_cube_gles2@pecker_sdk@@UBEIXZ ENDP ; pecker_sdk::pecker_texture_cube_gles2::get_mip_level
_TEXT	ENDS
PUBLIC	?set_defualt_texture_filters_info@pecker_texture_cube_gles2@pecker_sdk@@QAEJPBUpecker_texture_filter_info@2@H@Z ; pecker_sdk::pecker_texture_cube_gles2::set_defualt_texture_filters_info
; Function compile flags: /Odtp /RTCsu /ZI
;	COMDAT ?set_defualt_texture_filters_info@pecker_texture_cube_gles2@pecker_sdk@@QAEJPBUpecker_texture_filter_info@2@H@Z
_TEXT	SEGMENT
_i$68883 = -20						; size = 4
_this$ = -8						; size = 4
_filters$ = 8						; size = 4
_filters_count$ = 12					; size = 4
?set_defualt_texture_filters_info@pecker_texture_cube_gles2@pecker_sdk@@QAEJPBUpecker_texture_filter_info@2@H@Z PROC ; pecker_sdk::pecker_texture_cube_gles2::set_defualt_texture_filters_info, COMDAT
; _this$ = ecx

; 371  : {

	push	ebp
	mov	ebp, esp
	sub	esp, 216				; 000000d8H
	push	ebx
	push	esi
	push	edi
	push	ecx
	lea	edi, DWORD PTR [ebp-216]
	mov	ecx, 54					; 00000036H
	mov	eax, -858993460				; ccccccccH
	rep stosd
	pop	ecx
	mov	DWORD PTR _this$[ebp], ecx

; 372  : 	if (filters_count <= 0 || null == filters)

	cmp	DWORD PTR _filters_count$[ebp], 0
	jle	SHORT $LN4@set_defual@2
	cmp	DWORD PTR _filters$[ebp], 0
	jne	SHORT $LN5@set_defual@2
$LN4@set_defual@2:

; 373  : 		return P_INVALID_VALUE;

	mov	eax, -2					; fffffffeH
	jmp	SHORT $LN6@set_defual@2
$LN5@set_defual@2:

; 374  : 
; 375  : 	_M_defualt_texture_filter_count = filters_count;

	mov	eax, DWORD PTR _this$[ebp]
	mov	ecx, DWORD PTR _filters_count$[ebp]
	mov	DWORD PTR [eax+16], ecx

; 376  : 	for (nINDEX i=0;i<filters_count;++i)

	mov	DWORD PTR _i$68883[ebp], 0
	jmp	SHORT $LN3@set_defual@2
$LN2@set_defual@2:
	mov	eax, DWORD PTR _i$68883[ebp]
	add	eax, 1
	mov	DWORD PTR _i$68883[ebp], eax
$LN3@set_defual@2:
	mov	eax, DWORD PTR _i$68883[ebp]
	cmp	eax, DWORD PTR _filters_count$[ebp]
	jge	SHORT $LN1@set_defual@2

; 377  : 	{
; 378  : 		_M_defualt_texture_filter[i] = filters[i];

	mov	eax, DWORD PTR _i$68883[ebp]
	mov	ecx, DWORD PTR _filters$[ebp]
	mov	edx, DWORD PTR [ecx+eax*8]
	mov	eax, DWORD PTR [ecx+eax*8+4]
	mov	ecx, DWORD PTR _i$68883[ebp]
	mov	esi, DWORD PTR _this$[ebp]
	mov	DWORD PTR [esi+ecx*8+312], edx
	mov	DWORD PTR [esi+ecx*8+316], eax

; 379  : 	}

	jmp	SHORT $LN2@set_defual@2
$LN1@set_defual@2:

; 380  : 	return P_OK;

	xor	eax, eax
$LN6@set_defual@2:

; 381  : }

	pop	edi
	pop	esi
	pop	ebx
	mov	esp, ebp
	pop	ebp
	ret	8
?set_defualt_texture_filters_info@pecker_texture_cube_gles2@pecker_sdk@@QAEJPBUpecker_texture_filter_info@2@H@Z ENDP ; pecker_sdk::pecker_texture_cube_gles2::set_defualt_texture_filters_info
; Function compile flags: /Odtp /RTCsu /ZI
_TEXT	ENDS
;	COMDAT ?allocate_texture_from_gpu_ram@pecker_texture_cube_gles2@pecker_sdk@@UAEJABUpecker_texture_layer_info@2@@Z
_TEXT	SEGMENT
_temp_max_miplevel$68898 = -56				; size = 4
_temp_miplevel$68897 = -44				; size = 4
_temp_value$68896 = -32					; size = 4
_result_$68894 = -20					; size = 4
_this$ = -8						; size = 4
_top_most_mipinfo$ = 8					; size = 4
?allocate_texture_from_gpu_ram@pecker_texture_cube_gles2@pecker_sdk@@UAEJABUpecker_texture_layer_info@2@@Z PROC ; pecker_sdk::pecker_texture_cube_gles2::allocate_texture_from_gpu_ram, COMDAT
; _this$ = ecx

; 384  : {

	push	ebp
	mov	ebp, esp
	sub	esp, 252				; 000000fcH
	push	ebx
	push	esi
	push	edi
	push	ecx
	lea	edi, DWORD PTR [ebp-252]
	mov	ecx, 63					; 0000003fH
	mov	eax, -858993460				; ccccccccH
	rep stosd
	pop	ecx
	mov	DWORD PTR _this$[ebp], ecx

; 385  : 
; 386  : 	if (top_most_mipinfo._M_height < 1 || top_most_mipinfo._M_height > pecker_texture_2d_gles2::MAX_TEXTURE_SIZE ||
; 387  : 		top_most_mipinfo._M_width < 1 || top_most_mipinfo._M_width > pecker_texture_2d_gles2::MAX_TEXTURE_SIZE)

	mov	eax, DWORD PTR _top_most_mipinfo$[ebp]
	cmp	DWORD PTR [eax+32], 1
	jl	SHORT $LN13@allocate_t@2
	mov	eax, DWORD PTR _top_most_mipinfo$[ebp]
	cmp	DWORD PTR [eax+32], 32768		; 00008000H
	ja	SHORT $LN13@allocate_t@2
	mov	eax, DWORD PTR _top_most_mipinfo$[ebp]
	cmp	DWORD PTR [eax+28], 1
	jl	SHORT $LN13@allocate_t@2
	mov	eax, DWORD PTR _top_most_mipinfo$[ebp]
	cmp	DWORD PTR [eax+28], 32768		; 00008000H
	jbe	SHORT $LN14@allocate_t@2
$LN13@allocate_t@2:

; 388  : 	{
; 389  : 		return P_INVALID_VALUE;

	mov	eax, -2					; fffffffeH
	jmp	$LN15@allocate_t@2
$LN14@allocate_t@2:

; 390  : 	}
; 391  : 
; 392  : 	if (0 == _M_gpu_target)

	mov	eax, DWORD PTR _this$[ebp]
	cmp	DWORD PTR [eax+8], 0
	jne	$LN12@allocate_t@2

; 393  : 	{
; 394  : 		glGenTextures(1,&_M_gpu_target);

	mov	eax, DWORD PTR _this$[ebp]
	add	eax, 8
	mov	esi, esp
	push	eax
	push	1
	call	DWORD PTR __imp__glGenTextures@8
	cmp	esi, esp
	call	__RTC_CheckEsp

; 395  : 		HResult result_ = pecker_opengles_v2_object::get_last_error_code();

	call	?get_last_error_code@pecker_opengles_v2_object@pecker_sdk@@SAJXZ ; pecker_sdk::pecker_opengles_v2_object::get_last_error_code
	mov	DWORD PTR _result_$68894[ebp], eax

; 396  : 		if (P_OK == result_)

	cmp	DWORD PTR _result_$68894[ebp], 0
	jne	$LN11@allocate_t@2

; 397  : 		{
; 398  : 			UInt temp_value = top_most_mipinfo._M_height;

	mov	eax, DWORD PTR _top_most_mipinfo$[ebp]
	mov	ecx, DWORD PTR [eax+32]
	mov	DWORD PTR _temp_value$68896[ebp], ecx

; 399  : 			UInt temp_miplevel = 0;

	mov	DWORD PTR _temp_miplevel$68897[ebp], 0

; 400  : 			UInt temp_max_miplevel = 0;

	mov	DWORD PTR _temp_max_miplevel$68898[ebp], 0

; 401  : 			_M_active_miplevel = 0;

	mov	eax, DWORD PTR _this$[ebp]
	mov	DWORD PTR [eax+24], 0

; 402  : 			_M_texture_info[0] = top_most_mipinfo;

	mov	esi, DWORD PTR _top_most_mipinfo$[ebp]
	mov	edi, DWORD PTR _this$[ebp]
	add	edi, 32					; 00000020H
	mov	ecx, 10					; 0000000aH
	rep movsd

; 403  : 			_M_texture_info[1] = top_most_mipinfo;

	mov	esi, DWORD PTR _top_most_mipinfo$[ebp]
	mov	edi, DWORD PTR _this$[ebp]
	add	edi, 72					; 00000048H
	mov	ecx, 10					; 0000000aH
	rep movsd

; 404  : 			_M_texture_info[2] = top_most_mipinfo;

	mov	esi, DWORD PTR _top_most_mipinfo$[ebp]
	mov	edi, DWORD PTR _this$[ebp]
	add	edi, 112				; 00000070H
	mov	ecx, 10					; 0000000aH
	rep movsd

; 405  : 			_M_texture_info[3] = top_most_mipinfo;

	mov	esi, DWORD PTR _top_most_mipinfo$[ebp]
	mov	edi, DWORD PTR _this$[ebp]
	add	edi, 152				; 00000098H
	mov	ecx, 10					; 0000000aH
	rep movsd

; 406  : 			_M_texture_info[4] = top_most_mipinfo;

	mov	esi, DWORD PTR _top_most_mipinfo$[ebp]
	mov	edi, DWORD PTR _this$[ebp]
	add	edi, 192				; 000000c0H
	mov	ecx, 10					; 0000000aH
	rep movsd

; 407  : 			_M_texture_info[5] = top_most_mipinfo;

	mov	esi, DWORD PTR _top_most_mipinfo$[ebp]
	mov	edi, DWORD PTR _this$[ebp]
	add	edi, 232				; 000000e8H
	mov	ecx, 10					; 0000000aH
	rep movsd

; 408  : 
; 409  : 			// 1621
; 410  : 			temp_value = (temp_value&0x5555) + ((temp_value>>1)&0x5555);     

	mov	eax, DWORD PTR _temp_value$68896[ebp]
	and	eax, 21845				; 00005555H
	mov	ecx, DWORD PTR _temp_value$68896[ebp]
	shr	ecx, 1
	and	ecx, 21845				; 00005555H
	add	eax, ecx
	mov	DWORD PTR _temp_value$68896[ebp], eax

; 411  : 			temp_value = (temp_value&0x3333) + ((temp_value>>2)&0x3333);

	mov	eax, DWORD PTR _temp_value$68896[ebp]
	and	eax, 13107				; 00003333H
	mov	ecx, DWORD PTR _temp_value$68896[ebp]
	shr	ecx, 2
	and	ecx, 13107				; 00003333H
	add	eax, ecx
	mov	DWORD PTR _temp_value$68896[ebp], eax

; 412  : 			temp_value = (temp_value&0x0f0f) + ((temp_value>>4)&0x0f0f);     

	mov	eax, DWORD PTR _temp_value$68896[ebp]
	and	eax, 3855				; 00000f0fH
	mov	ecx, DWORD PTR _temp_value$68896[ebp]
	shr	ecx, 4
	and	ecx, 3855				; 00000f0fH
	add	eax, ecx
	mov	DWORD PTR _temp_value$68896[ebp], eax

; 413  : 			temp_value = (temp_value&0x00ff) + ((temp_value>>8)&0x00ff);     

	mov	eax, DWORD PTR _temp_value$68896[ebp]
	and	eax, 255				; 000000ffH
	mov	ecx, DWORD PTR _temp_value$68896[ebp]
	shr	ecx, 8
	and	ecx, 255				; 000000ffH
	add	eax, ecx
	mov	DWORD PTR _temp_value$68896[ebp], eax

; 414  : 
; 415  : 			// 16211
; 416  : 			temp_value = top_most_mipinfo._M_height;

	mov	eax, DWORD PTR _top_most_mipinfo$[ebp]
	mov	ecx, DWORD PTR [eax+32]
	mov	DWORD PTR _temp_value$68896[ebp], ecx

; 417  : 			temp_miplevel = 1;

	mov	DWORD PTR _temp_miplevel$68897[ebp], 1

; 418  : 			if ((temp_value >> 8) == 0) {temp_miplevel = temp_miplevel +8; temp_value = temp_value <<8;}

	mov	eax, DWORD PTR _temp_value$68896[ebp]
	shr	eax, 8
	test	eax, eax
	jne	SHORT $LN10@allocate_t@2
	mov	eax, DWORD PTR _temp_miplevel$68897[ebp]
	add	eax, 8
	mov	DWORD PTR _temp_miplevel$68897[ebp], eax
	mov	eax, DWORD PTR _temp_value$68896[ebp]
	shl	eax, 8
	mov	DWORD PTR _temp_value$68896[ebp], eax
$LN10@allocate_t@2:

; 419  : 			if ((temp_value >> 12) == 0) {temp_miplevel = temp_miplevel + 4; temp_value = temp_value << 4;}

	mov	eax, DWORD PTR _temp_value$68896[ebp]
	shr	eax, 12					; 0000000cH
	test	eax, eax
	jne	SHORT $LN9@allocate_t@2
	mov	eax, DWORD PTR _temp_miplevel$68897[ebp]
	add	eax, 4
	mov	DWORD PTR _temp_miplevel$68897[ebp], eax
	mov	eax, DWORD PTR _temp_value$68896[ebp]
	shl	eax, 4
	mov	DWORD PTR _temp_value$68896[ebp], eax
$LN9@allocate_t@2:

; 420  : 			if ((temp_value >> 14) == 0) {temp_miplevel = temp_miplevel + 2; temp_value = temp_value << 2;}

	mov	eax, DWORD PTR _temp_value$68896[ebp]
	shr	eax, 14					; 0000000eH
	test	eax, eax
	jne	SHORT $LN8@allocate_t@2
	mov	eax, DWORD PTR _temp_miplevel$68897[ebp]
	add	eax, 2
	mov	DWORD PTR _temp_miplevel$68897[ebp], eax
	mov	eax, DWORD PTR _temp_value$68896[ebp]
	shl	eax, 2
	mov	DWORD PTR _temp_value$68896[ebp], eax
$LN8@allocate_t@2:

; 421  : 			temp_miplevel = 16 - (temp_miplevel - (temp_value >> 15));

	mov	eax, DWORD PTR _temp_value$68896[ebp]
	shr	eax, 15					; 0000000fH
	mov	ecx, DWORD PTR _temp_miplevel$68897[ebp]
	sub	ecx, eax
	mov	edx, 16					; 00000010H
	sub	edx, ecx
	mov	DWORD PTR _temp_miplevel$68897[ebp], edx

; 422  : 			temp_max_miplevel = temp_miplevel;

	mov	eax, DWORD PTR _temp_miplevel$68897[ebp]
	mov	DWORD PTR _temp_max_miplevel$68898[ebp], eax

; 423  : 
; 424  : 			// 2N211
; 425  : 			if ( 1 < temp_value)

	cmp	DWORD PTR _temp_value$68896[ebp], 1
	jbe	SHORT $LN7@allocate_t@2

; 426  : 			{
; 427  : 				_M_texture_info[0]._M_height = 1 << temp_miplevel;

	mov	eax, 1
	mov	ecx, DWORD PTR _temp_miplevel$68897[ebp]
	shl	eax, cl
	mov	ecx, DWORD PTR _this$[ebp]
	mov	DWORD PTR [ecx+64], eax

; 428  : 				_M_texture_info[1]._M_height = _M_texture_info[0]._M_height ;

	mov	eax, DWORD PTR _this$[ebp]
	mov	ecx, DWORD PTR _this$[ebp]
	mov	edx, DWORD PTR [ecx+64]
	mov	DWORD PTR [eax+104], edx

; 429  : 				_M_texture_info[2]._M_height = _M_texture_info[0]._M_height ;

	mov	eax, DWORD PTR _this$[ebp]
	mov	ecx, DWORD PTR _this$[ebp]
	mov	edx, DWORD PTR [ecx+64]
	mov	DWORD PTR [eax+144], edx

; 430  : 				_M_texture_info[3]._M_height = _M_texture_info[0]._M_height ;

	mov	eax, DWORD PTR _this$[ebp]
	mov	ecx, DWORD PTR _this$[ebp]
	mov	edx, DWORD PTR [ecx+64]
	mov	DWORD PTR [eax+184], edx

; 431  : 				_M_texture_info[4]._M_height = _M_texture_info[0]._M_height ;

	mov	eax, DWORD PTR _this$[ebp]
	mov	ecx, DWORD PTR _this$[ebp]
	mov	edx, DWORD PTR [ecx+64]
	mov	DWORD PTR [eax+224], edx

; 432  : 				_M_texture_info[5]._M_height = _M_texture_info[0]._M_height ;

	mov	eax, DWORD PTR _this$[ebp]
	mov	ecx, DWORD PTR _this$[ebp]
	mov	edx, DWORD PTR [ecx+64]
	mov	DWORD PTR [eax+264], edx
$LN7@allocate_t@2:

; 433  : 			}
; 434  : 
; 435  : 			temp_value = top_most_mipinfo._M_width;

	mov	eax, DWORD PTR _top_most_mipinfo$[ebp]
	mov	ecx, DWORD PTR [eax+28]
	mov	DWORD PTR _temp_value$68896[ebp], ecx

; 436  : 			// 1621
; 437  : 			temp_value = (temp_value&0x5555) + ((temp_value>>1)&0x5555);     

	mov	eax, DWORD PTR _temp_value$68896[ebp]
	and	eax, 21845				; 00005555H
	mov	ecx, DWORD PTR _temp_value$68896[ebp]
	shr	ecx, 1
	and	ecx, 21845				; 00005555H
	add	eax, ecx
	mov	DWORD PTR _temp_value$68896[ebp], eax

; 438  : 			temp_value = (temp_value&0x3333) + ((temp_value>>2)&0x3333);

	mov	eax, DWORD PTR _temp_value$68896[ebp]
	and	eax, 13107				; 00003333H
	mov	ecx, DWORD PTR _temp_value$68896[ebp]
	shr	ecx, 2
	and	ecx, 13107				; 00003333H
	add	eax, ecx
	mov	DWORD PTR _temp_value$68896[ebp], eax

; 439  : 			temp_value = (temp_value&0x0f0f) + ((temp_value>>4)&0x0f0f);     

	mov	eax, DWORD PTR _temp_value$68896[ebp]
	and	eax, 3855				; 00000f0fH
	mov	ecx, DWORD PTR _temp_value$68896[ebp]
	shr	ecx, 4
	and	ecx, 3855				; 00000f0fH
	add	eax, ecx
	mov	DWORD PTR _temp_value$68896[ebp], eax

; 440  : 			temp_value = (temp_value&0x00ff) + ((temp_value>>8)&0x00ff);     

	mov	eax, DWORD PTR _temp_value$68896[ebp]
	and	eax, 255				; 000000ffH
	mov	ecx, DWORD PTR _temp_value$68896[ebp]
	shr	ecx, 8
	and	ecx, 255				; 000000ffH
	add	eax, ecx
	mov	DWORD PTR _temp_value$68896[ebp], eax

; 441  : 
; 442  : 			// 16211
; 443  : 			temp_value = top_most_mipinfo._M_width;

	mov	eax, DWORD PTR _top_most_mipinfo$[ebp]
	mov	ecx, DWORD PTR [eax+28]
	mov	DWORD PTR _temp_value$68896[ebp], ecx

; 444  : 			temp_miplevel = 1;

	mov	DWORD PTR _temp_miplevel$68897[ebp], 1

; 445  : 			if ((temp_value >> 8) == 0) {temp_miplevel = temp_miplevel +8; temp_value = temp_value <<8;}

	mov	eax, DWORD PTR _temp_value$68896[ebp]
	shr	eax, 8
	test	eax, eax
	jne	SHORT $LN6@allocate_t@2
	mov	eax, DWORD PTR _temp_miplevel$68897[ebp]
	add	eax, 8
	mov	DWORD PTR _temp_miplevel$68897[ebp], eax
	mov	eax, DWORD PTR _temp_value$68896[ebp]
	shl	eax, 8
	mov	DWORD PTR _temp_value$68896[ebp], eax
$LN6@allocate_t@2:

; 446  : 			if ((temp_value >> 12) == 0) {temp_miplevel = temp_miplevel + 4; temp_value = temp_value << 4;}

	mov	eax, DWORD PTR _temp_value$68896[ebp]
	shr	eax, 12					; 0000000cH
	test	eax, eax
	jne	SHORT $LN5@allocate_t@2
	mov	eax, DWORD PTR _temp_miplevel$68897[ebp]
	add	eax, 4
	mov	DWORD PTR _temp_miplevel$68897[ebp], eax
	mov	eax, DWORD PTR _temp_value$68896[ebp]
	shl	eax, 4
	mov	DWORD PTR _temp_value$68896[ebp], eax
$LN5@allocate_t@2:

; 447  : 			if ((temp_value >> 14) == 0) {temp_miplevel = temp_miplevel + 2; temp_value = temp_value << 2;}

	mov	eax, DWORD PTR _temp_value$68896[ebp]
	shr	eax, 14					; 0000000eH
	test	eax, eax
	jne	SHORT $LN4@allocate_t@2
	mov	eax, DWORD PTR _temp_miplevel$68897[ebp]
	add	eax, 2
	mov	DWORD PTR _temp_miplevel$68897[ebp], eax
	mov	eax, DWORD PTR _temp_value$68896[ebp]
	shl	eax, 2
	mov	DWORD PTR _temp_value$68896[ebp], eax
$LN4@allocate_t@2:

; 448  : 			temp_miplevel = 16 - (temp_miplevel - (temp_value >> 15));

	mov	eax, DWORD PTR _temp_value$68896[ebp]
	shr	eax, 15					; 0000000fH
	mov	ecx, DWORD PTR _temp_miplevel$68897[ebp]
	sub	ecx, eax
	mov	edx, 16					; 00000010H
	sub	edx, ecx
	mov	DWORD PTR _temp_miplevel$68897[ebp], edx

; 449  : 
; 450  : 			if (temp_miplevel >  temp_max_miplevel)

	mov	eax, DWORD PTR _temp_miplevel$68897[ebp]
	cmp	eax, DWORD PTR _temp_max_miplevel$68898[ebp]
	jbe	SHORT $LN3@allocate_t@2

; 451  : 			{
; 452  : 				temp_max_miplevel = temp_miplevel;

	mov	eax, DWORD PTR _temp_miplevel$68897[ebp]
	mov	DWORD PTR _temp_max_miplevel$68898[ebp], eax
$LN3@allocate_t@2:

; 453  : 			}
; 454  : 
; 455  : 			// 2N211
; 456  : 			if ( 1 < temp_value)

	cmp	DWORD PTR _temp_value$68896[ebp], 1
	jbe	SHORT $LN2@allocate_t@2

; 457  : 			{
; 458  : 				_M_texture_info[0]._M_width = 1 << temp_miplevel;

	mov	eax, 1
	mov	ecx, DWORD PTR _temp_miplevel$68897[ebp]
	shl	eax, cl
	mov	ecx, DWORD PTR _this$[ebp]
	mov	DWORD PTR [ecx+60], eax

; 459  : 				_M_texture_info[1]._M_width = _M_texture_info[0]._M_width;

	mov	eax, DWORD PTR _this$[ebp]
	mov	ecx, DWORD PTR _this$[ebp]
	mov	edx, DWORD PTR [ecx+60]
	mov	DWORD PTR [eax+100], edx

; 460  : 				_M_texture_info[2]._M_width = _M_texture_info[0]._M_width;

	mov	eax, DWORD PTR _this$[ebp]
	mov	ecx, DWORD PTR _this$[ebp]
	mov	edx, DWORD PTR [ecx+60]
	mov	DWORD PTR [eax+140], edx

; 461  : 				_M_texture_info[3]._M_width = _M_texture_info[0]._M_width;

	mov	eax, DWORD PTR _this$[ebp]
	mov	ecx, DWORD PTR _this$[ebp]
	mov	edx, DWORD PTR [ecx+60]
	mov	DWORD PTR [eax+180], edx

; 462  : 				_M_texture_info[4]._M_width = _M_texture_info[0]._M_width;

	mov	eax, DWORD PTR _this$[ebp]
	mov	ecx, DWORD PTR _this$[ebp]
	mov	edx, DWORD PTR [ecx+60]
	mov	DWORD PTR [eax+220], edx

; 463  : 				_M_texture_info[5]._M_width = _M_texture_info[0]._M_width;

	mov	eax, DWORD PTR _this$[ebp]
	mov	ecx, DWORD PTR _this$[ebp]
	mov	edx, DWORD PTR [ecx+60]
	mov	DWORD PTR [eax+260], edx
$LN2@allocate_t@2:

; 464  : 			}
; 465  : 
; 466  : 			_M_mip_level_count = temp_max_miplevel;

	mov	eax, DWORD PTR _this$[ebp]
	mov	ecx, DWORD PTR _temp_max_miplevel$68898[ebp]
	mov	DWORD PTR [eax+12], ecx

; 467  : 			_M_mip_tmp_info = _M_texture_info[0];

	mov	esi, DWORD PTR _this$[ebp]
	add	esi, 32					; 00000020H
	mov	edi, DWORD PTR _this$[ebp]
	add	edi, 272				; 00000110H
	mov	ecx, 10					; 0000000aH
	rep movsd
$LN11@allocate_t@2:

; 468  : 
; 469  : 		}
; 470  : 		return result_;

	mov	eax, DWORD PTR _result_$68894[ebp]
	jmp	SHORT $LN15@allocate_t@2

; 471  : 	}
; 472  : 	else

	jmp	SHORT $LN15@allocate_t@2
$LN12@allocate_t@2:

; 473  : 	{
; 474  : 		return P_UNIQUE_ERR;

	mov	eax, -4					; fffffffcH
$LN15@allocate_t@2:

; 475  : 	}
; 476  : 
; 477  : }

	pop	edi
	pop	esi
	pop	ebx
	add	esp, 252				; 000000fcH
	cmp	ebp, esp
	call	__RTC_CheckEsp
	mov	esp, ebp
	pop	ebp
	ret	4
?allocate_texture_from_gpu_ram@pecker_texture_cube_gles2@pecker_sdk@@UAEJABUpecker_texture_layer_info@2@@Z ENDP ; pecker_sdk::pecker_texture_cube_gles2::allocate_texture_from_gpu_ram
; Function compile flags: /Odtp /RTCsu /ZI
_TEXT	ENDS
;	COMDAT ?release_texture_from_gpu_ram@pecker_texture_cube_gles2@pecker_sdk@@UAEJXZ
_TEXT	SEGMENT
_this$ = -8						; size = 4
?release_texture_from_gpu_ram@pecker_texture_cube_gles2@pecker_sdk@@UAEJXZ PROC ; pecker_sdk::pecker_texture_cube_gles2::release_texture_from_gpu_ram, COMDAT
; _this$ = ecx

; 480  : {

	push	ebp
	mov	ebp, esp
	sub	esp, 204				; 000000ccH
	push	ebx
	push	esi
	push	edi
	push	ecx
	lea	edi, DWORD PTR [ebp-204]
	mov	ecx, 51					; 00000033H
	mov	eax, -858993460				; ccccccccH
	rep stosd
	pop	ecx
	mov	DWORD PTR _this$[ebp], ecx

; 481  : 	if (0 != _M_gpu_target)

	mov	eax, DWORD PTR _this$[ebp]
	cmp	DWORD PTR [eax+8], 0
	je	SHORT $LN2@release_te@2

; 482  : 	{
; 483  : 		glDeleteTextures(1,&_M_gpu_target);

	mov	eax, DWORD PTR _this$[ebp]
	add	eax, 8
	mov	esi, esp
	push	eax
	push	1
	call	DWORD PTR __imp__glDeleteTextures@8
	cmp	esi, esp
	call	__RTC_CheckEsp

; 484  : 		return pecker_opengles_v2_object::get_last_error_code();

	call	?get_last_error_code@pecker_opengles_v2_object@pecker_sdk@@SAJXZ ; pecker_sdk::pecker_opengles_v2_object::get_last_error_code
	jmp	SHORT $LN3@release_te@2

; 485  : 	}
; 486  : 	else

	jmp	SHORT $LN3@release_te@2
$LN2@release_te@2:

; 487  : 	{
; 488  : 		return P_OK;

	xor	eax, eax
$LN3@release_te@2:

; 489  : 	}
; 490  : 
; 491  : }

	pop	edi
	pop	esi
	pop	ebx
	add	esp, 204				; 000000ccH
	cmp	ebp, esp
	call	__RTC_CheckEsp
	mov	esp, ebp
	pop	ebp
	ret	0
?release_texture_from_gpu_ram@pecker_texture_cube_gles2@pecker_sdk@@UAEJXZ ENDP ; pecker_sdk::pecker_texture_cube_gles2::release_texture_from_gpu_ram
; Function compile flags: /Odtp /RTCsu /ZI
_TEXT	ENDS
;	COMDAT ?use_defualt_texture_filters@pecker_texture_cube_gles2@pecker_sdk@@UAEJXZ
_TEXT	SEGMENT
_this$ = -8						; size = 4
?use_defualt_texture_filters@pecker_texture_cube_gles2@pecker_sdk@@UAEJXZ PROC ; pecker_sdk::pecker_texture_cube_gles2::use_defualt_texture_filters, COMDAT
; _this$ = ecx

; 494  : {

	push	ebp
	mov	ebp, esp
	sub	esp, 204				; 000000ccH
	push	ebx
	push	esi
	push	edi
	push	ecx
	lea	edi, DWORD PTR [ebp-204]
	mov	ecx, 51					; 00000033H
	mov	eax, -858993460				; ccccccccH
	rep stosd
	pop	ecx
	mov	DWORD PTR _this$[ebp], ecx

; 495  : 	return use_texture_filters(_M_defualt_texture_filter,_M_defualt_texture_filter_count);

	mov	esi, esp
	mov	eax, DWORD PTR _this$[ebp]
	mov	ecx, DWORD PTR [eax+16]
	push	ecx
	mov	edx, DWORD PTR _this$[ebp]
	add	edx, 312				; 00000138H
	push	edx
	mov	eax, DWORD PTR _this$[ebp]
	mov	edx, DWORD PTR [eax]
	mov	ecx, DWORD PTR _this$[ebp]
	mov	eax, DWORD PTR [edx+36]
	call	eax
	cmp	esi, esp
	call	__RTC_CheckEsp

; 496  : }

	pop	edi
	pop	esi
	pop	ebx
	add	esp, 204				; 000000ccH
	cmp	ebp, esp
	call	__RTC_CheckEsp
	mov	esp, ebp
	pop	ebp
	ret	0
?use_defualt_texture_filters@pecker_texture_cube_gles2@pecker_sdk@@UAEJXZ ENDP ; pecker_sdk::pecker_texture_cube_gles2::use_defualt_texture_filters
; Function compile flags: /Odtp /RTCsu /ZI
_TEXT	ENDS
;	COMDAT ?use_texture_filters@pecker_texture_cube_gles2@pecker_sdk@@UAEJPBUpecker_texture_filter_info@2@H@Z
_TEXT	SEGMENT
_i$68923 = -20						; size = 4
_this$ = -8						; size = 4
_filters$ = 8						; size = 4
_filters_count$ = 12					; size = 4
?use_texture_filters@pecker_texture_cube_gles2@pecker_sdk@@UAEJPBUpecker_texture_filter_info@2@H@Z PROC ; pecker_sdk::pecker_texture_cube_gles2::use_texture_filters, COMDAT
; _this$ = ecx

; 499  : {

	push	ebp
	mov	ebp, esp
	sub	esp, 216				; 000000d8H
	push	ebx
	push	esi
	push	edi
	push	ecx
	lea	edi, DWORD PTR [ebp-216]
	mov	ecx, 54					; 00000036H
	mov	eax, -858993460				; ccccccccH
	rep stosd
	pop	ecx
	mov	DWORD PTR _this$[ebp], ecx

; 500  : 	if (0 != _M_gpu_target)

	mov	eax, DWORD PTR _this$[ebp]
	cmp	DWORD PTR [eax+8], 0
	je	SHORT $LN5@use_textur@2

; 501  : 	{
; 502  : 		glBindTexture(GL_TEXTURE_CUBE_MAP,_M_gpu_target);

	mov	esi, esp
	mov	eax, DWORD PTR _this$[ebp]
	mov	ecx, DWORD PTR [eax+8]
	push	ecx
	push	34067					; 00008513H
	call	DWORD PTR __imp__glBindTexture@8
	cmp	esi, esp
	call	__RTC_CheckEsp

; 503  : 		for (nINDEX i=0;i<_M_defualt_texture_filter_count;++i)

	mov	DWORD PTR _i$68923[ebp], 0
	jmp	SHORT $LN4@use_textur@2
$LN3@use_textur@2:
	mov	eax, DWORD PTR _i$68923[ebp]
	add	eax, 1
	mov	DWORD PTR _i$68923[ebp], eax
$LN4@use_textur@2:
	mov	eax, DWORD PTR _this$[ebp]
	mov	ecx, DWORD PTR _i$68923[ebp]
	cmp	ecx, DWORD PTR [eax+16]
	jge	SHORT $LN2@use_textur@2

; 504  : 		{
; 505  : 			glTexParameteri(GL_TEXTURE_CUBE_MAP,_M_defualt_texture_filter[i]._M_filter_name,_M_defualt_texture_filter[i]._M_filter_param._M_uinteger);

	mov	esi, esp
	mov	eax, DWORD PTR _i$68923[ebp]
	mov	ecx, DWORD PTR _this$[ebp]
	mov	edx, DWORD PTR [ecx+eax*8+316]
	push	edx
	mov	eax, DWORD PTR _i$68923[ebp]
	mov	ecx, DWORD PTR _this$[ebp]
	mov	edx, DWORD PTR [ecx+eax*8+312]
	push	edx
	push	34067					; 00008513H
	call	DWORD PTR __imp__glTexParameteri@12
	cmp	esi, esp
	call	__RTC_CheckEsp

; 506  : 		}

	jmp	SHORT $LN3@use_textur@2
$LN2@use_textur@2:

; 507  : 		return P_OK;

	xor	eax, eax
	jmp	SHORT $LN6@use_textur@2

; 508  : 	}
; 509  : 	else

	jmp	SHORT $LN6@use_textur@2
$LN5@use_textur@2:

; 510  : 	{
; 511  : 		return P_FAIL;

	mov	eax, 1
$LN6@use_textur@2:

; 512  : 	}
; 513  : }

	pop	edi
	pop	esi
	pop	ebx
	add	esp, 216				; 000000d8H
	cmp	ebp, esp
	call	__RTC_CheckEsp
	mov	esp, ebp
	pop	ebp
	ret	8
?use_texture_filters@pecker_texture_cube_gles2@pecker_sdk@@UAEJPBUpecker_texture_filter_info@2@H@Z ENDP ; pecker_sdk::pecker_texture_cube_gles2::use_texture_filters
; Function compile flags: /Odtp /RTCsu /ZI
_TEXT	ENDS
;	COMDAT ?bind_texture_to_shader_sample@pecker_texture_cube_gles2@pecker_sdk@@UAEJII@Z
_TEXT	SEGMENT
_this$ = -8						; size = 4
_sample_location$ = 8					; size = 4
_texture_unit$ = 12					; size = 4
?bind_texture_to_shader_sample@pecker_texture_cube_gles2@pecker_sdk@@UAEJII@Z PROC ; pecker_sdk::pecker_texture_cube_gles2::bind_texture_to_shader_sample, COMDAT
; _this$ = ecx

; 516  : {

	push	ebp
	mov	ebp, esp
	sub	esp, 204				; 000000ccH
	push	ebx
	push	esi
	push	edi
	push	ecx
	lea	edi, DWORD PTR [ebp-204]
	mov	ecx, 51					; 00000033H
	mov	eax, -858993460				; ccccccccH
	rep stosd
	pop	ecx
	mov	DWORD PTR _this$[ebp], ecx

; 517  : 	if (0 != _M_gpu_target)

	mov	eax, DWORD PTR _this$[ebp]
	cmp	DWORD PTR [eax+8], 0
	je	SHORT $LN3@bind_textu@2

; 518  : 	{
; 519  : 		if (texture_unit < pecker_texture_2d_gles2::MAX_TEXTURE_UNIT_COUNT)

	cmp	DWORD PTR _texture_unit$[ebp], 32	; 00000020H
	jae	SHORT $LN2@bind_textu@2

; 520  : 		{
; 521  : 			glActiveTexture(GL_TEXTURE0 + texture_unit);

	mov	eax, DWORD PTR _texture_unit$[ebp]
	add	eax, 33984				; 000084c0H
	mov	esi, esp
	push	eax
	call	DWORD PTR __imp__glActiveTexture@4
	cmp	esi, esp
	call	__RTC_CheckEsp

; 522  : 			glBindTexture(GL_TEXTURE_CUBE_MAP,_M_gpu_target);

	mov	esi, esp
	mov	eax, DWORD PTR _this$[ebp]
	mov	ecx, DWORD PTR [eax+8]
	push	ecx
	push	34067					; 00008513H
	call	DWORD PTR __imp__glBindTexture@8
	cmp	esi, esp
	call	__RTC_CheckEsp

; 523  : 			glUniform1i(sample_location,texture_unit);

	mov	esi, esp
	mov	eax, DWORD PTR _texture_unit$[ebp]
	push	eax
	mov	ecx, DWORD PTR _sample_location$[ebp]
	push	ecx
	call	DWORD PTR __imp__glUniform1i@8
	cmp	esi, esp
	call	__RTC_CheckEsp

; 524  : 			return pecker_texture_cube_gles2::get_last_error_code();

	call	?get_last_error_code@pecker_opengles_v2_object@pecker_sdk@@SAJXZ ; pecker_sdk::pecker_opengles_v2_object::get_last_error_code
	jmp	SHORT $LN4@bind_textu@2
$LN2@bind_textu@2:

; 525  : 		}
; 526  : 		return P_INVALID_VALUE;

	mov	eax, -2					; fffffffeH
	jmp	SHORT $LN4@bind_textu@2

; 527  : 	}
; 528  : 	else

	jmp	SHORT $LN4@bind_textu@2
$LN3@bind_textu@2:

; 529  : 	{
; 530  : 		return P_FAIL;

	mov	eax, 1
$LN4@bind_textu@2:

; 531  : 	}
; 532  : 
; 533  : }

	pop	edi
	pop	esi
	pop	ebx
	add	esp, 204				; 000000ccH
	cmp	ebp, esp
	call	__RTC_CheckEsp
	mov	esp, ebp
	pop	ebp
	ret	8
?bind_texture_to_shader_sample@pecker_texture_cube_gles2@pecker_sdk@@UAEJII@Z ENDP ; pecker_sdk::pecker_texture_cube_gles2::bind_texture_to_shader_sample
; Function compile flags: /Odtp /RTCsu /ZI
_TEXT	ENDS
;	COMDAT ?get_texture_info@pecker_texture_cube_gles2@pecker_sdk@@UAEABUpecker_texture_layer_info@2@I@Z
_TEXT	SEGMENT
_this$ = -8						; size = 4
_miplevel$ = 8						; size = 4
?get_texture_info@pecker_texture_cube_gles2@pecker_sdk@@UAEABUpecker_texture_layer_info@2@I@Z PROC ; pecker_sdk::pecker_texture_cube_gles2::get_texture_info, COMDAT
; _this$ = ecx

; 536  : {

	push	ebp
	mov	ebp, esp
	sub	esp, 204				; 000000ccH
	push	ebx
	push	esi
	push	edi
	push	ecx
	lea	edi, DWORD PTR [ebp-204]
	mov	ecx, 51					; 00000033H
	mov	eax, -858993460				; ccccccccH
	rep stosd
	pop	ecx
	mov	DWORD PTR _this$[ebp], ecx

; 537  : 	_M_mip_tmp_info._M_height = _M_texture_info[_M_active_face]._M_height >> miplevel;

	mov	eax, DWORD PTR _this$[ebp]
	mov	ecx, DWORD PTR [eax+28]
	imul	ecx, 40					; 00000028H
	mov	edx, DWORD PTR _this$[ebp]
	mov	eax, DWORD PTR [edx+ecx+64]
	mov	ecx, DWORD PTR _miplevel$[ebp]
	sar	eax, cl
	mov	ecx, DWORD PTR _this$[ebp]
	mov	DWORD PTR [ecx+304], eax

; 538  : 	_M_mip_tmp_info._M_width = _M_texture_info[_M_active_face]._M_width >> miplevel;

	mov	eax, DWORD PTR _this$[ebp]
	mov	ecx, DWORD PTR [eax+28]
	imul	ecx, 40					; 00000028H
	mov	edx, DWORD PTR _this$[ebp]
	mov	eax, DWORD PTR [edx+ecx+60]
	mov	ecx, DWORD PTR _miplevel$[ebp]
	sar	eax, cl
	mov	ecx, DWORD PTR _this$[ebp]
	mov	DWORD PTR [ecx+300], eax

; 539  : 
; 540  : 	return _M_mip_tmp_info;

	mov	eax, DWORD PTR _this$[ebp]
	add	eax, 272				; 00000110H

; 541  : }

	pop	edi
	pop	esi
	pop	ebx
	mov	esp, ebp
	pop	ebp
	ret	4
?get_texture_info@pecker_texture_cube_gles2@pecker_sdk@@UAEABUpecker_texture_layer_info@2@I@Z ENDP ; pecker_sdk::pecker_texture_cube_gles2::get_texture_info
; Function compile flags: /Odtp /RTCsu /ZI
_TEXT	ENDS
;	COMDAT ?update_gpu_buffer@pecker_texture_cube_gles2@pecker_sdk@@UAEJHQAX_N@Z
_TEXT	SEGMENT
_result_$68950 = -32					; size = 4
_tex_info$68947 = -20					; size = 4
_this$ = -8						; size = 4
_data_size$ = 8						; size = 4
_pdata$ = 12						; size = 4
_is_compress$ = 16					; size = 1
?update_gpu_buffer@pecker_texture_cube_gles2@pecker_sdk@@UAEJHQAX_N@Z PROC ; pecker_sdk::pecker_texture_cube_gles2::update_gpu_buffer, COMDAT
; _this$ = ecx

; 544  : {

	push	ebp
	mov	ebp, esp
	sub	esp, 228				; 000000e4H
	push	ebx
	push	esi
	push	edi
	push	ecx
	lea	edi, DWORD PTR [ebp-228]
	mov	ecx, 57					; 00000039H
	mov	eax, -858993460				; ccccccccH
	rep stosd
	pop	ecx
	mov	DWORD PTR _this$[ebp], ecx

; 545  : 	//if (miplevel < _M_mip_level_count)
; 546  : 	if (0 != _M_gpu_target)

	mov	eax, DWORD PTR _this$[ebp]
	cmp	DWORD PTR [eax+8], 0
	je	$LN3@update_gpu@3

; 547  : 	{
; 548  : 		const pecker_texture_layer_info& tex_info =  get_texture_info(_M_active_miplevel);

	mov	esi, esp
	mov	eax, DWORD PTR _this$[ebp]
	mov	ecx, DWORD PTR [eax+24]
	push	ecx
	mov	edx, DWORD PTR _this$[ebp]
	mov	eax, DWORD PTR [edx]
	mov	ecx, DWORD PTR _this$[ebp]
	mov	edx, DWORD PTR [eax+44]
	call	edx
	cmp	esi, esp
	call	__RTC_CheckEsp
	mov	DWORD PTR _tex_info$68947[ebp], eax

; 549  : 		glBindTexture(GL_TEXTURE_CUBE_MAP,_M_gpu_target);

	mov	esi, esp
	mov	eax, DWORD PTR _this$[ebp]
	mov	ecx, DWORD PTR [eax+8]
	push	ecx
	push	34067					; 00008513H
	call	DWORD PTR __imp__glBindTexture@8
	cmp	esi, esp
	call	__RTC_CheckEsp

; 550  : 
; 551  : 		if (is_compress)

	movzx	eax, BYTE PTR _is_compress$[ebp]
	test	eax, eax
	je	SHORT $LN2@update_gpu@3

; 552  : 		{
; 553  : 			glTexImage2D(_M_active_face+GL_TEXTURE_CUBE_MAP_POSITIVE_X,
; 554  : 				_M_active_miplevel,
; 555  : 				tex_info._M_internal_format,
; 556  : 				tex_info._M_width,
; 557  : 				tex_info._M_height,
; 558  : 				tex_info._M_border,
; 559  : 				tex_info._M_bit_format,
; 560  : 				tex_info._M_data_type,
; 561  : 				pdata);

	mov	esi, esp
	mov	eax, DWORD PTR _pdata$[ebp]
	push	eax
	mov	ecx, DWORD PTR _tex_info$68947[ebp]
	mov	edx, DWORD PTR [ecx+12]
	push	edx
	mov	eax, DWORD PTR _tex_info$68947[ebp]
	mov	ecx, DWORD PTR [eax+8]
	push	ecx
	mov	edx, DWORD PTR _tex_info$68947[ebp]
	mov	eax, DWORD PTR [edx+24]
	push	eax
	mov	ecx, DWORD PTR _tex_info$68947[ebp]
	mov	edx, DWORD PTR [ecx+32]
	push	edx
	mov	eax, DWORD PTR _tex_info$68947[ebp]
	mov	ecx, DWORD PTR [eax+28]
	push	ecx
	mov	edx, DWORD PTR _tex_info$68947[ebp]
	mov	eax, DWORD PTR [edx+4]
	push	eax
	mov	ecx, DWORD PTR _this$[ebp]
	mov	edx, DWORD PTR [ecx+24]
	push	edx
	mov	eax, DWORD PTR _this$[ebp]
	mov	ecx, DWORD PTR [eax+28]
	add	ecx, 34069				; 00008515H
	push	ecx
	call	DWORD PTR __imp__glTexImage2D@36
	cmp	esi, esp
	call	__RTC_CheckEsp

; 562  : 		}
; 563  : 		else

	jmp	SHORT $LN1@update_gpu@3
$LN2@update_gpu@3:

; 564  : 		{
; 565  : 			glCompressedTexImage2D(_M_active_face+GL_TEXTURE_CUBE_MAP_POSITIVE_X,
; 566  : 				_M_active_miplevel,
; 567  : 				tex_info._M_internal_format,
; 568  : 				tex_info._M_width,
; 569  : 				tex_info._M_height,
; 570  : 				tex_info._M_border,
; 571  : 				data_size,
; 572  : 				pdata);

	mov	esi, esp
	mov	eax, DWORD PTR _pdata$[ebp]
	push	eax
	mov	ecx, DWORD PTR _data_size$[ebp]
	push	ecx
	mov	edx, DWORD PTR _tex_info$68947[ebp]
	mov	eax, DWORD PTR [edx+24]
	push	eax
	mov	ecx, DWORD PTR _tex_info$68947[ebp]
	mov	edx, DWORD PTR [ecx+32]
	push	edx
	mov	eax, DWORD PTR _tex_info$68947[ebp]
	mov	ecx, DWORD PTR [eax+28]
	push	ecx
	mov	edx, DWORD PTR _tex_info$68947[ebp]
	mov	eax, DWORD PTR [edx+4]
	push	eax
	mov	ecx, DWORD PTR _this$[ebp]
	mov	edx, DWORD PTR [ecx+24]
	push	edx
	mov	eax, DWORD PTR _this$[ebp]
	mov	ecx, DWORD PTR [eax+28]
	add	ecx, 34069				; 00008515H
	push	ecx
	call	DWORD PTR __imp__glCompressedTexImage2D@32
	cmp	esi, esp
	call	__RTC_CheckEsp
$LN1@update_gpu@3:

; 573  : 		}
; 574  : 
; 575  : 		UInt result_ = pecker_opengles_v2_object::get_last_error_code();

	call	?get_last_error_code@pecker_opengles_v2_object@pecker_sdk@@SAJXZ ; pecker_sdk::pecker_opengles_v2_object::get_last_error_code
	mov	DWORD PTR _result_$68950[ebp], eax

; 576  : 		return result_;

	mov	eax, DWORD PTR _result_$68950[ebp]
	jmp	SHORT $LN4@update_gpu@3
$LN3@update_gpu@3:

; 577  : 	}
; 578  : 	return P_FAIL;

	mov	eax, 1
$LN4@update_gpu@3:

; 579  : }

	pop	edi
	pop	esi
	pop	ebx
	add	esp, 228				; 000000e4H
	cmp	ebp, esp
	call	__RTC_CheckEsp
	mov	esp, ebp
	pop	ebp
	ret	12					; 0000000cH
?update_gpu_buffer@pecker_texture_cube_gles2@pecker_sdk@@UAEJHQAX_N@Z ENDP ; pecker_sdk::pecker_texture_cube_gles2::update_gpu_buffer
; Function compile flags: /Odtp /RTCsu /ZI
_TEXT	ENDS
;	COMDAT ?update_gpu_sub_buffer@pecker_texture_cube_gles2@pecker_sdk@@UAEJHHHHHQAX_N@Z
_TEXT	SEGMENT
_result_$68964 = -20					; size = 4
_this$ = -8						; size = 4
_xoffset$ = 8						; size = 4
_yoffset$ = 12						; size = 4
_width$ = 16						; size = 4
_height$ = 20						; size = 4
_data_size$ = 24					; size = 4
_pdata$ = 28						; size = 4
_is_compress$ = 32					; size = 1
?update_gpu_sub_buffer@pecker_texture_cube_gles2@pecker_sdk@@UAEJHHHHHQAX_N@Z PROC ; pecker_sdk::pecker_texture_cube_gles2::update_gpu_sub_buffer, COMDAT
; _this$ = ecx

; 581  : {

	push	ebp
	mov	ebp, esp
	sub	esp, 216				; 000000d8H
	push	ebx
	push	esi
	push	edi
	push	ecx
	lea	edi, DWORD PTR [ebp-216]
	mov	ecx, 54					; 00000036H
	mov	eax, -858993460				; ccccccccH
	rep stosd
	pop	ecx
	mov	DWORD PTR _this$[ebp], ecx

; 582  : 	//if (miplevel < _M_mip_level_count)
; 583  : 	if (0 != _M_gpu_target)

	mov	eax, DWORD PTR _this$[ebp]
	cmp	DWORD PTR [eax+8], 0
	je	$LN3@update_gpu@4

; 584  : 	{
; 585  : 		glBindTexture(GL_TEXTURE_CUBE_MAP,_M_gpu_target);

	mov	esi, esp
	mov	eax, DWORD PTR _this$[ebp]
	mov	ecx, DWORD PTR [eax+8]
	push	ecx
	push	34067					; 00008513H
	call	DWORD PTR __imp__glBindTexture@8
	cmp	esi, esp
	call	__RTC_CheckEsp

; 586  : 		if (!is_compress)

	movzx	eax, BYTE PTR _is_compress$[ebp]
	test	eax, eax
	jne	SHORT $LN2@update_gpu@4

; 587  : 		{
; 588  : 			glTexSubImage2D(_M_active_face+GL_TEXTURE_CUBE_MAP_POSITIVE_X,
; 589  : 				_M_active_miplevel,
; 590  : 				xoffset,
; 591  : 				yoffset,
; 592  : 				width,
; 593  : 				height,
; 594  : 				_M_texture_info[_M_active_face]._M_bit_format,
; 595  : 				_M_texture_info[_M_active_face]._M_data_type,
; 596  : 				pdata);

	mov	esi, esp
	mov	eax, DWORD PTR _pdata$[ebp]
	push	eax
	mov	ecx, DWORD PTR _this$[ebp]
	mov	edx, DWORD PTR [ecx+28]
	imul	edx, 40					; 00000028H
	mov	eax, DWORD PTR _this$[ebp]
	mov	ecx, DWORD PTR [eax+edx+44]
	push	ecx
	mov	edx, DWORD PTR _this$[ebp]
	mov	eax, DWORD PTR [edx+28]
	imul	eax, 40					; 00000028H
	mov	ecx, DWORD PTR _this$[ebp]
	mov	edx, DWORD PTR [ecx+eax+40]
	push	edx
	mov	eax, DWORD PTR _height$[ebp]
	push	eax
	mov	ecx, DWORD PTR _width$[ebp]
	push	ecx
	mov	edx, DWORD PTR _yoffset$[ebp]
	push	edx
	mov	eax, DWORD PTR _xoffset$[ebp]
	push	eax
	mov	ecx, DWORD PTR _this$[ebp]
	mov	edx, DWORD PTR [ecx+24]
	push	edx
	mov	eax, DWORD PTR _this$[ebp]
	mov	ecx, DWORD PTR [eax+28]
	add	ecx, 34069				; 00008515H
	push	ecx
	call	DWORD PTR __imp__glTexSubImage2D@36
	cmp	esi, esp
	call	__RTC_CheckEsp

; 597  : 		}
; 598  : 		else

	jmp	SHORT $LN1@update_gpu@4
$LN2@update_gpu@4:

; 599  : 		{
; 600  : 			glCompressedTexSubImage2D(_M_active_face+GL_TEXTURE_CUBE_MAP_POSITIVE_X,
; 601  : 				_M_active_miplevel,
; 602  : 				xoffset,
; 603  : 				yoffset,
; 604  : 				width,
; 605  : 				height,
; 606  : 				_M_texture_info[_M_active_face]._M_bit_format,
; 607  : 				data_size,
; 608  : 				pdata);

	mov	esi, esp
	mov	eax, DWORD PTR _pdata$[ebp]
	push	eax
	mov	ecx, DWORD PTR _data_size$[ebp]
	push	ecx
	mov	edx, DWORD PTR _this$[ebp]
	mov	eax, DWORD PTR [edx+28]
	imul	eax, 40					; 00000028H
	mov	ecx, DWORD PTR _this$[ebp]
	mov	edx, DWORD PTR [ecx+eax+40]
	push	edx
	mov	eax, DWORD PTR _height$[ebp]
	push	eax
	mov	ecx, DWORD PTR _width$[ebp]
	push	ecx
	mov	edx, DWORD PTR _yoffset$[ebp]
	push	edx
	mov	eax, DWORD PTR _xoffset$[ebp]
	push	eax
	mov	ecx, DWORD PTR _this$[ebp]
	mov	edx, DWORD PTR [ecx+24]
	push	edx
	mov	eax, DWORD PTR _this$[ebp]
	mov	ecx, DWORD PTR [eax+28]
	add	ecx, 34069				; 00008515H
	push	ecx
	call	DWORD PTR __imp__glCompressedTexSubImage2D@36
	cmp	esi, esp
	call	__RTC_CheckEsp
$LN1@update_gpu@4:

; 609  : 		}
; 610  : 
; 611  : 		UInt result_ = pecker_opengles_v2_object::get_last_error_code();

	call	?get_last_error_code@pecker_opengles_v2_object@pecker_sdk@@SAJXZ ; pecker_sdk::pecker_opengles_v2_object::get_last_error_code
	mov	DWORD PTR _result_$68964[ebp], eax

; 612  : 		return result_;

	mov	eax, DWORD PTR _result_$68964[ebp]
	jmp	SHORT $LN4@update_gpu@4
$LN3@update_gpu@4:

; 613  : 	}
; 614  : 	return P_FAIL;

	mov	eax, 1
$LN4@update_gpu@4:

; 615  : }

	pop	edi
	pop	esi
	pop	ebx
	add	esp, 216				; 000000d8H
	cmp	ebp, esp
	call	__RTC_CheckEsp
	mov	esp, ebp
	pop	ebp
	ret	28					; 0000001cH
?update_gpu_sub_buffer@pecker_texture_cube_gles2@pecker_sdk@@UAEJHHHHHQAX_N@Z ENDP ; pecker_sdk::pecker_texture_cube_gles2::update_gpu_sub_buffer
; Function compile flags: /Odtp /RTCsu /ZI
_TEXT	ENDS
;	COMDAT ?set_active_face@pecker_texture_cube_gles2@pecker_sdk@@UAEJI@Z
_TEXT	SEGMENT
_this$ = -8						; size = 4
_target_type$ = 8					; size = 4
?set_active_face@pecker_texture_cube_gles2@pecker_sdk@@UAEJI@Z PROC ; pecker_sdk::pecker_texture_cube_gles2::set_active_face, COMDAT
; _this$ = ecx

; 618  : {

	push	ebp
	mov	ebp, esp
	sub	esp, 204				; 000000ccH
	push	ebx
	push	esi
	push	edi
	push	ecx
	lea	edi, DWORD PTR [ebp-204]
	mov	ecx, 51					; 00000033H
	mov	eax, -858993460				; ccccccccH
	rep stosd
	pop	ecx
	mov	DWORD PTR _this$[ebp], ecx

; 619  : 	if (target_type < TEXTURE_CUBE_MAP_COUNT && target_type >= 0)

	cmp	DWORD PTR _target_type$[ebp], 6
	jae	SHORT $LN1@set_active@2
	cmp	DWORD PTR _target_type$[ebp], 0
	jb	SHORT $LN1@set_active@2

; 620  : 	{
; 621  : 		_M_active_face = target_type;

	mov	eax, DWORD PTR _this$[ebp]
	mov	ecx, DWORD PTR _target_type$[ebp]
	mov	DWORD PTR [eax+28], ecx

; 622  : 		return P_OK;

	xor	eax, eax
	jmp	SHORT $LN2@set_active@2
$LN1@set_active@2:

; 623  : 	}
; 624  : 	return P_INVALID_VALUE;

	mov	eax, -2					; fffffffeH
$LN2@set_active@2:

; 625  : }

	pop	edi
	pop	esi
	pop	ebx
	mov	esp, ebp
	pop	ebp
	ret	4
?set_active_face@pecker_texture_cube_gles2@pecker_sdk@@UAEJI@Z ENDP ; pecker_sdk::pecker_texture_cube_gles2::set_active_face
; Function compile flags: /Odtp /RTCsu /ZI
_TEXT	ENDS
;	COMDAT ?get_active_face@pecker_texture_cube_gles2@pecker_sdk@@UBEIXZ
_TEXT	SEGMENT
_this$ = -8						; size = 4
?get_active_face@pecker_texture_cube_gles2@pecker_sdk@@UBEIXZ PROC ; pecker_sdk::pecker_texture_cube_gles2::get_active_face, COMDAT
; _this$ = ecx

; 627  : {

	push	ebp
	mov	ebp, esp
	sub	esp, 204				; 000000ccH
	push	ebx
	push	esi
	push	edi
	push	ecx
	lea	edi, DWORD PTR [ebp-204]
	mov	ecx, 51					; 00000033H
	mov	eax, -858993460				; ccccccccH
	rep stosd
	pop	ecx
	mov	DWORD PTR _this$[ebp], ecx

; 628  : 	return _M_active_face;

	mov	eax, DWORD PTR _this$[ebp]
	mov	eax, DWORD PTR [eax+28]

; 629  : }

	pop	edi
	pop	esi
	pop	ebx
	mov	esp, ebp
	pop	ebp
	ret	0
?get_active_face@pecker_texture_cube_gles2@pecker_sdk@@UBEIXZ ENDP ; pecker_sdk::pecker_texture_cube_gles2::get_active_face
; Function compile flags: /Odtp /RTCsu /ZI
_TEXT	ENDS
;	COMDAT ?allocate_texture_from_gpu_ram@pecker_texture_cube_gles2@pecker_sdk@@UAEJPBUpecker_texture_layer_info@2@H@Z
_TEXT	SEGMENT
_temp_max_miplevel$68996 = -104				; size = 4
_temp_miplevel$68995 = -92				; size = 4
_temp_value$68994 = -80					; size = 4
_top_most_mipinfo$68993 = -68				; size = 4
_i$68989 = -56						; size = 4
_result_$68987 = -44					; size = 4
_top_most_mipinfo$68983 = -32				; size = 4
_i$68979 = -20						; size = 4
_this$ = -8						; size = 4
_ptop_most_mipinfo$ = 8					; size = 4
_info_count$ = 12					; size = 4
?allocate_texture_from_gpu_ram@pecker_texture_cube_gles2@pecker_sdk@@UAEJPBUpecker_texture_layer_info@2@H@Z PROC ; pecker_sdk::pecker_texture_cube_gles2::allocate_texture_from_gpu_ram, COMDAT
; _this$ = ecx

; 632  : {

	push	ebp
	mov	ebp, esp
	sub	esp, 300				; 0000012cH
	push	ebx
	push	esi
	push	edi
	push	ecx
	lea	edi, DWORD PTR [ebp-300]
	mov	ecx, 75					; 0000004bH
	mov	eax, -858993460				; ccccccccH
	rep stosd
	pop	ecx
	mov	DWORD PTR _this$[ebp], ecx

; 633  : 	if (null == ptop_most_mipinfo)

	cmp	DWORD PTR _ptop_most_mipinfo$[ebp], 0
	jne	SHORT $LN22@allocate_t@3

; 634  : 	{
; 635  : 		return P_INVALID_VALUE;

	mov	eax, -2					; fffffffeH
	jmp	$LN23@allocate_t@3
$LN22@allocate_t@3:

; 636  : 	}
; 637  : 	for (nINDEX i=0; i<info_count; ++i)

	mov	DWORD PTR _i$68979[ebp], 0
	jmp	SHORT $LN21@allocate_t@3
$LN20@allocate_t@3:
	mov	eax, DWORD PTR _i$68979[ebp]
	add	eax, 1
	mov	DWORD PTR _i$68979[ebp], eax
$LN21@allocate_t@3:
	mov	eax, DWORD PTR _i$68979[ebp]
	cmp	eax, DWORD PTR _info_count$[ebp]
	jge	SHORT $LN19@allocate_t@3

; 638  : 	{
; 639  : 		const pecker_texture_layer_info& top_most_mipinfo = ptop_most_mipinfo[i];

	mov	eax, DWORD PTR _i$68979[ebp]
	imul	eax, 40					; 00000028H
	add	eax, DWORD PTR _ptop_most_mipinfo$[ebp]
	mov	DWORD PTR _top_most_mipinfo$68983[ebp], eax

; 640  : 		if (top_most_mipinfo._M_height < 1 || top_most_mipinfo._M_height > pecker_texture_2d_gles2::MAX_TEXTURE_SIZE ||
; 641  : 			top_most_mipinfo._M_width < 1 || top_most_mipinfo._M_width > pecker_texture_2d_gles2::MAX_TEXTURE_SIZE)

	mov	eax, DWORD PTR _top_most_mipinfo$68983[ebp]
	cmp	DWORD PTR [eax+32], 1
	jl	SHORT $LN17@allocate_t@3
	mov	eax, DWORD PTR _top_most_mipinfo$68983[ebp]
	cmp	DWORD PTR [eax+32], 32768		; 00008000H
	ja	SHORT $LN17@allocate_t@3
	mov	eax, DWORD PTR _top_most_mipinfo$68983[ebp]
	cmp	DWORD PTR [eax+28], 1
	jl	SHORT $LN17@allocate_t@3
	mov	eax, DWORD PTR _top_most_mipinfo$68983[ebp]
	cmp	DWORD PTR [eax+28], 32768		; 00008000H
	jbe	SHORT $LN18@allocate_t@3
$LN17@allocate_t@3:

; 642  : 		{
; 643  : 			return P_INVALID_VALUE;

	mov	eax, -2					; fffffffeH
	jmp	$LN23@allocate_t@3
$LN18@allocate_t@3:

; 644  : 		}
; 645  : 	}

	jmp	SHORT $LN20@allocate_t@3
$LN19@allocate_t@3:

; 646  : 
; 647  : 
; 648  : 	if (0 == _M_gpu_target)

	mov	eax, DWORD PTR _this$[ebp]
	cmp	DWORD PTR [eax+8], 0
	jne	$LN16@allocate_t@3

; 649  : 	{
; 650  : 		glGenTextures(1,&_M_gpu_target);

	mov	eax, DWORD PTR _this$[ebp]
	add	eax, 8
	mov	esi, esp
	push	eax
	push	1
	call	DWORD PTR __imp__glGenTextures@8
	cmp	esi, esp
	call	__RTC_CheckEsp

; 651  : 		HResult result_ = pecker_opengles_v2_object::get_last_error_code();

	call	?get_last_error_code@pecker_opengles_v2_object@pecker_sdk@@SAJXZ ; pecker_sdk::pecker_opengles_v2_object::get_last_error_code
	mov	DWORD PTR _result_$68987[ebp], eax

; 652  : 		if (P_OK == result_)

	cmp	DWORD PTR _result_$68987[ebp], 0
	jne	$LN15@allocate_t@3

; 653  : 		{
; 654  : 			_M_active_miplevel = 0;

	mov	eax, DWORD PTR _this$[ebp]
	mov	DWORD PTR [eax+24], 0

; 655  : 			for (nINDEX i=0;i<info_count;++i)

	mov	DWORD PTR _i$68989[ebp], 0
	jmp	SHORT $LN14@allocate_t@3
$LN13@allocate_t@3:
	mov	eax, DWORD PTR _i$68989[ebp]
	add	eax, 1
	mov	DWORD PTR _i$68989[ebp], eax
$LN14@allocate_t@3:
	mov	eax, DWORD PTR _i$68989[ebp]
	cmp	eax, DWORD PTR _info_count$[ebp]
	jge	$LN12@allocate_t@3

; 656  : 			{
; 657  : 				const pecker_texture_layer_info& top_most_mipinfo = ptop_most_mipinfo[i];

	mov	eax, DWORD PTR _i$68989[ebp]
	imul	eax, 40					; 00000028H
	add	eax, DWORD PTR _ptop_most_mipinfo$[ebp]
	mov	DWORD PTR _top_most_mipinfo$68993[ebp], eax

; 658  : 				UInt temp_value = top_most_mipinfo._M_height;

	mov	eax, DWORD PTR _top_most_mipinfo$68993[ebp]
	mov	ecx, DWORD PTR [eax+32]
	mov	DWORD PTR _temp_value$68994[ebp], ecx

; 659  : 				UInt temp_miplevel = 0;

	mov	DWORD PTR _temp_miplevel$68995[ebp], 0

; 660  : 				UInt temp_max_miplevel = 0;

	mov	DWORD PTR _temp_max_miplevel$68996[ebp], 0

; 661  : 				_M_texture_info[0] = top_most_mipinfo;

	mov	esi, DWORD PTR _top_most_mipinfo$68993[ebp]
	mov	edi, DWORD PTR _this$[ebp]
	add	edi, 32					; 00000020H
	mov	ecx, 10					; 0000000aH
	rep movsd

; 662  : 				_M_texture_info[1] = top_most_mipinfo;

	mov	esi, DWORD PTR _top_most_mipinfo$68993[ebp]
	mov	edi, DWORD PTR _this$[ebp]
	add	edi, 72					; 00000048H
	mov	ecx, 10					; 0000000aH
	rep movsd

; 663  : 				_M_texture_info[2] = top_most_mipinfo;

	mov	esi, DWORD PTR _top_most_mipinfo$68993[ebp]
	mov	edi, DWORD PTR _this$[ebp]
	add	edi, 112				; 00000070H
	mov	ecx, 10					; 0000000aH
	rep movsd

; 664  : 				_M_texture_info[3] = top_most_mipinfo;

	mov	esi, DWORD PTR _top_most_mipinfo$68993[ebp]
	mov	edi, DWORD PTR _this$[ebp]
	add	edi, 152				; 00000098H
	mov	ecx, 10					; 0000000aH
	rep movsd

; 665  : 				_M_texture_info[4] = top_most_mipinfo;

	mov	esi, DWORD PTR _top_most_mipinfo$68993[ebp]
	mov	edi, DWORD PTR _this$[ebp]
	add	edi, 192				; 000000c0H
	mov	ecx, 10					; 0000000aH
	rep movsd

; 666  : 				_M_texture_info[5] = top_most_mipinfo;

	mov	esi, DWORD PTR _top_most_mipinfo$68993[ebp]
	mov	edi, DWORD PTR _this$[ebp]
	add	edi, 232				; 000000e8H
	mov	ecx, 10					; 0000000aH
	rep movsd

; 667  : 
; 668  : 				// 1621
; 669  : 				temp_value = (temp_value&0x5555) + ((temp_value>>1)&0x5555);     

	mov	eax, DWORD PTR _temp_value$68994[ebp]
	and	eax, 21845				; 00005555H
	mov	ecx, DWORD PTR _temp_value$68994[ebp]
	shr	ecx, 1
	and	ecx, 21845				; 00005555H
	add	eax, ecx
	mov	DWORD PTR _temp_value$68994[ebp], eax

; 670  : 				temp_value = (temp_value&0x3333) + ((temp_value>>2)&0x3333);

	mov	eax, DWORD PTR _temp_value$68994[ebp]
	and	eax, 13107				; 00003333H
	mov	ecx, DWORD PTR _temp_value$68994[ebp]
	shr	ecx, 2
	and	ecx, 13107				; 00003333H
	add	eax, ecx
	mov	DWORD PTR _temp_value$68994[ebp], eax

; 671  : 				temp_value = (temp_value&0x0f0f) + ((temp_value>>4)&0x0f0f);     

	mov	eax, DWORD PTR _temp_value$68994[ebp]
	and	eax, 3855				; 00000f0fH
	mov	ecx, DWORD PTR _temp_value$68994[ebp]
	shr	ecx, 4
	and	ecx, 3855				; 00000f0fH
	add	eax, ecx
	mov	DWORD PTR _temp_value$68994[ebp], eax

; 672  : 				temp_value = (temp_value&0x00ff) + ((temp_value>>8)&0x00ff);     

	mov	eax, DWORD PTR _temp_value$68994[ebp]
	and	eax, 255				; 000000ffH
	mov	ecx, DWORD PTR _temp_value$68994[ebp]
	shr	ecx, 8
	and	ecx, 255				; 000000ffH
	add	eax, ecx
	mov	DWORD PTR _temp_value$68994[ebp], eax

; 673  : 
; 674  : 				// 16211
; 675  : 				temp_value = top_most_mipinfo._M_height;

	mov	eax, DWORD PTR _top_most_mipinfo$68993[ebp]
	mov	ecx, DWORD PTR [eax+32]
	mov	DWORD PTR _temp_value$68994[ebp], ecx

; 676  : 				temp_miplevel = 1;

	mov	DWORD PTR _temp_miplevel$68995[ebp], 1

; 677  : 				if ((temp_value >> 8) == 0) {temp_miplevel = temp_miplevel +8; temp_value = temp_value <<8;}

	mov	eax, DWORD PTR _temp_value$68994[ebp]
	shr	eax, 8
	test	eax, eax
	jne	SHORT $LN11@allocate_t@3
	mov	eax, DWORD PTR _temp_miplevel$68995[ebp]
	add	eax, 8
	mov	DWORD PTR _temp_miplevel$68995[ebp], eax
	mov	eax, DWORD PTR _temp_value$68994[ebp]
	shl	eax, 8
	mov	DWORD PTR _temp_value$68994[ebp], eax
$LN11@allocate_t@3:

; 678  : 				if ((temp_value >> 12) == 0) {temp_miplevel = temp_miplevel + 4; temp_value = temp_value << 4;}

	mov	eax, DWORD PTR _temp_value$68994[ebp]
	shr	eax, 12					; 0000000cH
	test	eax, eax
	jne	SHORT $LN10@allocate_t@3
	mov	eax, DWORD PTR _temp_miplevel$68995[ebp]
	add	eax, 4
	mov	DWORD PTR _temp_miplevel$68995[ebp], eax
	mov	eax, DWORD PTR _temp_value$68994[ebp]
	shl	eax, 4
	mov	DWORD PTR _temp_value$68994[ebp], eax
$LN10@allocate_t@3:

; 679  : 				if ((temp_value >> 14) == 0) {temp_miplevel = temp_miplevel + 2; temp_value = temp_value << 2;}

	mov	eax, DWORD PTR _temp_value$68994[ebp]
	shr	eax, 14					; 0000000eH
	test	eax, eax
	jne	SHORT $LN9@allocate_t@3
	mov	eax, DWORD PTR _temp_miplevel$68995[ebp]
	add	eax, 2
	mov	DWORD PTR _temp_miplevel$68995[ebp], eax
	mov	eax, DWORD PTR _temp_value$68994[ebp]
	shl	eax, 2
	mov	DWORD PTR _temp_value$68994[ebp], eax
$LN9@allocate_t@3:

; 680  : 				temp_miplevel = 16 - (temp_miplevel - (temp_value >> 15));

	mov	eax, DWORD PTR _temp_value$68994[ebp]
	shr	eax, 15					; 0000000fH
	mov	ecx, DWORD PTR _temp_miplevel$68995[ebp]
	sub	ecx, eax
	mov	edx, 16					; 00000010H
	sub	edx, ecx
	mov	DWORD PTR _temp_miplevel$68995[ebp], edx

; 681  : 				temp_max_miplevel = temp_miplevel;

	mov	eax, DWORD PTR _temp_miplevel$68995[ebp]
	mov	DWORD PTR _temp_max_miplevel$68996[ebp], eax

; 682  : 
; 683  : 				// 2N211
; 684  : 				if ( 1 < temp_value)

	cmp	DWORD PTR _temp_value$68994[ebp], 1
	jbe	SHORT $LN8@allocate_t@3

; 685  : 				{
; 686  : 					_M_texture_info[i]._M_height = 1 << temp_miplevel;

	mov	eax, 1
	mov	ecx, DWORD PTR _temp_miplevel$68995[ebp]
	shl	eax, cl
	mov	ecx, DWORD PTR _i$68989[ebp]
	imul	ecx, 40					; 00000028H
	mov	edx, DWORD PTR _this$[ebp]
	mov	DWORD PTR [edx+ecx+64], eax
$LN8@allocate_t@3:

; 687  : 				}
; 688  : 
; 689  : 				temp_value = top_most_mipinfo._M_width;

	mov	eax, DWORD PTR _top_most_mipinfo$68993[ebp]
	mov	ecx, DWORD PTR [eax+28]
	mov	DWORD PTR _temp_value$68994[ebp], ecx

; 690  : 				// 1621
; 691  : 				temp_value = (temp_value&0x5555) + ((temp_value>>1)&0x5555);     

	mov	eax, DWORD PTR _temp_value$68994[ebp]
	and	eax, 21845				; 00005555H
	mov	ecx, DWORD PTR _temp_value$68994[ebp]
	shr	ecx, 1
	and	ecx, 21845				; 00005555H
	add	eax, ecx
	mov	DWORD PTR _temp_value$68994[ebp], eax

; 692  : 				temp_value = (temp_value&0x3333) + ((temp_value>>2)&0x3333);

	mov	eax, DWORD PTR _temp_value$68994[ebp]
	and	eax, 13107				; 00003333H
	mov	ecx, DWORD PTR _temp_value$68994[ebp]
	shr	ecx, 2
	and	ecx, 13107				; 00003333H
	add	eax, ecx
	mov	DWORD PTR _temp_value$68994[ebp], eax

; 693  : 				temp_value = (temp_value&0x0f0f) + ((temp_value>>4)&0x0f0f);     

	mov	eax, DWORD PTR _temp_value$68994[ebp]
	and	eax, 3855				; 00000f0fH
	mov	ecx, DWORD PTR _temp_value$68994[ebp]
	shr	ecx, 4
	and	ecx, 3855				; 00000f0fH
	add	eax, ecx
	mov	DWORD PTR _temp_value$68994[ebp], eax

; 694  : 				temp_value = (temp_value&0x00ff) + ((temp_value>>8)&0x00ff);     

	mov	eax, DWORD PTR _temp_value$68994[ebp]
	and	eax, 255				; 000000ffH
	mov	ecx, DWORD PTR _temp_value$68994[ebp]
	shr	ecx, 8
	and	ecx, 255				; 000000ffH
	add	eax, ecx
	mov	DWORD PTR _temp_value$68994[ebp], eax

; 695  : 
; 696  : 				// 16211
; 697  : 				temp_value = top_most_mipinfo._M_width;

	mov	eax, DWORD PTR _top_most_mipinfo$68993[ebp]
	mov	ecx, DWORD PTR [eax+28]
	mov	DWORD PTR _temp_value$68994[ebp], ecx

; 698  : 				temp_miplevel = 1;

	mov	DWORD PTR _temp_miplevel$68995[ebp], 1

; 699  : 				if ((temp_value >> 8) == 0) {temp_miplevel = temp_miplevel +8; temp_value = temp_value <<8;}

	mov	eax, DWORD PTR _temp_value$68994[ebp]
	shr	eax, 8
	test	eax, eax
	jne	SHORT $LN7@allocate_t@3
	mov	eax, DWORD PTR _temp_miplevel$68995[ebp]
	add	eax, 8
	mov	DWORD PTR _temp_miplevel$68995[ebp], eax
	mov	eax, DWORD PTR _temp_value$68994[ebp]
	shl	eax, 8
	mov	DWORD PTR _temp_value$68994[ebp], eax
$LN7@allocate_t@3:

; 700  : 				if ((temp_value >> 12) == 0) {temp_miplevel = temp_miplevel + 4; temp_value = temp_value << 4;}

	mov	eax, DWORD PTR _temp_value$68994[ebp]
	shr	eax, 12					; 0000000cH
	test	eax, eax
	jne	SHORT $LN6@allocate_t@3
	mov	eax, DWORD PTR _temp_miplevel$68995[ebp]
	add	eax, 4
	mov	DWORD PTR _temp_miplevel$68995[ebp], eax
	mov	eax, DWORD PTR _temp_value$68994[ebp]
	shl	eax, 4
	mov	DWORD PTR _temp_value$68994[ebp], eax
$LN6@allocate_t@3:

; 701  : 				if ((temp_value >> 14) == 0) {temp_miplevel = temp_miplevel + 2; temp_value = temp_value << 2;}

	mov	eax, DWORD PTR _temp_value$68994[ebp]
	shr	eax, 14					; 0000000eH
	test	eax, eax
	jne	SHORT $LN5@allocate_t@3
	mov	eax, DWORD PTR _temp_miplevel$68995[ebp]
	add	eax, 2
	mov	DWORD PTR _temp_miplevel$68995[ebp], eax
	mov	eax, DWORD PTR _temp_value$68994[ebp]
	shl	eax, 2
	mov	DWORD PTR _temp_value$68994[ebp], eax
$LN5@allocate_t@3:

; 702  : 				temp_miplevel = 16 - (temp_miplevel - (temp_value >> 15));

	mov	eax, DWORD PTR _temp_value$68994[ebp]
	shr	eax, 15					; 0000000fH
	mov	ecx, DWORD PTR _temp_miplevel$68995[ebp]
	sub	ecx, eax
	mov	edx, 16					; 00000010H
	sub	edx, ecx
	mov	DWORD PTR _temp_miplevel$68995[ebp], edx

; 703  : 
; 704  : 				if (temp_miplevel >  temp_max_miplevel)

	mov	eax, DWORD PTR _temp_miplevel$68995[ebp]
	cmp	eax, DWORD PTR _temp_max_miplevel$68996[ebp]
	jbe	SHORT $LN4@allocate_t@3

; 705  : 				{
; 706  : 					temp_max_miplevel = temp_miplevel;

	mov	eax, DWORD PTR _temp_miplevel$68995[ebp]
	mov	DWORD PTR _temp_max_miplevel$68996[ebp], eax
$LN4@allocate_t@3:

; 707  : 				}
; 708  : 
; 709  : 				// 2N211
; 710  : 				if ( 1 < temp_value)

	cmp	DWORD PTR _temp_value$68994[ebp], 1
	jbe	SHORT $LN3@allocate_t@3

; 711  : 				{
; 712  : 					_M_texture_info[i]._M_width = 1 << temp_miplevel;

	mov	eax, 1
	mov	ecx, DWORD PTR _temp_miplevel$68995[ebp]
	shl	eax, cl
	mov	ecx, DWORD PTR _i$68989[ebp]
	imul	ecx, 40					; 00000028H
	mov	edx, DWORD PTR _this$[ebp]
	mov	DWORD PTR [edx+ecx+60], eax
$LN3@allocate_t@3:

; 713  : 				}
; 714  : 
; 715  : 				if (temp_max_miplevel > _M_mip_level_count)

	mov	eax, DWORD PTR _this$[ebp]
	mov	ecx, DWORD PTR _temp_max_miplevel$68996[ebp]
	cmp	ecx, DWORD PTR [eax+12]
	jbe	SHORT $LN2@allocate_t@3

; 716  : 				{
; 717  : 					_M_mip_level_count = temp_max_miplevel;

	mov	eax, DWORD PTR _this$[ebp]
	mov	ecx, DWORD PTR _temp_max_miplevel$68996[ebp]
	mov	DWORD PTR [eax+12], ecx
$LN2@allocate_t@3:

; 718  : 				}
; 719  : 				
; 720  : 			}

	jmp	$LN13@allocate_t@3
$LN12@allocate_t@3:

; 721  : 	
; 722  : 			_M_mip_tmp_info = _M_texture_info[0];

	mov	esi, DWORD PTR _this$[ebp]
	add	esi, 32					; 00000020H
	mov	edi, DWORD PTR _this$[ebp]
	add	edi, 272				; 00000110H
	mov	ecx, 10					; 0000000aH
	rep movsd
$LN15@allocate_t@3:

; 723  : 		}
; 724  : 		return result_;

	mov	eax, DWORD PTR _result_$68987[ebp]
	jmp	SHORT $LN23@allocate_t@3

; 725  : 	}
; 726  : 	else

	jmp	SHORT $LN23@allocate_t@3
$LN16@allocate_t@3:

; 727  : 	{
; 728  : 		return P_UNIQUE_ERR;

	mov	eax, -4					; fffffffcH
$LN23@allocate_t@3:

; 729  : 	}
; 730  : }

	pop	edi
	pop	esi
	pop	ebx
	add	esp, 300				; 0000012cH
	cmp	ebp, esp
	call	__RTC_CheckEsp
	mov	esp, ebp
	pop	ebp
	ret	8
?allocate_texture_from_gpu_ram@pecker_texture_cube_gles2@pecker_sdk@@UAEJPBUpecker_texture_layer_info@2@H@Z ENDP ; pecker_sdk::pecker_texture_cube_gles2::allocate_texture_from_gpu_ram
; Function compile flags: /Odtp /RTCsu /ZI
_TEXT	ENDS
;	COMDAT ?set_active_miplevel@pecker_texture_cube_gles2@pecker_sdk@@UAEJI@Z
_TEXT	SEGMENT
_this$ = -8						; size = 4
_miplevel$ = 8						; size = 4
?set_active_miplevel@pecker_texture_cube_gles2@pecker_sdk@@UAEJI@Z PROC ; pecker_sdk::pecker_texture_cube_gles2::set_active_miplevel, COMDAT
; _this$ = ecx

; 733  : {

	push	ebp
	mov	ebp, esp
	sub	esp, 204				; 000000ccH
	push	ebx
	push	esi
	push	edi
	push	ecx
	lea	edi, DWORD PTR [ebp-204]
	mov	ecx, 51					; 00000033H
	mov	eax, -858993460				; ccccccccH
	rep stosd
	pop	ecx
	mov	DWORD PTR _this$[ebp], ecx

; 734  : 	if (miplevel < _M_mip_level_count)

	mov	eax, DWORD PTR _this$[ebp]
	mov	ecx, DWORD PTR _miplevel$[ebp]
	cmp	ecx, DWORD PTR [eax+12]
	jae	SHORT $LN1@set_active@3

; 735  : 	{
; 736  : 		_M_active_miplevel = miplevel;

	mov	eax, DWORD PTR _this$[ebp]
	mov	ecx, DWORD PTR _miplevel$[ebp]
	mov	DWORD PTR [eax+24], ecx

; 737  : 		return P_OK;

	xor	eax, eax
	jmp	SHORT $LN2@set_active@3
$LN1@set_active@3:

; 738  : 	}
; 739  : 	return P_INVALID_VALUE;

	mov	eax, -2					; fffffffeH
$LN2@set_active@3:

; 740  : }

	pop	edi
	pop	esi
	pop	ebx
	mov	esp, ebp
	pop	ebp
	ret	4
?set_active_miplevel@pecker_texture_cube_gles2@pecker_sdk@@UAEJI@Z ENDP ; pecker_sdk::pecker_texture_cube_gles2::set_active_miplevel
; Function compile flags: /Odtp /RTCsu /ZI
_TEXT	ENDS
;	COMDAT ?get_active_miplevel@pecker_texture_cube_gles2@pecker_sdk@@UBEIXZ
_TEXT	SEGMENT
_this$ = -8						; size = 4
?get_active_miplevel@pecker_texture_cube_gles2@pecker_sdk@@UBEIXZ PROC ; pecker_sdk::pecker_texture_cube_gles2::get_active_miplevel, COMDAT
; _this$ = ecx

; 743  : {

	push	ebp
	mov	ebp, esp
	sub	esp, 204				; 000000ccH
	push	ebx
	push	esi
	push	edi
	push	ecx
	lea	edi, DWORD PTR [ebp-204]
	mov	ecx, 51					; 00000033H
	mov	eax, -858993460				; ccccccccH
	rep stosd
	pop	ecx
	mov	DWORD PTR _this$[ebp], ecx

; 744  : 	return _M_active_miplevel;

	mov	eax, DWORD PTR _this$[ebp]
	mov	eax, DWORD PTR [eax+24]

; 745  : }

	pop	edi
	pop	esi
	pop	ebx
	mov	esp, ebp
	pop	ebp
	ret	0
?get_active_miplevel@pecker_texture_cube_gles2@pecker_sdk@@UBEIXZ ENDP ; pecker_sdk::pecker_texture_cube_gles2::get_active_miplevel
; Function compile flags: /Odtp /RTCsu /ZI
_TEXT	ENDS
;	COMDAT ?set_render_type@pecker_texture_cube_gles2@pecker_sdk@@UAEJI@Z
_TEXT	SEGMENT
_this$ = -8						; size = 4
_attach_type$ = 8					; size = 4
?set_render_type@pecker_texture_cube_gles2@pecker_sdk@@UAEJI@Z PROC ; pecker_sdk::pecker_texture_cube_gles2::set_render_type, COMDAT
; _this$ = ecx

; 748  : {

	push	ebp
	mov	ebp, esp
	sub	esp, 204				; 000000ccH
	push	ebx
	push	esi
	push	edi
	push	ecx
	lea	edi, DWORD PTR [ebp-204]
	mov	ecx, 51					; 00000033H
	mov	eax, -858993460				; ccccccccH
	rep stosd
	pop	ecx
	mov	DWORD PTR _this$[ebp], ecx

; 749  : 	if (attach_type >= 0 && attach_type < STENCIL_BUFFER_TYPE)

	cmp	DWORD PTR _attach_type$[ebp], 0
	jb	SHORT $LN2@set_render@2
	cmp	DWORD PTR _attach_type$[ebp], 2
	jae	SHORT $LN2@set_render@2

; 750  : 	{
; 751  : 		_M_render_type = attach_type;

	mov	eax, DWORD PTR _this$[ebp]
	mov	ecx, DWORD PTR _attach_type$[ebp]
	mov	DWORD PTR [eax+20], ecx

; 752  : 		return P_OK;

	xor	eax, eax
	jmp	SHORT $LN3@set_render@2

; 753  : 	}
; 754  : 	else

	jmp	SHORT $LN3@set_render@2
$LN2@set_render@2:

; 755  : 	{
; 756  : 		return P_INVALID_VALUE;

	mov	eax, -2					; fffffffeH
$LN3@set_render@2:

; 757  : 	}
; 758  : 
; 759  : }

	pop	edi
	pop	esi
	pop	ebx
	mov	esp, ebp
	pop	ebp
	ret	4
?set_render_type@pecker_texture_cube_gles2@pecker_sdk@@UAEJI@Z ENDP ; pecker_sdk::pecker_texture_cube_gles2::set_render_type
; Function compile flags: /Odtp /RTCsu /ZI
_TEXT	ENDS
;	COMDAT ?get_render_type@pecker_texture_cube_gles2@pecker_sdk@@UBEIXZ
_TEXT	SEGMENT
_this$ = -8						; size = 4
?get_render_type@pecker_texture_cube_gles2@pecker_sdk@@UBEIXZ PROC ; pecker_sdk::pecker_texture_cube_gles2::get_render_type, COMDAT
; _this$ = ecx

; 761  : {

	push	ebp
	mov	ebp, esp
	sub	esp, 204				; 000000ccH
	push	ebx
	push	esi
	push	edi
	push	ecx
	lea	edi, DWORD PTR [ebp-204]
	mov	ecx, 51					; 00000033H
	mov	eax, -858993460				; ccccccccH
	rep stosd
	pop	ecx
	mov	DWORD PTR _this$[ebp], ecx

; 762  : 	return _M_render_type;

	mov	eax, DWORD PTR _this$[ebp]
	mov	eax, DWORD PTR [eax+20]

; 763  : }

	pop	edi
	pop	esi
	pop	ebx
	mov	esp, ebp
	pop	ebp
	ret	0
?get_render_type@pecker_texture_cube_gles2@pecker_sdk@@UBEIXZ ENDP ; pecker_sdk::pecker_texture_cube_gles2::get_render_type
_TEXT	ENDS
PUBLIC	?get_object_location@pecker_texture_cube_gles2@pecker_sdk@@UBEIXZ ; pecker_sdk::pecker_texture_cube_gles2::get_object_location
; Function compile flags: /Odtp /RTCsu /ZI
;	COMDAT ?get_object_location@pecker_texture_cube_gles2@pecker_sdk@@UBEIXZ
_TEXT	SEGMENT
_this$ = -8						; size = 4
?get_object_location@pecker_texture_cube_gles2@pecker_sdk@@UBEIXZ PROC ; pecker_sdk::pecker_texture_cube_gles2::get_object_location, COMDAT
; _this$ = ecx

; 766  : {

	push	ebp
	mov	ebp, esp
	sub	esp, 204				; 000000ccH
	push	ebx
	push	esi
	push	edi
	push	ecx
	lea	edi, DWORD PTR [ebp-204]
	mov	ecx, 51					; 00000033H
	mov	eax, -858993460				; ccccccccH
	rep stosd
	pop	ecx
	mov	DWORD PTR _this$[ebp], ecx

; 767  : 	return _M_gpu_target;

	mov	eax, DWORD PTR _this$[ebp]
	mov	eax, DWORD PTR [eax-436]

; 768  : }

	pop	edi
	pop	esi
	pop	ebx
	mov	esp, ebp
	pop	ebp
	ret	0
?get_object_location@pecker_texture_cube_gles2@pecker_sdk@@UBEIXZ ENDP ; pecker_sdk::pecker_texture_cube_gles2::get_object_location
; Function compile flags: /Odtp /RTCsu /ZI
_TEXT	ENDS
;	COMDAT ?get_object_location@pecker_texture_cube_gles2@pecker_sdk@@$4PPPPPPPM@A@BEIXZ
_TEXT	SEGMENT
?get_object_location@pecker_texture_cube_gles2@pecker_sdk@@$4PPPPPPPM@A@BEIXZ PROC ; pecker_sdk::pecker_texture_cube_gles2::get_object_location, COMDAT
	sub	ecx, DWORD PTR [ecx-4]
	jmp	?get_object_location@pecker_texture_cube_gles2@pecker_sdk@@UBEIXZ ; pecker_sdk::pecker_texture_cube_gles2::get_object_location
?get_object_location@pecker_texture_cube_gles2@pecker_sdk@@$4PPPPPPPM@A@BEIXZ ENDP ; pecker_sdk::pecker_texture_cube_gles2::get_object_location
; Function compile flags: /Odtp /RTCsu /ZI
_TEXT	ENDS
;	COMDAT ??_Epecker_texture_cube_gles2@pecker_sdk@@$4PPPPPPPM@BLM@AEPAXI@Z
_TEXT	SEGMENT
??_Epecker_texture_cube_gles2@pecker_sdk@@$4PPPPPPPM@BLM@AEPAXI@Z PROC ; pecker_sdk::pecker_texture_cube_gles2::`vector deleting destructor', COMDAT
	sub	ecx, DWORD PTR [ecx-4]
	sub	ecx, 444				; 000001bcH
	jmp	??_Epecker_texture_cube_gles2@pecker_sdk@@UAEPAXI@Z
??_Epecker_texture_cube_gles2@pecker_sdk@@$4PPPPPPPM@BLM@AEPAXI@Z ENDP ; pecker_sdk::pecker_texture_cube_gles2::`vector deleting destructor'
; Function compile flags: /Odtp /RTCsu /ZI
_TEXT	ENDS
;	COMDAT ??_Epecker_texture_2d_gles2@pecker_sdk@@$4PPPPPPPM@PA@AEPAXI@Z
_TEXT	SEGMENT
??_Epecker_texture_2d_gles2@pecker_sdk@@$4PPPPPPPM@PA@AEPAXI@Z PROC ; pecker_sdk::pecker_texture_2d_gles2::`vector deleting destructor', COMDAT
	sub	ecx, DWORD PTR [ecx-4]
	sub	ecx, 240				; 000000f0H
	jmp	??_Epecker_texture_2d_gles2@pecker_sdk@@UAEPAXI@Z
??_Epecker_texture_2d_gles2@pecker_sdk@@$4PPPPPPPM@PA@AEPAXI@Z ENDP ; pecker_sdk::pecker_texture_2d_gles2::`vector deleting destructor'
; Function compile flags: /Odtp /RTCsu /ZI
_TEXT	ENDS
;	COMDAT ?get_object_location@pecker_texture_2d_gles2@pecker_sdk@@$4PPPPPPPM@A@BEIXZ
_TEXT	SEGMENT
?get_object_location@pecker_texture_2d_gles2@pecker_sdk@@$4PPPPPPPM@A@BEIXZ PROC ; pecker_sdk::pecker_texture_2d_gles2::get_object_location, COMDAT
	sub	ecx, DWORD PTR [ecx-4]
	jmp	?get_object_location@pecker_texture_2d_gles2@pecker_sdk@@UBEIXZ ; pecker_sdk::pecker_texture_2d_gles2::get_object_location
?get_object_location@pecker_texture_2d_gles2@pecker_sdk@@$4PPPPPPPM@A@BEIXZ ENDP ; pecker_sdk::pecker_texture_2d_gles2::get_object_location
_TEXT	ENDS
END
