; Listing generated by Microsoft (R) Optimizing Compiler Version 16.00.40219.01 

	TITLE	F:\codes\pecker_framework_git\pecker_src\pecker_framework\render\render_system\pecker_render_application.cpp
	.686P
	.XMM
	include listing.inc
	.model	flat

INCLUDELIB MSVCRTD
INCLUDELIB OLDNAMES

PUBLIC	??_7pecker_render_program_app@pecker_sdk@@6B@	; pecker_sdk::pecker_render_program_app::`vftable'
PUBLIC	??1pecker_render_program_app@pecker_sdk@@UAE@XZ	; pecker_sdk::pecker_render_program_app::~pecker_render_program_app
PUBLIC	??_R4pecker_render_program_app@pecker_sdk@@6B@	; pecker_sdk::pecker_render_program_app::`RTTI Complete Object Locator'
PUBLIC	??_R0?AVpecker_render_program_app@pecker_sdk@@@8 ; pecker_sdk::pecker_render_program_app `RTTI Type Descriptor'
PUBLIC	??_R3pecker_render_program_app@pecker_sdk@@8	; pecker_sdk::pecker_render_program_app::`RTTI Class Hierarchy Descriptor'
PUBLIC	??_R2pecker_render_program_app@pecker_sdk@@8	; pecker_sdk::pecker_render_program_app::`RTTI Base Class Array'
PUBLIC	??_R1A@?0A@EA@pecker_render_program_app@pecker_sdk@@8 ; pecker_sdk::pecker_render_program_app::`RTTI Base Class Descriptor at (0,-1,0,64)'
EXTRN	__RTC_Shutdown:PROC
EXTRN	__RTC_InitBase:PROC
EXTRN	??_7type_info@@6B@:QWORD			; type_info::`vftable'
EXTRN	??_Epecker_render_program_app@pecker_sdk@@UAEPAXI@Z:PROC ; pecker_sdk::pecker_render_program_app::`vector deleting destructor'
;	COMDAT ??_R1A@?0A@EA@pecker_render_program_app@pecker_sdk@@8
; File f:\codes\pecker_framework_git\pecker_src\pecker_framework\render\render_system\pecker_render_application.cpp
rdata$r	SEGMENT
??_R1A@?0A@EA@pecker_render_program_app@pecker_sdk@@8 DD FLAT:??_R0?AVpecker_render_program_app@pecker_sdk@@@8 ; pecker_sdk::pecker_render_program_app::`RTTI Base Class Descriptor at (0,-1,0,64)'
	DD	00H
	DD	00H
	DD	0ffffffffH
	DD	00H
	DD	040H
	DD	FLAT:??_R3pecker_render_program_app@pecker_sdk@@8
rdata$r	ENDS
;	COMDAT ??_R2pecker_render_program_app@pecker_sdk@@8
rdata$r	SEGMENT
??_R2pecker_render_program_app@pecker_sdk@@8 DD FLAT:??_R1A@?0A@EA@pecker_render_program_app@pecker_sdk@@8 ; pecker_sdk::pecker_render_program_app::`RTTI Base Class Array'
rdata$r	ENDS
;	COMDAT ??_R3pecker_render_program_app@pecker_sdk@@8
rdata$r	SEGMENT
??_R3pecker_render_program_app@pecker_sdk@@8 DD 00H	; pecker_sdk::pecker_render_program_app::`RTTI Class Hierarchy Descriptor'
	DD	00H
	DD	01H
	DD	FLAT:??_R2pecker_render_program_app@pecker_sdk@@8
rdata$r	ENDS
;	COMDAT ??_R0?AVpecker_render_program_app@pecker_sdk@@@8
_DATA	SEGMENT
??_R0?AVpecker_render_program_app@pecker_sdk@@@8 DD FLAT:??_7type_info@@6B@ ; pecker_sdk::pecker_render_program_app `RTTI Type Descriptor'
	DD	00H
	DB	'.?AVpecker_render_program_app@pecker_sdk@@', 00H
_DATA	ENDS
;	COMDAT ??_R4pecker_render_program_app@pecker_sdk@@6B@
rdata$r	SEGMENT
??_R4pecker_render_program_app@pecker_sdk@@6B@ DD 00H	; pecker_sdk::pecker_render_program_app::`RTTI Complete Object Locator'
	DD	00H
	DD	00H
	DD	FLAT:??_R0?AVpecker_render_program_app@pecker_sdk@@@8
	DD	FLAT:??_R3pecker_render_program_app@pecker_sdk@@8
rdata$r	ENDS
;	COMDAT ??_7pecker_render_program_app@pecker_sdk@@6B@
CONST	SEGMENT
??_7pecker_render_program_app@pecker_sdk@@6B@ DD FLAT:??_R4pecker_render_program_app@pecker_sdk@@6B@ ; pecker_sdk::pecker_render_program_app::`vftable'
	DD	FLAT:??_Epecker_render_program_app@pecker_sdk@@UAEPAXI@Z
CONST	ENDS
;	COMDAT rtc$TMZ
rtc$TMZ	SEGMENT
__RTC_Shutdown.rtc$TMZ DD FLAT:__RTC_Shutdown
rtc$TMZ	ENDS
;	COMDAT rtc$IMZ
rtc$IMZ	SEGMENT
__RTC_InitBase.rtc$IMZ DD FLAT:__RTC_InitBase
; Function compile flags: /Odtp /RTCsu /ZI
rtc$IMZ	ENDS
;	COMDAT ??1pecker_render_program_app@pecker_sdk@@UAE@XZ
_TEXT	SEGMENT
_this$ = -8						; size = 4
??1pecker_render_program_app@pecker_sdk@@UAE@XZ PROC	; pecker_sdk::pecker_render_program_app::~pecker_render_program_app, COMDAT
; _this$ = ecx

; 15   : {

	push	ebp
	mov	ebp, esp
	sub	esp, 204				; 000000ccH
	push	ebx
	push	esi
	push	edi
	push	ecx
	lea	edi, DWORD PTR [ebp-204]
	mov	ecx, 51					; 00000033H
	mov	eax, -858993460				; ccccccccH
	rep stosd
	pop	ecx
	mov	DWORD PTR _this$[ebp], ecx
	mov	eax, DWORD PTR _this$[ebp]
	mov	DWORD PTR [eax], OFFSET ??_7pecker_render_program_app@pecker_sdk@@6B@

; 16   : 
; 17   : }

	pop	edi
	pop	esi
	pop	ebx
	mov	esp, ebp
	pop	ebp
	ret	0
??1pecker_render_program_app@pecker_sdk@@UAE@XZ ENDP	; pecker_sdk::pecker_render_program_app::~pecker_render_program_app
_TEXT	ENDS
EXTRN	??3@YAXPAX@Z:PROC				; operator delete
EXTRN	__RTC_CheckEsp:PROC
; Function compile flags: /Odtp /RTCsu /ZI
;	COMDAT ??_Gpecker_render_program_app@pecker_sdk@@UAEPAXI@Z
_TEXT	SEGMENT
_this$ = -8						; size = 4
___flags$ = 8						; size = 4
??_Gpecker_render_program_app@pecker_sdk@@UAEPAXI@Z PROC ; pecker_sdk::pecker_render_program_app::`scalar deleting destructor', COMDAT
; _this$ = ecx
	push	ebp
	mov	ebp, esp
	sub	esp, 204				; 000000ccH
	push	ebx
	push	esi
	push	edi
	push	ecx
	lea	edi, DWORD PTR [ebp-204]
	mov	ecx, 51					; 00000033H
	mov	eax, -858993460				; ccccccccH
	rep stosd
	pop	ecx
	mov	DWORD PTR _this$[ebp], ecx
	mov	ecx, DWORD PTR _this$[ebp]
	call	??1pecker_render_program_app@pecker_sdk@@UAE@XZ ; pecker_sdk::pecker_render_program_app::~pecker_render_program_app
	mov	eax, DWORD PTR ___flags$[ebp]
	and	eax, 1
	je	SHORT $LN1@scalar
	mov	eax, DWORD PTR _this$[ebp]
	push	eax
	call	??3@YAXPAX@Z				; operator delete
	add	esp, 4
$LN1@scalar:
	mov	eax, DWORD PTR _this$[ebp]
	pop	edi
	pop	esi
	pop	ebx
	add	esp, 204				; 000000ccH
	cmp	ebp, esp
	call	__RTC_CheckEsp
	mov	esp, ebp
	pop	ebp
	ret	4
??_Gpecker_render_program_app@pecker_sdk@@UAEPAXI@Z ENDP ; pecker_sdk::pecker_render_program_app::`scalar deleting destructor'
_TEXT	ENDS
PUBLIC	?render_process@pecker_render_program_app@pecker_sdk@@SAJPAUIpecker_render_application@2@@Z ; pecker_sdk::pecker_render_program_app::render_process
; Function compile flags: /Odtp /RTCsu /ZI
;	COMDAT ?render_process@pecker_render_program_app@pecker_sdk@@SAJPAUIpecker_render_application@2@@Z
_TEXT	SEGMENT
_prender_app$ = 8					; size = 4
?render_process@pecker_render_program_app@pecker_sdk@@SAJPAUIpecker_render_application@2@@Z PROC ; pecker_sdk::pecker_render_program_app::render_process, COMDAT

; 19   : {

	push	ebp
	mov	ebp, esp
	sub	esp, 192				; 000000c0H
	push	ebx
	push	esi
	push	edi
	lea	edi, DWORD PTR [ebp-192]
	mov	ecx, 48					; 00000030H
	mov	eax, -858993460				; ccccccccH
	rep stosd

; 20   : 	if (prender_app)

	cmp	DWORD PTR _prender_app$[ebp], 0
	je	SHORT $LN2@render_pro

; 21   : 	{
; 22   : 		return prender_app->render();

	mov	eax, DWORD PTR _prender_app$[ebp]
	mov	edx, DWORD PTR [eax]
	mov	esi, esp
	mov	ecx, DWORD PTR _prender_app$[ebp]
	mov	eax, DWORD PTR [edx+4]
	call	eax
	cmp	esi, esp
	call	__RTC_CheckEsp
	jmp	SHORT $LN3@render_pro

; 23   : 	}
; 24   : 	else

	jmp	SHORT $LN3@render_pro
$LN2@render_pro:

; 25   : 	{
; 26   : 		return P_ERR;

	or	eax, -1
$LN3@render_pro:

; 27   : 	}
; 28   : 	
; 29   : }

	pop	edi
	pop	esi
	pop	ebx
	add	esp, 192				; 000000c0H
	cmp	ebp, esp
	call	__RTC_CheckEsp
	mov	esp, ebp
	pop	ebp
	ret	0
?render_process@pecker_render_program_app@pecker_sdk@@SAJPAUIpecker_render_application@2@@Z ENDP ; pecker_sdk::pecker_render_program_app::render_process
_TEXT	ENDS
END
