; Listing generated by Microsoft (R) Optimizing Compiler Version 16.00.40219.01 

	TITLE	F:\codes\pecker_framework_git\pecker_src\pecker_framework\render\render_system\opengles\pecker_render_buffer_gl.cpp
	.686P
	.XMM
	include listing.inc
	.model	flat

INCLUDELIB MSVCRTD
INCLUDELIB OLDNAMES

CONST	SEGMENT
_COLOR_BUFFER_FORMAT_TABLE_GLES2 DD 08d62H
	DD	08056H
	DD	08057H
	DD	08051H
	DD	08058H
_DEPTH_BUFFER_FORMAT_TABLE_GLES2 DD 081a5H
	DD	081a6H
	DD	081a7H
	DD	088f0H
_STENCIL_BUFFER_FORMAT_TABLE_GLES2 DD 08d48H
	DD	08d46H
	DD	08d47H
	DD	088f0H
CONST	ENDS
PUBLIC	??_7pecker_color_buffer_gles2@pecker_sdk@@6Bpecker_opengles_v2_object@1@@ ; pecker_sdk::pecker_color_buffer_gles2::`vftable'
PUBLIC	??_7pecker_color_buffer_gles2@pecker_sdk@@6BIpecker_color_buffer@1@@ ; pecker_sdk::pecker_color_buffer_gles2::`vftable'
PUBLIC	??0Ipecker_color_buffer@pecker_sdk@@QAE@XZ	; pecker_sdk::Ipecker_color_buffer::Ipecker_color_buffer
PUBLIC	??0pecker_opengles_v2_object@pecker_sdk@@QAE@XZ	; pecker_sdk::pecker_opengles_v2_object::pecker_opengles_v2_object
PUBLIC	??_8pecker_color_buffer_gles2@pecker_sdk@@7B@	; pecker_sdk::pecker_color_buffer_gles2::`vbtable'
PUBLIC	??0pecker_color_buffer_gles2@pecker_sdk@@QAE@XZ	; pecker_sdk::pecker_color_buffer_gles2::pecker_color_buffer_gles2
PUBLIC	??_R4pecker_color_buffer_gles2@pecker_sdk@@6BIpecker_color_buffer@1@@ ; pecker_sdk::pecker_color_buffer_gles2::`RTTI Complete Object Locator'
PUBLIC	??_R0?AVpecker_color_buffer_gles2@pecker_sdk@@@8 ; pecker_sdk::pecker_color_buffer_gles2 `RTTI Type Descriptor'
PUBLIC	??_R3pecker_color_buffer_gles2@pecker_sdk@@8	; pecker_sdk::pecker_color_buffer_gles2::`RTTI Class Hierarchy Descriptor'
PUBLIC	??_R2pecker_color_buffer_gles2@pecker_sdk@@8	; pecker_sdk::pecker_color_buffer_gles2::`RTTI Base Class Array'
PUBLIC	??_R1A@?0A@EA@pecker_color_buffer_gles2@pecker_sdk@@8 ; pecker_sdk::pecker_color_buffer_gles2::`RTTI Base Class Descriptor at (0,-1,0,64)'
PUBLIC	??_R1A@?0A@EA@Ipecker_color_buffer@pecker_sdk@@8 ; pecker_sdk::Ipecker_color_buffer::`RTTI Base Class Descriptor at (0,-1,0,64)'
PUBLIC	??_R0?AUIpecker_color_buffer@pecker_sdk@@@8	; pecker_sdk::Ipecker_color_buffer `RTTI Type Descriptor'
PUBLIC	??_R3Ipecker_color_buffer@pecker_sdk@@8		; pecker_sdk::Ipecker_color_buffer::`RTTI Class Hierarchy Descriptor'
PUBLIC	??_R2Ipecker_color_buffer@pecker_sdk@@8		; pecker_sdk::Ipecker_color_buffer::`RTTI Base Class Array'
PUBLIC	??_R1A@?0A@EA@Ipecker_render_buffer@pecker_sdk@@8 ; pecker_sdk::Ipecker_render_buffer::`RTTI Base Class Descriptor at (0,-1,0,64)'
PUBLIC	??_R0?AUIpecker_render_buffer@pecker_sdk@@@8	; pecker_sdk::Ipecker_render_buffer `RTTI Type Descriptor'
PUBLIC	??_R3Ipecker_render_buffer@pecker_sdk@@8	; pecker_sdk::Ipecker_render_buffer::`RTTI Class Hierarchy Descriptor'
PUBLIC	??_R2Ipecker_render_buffer@pecker_sdk@@8	; pecker_sdk::Ipecker_render_buffer::`RTTI Base Class Array'
PUBLIC	??_R1A@?0A@EA@Ipecker_frame_buffer_object@pecker_sdk@@8 ; pecker_sdk::Ipecker_frame_buffer_object::`RTTI Base Class Descriptor at (0,-1,0,64)'
PUBLIC	??_R0?AUIpecker_frame_buffer_object@pecker_sdk@@@8 ; pecker_sdk::Ipecker_frame_buffer_object `RTTI Type Descriptor'
PUBLIC	??_R3Ipecker_frame_buffer_object@pecker_sdk@@8	; pecker_sdk::Ipecker_frame_buffer_object::`RTTI Class Hierarchy Descriptor'
PUBLIC	??_R2Ipecker_frame_buffer_object@pecker_sdk@@8	; pecker_sdk::Ipecker_frame_buffer_object::`RTTI Base Class Array'
PUBLIC	??_R1A@33FA@pecker_opengles_v2_object@pecker_sdk@@8 ; pecker_sdk::pecker_opengles_v2_object::`RTTI Base Class Descriptor at (0,4,4,80)'
PUBLIC	??_R0?AVpecker_opengles_v2_object@pecker_sdk@@@8 ; pecker_sdk::pecker_opengles_v2_object `RTTI Type Descriptor'
PUBLIC	??_R3pecker_opengles_v2_object@pecker_sdk@@8	; pecker_sdk::pecker_opengles_v2_object::`RTTI Class Hierarchy Descriptor'
PUBLIC	??_R2pecker_opengles_v2_object@pecker_sdk@@8	; pecker_sdk::pecker_opengles_v2_object::`RTTI Base Class Array'
PUBLIC	??_R1A@?0A@EA@pecker_opengles_v2_object@pecker_sdk@@8 ; pecker_sdk::pecker_opengles_v2_object::`RTTI Base Class Descriptor at (0,-1,0,64)'
PUBLIC	??_R1A@?0A@EA@pecker_render_object@pecker_sdk@@8 ; pecker_sdk::pecker_render_object::`RTTI Base Class Descriptor at (0,-1,0,64)'
PUBLIC	??_R0?AVpecker_render_object@pecker_sdk@@@8	; pecker_sdk::pecker_render_object `RTTI Type Descriptor'
PUBLIC	??_R3pecker_render_object@pecker_sdk@@8		; pecker_sdk::pecker_render_object::`RTTI Class Hierarchy Descriptor'
PUBLIC	??_R2pecker_render_object@pecker_sdk@@8		; pecker_sdk::pecker_render_object::`RTTI Base Class Array'
PUBLIC	??_R1A@33EA@pecker_render_object@pecker_sdk@@8	; pecker_sdk::pecker_render_object::`RTTI Base Class Descriptor at (0,4,4,64)'
PUBLIC	?attach_by_frame_buffer@pecker_color_buffer_gles2@pecker_sdk@@UAEJPAUIpecker_frame_buffer@2@I@Z ; pecker_sdk::pecker_color_buffer_gles2::attach_by_frame_buffer
PUBLIC	?bind@pecker_color_buffer_gles2@pecker_sdk@@UAEJXZ ; pecker_sdk::pecker_color_buffer_gles2::bind
PUBLIC	?allocate_buffer_from_gpu_ram@pecker_color_buffer_gles2@pecker_sdk@@UAEJXZ ; pecker_sdk::pecker_color_buffer_gles2::allocate_buffer_from_gpu_ram
PUBLIC	?release_buffer_from_gpu_ram@pecker_color_buffer_gles2@pecker_sdk@@UAEJXZ ; pecker_sdk::pecker_color_buffer_gles2::release_buffer_from_gpu_ram
PUBLIC	?use_render_buffer_info@pecker_color_buffer_gles2@pecker_sdk@@UAEJABUpecker_render_buffer_info@2@@Z ; pecker_sdk::pecker_color_buffer_gles2::use_render_buffer_info
PUBLIC	?use_render_buffer_info@pecker_color_buffer_gles2@pecker_sdk@@UAEJXZ ; pecker_sdk::pecker_color_buffer_gles2::use_render_buffer_info
PUBLIC	?get_render_buffer_info@pecker_color_buffer_gles2@pecker_sdk@@UBEABUpecker_render_buffer_info@2@XZ ; pecker_sdk::pecker_color_buffer_gles2::get_render_buffer_info
PUBLIC	??_R4pecker_color_buffer_gles2@pecker_sdk@@6Bpecker_opengles_v2_object@1@@ ; pecker_sdk::pecker_color_buffer_gles2::`RTTI Complete Object Locator'
PUBLIC	??_Epecker_color_buffer_gles2@pecker_sdk@@$4PPPPPPPM@BM@AEPAXI@Z ; pecker_sdk::pecker_color_buffer_gles2::`vector deleting destructor'
PUBLIC	?get_object_location@pecker_color_buffer_gles2@pecker_sdk@@$4PPPPPPPM@A@BEIXZ ; pecker_sdk::pecker_color_buffer_gles2::get_object_location
EXTRN	__RTC_CheckEsp:PROC
EXTRN	__RTC_Shutdown:PROC
EXTRN	__RTC_InitBase:PROC
EXTRN	??_7type_info@@6B@:QWORD			; type_info::`vftable'
EXTRN	??_Epecker_color_buffer_gles2@pecker_sdk@@UAEPAXI@Z:PROC ; pecker_sdk::pecker_color_buffer_gles2::`vector deleting destructor'
EXTRN	?get_frame_buffer_object_type@Ipecker_color_buffer@pecker_sdk@@UBEIXZ:PROC ; pecker_sdk::Ipecker_color_buffer::get_frame_buffer_object_type
EXTRN	?toString@pecker_render_object@pecker_sdk@@UBEABV?$pecker_share_string_base_t@DU?$pecker_value_compare@D@pecker_sdk@@V?$pecker_simple_allocator@D@2@$0BA@@2@AAV32@@Z:PROC ; pecker_sdk::pecker_render_object::toString
EXTRN	?get_render_system_info@pecker_opengles_v2_object@pecker_sdk@@UBEABUpecker_render_system_info@2@AAU32@@Z:PROC ; pecker_sdk::pecker_opengles_v2_object::get_render_system_info
EXTRN	?get_this_reference@pecker_render_object@pecker_sdk@@UAEPAV12@XZ:PROC ; pecker_sdk::pecker_render_object::get_this_reference
EXTRN	?release_this_reference@pecker_render_object@pecker_sdk@@UAEJXZ:PROC ; pecker_sdk::pecker_render_object::release_this_reference
;	COMDAT ??_R4pecker_color_buffer_gles2@pecker_sdk@@6Bpecker_opengles_v2_object@1@@
; File f:\codes\pecker_framework_git\pecker_src\pecker_framework\render\render_system\opengles\pecker_render_buffer_gl.cpp
rdata$r	SEGMENT
??_R4pecker_color_buffer_gles2@pecker_sdk@@6Bpecker_opengles_v2_object@1@@ DD 00H ; pecker_sdk::pecker_color_buffer_gles2::`RTTI Complete Object Locator'
	DD	01cH
	DD	04H
	DD	FLAT:??_R0?AVpecker_color_buffer_gles2@pecker_sdk@@@8
	DD	FLAT:??_R3pecker_color_buffer_gles2@pecker_sdk@@8
rdata$r	ENDS
;	COMDAT ??_R1A@33EA@pecker_render_object@pecker_sdk@@8
rdata$r	SEGMENT
??_R1A@33EA@pecker_render_object@pecker_sdk@@8 DD FLAT:??_R0?AVpecker_render_object@pecker_sdk@@@8 ; pecker_sdk::pecker_render_object::`RTTI Base Class Descriptor at (0,4,4,64)'
	DD	00H
	DD	00H
	DD	04H
	DD	04H
	DD	040H
	DD	FLAT:??_R3pecker_render_object@pecker_sdk@@8
rdata$r	ENDS
;	COMDAT ??_R2pecker_render_object@pecker_sdk@@8
rdata$r	SEGMENT
??_R2pecker_render_object@pecker_sdk@@8 DD FLAT:??_R1A@?0A@EA@pecker_render_object@pecker_sdk@@8 ; pecker_sdk::pecker_render_object::`RTTI Base Class Array'
rdata$r	ENDS
;	COMDAT ??_R3pecker_render_object@pecker_sdk@@8
rdata$r	SEGMENT
??_R3pecker_render_object@pecker_sdk@@8 DD 00H		; pecker_sdk::pecker_render_object::`RTTI Class Hierarchy Descriptor'
	DD	00H
	DD	01H
	DD	FLAT:??_R2pecker_render_object@pecker_sdk@@8
rdata$r	ENDS
;	COMDAT ??_R0?AVpecker_render_object@pecker_sdk@@@8
_DATA	SEGMENT
??_R0?AVpecker_render_object@pecker_sdk@@@8 DD FLAT:??_7type_info@@6B@ ; pecker_sdk::pecker_render_object `RTTI Type Descriptor'
	DD	00H
	DB	'.?AVpecker_render_object@pecker_sdk@@', 00H
_DATA	ENDS
;	COMDAT ??_R1A@?0A@EA@pecker_render_object@pecker_sdk@@8
rdata$r	SEGMENT
??_R1A@?0A@EA@pecker_render_object@pecker_sdk@@8 DD FLAT:??_R0?AVpecker_render_object@pecker_sdk@@@8 ; pecker_sdk::pecker_render_object::`RTTI Base Class Descriptor at (0,-1,0,64)'
	DD	00H
	DD	00H
	DD	0ffffffffH
	DD	00H
	DD	040H
	DD	FLAT:??_R3pecker_render_object@pecker_sdk@@8
rdata$r	ENDS
;	COMDAT ??_R1A@?0A@EA@pecker_opengles_v2_object@pecker_sdk@@8
rdata$r	SEGMENT
??_R1A@?0A@EA@pecker_opengles_v2_object@pecker_sdk@@8 DD FLAT:??_R0?AVpecker_opengles_v2_object@pecker_sdk@@@8 ; pecker_sdk::pecker_opengles_v2_object::`RTTI Base Class Descriptor at (0,-1,0,64)'
	DD	01H
	DD	00H
	DD	0ffffffffH
	DD	00H
	DD	040H
	DD	FLAT:??_R3pecker_opengles_v2_object@pecker_sdk@@8
rdata$r	ENDS
;	COMDAT ??_R2pecker_opengles_v2_object@pecker_sdk@@8
rdata$r	SEGMENT
??_R2pecker_opengles_v2_object@pecker_sdk@@8 DD FLAT:??_R1A@?0A@EA@pecker_opengles_v2_object@pecker_sdk@@8 ; pecker_sdk::pecker_opengles_v2_object::`RTTI Base Class Array'
	DD	FLAT:??_R1A@?0A@EA@pecker_render_object@pecker_sdk@@8
rdata$r	ENDS
;	COMDAT ??_R3pecker_opengles_v2_object@pecker_sdk@@8
rdata$r	SEGMENT
??_R3pecker_opengles_v2_object@pecker_sdk@@8 DD 00H	; pecker_sdk::pecker_opengles_v2_object::`RTTI Class Hierarchy Descriptor'
	DD	00H
	DD	02H
	DD	FLAT:??_R2pecker_opengles_v2_object@pecker_sdk@@8
rdata$r	ENDS
;	COMDAT ??_R0?AVpecker_opengles_v2_object@pecker_sdk@@@8
_DATA	SEGMENT
??_R0?AVpecker_opengles_v2_object@pecker_sdk@@@8 DD FLAT:??_7type_info@@6B@ ; pecker_sdk::pecker_opengles_v2_object `RTTI Type Descriptor'
	DD	00H
	DB	'.?AVpecker_opengles_v2_object@pecker_sdk@@', 00H
_DATA	ENDS
;	COMDAT ??_R1A@33FA@pecker_opengles_v2_object@pecker_sdk@@8
rdata$r	SEGMENT
??_R1A@33FA@pecker_opengles_v2_object@pecker_sdk@@8 DD FLAT:??_R0?AVpecker_opengles_v2_object@pecker_sdk@@@8 ; pecker_sdk::pecker_opengles_v2_object::`RTTI Base Class Descriptor at (0,4,4,80)'
	DD	01H
	DD	00H
	DD	04H
	DD	04H
	DD	050H
	DD	FLAT:??_R3pecker_opengles_v2_object@pecker_sdk@@8
rdata$r	ENDS
;	COMDAT ??_R2Ipecker_frame_buffer_object@pecker_sdk@@8
rdata$r	SEGMENT
??_R2Ipecker_frame_buffer_object@pecker_sdk@@8 DD FLAT:??_R1A@?0A@EA@Ipecker_frame_buffer_object@pecker_sdk@@8 ; pecker_sdk::Ipecker_frame_buffer_object::`RTTI Base Class Array'
rdata$r	ENDS
;	COMDAT ??_R3Ipecker_frame_buffer_object@pecker_sdk@@8
rdata$r	SEGMENT
??_R3Ipecker_frame_buffer_object@pecker_sdk@@8 DD 00H	; pecker_sdk::Ipecker_frame_buffer_object::`RTTI Class Hierarchy Descriptor'
	DD	00H
	DD	01H
	DD	FLAT:??_R2Ipecker_frame_buffer_object@pecker_sdk@@8
rdata$r	ENDS
;	COMDAT ??_R0?AUIpecker_frame_buffer_object@pecker_sdk@@@8
_DATA	SEGMENT
??_R0?AUIpecker_frame_buffer_object@pecker_sdk@@@8 DD FLAT:??_7type_info@@6B@ ; pecker_sdk::Ipecker_frame_buffer_object `RTTI Type Descriptor'
	DD	00H
	DB	'.?AUIpecker_frame_buffer_object@pecker_sdk@@', 00H
_DATA	ENDS
;	COMDAT ??_R1A@?0A@EA@Ipecker_frame_buffer_object@pecker_sdk@@8
rdata$r	SEGMENT
??_R1A@?0A@EA@Ipecker_frame_buffer_object@pecker_sdk@@8 DD FLAT:??_R0?AUIpecker_frame_buffer_object@pecker_sdk@@@8 ; pecker_sdk::Ipecker_frame_buffer_object::`RTTI Base Class Descriptor at (0,-1,0,64)'
	DD	00H
	DD	00H
	DD	0ffffffffH
	DD	00H
	DD	040H
	DD	FLAT:??_R3Ipecker_frame_buffer_object@pecker_sdk@@8
rdata$r	ENDS
;	COMDAT ??_R2Ipecker_render_buffer@pecker_sdk@@8
rdata$r	SEGMENT
??_R2Ipecker_render_buffer@pecker_sdk@@8 DD FLAT:??_R1A@?0A@EA@Ipecker_render_buffer@pecker_sdk@@8 ; pecker_sdk::Ipecker_render_buffer::`RTTI Base Class Array'
	DD	FLAT:??_R1A@?0A@EA@Ipecker_frame_buffer_object@pecker_sdk@@8
rdata$r	ENDS
;	COMDAT ??_R3Ipecker_render_buffer@pecker_sdk@@8
rdata$r	SEGMENT
??_R3Ipecker_render_buffer@pecker_sdk@@8 DD 00H		; pecker_sdk::Ipecker_render_buffer::`RTTI Class Hierarchy Descriptor'
	DD	00H
	DD	02H
	DD	FLAT:??_R2Ipecker_render_buffer@pecker_sdk@@8
rdata$r	ENDS
;	COMDAT ??_R0?AUIpecker_render_buffer@pecker_sdk@@@8
_DATA	SEGMENT
??_R0?AUIpecker_render_buffer@pecker_sdk@@@8 DD FLAT:??_7type_info@@6B@ ; pecker_sdk::Ipecker_render_buffer `RTTI Type Descriptor'
	DD	00H
	DB	'.?AUIpecker_render_buffer@pecker_sdk@@', 00H
_DATA	ENDS
;	COMDAT ??_R1A@?0A@EA@Ipecker_render_buffer@pecker_sdk@@8
rdata$r	SEGMENT
??_R1A@?0A@EA@Ipecker_render_buffer@pecker_sdk@@8 DD FLAT:??_R0?AUIpecker_render_buffer@pecker_sdk@@@8 ; pecker_sdk::Ipecker_render_buffer::`RTTI Base Class Descriptor at (0,-1,0,64)'
	DD	01H
	DD	00H
	DD	0ffffffffH
	DD	00H
	DD	040H
	DD	FLAT:??_R3Ipecker_render_buffer@pecker_sdk@@8
rdata$r	ENDS
;	COMDAT ??_R2Ipecker_color_buffer@pecker_sdk@@8
rdata$r	SEGMENT
??_R2Ipecker_color_buffer@pecker_sdk@@8 DD FLAT:??_R1A@?0A@EA@Ipecker_color_buffer@pecker_sdk@@8 ; pecker_sdk::Ipecker_color_buffer::`RTTI Base Class Array'
	DD	FLAT:??_R1A@?0A@EA@Ipecker_render_buffer@pecker_sdk@@8
	DD	FLAT:??_R1A@?0A@EA@Ipecker_frame_buffer_object@pecker_sdk@@8
rdata$r	ENDS
;	COMDAT ??_R3Ipecker_color_buffer@pecker_sdk@@8
rdata$r	SEGMENT
??_R3Ipecker_color_buffer@pecker_sdk@@8 DD 00H		; pecker_sdk::Ipecker_color_buffer::`RTTI Class Hierarchy Descriptor'
	DD	00H
	DD	03H
	DD	FLAT:??_R2Ipecker_color_buffer@pecker_sdk@@8
rdata$r	ENDS
;	COMDAT ??_R0?AUIpecker_color_buffer@pecker_sdk@@@8
_DATA	SEGMENT
??_R0?AUIpecker_color_buffer@pecker_sdk@@@8 DD FLAT:??_7type_info@@6B@ ; pecker_sdk::Ipecker_color_buffer `RTTI Type Descriptor'
	DD	00H
	DB	'.?AUIpecker_color_buffer@pecker_sdk@@', 00H
_DATA	ENDS
;	COMDAT ??_R1A@?0A@EA@Ipecker_color_buffer@pecker_sdk@@8
rdata$r	SEGMENT
??_R1A@?0A@EA@Ipecker_color_buffer@pecker_sdk@@8 DD FLAT:??_R0?AUIpecker_color_buffer@pecker_sdk@@@8 ; pecker_sdk::Ipecker_color_buffer::`RTTI Base Class Descriptor at (0,-1,0,64)'
	DD	02H
	DD	00H
	DD	0ffffffffH
	DD	00H
	DD	040H
	DD	FLAT:??_R3Ipecker_color_buffer@pecker_sdk@@8
rdata$r	ENDS
;	COMDAT ??_R1A@?0A@EA@pecker_color_buffer_gles2@pecker_sdk@@8
rdata$r	SEGMENT
??_R1A@?0A@EA@pecker_color_buffer_gles2@pecker_sdk@@8 DD FLAT:??_R0?AVpecker_color_buffer_gles2@pecker_sdk@@@8 ; pecker_sdk::pecker_color_buffer_gles2::`RTTI Base Class Descriptor at (0,-1,0,64)'
	DD	05H
	DD	00H
	DD	0ffffffffH
	DD	00H
	DD	040H
	DD	FLAT:??_R3pecker_color_buffer_gles2@pecker_sdk@@8
rdata$r	ENDS
;	COMDAT ??_R2pecker_color_buffer_gles2@pecker_sdk@@8
rdata$r	SEGMENT
??_R2pecker_color_buffer_gles2@pecker_sdk@@8 DD FLAT:??_R1A@?0A@EA@pecker_color_buffer_gles2@pecker_sdk@@8 ; pecker_sdk::pecker_color_buffer_gles2::`RTTI Base Class Array'
	DD	FLAT:??_R1A@?0A@EA@Ipecker_color_buffer@pecker_sdk@@8
	DD	FLAT:??_R1A@?0A@EA@Ipecker_render_buffer@pecker_sdk@@8
	DD	FLAT:??_R1A@?0A@EA@Ipecker_frame_buffer_object@pecker_sdk@@8
	DD	FLAT:??_R1A@33FA@pecker_opengles_v2_object@pecker_sdk@@8
	DD	FLAT:??_R1A@33EA@pecker_render_object@pecker_sdk@@8
rdata$r	ENDS
;	COMDAT ??_R3pecker_color_buffer_gles2@pecker_sdk@@8
rdata$r	SEGMENT
??_R3pecker_color_buffer_gles2@pecker_sdk@@8 DD 00H	; pecker_sdk::pecker_color_buffer_gles2::`RTTI Class Hierarchy Descriptor'
	DD	03H
	DD	06H
	DD	FLAT:??_R2pecker_color_buffer_gles2@pecker_sdk@@8
rdata$r	ENDS
;	COMDAT ??_R0?AVpecker_color_buffer_gles2@pecker_sdk@@@8
_DATA	SEGMENT
??_R0?AVpecker_color_buffer_gles2@pecker_sdk@@@8 DD FLAT:??_7type_info@@6B@ ; pecker_sdk::pecker_color_buffer_gles2 `RTTI Type Descriptor'
	DD	00H
	DB	'.?AVpecker_color_buffer_gles2@pecker_sdk@@', 00H
_DATA	ENDS
;	COMDAT ??_R4pecker_color_buffer_gles2@pecker_sdk@@6BIpecker_color_buffer@1@@
rdata$r	SEGMENT
??_R4pecker_color_buffer_gles2@pecker_sdk@@6BIpecker_color_buffer@1@@ DD 00H ; pecker_sdk::pecker_color_buffer_gles2::`RTTI Complete Object Locator'
	DD	00H
	DD	00H
	DD	FLAT:??_R0?AVpecker_color_buffer_gles2@pecker_sdk@@@8
	DD	FLAT:??_R3pecker_color_buffer_gles2@pecker_sdk@@8
rdata$r	ENDS
;	COMDAT ??_7pecker_color_buffer_gles2@pecker_sdk@@6Bpecker_opengles_v2_object@1@@
CONST	SEGMENT
??_7pecker_color_buffer_gles2@pecker_sdk@@6Bpecker_opengles_v2_object@1@@ DD FLAT:??_R4pecker_color_buffer_gles2@pecker_sdk@@6Bpecker_opengles_v2_object@1@@ ; pecker_sdk::pecker_color_buffer_gles2::`vftable'
	DD	FLAT:??_Epecker_color_buffer_gles2@pecker_sdk@@$4PPPPPPPM@BM@AEPAXI@Z
	DD	FLAT:?toString@pecker_render_object@pecker_sdk@@UBEABV?$pecker_share_string_base_t@DU?$pecker_value_compare@D@pecker_sdk@@V?$pecker_simple_allocator@D@2@$0BA@@2@AAV32@@Z
	DD	FLAT:?get_render_system_info@pecker_opengles_v2_object@pecker_sdk@@UBEABUpecker_render_system_info@2@AAU32@@Z
	DD	FLAT:?get_this_reference@pecker_render_object@pecker_sdk@@UAEPAV12@XZ
	DD	FLAT:?release_this_reference@pecker_render_object@pecker_sdk@@UAEJXZ
	DD	FLAT:?get_object_location@pecker_color_buffer_gles2@pecker_sdk@@$4PPPPPPPM@A@BEIXZ
CONST	ENDS
;	COMDAT ??_7pecker_color_buffer_gles2@pecker_sdk@@6BIpecker_color_buffer@1@@
CONST	SEGMENT
??_7pecker_color_buffer_gles2@pecker_sdk@@6BIpecker_color_buffer@1@@ DD FLAT:??_R4pecker_color_buffer_gles2@pecker_sdk@@6BIpecker_color_buffer@1@@ ; pecker_sdk::pecker_color_buffer_gles2::`vftable'
	DD	FLAT:??_Epecker_color_buffer_gles2@pecker_sdk@@UAEPAXI@Z
	DD	FLAT:?attach_by_frame_buffer@pecker_color_buffer_gles2@pecker_sdk@@UAEJPAUIpecker_frame_buffer@2@I@Z
	DD	FLAT:?bind@pecker_color_buffer_gles2@pecker_sdk@@UAEJXZ
	DD	FLAT:?get_frame_buffer_object_type@Ipecker_color_buffer@pecker_sdk@@UBEIXZ
	DD	FLAT:?allocate_buffer_from_gpu_ram@pecker_color_buffer_gles2@pecker_sdk@@UAEJXZ
	DD	FLAT:?release_buffer_from_gpu_ram@pecker_color_buffer_gles2@pecker_sdk@@UAEJXZ
	DD	FLAT:?use_render_buffer_info@pecker_color_buffer_gles2@pecker_sdk@@UAEJABUpecker_render_buffer_info@2@@Z
	DD	FLAT:?use_render_buffer_info@pecker_color_buffer_gles2@pecker_sdk@@UAEJXZ
	DD	FLAT:?get_render_buffer_info@pecker_color_buffer_gles2@pecker_sdk@@UBEABUpecker_render_buffer_info@2@XZ
CONST	ENDS
;	COMDAT ??_8pecker_color_buffer_gles2@pecker_sdk@@7B@
CONST	SEGMENT
??_8pecker_color_buffer_gles2@pecker_sdk@@7B@ DD 0fffffffcH ; pecker_sdk::pecker_color_buffer_gles2::`vbtable'
	DD	018H
CONST	ENDS
;	COMDAT rtc$TMZ
rtc$TMZ	SEGMENT
__RTC_Shutdown.rtc$TMZ DD FLAT:__RTC_Shutdown
rtc$TMZ	ENDS
;	COMDAT rtc$IMZ
rtc$IMZ	SEGMENT
__RTC_InitBase.rtc$IMZ DD FLAT:__RTC_InitBase
; Function compile flags: /Odtp /RTCsu /ZI
rtc$IMZ	ENDS
;	COMDAT ??0pecker_color_buffer_gles2@pecker_sdk@@QAE@XZ
_TEXT	SEGMENT
$T69922 = -212						; size = 4
_this$ = -8						; size = 4
_$initVBases$ = 8					; size = 4
??0pecker_color_buffer_gles2@pecker_sdk@@QAE@XZ PROC	; pecker_sdk::pecker_color_buffer_gles2::pecker_color_buffer_gles2, COMDAT
; _this$ = ecx

; 34   : {

	push	ebp
	mov	ebp, esp
	sub	esp, 216				; 000000d8H
	push	ebx
	push	esi
	push	edi
	push	ecx
	lea	edi, DWORD PTR [ebp-216]
	mov	ecx, 54					; 00000036H
	mov	eax, -858993460				; ccccccccH
	rep stosd
	pop	ecx
	mov	DWORD PTR _this$[ebp], ecx
	mov	DWORD PTR $T69922[ebp], 0
	cmp	DWORD PTR _$initVBases$[ebp], 0
	je	SHORT $LN1@pecker_col
	mov	eax, DWORD PTR _this$[ebp]
	mov	DWORD PTR [eax+4], OFFSET ??_8pecker_color_buffer_gles2@pecker_sdk@@7B@
	mov	ecx, DWORD PTR _this$[ebp]
	add	ecx, 28					; 0000001cH
	call	??0pecker_opengles_v2_object@pecker_sdk@@QAE@XZ
	mov	eax, DWORD PTR $T69922[ebp]
	or	eax, 1
	mov	DWORD PTR $T69922[ebp], eax
$LN1@pecker_col:
	mov	ecx, DWORD PTR _this$[ebp]
	call	??0Ipecker_color_buffer@pecker_sdk@@QAE@XZ
	mov	eax, DWORD PTR _this$[ebp]
	mov	DWORD PTR [eax], OFFSET ??_7pecker_color_buffer_gles2@pecker_sdk@@6BIpecker_color_buffer@1@@
	mov	eax, DWORD PTR _this$[ebp]
	mov	ecx, DWORD PTR [eax+4]
	mov	edx, DWORD PTR [ecx+4]
	mov	eax, DWORD PTR _this$[ebp]
	mov	DWORD PTR [eax+edx+4], OFFSET ??_7pecker_color_buffer_gles2@pecker_sdk@@6Bpecker_opengles_v2_object@1@@
	mov	eax, DWORD PTR _this$[ebp]
	mov	ecx, DWORD PTR [eax+4]
	mov	edx, DWORD PTR [ecx+4]
	sub	edx, 24					; 00000018H
	mov	eax, DWORD PTR _this$[ebp]
	mov	ecx, DWORD PTR [eax+4]
	mov	eax, DWORD PTR [ecx+4]
	mov	ecx, DWORD PTR _this$[ebp]
	mov	DWORD PTR [ecx+eax], edx
	mov	eax, DWORD PTR _this$[ebp]
	mov	DWORD PTR [eax+8], 0

; 35   : 
; 36   : }

	mov	eax, DWORD PTR _this$[ebp]
	pop	edi
	pop	esi
	pop	ebx
	add	esp, 216				; 000000d8H
	cmp	ebp, esp
	call	__RTC_CheckEsp
	mov	esp, ebp
	pop	ebp
	ret	4
??0pecker_color_buffer_gles2@pecker_sdk@@QAE@XZ ENDP	; pecker_sdk::pecker_color_buffer_gles2::pecker_color_buffer_gles2
_TEXT	ENDS
PUBLIC	??_Dpecker_color_buffer_gles2@pecker_sdk@@QAEXXZ ; pecker_sdk::pecker_color_buffer_gles2::`vbase destructor'
EXTRN	??3@YAXPAX@Z:PROC				; operator delete
; Function compile flags: /Odtp /RTCsu /ZI
;	COMDAT ??_Gpecker_color_buffer_gles2@pecker_sdk@@UAEPAXI@Z
_TEXT	SEGMENT
_this$ = -8						; size = 4
___flags$ = 8						; size = 4
??_Gpecker_color_buffer_gles2@pecker_sdk@@UAEPAXI@Z PROC ; pecker_sdk::pecker_color_buffer_gles2::`scalar deleting destructor', COMDAT
; _this$ = ecx
	push	ebp
	mov	ebp, esp
	sub	esp, 204				; 000000ccH
	push	ebx
	push	esi
	push	edi
	push	ecx
	lea	edi, DWORD PTR [ebp-204]
	mov	ecx, 51					; 00000033H
	mov	eax, -858993460				; ccccccccH
	rep stosd
	pop	ecx
	mov	DWORD PTR _this$[ebp], ecx
	mov	ecx, DWORD PTR _this$[ebp]
	call	??_Dpecker_color_buffer_gles2@pecker_sdk@@QAEXXZ
	mov	eax, DWORD PTR ___flags$[ebp]
	and	eax, 1
	je	SHORT $LN1@scalar
	mov	eax, DWORD PTR _this$[ebp]
	push	eax
	call	??3@YAXPAX@Z				; operator delete
	add	esp, 4
$LN1@scalar:
	mov	eax, DWORD PTR _this$[ebp]
	pop	edi
	pop	esi
	pop	ebx
	add	esp, 204				; 000000ccH
	cmp	ebp, esp
	call	__RTC_CheckEsp
	mov	esp, ebp
	pop	ebp
	ret	4
??_Gpecker_color_buffer_gles2@pecker_sdk@@UAEPAXI@Z ENDP ; pecker_sdk::pecker_color_buffer_gles2::`scalar deleting destructor'
_TEXT	ENDS
PUBLIC	??_7pecker_opengles_v2_object@pecker_sdk@@6B@	; pecker_sdk::pecker_opengles_v2_object::`vftable'
PUBLIC	??_R4pecker_opengles_v2_object@pecker_sdk@@6B@	; pecker_sdk::pecker_opengles_v2_object::`RTTI Complete Object Locator'
EXTRN	??0pecker_render_object@pecker_sdk@@QAE@XZ:PROC	; pecker_sdk::pecker_render_object::pecker_render_object
EXTRN	??_Epecker_opengles_v2_object@pecker_sdk@@UAEPAXI@Z:PROC ; pecker_sdk::pecker_opengles_v2_object::`vector deleting destructor'
EXTRN	?get_object_location@pecker_opengles_v2_object@pecker_sdk@@UBEIXZ:PROC ; pecker_sdk::pecker_opengles_v2_object::get_object_location
;	COMDAT ??_R4pecker_opengles_v2_object@pecker_sdk@@6B@
rdata$r	SEGMENT
??_R4pecker_opengles_v2_object@pecker_sdk@@6B@ DD 00H	; pecker_sdk::pecker_opengles_v2_object::`RTTI Complete Object Locator'
	DD	00H
	DD	00H
	DD	FLAT:??_R0?AVpecker_opengles_v2_object@pecker_sdk@@@8
	DD	FLAT:??_R3pecker_opengles_v2_object@pecker_sdk@@8
rdata$r	ENDS
;	COMDAT ??_7pecker_opengles_v2_object@pecker_sdk@@6B@
CONST	SEGMENT
??_7pecker_opengles_v2_object@pecker_sdk@@6B@ DD FLAT:??_R4pecker_opengles_v2_object@pecker_sdk@@6B@ ; pecker_sdk::pecker_opengles_v2_object::`vftable'
	DD	FLAT:??_Epecker_opengles_v2_object@pecker_sdk@@UAEPAXI@Z
	DD	FLAT:?toString@pecker_render_object@pecker_sdk@@UBEABV?$pecker_share_string_base_t@DU?$pecker_value_compare@D@pecker_sdk@@V?$pecker_simple_allocator@D@2@$0BA@@2@AAV32@@Z
	DD	FLAT:?get_render_system_info@pecker_opengles_v2_object@pecker_sdk@@UBEABUpecker_render_system_info@2@AAU32@@Z
	DD	FLAT:?get_this_reference@pecker_render_object@pecker_sdk@@UAEPAV12@XZ
	DD	FLAT:?release_this_reference@pecker_render_object@pecker_sdk@@UAEJXZ
	DD	FLAT:?get_object_location@pecker_opengles_v2_object@pecker_sdk@@UBEIXZ
; Function compile flags: /Odtp /RTCsu /ZI
CONST	ENDS
;	COMDAT ??0pecker_opengles_v2_object@pecker_sdk@@QAE@XZ
_TEXT	SEGMENT
_this$ = -8						; size = 4
??0pecker_opengles_v2_object@pecker_sdk@@QAE@XZ PROC	; pecker_sdk::pecker_opengles_v2_object::pecker_opengles_v2_object, COMDAT
; _this$ = ecx
	push	ebp
	mov	ebp, esp
	sub	esp, 204				; 000000ccH
	push	ebx
	push	esi
	push	edi
	push	ecx
	lea	edi, DWORD PTR [ebp-204]
	mov	ecx, 51					; 00000033H
	mov	eax, -858993460				; ccccccccH
	rep stosd
	pop	ecx
	mov	DWORD PTR _this$[ebp], ecx
	mov	ecx, DWORD PTR _this$[ebp]
	call	??0pecker_render_object@pecker_sdk@@QAE@XZ ; pecker_sdk::pecker_render_object::pecker_render_object
	mov	eax, DWORD PTR _this$[ebp]
	mov	DWORD PTR [eax], OFFSET ??_7pecker_opengles_v2_object@pecker_sdk@@6B@
	mov	eax, DWORD PTR _this$[ebp]
	pop	edi
	pop	esi
	pop	ebx
	add	esp, 204				; 000000ccH
	cmp	ebp, esp
	call	__RTC_CheckEsp
	mov	esp, ebp
	pop	ebp
	ret	0
??0pecker_opengles_v2_object@pecker_sdk@@QAE@XZ ENDP	; pecker_sdk::pecker_opengles_v2_object::pecker_opengles_v2_object
_TEXT	ENDS
PUBLIC	??_7Ipecker_color_buffer@pecker_sdk@@6B@	; pecker_sdk::Ipecker_color_buffer::`vftable'
PUBLIC	??0Ipecker_render_buffer@pecker_sdk@@QAE@XZ	; pecker_sdk::Ipecker_render_buffer::Ipecker_render_buffer
PUBLIC	??_R4Ipecker_color_buffer@pecker_sdk@@6B@	; pecker_sdk::Ipecker_color_buffer::`RTTI Complete Object Locator'
EXTRN	??_EIpecker_color_buffer@pecker_sdk@@UAEPAXI@Z:PROC ; pecker_sdk::Ipecker_color_buffer::`vector deleting destructor'
EXTRN	__purecall:PROC
;	COMDAT ??_R4Ipecker_color_buffer@pecker_sdk@@6B@
rdata$r	SEGMENT
??_R4Ipecker_color_buffer@pecker_sdk@@6B@ DD 00H	; pecker_sdk::Ipecker_color_buffer::`RTTI Complete Object Locator'
	DD	00H
	DD	00H
	DD	FLAT:??_R0?AUIpecker_color_buffer@pecker_sdk@@@8
	DD	FLAT:??_R3Ipecker_color_buffer@pecker_sdk@@8
rdata$r	ENDS
;	COMDAT ??_7Ipecker_color_buffer@pecker_sdk@@6B@
CONST	SEGMENT
??_7Ipecker_color_buffer@pecker_sdk@@6B@ DD FLAT:??_R4Ipecker_color_buffer@pecker_sdk@@6B@ ; pecker_sdk::Ipecker_color_buffer::`vftable'
	DD	FLAT:??_EIpecker_color_buffer@pecker_sdk@@UAEPAXI@Z
	DD	FLAT:__purecall
	DD	FLAT:__purecall
	DD	FLAT:?get_frame_buffer_object_type@Ipecker_color_buffer@pecker_sdk@@UBEIXZ
	DD	FLAT:__purecall
	DD	FLAT:__purecall
	DD	FLAT:__purecall
	DD	FLAT:__purecall
	DD	FLAT:__purecall
; Function compile flags: /Odtp /RTCsu /ZI
CONST	ENDS
;	COMDAT ??0Ipecker_color_buffer@pecker_sdk@@QAE@XZ
_TEXT	SEGMENT
_this$ = -8						; size = 4
??0Ipecker_color_buffer@pecker_sdk@@QAE@XZ PROC		; pecker_sdk::Ipecker_color_buffer::Ipecker_color_buffer, COMDAT
; _this$ = ecx
	push	ebp
	mov	ebp, esp
	sub	esp, 204				; 000000ccH
	push	ebx
	push	esi
	push	edi
	push	ecx
	lea	edi, DWORD PTR [ebp-204]
	mov	ecx, 51					; 00000033H
	mov	eax, -858993460				; ccccccccH
	rep stosd
	pop	ecx
	mov	DWORD PTR _this$[ebp], ecx
	mov	ecx, DWORD PTR _this$[ebp]
	call	??0Ipecker_render_buffer@pecker_sdk@@QAE@XZ
	mov	eax, DWORD PTR _this$[ebp]
	mov	DWORD PTR [eax], OFFSET ??_7Ipecker_color_buffer@pecker_sdk@@6B@
	mov	eax, DWORD PTR _this$[ebp]
	pop	edi
	pop	esi
	pop	ebx
	add	esp, 204				; 000000ccH
	cmp	ebp, esp
	call	__RTC_CheckEsp
	mov	esp, ebp
	pop	ebp
	ret	0
??0Ipecker_color_buffer@pecker_sdk@@QAE@XZ ENDP		; pecker_sdk::Ipecker_color_buffer::Ipecker_color_buffer
_TEXT	ENDS
PUBLIC	??1Ipecker_color_buffer@pecker_sdk@@UAE@XZ	; pecker_sdk::Ipecker_color_buffer::~Ipecker_color_buffer
; Function compile flags: /Odtp /RTCsu /ZI
;	COMDAT ??_GIpecker_color_buffer@pecker_sdk@@UAEPAXI@Z
_TEXT	SEGMENT
_this$ = -8						; size = 4
___flags$ = 8						; size = 4
??_GIpecker_color_buffer@pecker_sdk@@UAEPAXI@Z PROC	; pecker_sdk::Ipecker_color_buffer::`scalar deleting destructor', COMDAT
; _this$ = ecx
	push	ebp
	mov	ebp, esp
	sub	esp, 204				; 000000ccH
	push	ebx
	push	esi
	push	edi
	push	ecx
	lea	edi, DWORD PTR [ebp-204]
	mov	ecx, 51					; 00000033H
	mov	eax, -858993460				; ccccccccH
	rep stosd
	pop	ecx
	mov	DWORD PTR _this$[ebp], ecx
	mov	ecx, DWORD PTR _this$[ebp]
	call	??1Ipecker_color_buffer@pecker_sdk@@UAE@XZ ; pecker_sdk::Ipecker_color_buffer::~Ipecker_color_buffer
	mov	eax, DWORD PTR ___flags$[ebp]
	and	eax, 1
	je	SHORT $LN1@scalar@2
	mov	eax, DWORD PTR _this$[ebp]
	push	eax
	call	??3@YAXPAX@Z				; operator delete
	add	esp, 4
$LN1@scalar@2:
	mov	eax, DWORD PTR _this$[ebp]
	pop	edi
	pop	esi
	pop	ebx
	add	esp, 204				; 000000ccH
	cmp	ebp, esp
	call	__RTC_CheckEsp
	mov	esp, ebp
	pop	ebp
	ret	4
??_GIpecker_color_buffer@pecker_sdk@@UAEPAXI@Z ENDP	; pecker_sdk::Ipecker_color_buffer::`scalar deleting destructor'
_TEXT	ENDS
PUBLIC	??1Ipecker_render_buffer@pecker_sdk@@UAE@XZ	; pecker_sdk::Ipecker_render_buffer::~Ipecker_render_buffer
; Function compile flags: /Odtp /RTCsu /ZI
; File f:\codes\pecker_framework_git\pecker_src\pecker_framework\render\render_system\pecker_render_buffer.h
;	COMDAT ??1Ipecker_color_buffer@pecker_sdk@@UAE@XZ
_TEXT	SEGMENT
_this$ = -8						; size = 4
??1Ipecker_color_buffer@pecker_sdk@@UAE@XZ PROC		; pecker_sdk::Ipecker_color_buffer::~Ipecker_color_buffer, COMDAT
; _this$ = ecx

; 52   : 	virtual ~Ipecker_color_buffer(){;}

	push	ebp
	mov	ebp, esp
	sub	esp, 204				; 000000ccH
	push	ebx
	push	esi
	push	edi
	push	ecx
	lea	edi, DWORD PTR [ebp-204]
	mov	ecx, 51					; 00000033H
	mov	eax, -858993460				; ccccccccH
	rep stosd
	pop	ecx
	mov	DWORD PTR _this$[ebp], ecx
	mov	eax, DWORD PTR _this$[ebp]
	mov	DWORD PTR [eax], OFFSET ??_7Ipecker_color_buffer@pecker_sdk@@6B@
	mov	ecx, DWORD PTR _this$[ebp]
	call	??1Ipecker_render_buffer@pecker_sdk@@UAE@XZ ; pecker_sdk::Ipecker_render_buffer::~Ipecker_render_buffer
	pop	edi
	pop	esi
	pop	ebx
	add	esp, 204				; 000000ccH
	cmp	ebp, esp
	call	__RTC_CheckEsp
	mov	esp, ebp
	pop	ebp
	ret	0
??1Ipecker_color_buffer@pecker_sdk@@UAE@XZ ENDP		; pecker_sdk::Ipecker_color_buffer::~Ipecker_color_buffer
_TEXT	ENDS
PUBLIC	??1Ipecker_frame_buffer_object@pecker_sdk@@UAE@XZ ; pecker_sdk::Ipecker_frame_buffer_object::~Ipecker_frame_buffer_object
PUBLIC	??_7Ipecker_render_buffer@pecker_sdk@@6B@	; pecker_sdk::Ipecker_render_buffer::`vftable'
PUBLIC	??_R4Ipecker_render_buffer@pecker_sdk@@6B@	; pecker_sdk::Ipecker_render_buffer::`RTTI Complete Object Locator'
EXTRN	??_EIpecker_render_buffer@pecker_sdk@@UAEPAXI@Z:PROC ; pecker_sdk::Ipecker_render_buffer::`vector deleting destructor'
;	COMDAT ??_R4Ipecker_render_buffer@pecker_sdk@@6B@
rdata$r	SEGMENT
??_R4Ipecker_render_buffer@pecker_sdk@@6B@ DD 00H	; pecker_sdk::Ipecker_render_buffer::`RTTI Complete Object Locator'
	DD	00H
	DD	00H
	DD	FLAT:??_R0?AUIpecker_render_buffer@pecker_sdk@@@8
	DD	FLAT:??_R3Ipecker_render_buffer@pecker_sdk@@8
rdata$r	ENDS
;	COMDAT ??_7Ipecker_render_buffer@pecker_sdk@@6B@
CONST	SEGMENT
??_7Ipecker_render_buffer@pecker_sdk@@6B@ DD FLAT:??_R4Ipecker_render_buffer@pecker_sdk@@6B@ ; pecker_sdk::Ipecker_render_buffer::`vftable'
	DD	FLAT:??_EIpecker_render_buffer@pecker_sdk@@UAEPAXI@Z
	DD	FLAT:__purecall
	DD	FLAT:__purecall
	DD	FLAT:__purecall
	DD	FLAT:__purecall
	DD	FLAT:__purecall
	DD	FLAT:__purecall
	DD	FLAT:__purecall
	DD	FLAT:__purecall
; Function compile flags: /Odtp /RTCsu /ZI
CONST	ENDS
;	COMDAT ??1Ipecker_render_buffer@pecker_sdk@@UAE@XZ
_TEXT	SEGMENT
_this$ = -8						; size = 4
??1Ipecker_render_buffer@pecker_sdk@@UAE@XZ PROC	; pecker_sdk::Ipecker_render_buffer::~Ipecker_render_buffer, COMDAT
; _this$ = ecx

; 29   : 	virtual ~Ipecker_render_buffer(){;}

	push	ebp
	mov	ebp, esp
	sub	esp, 204				; 000000ccH
	push	ebx
	push	esi
	push	edi
	push	ecx
	lea	edi, DWORD PTR [ebp-204]
	mov	ecx, 51					; 00000033H
	mov	eax, -858993460				; ccccccccH
	rep stosd
	pop	ecx
	mov	DWORD PTR _this$[ebp], ecx
	mov	eax, DWORD PTR _this$[ebp]
	mov	DWORD PTR [eax], OFFSET ??_7Ipecker_render_buffer@pecker_sdk@@6B@
	mov	ecx, DWORD PTR _this$[ebp]
	call	??1Ipecker_frame_buffer_object@pecker_sdk@@UAE@XZ ; pecker_sdk::Ipecker_frame_buffer_object::~Ipecker_frame_buffer_object
	pop	edi
	pop	esi
	pop	ebx
	add	esp, 204				; 000000ccH
	cmp	ebp, esp
	call	__RTC_CheckEsp
	mov	esp, ebp
	pop	ebp
	ret	0
??1Ipecker_render_buffer@pecker_sdk@@UAE@XZ ENDP	; pecker_sdk::Ipecker_render_buffer::~Ipecker_render_buffer
_TEXT	ENDS
PUBLIC	??_7Ipecker_frame_buffer_object@pecker_sdk@@6B@	; pecker_sdk::Ipecker_frame_buffer_object::`vftable'
PUBLIC	??_R4Ipecker_frame_buffer_object@pecker_sdk@@6B@ ; pecker_sdk::Ipecker_frame_buffer_object::`RTTI Complete Object Locator'
EXTRN	??_EIpecker_frame_buffer_object@pecker_sdk@@UAEPAXI@Z:PROC ; pecker_sdk::Ipecker_frame_buffer_object::`vector deleting destructor'
;	COMDAT ??_R4Ipecker_frame_buffer_object@pecker_sdk@@6B@
; File f:\codes\pecker_framework_git\pecker_src\pecker_framework\render\pecker_render_object.h
rdata$r	SEGMENT
??_R4Ipecker_frame_buffer_object@pecker_sdk@@6B@ DD 00H	; pecker_sdk::Ipecker_frame_buffer_object::`RTTI Complete Object Locator'
	DD	00H
	DD	00H
	DD	FLAT:??_R0?AUIpecker_frame_buffer_object@pecker_sdk@@@8
	DD	FLAT:??_R3Ipecker_frame_buffer_object@pecker_sdk@@8
rdata$r	ENDS
;	COMDAT ??_7Ipecker_frame_buffer_object@pecker_sdk@@6B@
CONST	SEGMENT
??_7Ipecker_frame_buffer_object@pecker_sdk@@6B@ DD FLAT:??_R4Ipecker_frame_buffer_object@pecker_sdk@@6B@ ; pecker_sdk::Ipecker_frame_buffer_object::`vftable'
	DD	FLAT:??_EIpecker_frame_buffer_object@pecker_sdk@@UAEPAXI@Z
	DD	FLAT:__purecall
	DD	FLAT:__purecall
	DD	FLAT:__purecall
; Function compile flags: /Odtp /RTCsu /ZI
CONST	ENDS
;	COMDAT ??1Ipecker_frame_buffer_object@pecker_sdk@@UAE@XZ
_TEXT	SEGMENT
_this$ = -8						; size = 4
??1Ipecker_frame_buffer_object@pecker_sdk@@UAE@XZ PROC	; pecker_sdk::Ipecker_frame_buffer_object::~Ipecker_frame_buffer_object, COMDAT
; _this$ = ecx

; 220  : 	virtual ~Ipecker_frame_buffer_object(){;}

	push	ebp
	mov	ebp, esp
	sub	esp, 204				; 000000ccH
	push	ebx
	push	esi
	push	edi
	push	ecx
	lea	edi, DWORD PTR [ebp-204]
	mov	ecx, 51					; 00000033H
	mov	eax, -858993460				; ccccccccH
	rep stosd
	pop	ecx
	mov	DWORD PTR _this$[ebp], ecx
	mov	eax, DWORD PTR _this$[ebp]
	mov	DWORD PTR [eax], OFFSET ??_7Ipecker_frame_buffer_object@pecker_sdk@@6B@
	pop	edi
	pop	esi
	pop	ebx
	mov	esp, ebp
	pop	ebp
	ret	0
??1Ipecker_frame_buffer_object@pecker_sdk@@UAE@XZ ENDP	; pecker_sdk::Ipecker_frame_buffer_object::~Ipecker_frame_buffer_object
; Function compile flags: /Odtp /RTCsu /ZI
_TEXT	ENDS
;	COMDAT ??_GIpecker_frame_buffer_object@pecker_sdk@@UAEPAXI@Z
_TEXT	SEGMENT
_this$ = -8						; size = 4
___flags$ = 8						; size = 4
??_GIpecker_frame_buffer_object@pecker_sdk@@UAEPAXI@Z PROC ; pecker_sdk::Ipecker_frame_buffer_object::`scalar deleting destructor', COMDAT
; _this$ = ecx
	push	ebp
	mov	ebp, esp
	sub	esp, 204				; 000000ccH
	push	ebx
	push	esi
	push	edi
	push	ecx
	lea	edi, DWORD PTR [ebp-204]
	mov	ecx, 51					; 00000033H
	mov	eax, -858993460				; ccccccccH
	rep stosd
	pop	ecx
	mov	DWORD PTR _this$[ebp], ecx
	mov	ecx, DWORD PTR _this$[ebp]
	call	??1Ipecker_frame_buffer_object@pecker_sdk@@UAE@XZ ; pecker_sdk::Ipecker_frame_buffer_object::~Ipecker_frame_buffer_object
	mov	eax, DWORD PTR ___flags$[ebp]
	and	eax, 1
	je	SHORT $LN1@scalar@3
	mov	eax, DWORD PTR _this$[ebp]
	push	eax
	call	??3@YAXPAX@Z				; operator delete
	add	esp, 4
$LN1@scalar@3:
	mov	eax, DWORD PTR _this$[ebp]
	pop	edi
	pop	esi
	pop	ebx
	add	esp, 204				; 000000ccH
	cmp	ebp, esp
	call	__RTC_CheckEsp
	mov	esp, ebp
	pop	ebp
	ret	4
??_GIpecker_frame_buffer_object@pecker_sdk@@UAEPAXI@Z ENDP ; pecker_sdk::Ipecker_frame_buffer_object::`scalar deleting destructor'
; Function compile flags: /Odtp /RTCsu /ZI
_TEXT	ENDS
;	COMDAT ??_GIpecker_render_buffer@pecker_sdk@@UAEPAXI@Z
_TEXT	SEGMENT
_this$ = -8						; size = 4
___flags$ = 8						; size = 4
??_GIpecker_render_buffer@pecker_sdk@@UAEPAXI@Z PROC	; pecker_sdk::Ipecker_render_buffer::`scalar deleting destructor', COMDAT
; _this$ = ecx
	push	ebp
	mov	ebp, esp
	sub	esp, 204				; 000000ccH
	push	ebx
	push	esi
	push	edi
	push	ecx
	lea	edi, DWORD PTR [ebp-204]
	mov	ecx, 51					; 00000033H
	mov	eax, -858993460				; ccccccccH
	rep stosd
	pop	ecx
	mov	DWORD PTR _this$[ebp], ecx
	mov	ecx, DWORD PTR _this$[ebp]
	call	??1Ipecker_render_buffer@pecker_sdk@@UAE@XZ ; pecker_sdk::Ipecker_render_buffer::~Ipecker_render_buffer
	mov	eax, DWORD PTR ___flags$[ebp]
	and	eax, 1
	je	SHORT $LN1@scalar@4
	mov	eax, DWORD PTR _this$[ebp]
	push	eax
	call	??3@YAXPAX@Z				; operator delete
	add	esp, 4
$LN1@scalar@4:
	mov	eax, DWORD PTR _this$[ebp]
	pop	edi
	pop	esi
	pop	ebx
	add	esp, 204				; 000000ccH
	cmp	ebp, esp
	call	__RTC_CheckEsp
	mov	esp, ebp
	pop	ebp
	ret	4
??_GIpecker_render_buffer@pecker_sdk@@UAEPAXI@Z ENDP	; pecker_sdk::Ipecker_render_buffer::`scalar deleting destructor'
_TEXT	ENDS
PUBLIC	??1pecker_opengles_v2_object@pecker_sdk@@UAE@XZ	; pecker_sdk::pecker_opengles_v2_object::~pecker_opengles_v2_object
PUBLIC	??1pecker_color_buffer_gles2@pecker_sdk@@UAE@XZ	; pecker_sdk::pecker_color_buffer_gles2::~pecker_color_buffer_gles2
; Function compile flags: /Odtp /RTCsu /ZI
;	COMDAT ??_Dpecker_color_buffer_gles2@pecker_sdk@@QAEXXZ
_TEXT	SEGMENT
_this$ = -8						; size = 4
??_Dpecker_color_buffer_gles2@pecker_sdk@@QAEXXZ PROC	; pecker_sdk::pecker_color_buffer_gles2::`vbase destructor', COMDAT
; _this$ = ecx
	push	ebp
	mov	ebp, esp
	sub	esp, 204				; 000000ccH
	push	ebx
	push	esi
	push	edi
	push	ecx
	lea	edi, DWORD PTR [ebp-204]
	mov	ecx, 51					; 00000033H
	mov	eax, -858993460				; ccccccccH
	rep stosd
	pop	ecx
	mov	DWORD PTR _this$[ebp], ecx
	mov	ecx, DWORD PTR _this$[ebp]
	call	??1pecker_color_buffer_gles2@pecker_sdk@@UAE@XZ ; pecker_sdk::pecker_color_buffer_gles2::~pecker_color_buffer_gles2
	mov	ecx, DWORD PTR _this$[ebp]
	add	ecx, 28					; 0000001cH
	call	??1pecker_opengles_v2_object@pecker_sdk@@UAE@XZ
	pop	edi
	pop	esi
	pop	ebx
	add	esp, 204				; 000000ccH
	cmp	ebp, esp
	call	__RTC_CheckEsp
	mov	esp, ebp
	pop	ebp
	ret	0
??_Dpecker_color_buffer_gles2@pecker_sdk@@QAEXXZ ENDP	; pecker_sdk::pecker_color_buffer_gles2::`vbase destructor'
_TEXT	ENDS
EXTRN	??1pecker_render_object@pecker_sdk@@UAE@XZ:PROC	; pecker_sdk::pecker_render_object::~pecker_render_object
; Function compile flags: /Odtp /RTCsu /ZI
;	COMDAT ??1pecker_opengles_v2_object@pecker_sdk@@UAE@XZ
_TEXT	SEGMENT
_this$ = -8						; size = 4
??1pecker_opengles_v2_object@pecker_sdk@@UAE@XZ PROC	; pecker_sdk::pecker_opengles_v2_object::~pecker_opengles_v2_object, COMDAT
; _this$ = ecx
	push	ebp
	mov	ebp, esp
	sub	esp, 204				; 000000ccH
	push	ebx
	push	esi
	push	edi
	push	ecx
	lea	edi, DWORD PTR [ebp-204]
	mov	ecx, 51					; 00000033H
	mov	eax, -858993460				; ccccccccH
	rep stosd
	pop	ecx
	mov	DWORD PTR _this$[ebp], ecx
	mov	ecx, DWORD PTR _this$[ebp]
	call	??1pecker_render_object@pecker_sdk@@UAE@XZ ; pecker_sdk::pecker_render_object::~pecker_render_object
	pop	edi
	pop	esi
	pop	ebx
	add	esp, 204				; 000000ccH
	cmp	ebp, esp
	call	__RTC_CheckEsp
	mov	esp, ebp
	pop	ebp
	ret	0
??1pecker_opengles_v2_object@pecker_sdk@@UAE@XZ ENDP	; pecker_sdk::pecker_opengles_v2_object::~pecker_opengles_v2_object
; Function compile flags: /Odtp /RTCsu /ZI
_TEXT	ENDS
;	COMDAT ??_Gpecker_opengles_v2_object@pecker_sdk@@UAEPAXI@Z
_TEXT	SEGMENT
_this$ = -8						; size = 4
___flags$ = 8						; size = 4
??_Gpecker_opengles_v2_object@pecker_sdk@@UAEPAXI@Z PROC ; pecker_sdk::pecker_opengles_v2_object::`scalar deleting destructor', COMDAT
; _this$ = ecx
	push	ebp
	mov	ebp, esp
	sub	esp, 204				; 000000ccH
	push	ebx
	push	esi
	push	edi
	push	ecx
	lea	edi, DWORD PTR [ebp-204]
	mov	ecx, 51					; 00000033H
	mov	eax, -858993460				; ccccccccH
	rep stosd
	pop	ecx
	mov	DWORD PTR _this$[ebp], ecx
	mov	ecx, DWORD PTR _this$[ebp]
	call	??1pecker_opengles_v2_object@pecker_sdk@@UAE@XZ
	mov	eax, DWORD PTR ___flags$[ebp]
	and	eax, 1
	je	SHORT $LN1@scalar@5
	mov	eax, DWORD PTR _this$[ebp]
	push	eax
	call	??3@YAXPAX@Z				; operator delete
	add	esp, 4
$LN1@scalar@5:
	mov	eax, DWORD PTR _this$[ebp]
	pop	edi
	pop	esi
	pop	ebx
	add	esp, 204				; 000000ccH
	cmp	ebp, esp
	call	__RTC_CheckEsp
	mov	esp, ebp
	pop	ebp
	ret	4
??_Gpecker_opengles_v2_object@pecker_sdk@@UAEPAXI@Z ENDP ; pecker_sdk::pecker_opengles_v2_object::`scalar deleting destructor'
_TEXT	ENDS
PUBLIC	??0Ipecker_frame_buffer_object@pecker_sdk@@QAE@XZ ; pecker_sdk::Ipecker_frame_buffer_object::Ipecker_frame_buffer_object
; Function compile flags: /Odtp /RTCsu /ZI
;	COMDAT ??0Ipecker_render_buffer@pecker_sdk@@QAE@XZ
_TEXT	SEGMENT
_this$ = -8						; size = 4
??0Ipecker_render_buffer@pecker_sdk@@QAE@XZ PROC	; pecker_sdk::Ipecker_render_buffer::Ipecker_render_buffer, COMDAT
; _this$ = ecx
	push	ebp
	mov	ebp, esp
	sub	esp, 204				; 000000ccH
	push	ebx
	push	esi
	push	edi
	push	ecx
	lea	edi, DWORD PTR [ebp-204]
	mov	ecx, 51					; 00000033H
	mov	eax, -858993460				; ccccccccH
	rep stosd
	pop	ecx
	mov	DWORD PTR _this$[ebp], ecx
	mov	ecx, DWORD PTR _this$[ebp]
	call	??0Ipecker_frame_buffer_object@pecker_sdk@@QAE@XZ
	mov	eax, DWORD PTR _this$[ebp]
	mov	DWORD PTR [eax], OFFSET ??_7Ipecker_render_buffer@pecker_sdk@@6B@
	mov	eax, DWORD PTR _this$[ebp]
	pop	edi
	pop	esi
	pop	ebx
	add	esp, 204				; 000000ccH
	cmp	ebp, esp
	call	__RTC_CheckEsp
	mov	esp, ebp
	pop	ebp
	ret	0
??0Ipecker_render_buffer@pecker_sdk@@QAE@XZ ENDP	; pecker_sdk::Ipecker_render_buffer::Ipecker_render_buffer
; Function compile flags: /Odtp /RTCsu /ZI
_TEXT	ENDS
;	COMDAT ??0Ipecker_frame_buffer_object@pecker_sdk@@QAE@XZ
_TEXT	SEGMENT
_this$ = -8						; size = 4
??0Ipecker_frame_buffer_object@pecker_sdk@@QAE@XZ PROC	; pecker_sdk::Ipecker_frame_buffer_object::Ipecker_frame_buffer_object, COMDAT
; _this$ = ecx
	push	ebp
	mov	ebp, esp
	sub	esp, 204				; 000000ccH
	push	ebx
	push	esi
	push	edi
	push	ecx
	lea	edi, DWORD PTR [ebp-204]
	mov	ecx, 51					; 00000033H
	mov	eax, -858993460				; ccccccccH
	rep stosd
	pop	ecx
	mov	DWORD PTR _this$[ebp], ecx
	mov	eax, DWORD PTR _this$[ebp]
	mov	DWORD PTR [eax], OFFSET ??_7Ipecker_frame_buffer_object@pecker_sdk@@6B@
	mov	eax, DWORD PTR _this$[ebp]
	pop	edi
	pop	esi
	pop	ebx
	mov	esp, ebp
	pop	ebp
	ret	0
??0Ipecker_frame_buffer_object@pecker_sdk@@QAE@XZ ENDP	; pecker_sdk::Ipecker_frame_buffer_object::Ipecker_frame_buffer_object
_TEXT	ENDS
EXTRN	___security_cookie:DWORD
EXTRN	___CxxFrameHandler3:PROC
EXTRN	@__security_check_cookie@4:PROC
;	COMDAT xdata$x
; File f:\codes\pecker_framework_git\pecker_src\pecker_framework\render\render_system\opengles\pecker_render_buffer_gl.cpp
xdata$x	SEGMENT
__unwindtable$??1pecker_color_buffer_gles2@pecker_sdk@@UAE@XZ DD 0ffffffffH
	DD	FLAT:__unwindfunclet$??1pecker_color_buffer_gles2@pecker_sdk@@UAE@XZ$0
__ehfuncinfo$??1pecker_color_buffer_gles2@pecker_sdk@@UAE@XZ DD 019930522H
	DD	01H
	DD	FLAT:__unwindtable$??1pecker_color_buffer_gles2@pecker_sdk@@UAE@XZ
	DD	2 DUP(00H)
	DD	2 DUP(00H)
	DD	00H
	DD	01H
; Function compile flags: /Odtp /RTCsu /ZI
xdata$x	ENDS
;	COMDAT ??1pecker_color_buffer_gles2@pecker_sdk@@UAE@XZ
_TEXT	SEGMENT
_this$ = -20						; size = 4
__$EHRec$ = -12						; size = 12
??1pecker_color_buffer_gles2@pecker_sdk@@UAE@XZ PROC	; pecker_sdk::pecker_color_buffer_gles2::~pecker_color_buffer_gles2, COMDAT
; _this$ = ecx

; 39   : {

	push	ebp
	mov	ebp, esp
	push	-1
	push	__ehhandler$??1pecker_color_buffer_gles2@pecker_sdk@@UAE@XZ
	mov	eax, DWORD PTR fs:0
	push	eax
	sub	esp, 204				; 000000ccH
	push	ebx
	push	esi
	push	edi
	push	ecx
	lea	edi, DWORD PTR [ebp-216]
	mov	ecx, 51					; 00000033H
	mov	eax, -858993460				; ccccccccH
	rep stosd
	pop	ecx
	mov	eax, DWORD PTR ___security_cookie
	xor	eax, ebp
	push	eax
	lea	eax, DWORD PTR __$EHRec$[ebp]
	mov	DWORD PTR fs:0, eax
	mov	DWORD PTR _this$[ebp], ecx
	mov	eax, DWORD PTR _this$[ebp]
	mov	DWORD PTR [eax], OFFSET ??_7pecker_color_buffer_gles2@pecker_sdk@@6BIpecker_color_buffer@1@@
	mov	eax, DWORD PTR _this$[ebp]
	mov	ecx, DWORD PTR [eax+4]
	mov	edx, DWORD PTR [ecx+4]
	mov	eax, DWORD PTR _this$[ebp]
	mov	DWORD PTR [eax+edx+4], OFFSET ??_7pecker_color_buffer_gles2@pecker_sdk@@6Bpecker_opengles_v2_object@1@@
	mov	eax, DWORD PTR _this$[ebp]
	mov	ecx, DWORD PTR [eax+4]
	mov	edx, DWORD PTR [ecx+4]
	sub	edx, 24					; 00000018H
	mov	eax, DWORD PTR _this$[ebp]
	mov	ecx, DWORD PTR [eax+4]
	mov	eax, DWORD PTR [ecx+4]
	mov	ecx, DWORD PTR _this$[ebp]
	mov	DWORD PTR [ecx+eax], edx
	mov	DWORD PTR __$EHRec$[ebp+8], 0

; 40   : 	release_buffer_from_gpu_ram();

	mov	ecx, DWORD PTR _this$[ebp]
	call	?release_buffer_from_gpu_ram@pecker_color_buffer_gles2@pecker_sdk@@UAEJXZ ; pecker_sdk::pecker_color_buffer_gles2::release_buffer_from_gpu_ram

; 41   : }

	mov	DWORD PTR __$EHRec$[ebp+8], -1
	mov	ecx, DWORD PTR _this$[ebp]
	call	??1Ipecker_color_buffer@pecker_sdk@@UAE@XZ ; pecker_sdk::Ipecker_color_buffer::~Ipecker_color_buffer
	mov	ecx, DWORD PTR __$EHRec$[ebp]
	mov	DWORD PTR fs:0, ecx
	pop	ecx
	pop	edi
	pop	esi
	pop	ebx
	add	esp, 216				; 000000d8H
	cmp	ebp, esp
	call	__RTC_CheckEsp
	mov	esp, ebp
	pop	ebp
	ret	0
_TEXT	ENDS
;	COMDAT text$x
text$x	SEGMENT
__unwindfunclet$??1pecker_color_buffer_gles2@pecker_sdk@@UAE@XZ$0:
	mov	ecx, DWORD PTR _this$[ebp]
	jmp	??1Ipecker_color_buffer@pecker_sdk@@UAE@XZ ; pecker_sdk::Ipecker_color_buffer::~Ipecker_color_buffer
__ehhandler$??1pecker_color_buffer_gles2@pecker_sdk@@UAE@XZ:
	mov	edx, DWORD PTR [esp+8]
	lea	eax, DWORD PTR [edx+12]
	mov	ecx, DWORD PTR [edx-220]
	xor	ecx, eax
	call	@__security_check_cookie@4
	mov	eax, OFFSET __ehfuncinfo$??1pecker_color_buffer_gles2@pecker_sdk@@UAE@XZ
	jmp	___CxxFrameHandler3
text$x	ENDS
??1pecker_color_buffer_gles2@pecker_sdk@@UAE@XZ ENDP	; pecker_sdk::pecker_color_buffer_gles2::~pecker_color_buffer_gles2
; Function compile flags: /Odtp /RTCsu /ZI
;	COMDAT ?attach_by_frame_buffer@pecker_color_buffer_gles2@pecker_sdk@@UAEJPAUIpecker_frame_buffer@2@I@Z
_TEXT	SEGMENT
_this$ = -8						; size = 4
_pframe_buffer$ = 8					; size = 4
_attach_index$ = 12					; size = 4
?attach_by_frame_buffer@pecker_color_buffer_gles2@pecker_sdk@@UAEJPAUIpecker_frame_buffer@2@I@Z PROC ; pecker_sdk::pecker_color_buffer_gles2::attach_by_frame_buffer, COMDAT
; _this$ = ecx

; 44   : {

	push	ebp
	mov	ebp, esp
	sub	esp, 204				; 000000ccH
	push	ebx
	push	esi
	push	edi
	push	ecx
	lea	edi, DWORD PTR [ebp-204]
	mov	ecx, 51					; 00000033H
	mov	eax, -858993460				; ccccccccH
	rep stosd
	pop	ecx
	mov	DWORD PTR _this$[ebp], ecx

; 45   : 	if (null != pframe_buffer)

	cmp	DWORD PTR _pframe_buffer$[ebp], 0
	je	SHORT $LN1@attach_by_

; 46   : 	{
; 47   : 		return pframe_buffer->attach_render_buffer(this,attach_index);

	mov	esi, esp
	mov	eax, DWORD PTR _attach_index$[ebp]
	push	eax
	mov	ecx, DWORD PTR _this$[ebp]
	push	ecx
	mov	edx, DWORD PTR _pframe_buffer$[ebp]
	mov	eax, DWORD PTR [edx]
	mov	ecx, DWORD PTR _pframe_buffer$[ebp]
	mov	edx, DWORD PTR [eax+12]
	call	edx
	cmp	esi, esp
	call	__RTC_CheckEsp
	jmp	SHORT $LN2@attach_by_
$LN1@attach_by_:

; 48   : 	}
; 49   : 	return P_INVALID_VALUE;

	mov	eax, -2					; fffffffeH
$LN2@attach_by_:

; 50   : }

	pop	edi
	pop	esi
	pop	ebx
	add	esp, 204				; 000000ccH
	cmp	ebp, esp
	call	__RTC_CheckEsp
	mov	esp, ebp
	pop	ebp
	ret	8
?attach_by_frame_buffer@pecker_color_buffer_gles2@pecker_sdk@@UAEJPAUIpecker_frame_buffer@2@I@Z ENDP ; pecker_sdk::pecker_color_buffer_gles2::attach_by_frame_buffer
_TEXT	ENDS
EXTRN	?get_last_error_code@pecker_opengles_v2_object@pecker_sdk@@SAJXZ:PROC ; pecker_sdk::pecker_opengles_v2_object::get_last_error_code
EXTRN	__imp__glBindRenderbuffer@8:PROC
; Function compile flags: /Odtp /RTCsu /ZI
;	COMDAT ?bind@pecker_color_buffer_gles2@pecker_sdk@@UAEJXZ
_TEXT	SEGMENT
_this$ = -8						; size = 4
?bind@pecker_color_buffer_gles2@pecker_sdk@@UAEJXZ PROC	; pecker_sdk::pecker_color_buffer_gles2::bind, COMDAT
; _this$ = ecx

; 53   : {

	push	ebp
	mov	ebp, esp
	sub	esp, 204				; 000000ccH
	push	ebx
	push	esi
	push	edi
	push	ecx
	lea	edi, DWORD PTR [ebp-204]
	mov	ecx, 51					; 00000033H
	mov	eax, -858993460				; ccccccccH
	rep stosd
	pop	ecx
	mov	DWORD PTR _this$[ebp], ecx

; 54   : 	glBindRenderbuffer(GL_RENDERBUFFER,_M_gpu_target);

	mov	esi, esp
	mov	eax, DWORD PTR _this$[ebp]
	mov	ecx, DWORD PTR [eax+8]
	push	ecx
	push	36161					; 00008d41H
	call	DWORD PTR __imp__glBindRenderbuffer@8
	cmp	esi, esp
	call	__RTC_CheckEsp

; 55   : 	return pecker_opengles_v2_object::get_last_error_code();

	call	?get_last_error_code@pecker_opengles_v2_object@pecker_sdk@@SAJXZ ; pecker_sdk::pecker_opengles_v2_object::get_last_error_code

; 56   : }

	pop	edi
	pop	esi
	pop	ebx
	add	esp, 204				; 000000ccH
	cmp	ebp, esp
	call	__RTC_CheckEsp
	mov	esp, ebp
	pop	ebp
	ret	0
?bind@pecker_color_buffer_gles2@pecker_sdk@@UAEJXZ ENDP	; pecker_sdk::pecker_color_buffer_gles2::bind
_TEXT	ENDS
EXTRN	__imp__glGenRenderbuffers@8:PROC
; Function compile flags: /Odtp /RTCsu /ZI
;	COMDAT ?allocate_buffer_from_gpu_ram@pecker_color_buffer_gles2@pecker_sdk@@UAEJXZ
_TEXT	SEGMENT
_result_$69389 = -20					; size = 4
_this$ = -8						; size = 4
?allocate_buffer_from_gpu_ram@pecker_color_buffer_gles2@pecker_sdk@@UAEJXZ PROC ; pecker_sdk::pecker_color_buffer_gles2::allocate_buffer_from_gpu_ram, COMDAT
; _this$ = ecx

; 59   : {

	push	ebp
	mov	ebp, esp
	sub	esp, 216				; 000000d8H
	push	ebx
	push	esi
	push	edi
	push	ecx
	lea	edi, DWORD PTR [ebp-216]
	mov	ecx, 54					; 00000036H
	mov	eax, -858993460				; ccccccccH
	rep stosd
	pop	ecx
	mov	DWORD PTR _this$[ebp], ecx

; 60   : 	if (0 == _M_gpu_target)

	mov	eax, DWORD PTR _this$[ebp]
	cmp	DWORD PTR [eax+8], 0
	jne	SHORT $LN2@allocate_b

; 61   : 	{
; 62   : 		glGenRenderbuffers(1,&_M_gpu_target);

	mov	eax, DWORD PTR _this$[ebp]
	add	eax, 8
	mov	esi, esp
	push	eax
	push	1
	call	DWORD PTR __imp__glGenRenderbuffers@8
	cmp	esi, esp
	call	__RTC_CheckEsp

; 63   : 		HResult result_ = pecker_opengles_v2_object::get_last_error_code();

	call	?get_last_error_code@pecker_opengles_v2_object@pecker_sdk@@SAJXZ ; pecker_sdk::pecker_opengles_v2_object::get_last_error_code
	mov	DWORD PTR _result_$69389[ebp], eax

; 64   : 		return result_;

	mov	eax, DWORD PTR _result_$69389[ebp]
	jmp	SHORT $LN3@allocate_b

; 65   : 	}
; 66   : 	else

	jmp	SHORT $LN3@allocate_b
$LN2@allocate_b:

; 67   : 	{
; 68   : 		return P_UNIQUE_ERR;

	mov	eax, -4					; fffffffcH
$LN3@allocate_b:

; 69   : 	}
; 70   : }

	pop	edi
	pop	esi
	pop	ebx
	add	esp, 216				; 000000d8H
	cmp	ebp, esp
	call	__RTC_CheckEsp
	mov	esp, ebp
	pop	ebp
	ret	0
?allocate_buffer_from_gpu_ram@pecker_color_buffer_gles2@pecker_sdk@@UAEJXZ ENDP ; pecker_sdk::pecker_color_buffer_gles2::allocate_buffer_from_gpu_ram
_TEXT	ENDS
EXTRN	__imp__glDeleteRenderbuffers@8:PROC
; Function compile flags: /Odtp /RTCsu /ZI
;	COMDAT ?release_buffer_from_gpu_ram@pecker_color_buffer_gles2@pecker_sdk@@UAEJXZ
_TEXT	SEGMENT
_result_$69395 = -20					; size = 4
_this$ = -8						; size = 4
?release_buffer_from_gpu_ram@pecker_color_buffer_gles2@pecker_sdk@@UAEJXZ PROC ; pecker_sdk::pecker_color_buffer_gles2::release_buffer_from_gpu_ram, COMDAT
; _this$ = ecx

; 73   : {

	push	ebp
	mov	ebp, esp
	sub	esp, 216				; 000000d8H
	push	ebx
	push	esi
	push	edi
	push	ecx
	lea	edi, DWORD PTR [ebp-216]
	mov	ecx, 54					; 00000036H
	mov	eax, -858993460				; ccccccccH
	rep stosd
	pop	ecx
	mov	DWORD PTR _this$[ebp], ecx

; 74   : 	if (0 != _M_gpu_target)

	mov	eax, DWORD PTR _this$[ebp]
	cmp	DWORD PTR [eax+8], 0
	je	SHORT $LN2@release_bu

; 75   : 	{
; 76   : 		glDeleteRenderbuffers(1,&_M_gpu_target);

	mov	eax, DWORD PTR _this$[ebp]
	add	eax, 8
	mov	esi, esp
	push	eax
	push	1
	call	DWORD PTR __imp__glDeleteRenderbuffers@8
	cmp	esi, esp
	call	__RTC_CheckEsp

; 77   : 		HResult result_ = pecker_opengles_v2_object::get_last_error_code();

	call	?get_last_error_code@pecker_opengles_v2_object@pecker_sdk@@SAJXZ ; pecker_sdk::pecker_opengles_v2_object::get_last_error_code
	mov	DWORD PTR _result_$69395[ebp], eax

; 78   : 		return result_;

	mov	eax, DWORD PTR _result_$69395[ebp]
	jmp	SHORT $LN3@release_bu

; 79   : 	}
; 80   : 	else

	jmp	SHORT $LN3@release_bu
$LN2@release_bu:

; 81   : 	{
; 82   : 		return P_OK;

	xor	eax, eax
$LN3@release_bu:

; 83   : 	}
; 84   : 	
; 85   : }

	pop	edi
	pop	esi
	pop	ebx
	add	esp, 216				; 000000d8H
	cmp	ebp, esp
	call	__RTC_CheckEsp
	mov	esp, ebp
	pop	ebp
	ret	0
?release_buffer_from_gpu_ram@pecker_color_buffer_gles2@pecker_sdk@@UAEJXZ ENDP ; pecker_sdk::pecker_color_buffer_gles2::release_buffer_from_gpu_ram
_TEXT	ENDS
EXTRN	__imp__glRenderbufferStorage@16:PROC
; Function compile flags: /Odtp /RTCsu /ZI
;	COMDAT ?use_render_buffer_info@pecker_color_buffer_gles2@pecker_sdk@@UAEJXZ
_TEXT	SEGMENT
_result_$69403 = -32					; size = 4
_internal_format$69401 = -20				; size = 4
_this$ = -8						; size = 4
?use_render_buffer_info@pecker_color_buffer_gles2@pecker_sdk@@UAEJXZ PROC ; pecker_sdk::pecker_color_buffer_gles2::use_render_buffer_info, COMDAT
; _this$ = ecx

; 88   : {

	push	ebp
	mov	ebp, esp
	sub	esp, 228				; 000000e4H
	push	ebx
	push	esi
	push	edi
	push	ecx
	lea	edi, DWORD PTR [ebp-228]
	mov	ecx, 57					; 00000039H
	mov	eax, -858993460				; ccccccccH
	rep stosd
	pop	ecx
	mov	DWORD PTR _this$[ebp], ecx

; 89   : 	if (0 != _M_gpu_target)

	mov	eax, DWORD PTR _this$[ebp]
	cmp	DWORD PTR [eax+8], 0
	je	SHORT $LN2@use_render

; 90   : 	{
; 91   : 		UInt internal_format = _M_render_buffer_info._M_internal_format;

	mov	eax, DWORD PTR _this$[ebp]
	mov	ecx, DWORD PTR [eax+12]
	mov	DWORD PTR _internal_format$69401[ebp], ecx

; 92   : 		if (_M_render_buffer_info._M_internal_format < COLOR_BUFFER_FORMAT_COUNT)

	mov	eax, DWORD PTR _this$[ebp]
	cmp	DWORD PTR [eax+12], 5
	jae	SHORT $LN1@use_render

; 93   : 		{
; 94   : 			internal_format = COLOR_BUFFER_FORMAT_TABLE_GLES2[_M_render_buffer_info._M_internal_format];

	mov	eax, DWORD PTR _this$[ebp]
	mov	ecx, DWORD PTR [eax+12]
	mov	edx, DWORD PTR _COLOR_BUFFER_FORMAT_TABLE_GLES2[ecx*4]
	mov	DWORD PTR _internal_format$69401[ebp], edx
$LN1@use_render:

; 95   : 		}
; 96   : 
; 97   : 		glBindRenderbuffer(GL_RENDERBUFFER,_M_gpu_target);

	mov	esi, esp
	mov	eax, DWORD PTR _this$[ebp]
	mov	ecx, DWORD PTR [eax+8]
	push	ecx
	push	36161					; 00008d41H
	call	DWORD PTR __imp__glBindRenderbuffer@8
	cmp	esi, esp
	call	__RTC_CheckEsp

; 98   : 		glRenderbufferStorage(GL_RENDERBUFFER,_M_render_buffer_info._M_internal_format,
; 99   : 			_M_render_buffer_info._M_width,_M_render_buffer_info._M_heigth);

	mov	esi, esp
	mov	eax, DWORD PTR _this$[ebp]
	mov	ecx, DWORD PTR [eax+20]
	push	ecx
	mov	edx, DWORD PTR _this$[ebp]
	mov	eax, DWORD PTR [edx+16]
	push	eax
	mov	ecx, DWORD PTR _this$[ebp]
	mov	edx, DWORD PTR [ecx+12]
	push	edx
	push	36161					; 00008d41H
	call	DWORD PTR __imp__glRenderbufferStorage@16
	cmp	esi, esp
	call	__RTC_CheckEsp

; 100  : 
; 101  : 		HResult result_ = pecker_opengles_v2_object::get_last_error_code();

	call	?get_last_error_code@pecker_opengles_v2_object@pecker_sdk@@SAJXZ ; pecker_sdk::pecker_opengles_v2_object::get_last_error_code
	mov	DWORD PTR _result_$69403[ebp], eax

; 102  : 		return result_;

	mov	eax, DWORD PTR _result_$69403[ebp]
	jmp	SHORT $LN3@use_render
$LN2@use_render:

; 103  : 	}
; 104  : 	return P_FAIL;

	mov	eax, 1
$LN3@use_render:

; 105  : }

	pop	edi
	pop	esi
	pop	ebx
	add	esp, 228				; 000000e4H
	cmp	ebp, esp
	call	__RTC_CheckEsp
	mov	esp, ebp
	pop	ebp
	ret	0
?use_render_buffer_info@pecker_color_buffer_gles2@pecker_sdk@@UAEJXZ ENDP ; pecker_sdk::pecker_color_buffer_gles2::use_render_buffer_info
; Function compile flags: /Odtp /RTCsu /ZI
_TEXT	ENDS
;	COMDAT ?use_render_buffer_info@pecker_color_buffer_gles2@pecker_sdk@@UAEJABUpecker_render_buffer_info@2@@Z
_TEXT	SEGMENT
_result_$69411 = -32					; size = 4
_internal_format$69409 = -20				; size = 4
_this$ = -8						; size = 4
_buf_info$ = 8						; size = 4
?use_render_buffer_info@pecker_color_buffer_gles2@pecker_sdk@@UAEJABUpecker_render_buffer_info@2@@Z PROC ; pecker_sdk::pecker_color_buffer_gles2::use_render_buffer_info, COMDAT
; _this$ = ecx

; 108  : {

	push	ebp
	mov	ebp, esp
	sub	esp, 228				; 000000e4H
	push	ebx
	push	esi
	push	edi
	push	ecx
	lea	edi, DWORD PTR [ebp-228]
	mov	ecx, 57					; 00000039H
	mov	eax, -858993460				; ccccccccH
	rep stosd
	pop	ecx
	mov	DWORD PTR _this$[ebp], ecx

; 109  : 	if (0 != _M_gpu_target)

	mov	eax, DWORD PTR _this$[ebp]
	cmp	DWORD PTR [eax+8], 0
	je	$LN3@use_render@2

; 110  : 	{
; 111  : 		UInt internal_format = buf_info._M_internal_format;

	mov	eax, DWORD PTR _buf_info$[ebp]
	mov	ecx, DWORD PTR [eax]
	mov	DWORD PTR _internal_format$69409[ebp], ecx

; 112  : 		if (buf_info._M_internal_format < COLOR_BUFFER_FORMAT_COUNT)

	mov	eax, DWORD PTR _buf_info$[ebp]
	cmp	DWORD PTR [eax], 5
	jae	SHORT $LN2@use_render@2

; 113  : 		{
; 114  : 			internal_format = COLOR_BUFFER_FORMAT_TABLE_GLES2[buf_info._M_internal_format];

	mov	eax, DWORD PTR _buf_info$[ebp]
	mov	ecx, DWORD PTR [eax]
	mov	edx, DWORD PTR _COLOR_BUFFER_FORMAT_TABLE_GLES2[ecx*4]
	mov	DWORD PTR _internal_format$69409[ebp], edx
$LN2@use_render@2:

; 115  : 		}
; 116  : 		glBindRenderbuffer(GL_RENDERBUFFER,_M_gpu_target);

	mov	esi, esp
	mov	eax, DWORD PTR _this$[ebp]
	mov	ecx, DWORD PTR [eax+8]
	push	ecx
	push	36161					; 00008d41H
	call	DWORD PTR __imp__glBindRenderbuffer@8
	cmp	esi, esp
	call	__RTC_CheckEsp

; 117  : 		glRenderbufferStorage(GL_RENDERBUFFER,internal_format,
; 118  : 			buf_info._M_width,buf_info._M_heigth);

	mov	esi, esp
	mov	eax, DWORD PTR _buf_info$[ebp]
	mov	ecx, DWORD PTR [eax+8]
	push	ecx
	mov	edx, DWORD PTR _buf_info$[ebp]
	mov	eax, DWORD PTR [edx+4]
	push	eax
	mov	ecx, DWORD PTR _internal_format$69409[ebp]
	push	ecx
	push	36161					; 00008d41H
	call	DWORD PTR __imp__glRenderbufferStorage@16
	cmp	esi, esp
	call	__RTC_CheckEsp

; 119  : 
; 120  : 		HResult result_ = pecker_opengles_v2_object::get_last_error_code();

	call	?get_last_error_code@pecker_opengles_v2_object@pecker_sdk@@SAJXZ ; pecker_sdk::pecker_opengles_v2_object::get_last_error_code
	mov	DWORD PTR _result_$69411[ebp], eax

; 121  : 		if (P_OK == result_)

	cmp	DWORD PTR _result_$69411[ebp], 0
	jne	SHORT $LN1@use_render@2

; 122  : 		{
; 123  : 			_M_render_buffer_info = buf_info;

	mov	eax, DWORD PTR _buf_info$[ebp]
	mov	ecx, DWORD PTR _this$[ebp]
	add	ecx, 12					; 0000000cH
	mov	edx, DWORD PTR [eax]
	mov	DWORD PTR [ecx], edx
	mov	edx, DWORD PTR [eax+4]
	mov	DWORD PTR [ecx+4], edx
	mov	eax, DWORD PTR [eax+8]
	mov	DWORD PTR [ecx+8], eax
$LN1@use_render@2:

; 124  : 		}
; 125  : 		return result_;

	mov	eax, DWORD PTR _result_$69411[ebp]
	jmp	SHORT $LN4@use_render@2
$LN3@use_render@2:

; 126  : 	}
; 127  : 	return P_FAIL;

	mov	eax, 1
$LN4@use_render@2:

; 128  : }

	pop	edi
	pop	esi
	pop	ebx
	add	esp, 228				; 000000e4H
	cmp	ebp, esp
	call	__RTC_CheckEsp
	mov	esp, ebp
	pop	ebp
	ret	4
?use_render_buffer_info@pecker_color_buffer_gles2@pecker_sdk@@UAEJABUpecker_render_buffer_info@2@@Z ENDP ; pecker_sdk::pecker_color_buffer_gles2::use_render_buffer_info
; Function compile flags: /Odtp /RTCsu /ZI
_TEXT	ENDS
;	COMDAT ?get_render_buffer_info@pecker_color_buffer_gles2@pecker_sdk@@UBEABUpecker_render_buffer_info@2@XZ
_TEXT	SEGMENT
_this$ = -8						; size = 4
?get_render_buffer_info@pecker_color_buffer_gles2@pecker_sdk@@UBEABUpecker_render_buffer_info@2@XZ PROC ; pecker_sdk::pecker_color_buffer_gles2::get_render_buffer_info, COMDAT
; _this$ = ecx

; 131  : {

	push	ebp
	mov	ebp, esp
	sub	esp, 204				; 000000ccH
	push	ebx
	push	esi
	push	edi
	push	ecx
	lea	edi, DWORD PTR [ebp-204]
	mov	ecx, 51					; 00000033H
	mov	eax, -858993460				; ccccccccH
	rep stosd
	pop	ecx
	mov	DWORD PTR _this$[ebp], ecx

; 132  : 	return _M_render_buffer_info;

	mov	eax, DWORD PTR _this$[ebp]
	add	eax, 12					; 0000000cH

; 133  : }

	pop	edi
	pop	esi
	pop	ebx
	mov	esp, ebp
	pop	ebp
	ret	0
?get_render_buffer_info@pecker_color_buffer_gles2@pecker_sdk@@UBEABUpecker_render_buffer_info@2@XZ ENDP ; pecker_sdk::pecker_color_buffer_gles2::get_render_buffer_info
_TEXT	ENDS
PUBLIC	?get_object_location@pecker_color_buffer_gles2@pecker_sdk@@UBEIXZ ; pecker_sdk::pecker_color_buffer_gles2::get_object_location
; Function compile flags: /Odtp /RTCsu /ZI
;	COMDAT ?get_object_location@pecker_color_buffer_gles2@pecker_sdk@@UBEIXZ
_TEXT	SEGMENT
_this$ = -8						; size = 4
?get_object_location@pecker_color_buffer_gles2@pecker_sdk@@UBEIXZ PROC ; pecker_sdk::pecker_color_buffer_gles2::get_object_location, COMDAT
; _this$ = ecx

; 136  : {

	push	ebp
	mov	ebp, esp
	sub	esp, 204				; 000000ccH
	push	ebx
	push	esi
	push	edi
	push	ecx
	lea	edi, DWORD PTR [ebp-204]
	mov	ecx, 51					; 00000033H
	mov	eax, -858993460				; ccccccccH
	rep stosd
	pop	ecx
	mov	DWORD PTR _this$[ebp], ecx

; 137  : 	return _M_gpu_target;

	mov	eax, DWORD PTR _this$[ebp]
	mov	eax, DWORD PTR [eax-20]

; 138  : }

	pop	edi
	pop	esi
	pop	ebx
	mov	esp, ebp
	pop	ebp
	ret	0
?get_object_location@pecker_color_buffer_gles2@pecker_sdk@@UBEIXZ ENDP ; pecker_sdk::pecker_color_buffer_gles2::get_object_location
_TEXT	ENDS
PUBLIC	??_7pecker_depth_buffer_gles2@pecker_sdk@@6Bpecker_opengles_v2_object@1@@ ; pecker_sdk::pecker_depth_buffer_gles2::`vftable'
PUBLIC	??_7pecker_depth_buffer_gles2@pecker_sdk@@6BIpecker_depth_buffer@1@@ ; pecker_sdk::pecker_depth_buffer_gles2::`vftable'
PUBLIC	??0Ipecker_depth_buffer@pecker_sdk@@QAE@XZ	; pecker_sdk::Ipecker_depth_buffer::Ipecker_depth_buffer
PUBLIC	??_8pecker_depth_buffer_gles2@pecker_sdk@@7B@	; pecker_sdk::pecker_depth_buffer_gles2::`vbtable'
PUBLIC	??0pecker_depth_buffer_gles2@pecker_sdk@@QAE@XZ	; pecker_sdk::pecker_depth_buffer_gles2::pecker_depth_buffer_gles2
PUBLIC	??_R4pecker_depth_buffer_gles2@pecker_sdk@@6BIpecker_depth_buffer@1@@ ; pecker_sdk::pecker_depth_buffer_gles2::`RTTI Complete Object Locator'
PUBLIC	??_R0?AVpecker_depth_buffer_gles2@pecker_sdk@@@8 ; pecker_sdk::pecker_depth_buffer_gles2 `RTTI Type Descriptor'
PUBLIC	??_R3pecker_depth_buffer_gles2@pecker_sdk@@8	; pecker_sdk::pecker_depth_buffer_gles2::`RTTI Class Hierarchy Descriptor'
PUBLIC	??_R2pecker_depth_buffer_gles2@pecker_sdk@@8	; pecker_sdk::pecker_depth_buffer_gles2::`RTTI Base Class Array'
PUBLIC	??_R1A@?0A@EA@pecker_depth_buffer_gles2@pecker_sdk@@8 ; pecker_sdk::pecker_depth_buffer_gles2::`RTTI Base Class Descriptor at (0,-1,0,64)'
PUBLIC	??_R1A@?0A@EA@Ipecker_depth_buffer@pecker_sdk@@8 ; pecker_sdk::Ipecker_depth_buffer::`RTTI Base Class Descriptor at (0,-1,0,64)'
PUBLIC	??_R0?AUIpecker_depth_buffer@pecker_sdk@@@8	; pecker_sdk::Ipecker_depth_buffer `RTTI Type Descriptor'
PUBLIC	??_R3Ipecker_depth_buffer@pecker_sdk@@8		; pecker_sdk::Ipecker_depth_buffer::`RTTI Class Hierarchy Descriptor'
PUBLIC	??_R2Ipecker_depth_buffer@pecker_sdk@@8		; pecker_sdk::Ipecker_depth_buffer::`RTTI Base Class Array'
PUBLIC	?attach_by_frame_buffer@pecker_depth_buffer_gles2@pecker_sdk@@UAEJPAUIpecker_frame_buffer@2@I@Z ; pecker_sdk::pecker_depth_buffer_gles2::attach_by_frame_buffer
PUBLIC	?bind@pecker_depth_buffer_gles2@pecker_sdk@@UAEJXZ ; pecker_sdk::pecker_depth_buffer_gles2::bind
PUBLIC	?allocate_buffer_from_gpu_ram@pecker_depth_buffer_gles2@pecker_sdk@@UAEJXZ ; pecker_sdk::pecker_depth_buffer_gles2::allocate_buffer_from_gpu_ram
PUBLIC	?release_buffer_from_gpu_ram@pecker_depth_buffer_gles2@pecker_sdk@@UAEJXZ ; pecker_sdk::pecker_depth_buffer_gles2::release_buffer_from_gpu_ram
PUBLIC	?use_render_buffer_info@pecker_depth_buffer_gles2@pecker_sdk@@UAEJABUpecker_render_buffer_info@2@@Z ; pecker_sdk::pecker_depth_buffer_gles2::use_render_buffer_info
PUBLIC	?use_render_buffer_info@pecker_depth_buffer_gles2@pecker_sdk@@UAEJXZ ; pecker_sdk::pecker_depth_buffer_gles2::use_render_buffer_info
PUBLIC	?get_render_buffer_info@pecker_depth_buffer_gles2@pecker_sdk@@UBEABUpecker_render_buffer_info@2@XZ ; pecker_sdk::pecker_depth_buffer_gles2::get_render_buffer_info
PUBLIC	??_R4pecker_depth_buffer_gles2@pecker_sdk@@6Bpecker_opengles_v2_object@1@@ ; pecker_sdk::pecker_depth_buffer_gles2::`RTTI Complete Object Locator'
PUBLIC	??_Epecker_depth_buffer_gles2@pecker_sdk@@$4PPPPPPPM@BM@AEPAXI@Z ; pecker_sdk::pecker_depth_buffer_gles2::`vector deleting destructor'
PUBLIC	?get_object_location@pecker_depth_buffer_gles2@pecker_sdk@@$4PPPPPPPM@A@BEIXZ ; pecker_sdk::pecker_depth_buffer_gles2::get_object_location
EXTRN	??_Epecker_depth_buffer_gles2@pecker_sdk@@UAEPAXI@Z:PROC ; pecker_sdk::pecker_depth_buffer_gles2::`vector deleting destructor'
EXTRN	?get_frame_buffer_object_type@Ipecker_depth_buffer@pecker_sdk@@UBEIXZ:PROC ; pecker_sdk::Ipecker_depth_buffer::get_frame_buffer_object_type
;	COMDAT ??_R4pecker_depth_buffer_gles2@pecker_sdk@@6Bpecker_opengles_v2_object@1@@
rdata$r	SEGMENT
??_R4pecker_depth_buffer_gles2@pecker_sdk@@6Bpecker_opengles_v2_object@1@@ DD 00H ; pecker_sdk::pecker_depth_buffer_gles2::`RTTI Complete Object Locator'
	DD	01cH
	DD	04H
	DD	FLAT:??_R0?AVpecker_depth_buffer_gles2@pecker_sdk@@@8
	DD	FLAT:??_R3pecker_depth_buffer_gles2@pecker_sdk@@8
rdata$r	ENDS
;	COMDAT ??_R2Ipecker_depth_buffer@pecker_sdk@@8
rdata$r	SEGMENT
??_R2Ipecker_depth_buffer@pecker_sdk@@8 DD FLAT:??_R1A@?0A@EA@Ipecker_depth_buffer@pecker_sdk@@8 ; pecker_sdk::Ipecker_depth_buffer::`RTTI Base Class Array'
	DD	FLAT:??_R1A@?0A@EA@Ipecker_render_buffer@pecker_sdk@@8
	DD	FLAT:??_R1A@?0A@EA@Ipecker_frame_buffer_object@pecker_sdk@@8
rdata$r	ENDS
;	COMDAT ??_R3Ipecker_depth_buffer@pecker_sdk@@8
rdata$r	SEGMENT
??_R3Ipecker_depth_buffer@pecker_sdk@@8 DD 00H		; pecker_sdk::Ipecker_depth_buffer::`RTTI Class Hierarchy Descriptor'
	DD	00H
	DD	03H
	DD	FLAT:??_R2Ipecker_depth_buffer@pecker_sdk@@8
rdata$r	ENDS
;	COMDAT ??_R0?AUIpecker_depth_buffer@pecker_sdk@@@8
_DATA	SEGMENT
??_R0?AUIpecker_depth_buffer@pecker_sdk@@@8 DD FLAT:??_7type_info@@6B@ ; pecker_sdk::Ipecker_depth_buffer `RTTI Type Descriptor'
	DD	00H
	DB	'.?AUIpecker_depth_buffer@pecker_sdk@@', 00H
_DATA	ENDS
;	COMDAT ??_R1A@?0A@EA@Ipecker_depth_buffer@pecker_sdk@@8
rdata$r	SEGMENT
??_R1A@?0A@EA@Ipecker_depth_buffer@pecker_sdk@@8 DD FLAT:??_R0?AUIpecker_depth_buffer@pecker_sdk@@@8 ; pecker_sdk::Ipecker_depth_buffer::`RTTI Base Class Descriptor at (0,-1,0,64)'
	DD	02H
	DD	00H
	DD	0ffffffffH
	DD	00H
	DD	040H
	DD	FLAT:??_R3Ipecker_depth_buffer@pecker_sdk@@8
rdata$r	ENDS
;	COMDAT ??_R1A@?0A@EA@pecker_depth_buffer_gles2@pecker_sdk@@8
rdata$r	SEGMENT
??_R1A@?0A@EA@pecker_depth_buffer_gles2@pecker_sdk@@8 DD FLAT:??_R0?AVpecker_depth_buffer_gles2@pecker_sdk@@@8 ; pecker_sdk::pecker_depth_buffer_gles2::`RTTI Base Class Descriptor at (0,-1,0,64)'
	DD	05H
	DD	00H
	DD	0ffffffffH
	DD	00H
	DD	040H
	DD	FLAT:??_R3pecker_depth_buffer_gles2@pecker_sdk@@8
rdata$r	ENDS
;	COMDAT ??_R2pecker_depth_buffer_gles2@pecker_sdk@@8
rdata$r	SEGMENT
??_R2pecker_depth_buffer_gles2@pecker_sdk@@8 DD FLAT:??_R1A@?0A@EA@pecker_depth_buffer_gles2@pecker_sdk@@8 ; pecker_sdk::pecker_depth_buffer_gles2::`RTTI Base Class Array'
	DD	FLAT:??_R1A@?0A@EA@Ipecker_depth_buffer@pecker_sdk@@8
	DD	FLAT:??_R1A@?0A@EA@Ipecker_render_buffer@pecker_sdk@@8
	DD	FLAT:??_R1A@?0A@EA@Ipecker_frame_buffer_object@pecker_sdk@@8
	DD	FLAT:??_R1A@33FA@pecker_opengles_v2_object@pecker_sdk@@8
	DD	FLAT:??_R1A@33EA@pecker_render_object@pecker_sdk@@8
rdata$r	ENDS
;	COMDAT ??_R3pecker_depth_buffer_gles2@pecker_sdk@@8
rdata$r	SEGMENT
??_R3pecker_depth_buffer_gles2@pecker_sdk@@8 DD 00H	; pecker_sdk::pecker_depth_buffer_gles2::`RTTI Class Hierarchy Descriptor'
	DD	03H
	DD	06H
	DD	FLAT:??_R2pecker_depth_buffer_gles2@pecker_sdk@@8
rdata$r	ENDS
;	COMDAT ??_R0?AVpecker_depth_buffer_gles2@pecker_sdk@@@8
_DATA	SEGMENT
??_R0?AVpecker_depth_buffer_gles2@pecker_sdk@@@8 DD FLAT:??_7type_info@@6B@ ; pecker_sdk::pecker_depth_buffer_gles2 `RTTI Type Descriptor'
	DD	00H
	DB	'.?AVpecker_depth_buffer_gles2@pecker_sdk@@', 00H
_DATA	ENDS
;	COMDAT ??_R4pecker_depth_buffer_gles2@pecker_sdk@@6BIpecker_depth_buffer@1@@
rdata$r	SEGMENT
??_R4pecker_depth_buffer_gles2@pecker_sdk@@6BIpecker_depth_buffer@1@@ DD 00H ; pecker_sdk::pecker_depth_buffer_gles2::`RTTI Complete Object Locator'
	DD	00H
	DD	00H
	DD	FLAT:??_R0?AVpecker_depth_buffer_gles2@pecker_sdk@@@8
	DD	FLAT:??_R3pecker_depth_buffer_gles2@pecker_sdk@@8
rdata$r	ENDS
;	COMDAT ??_7pecker_depth_buffer_gles2@pecker_sdk@@6Bpecker_opengles_v2_object@1@@
CONST	SEGMENT
??_7pecker_depth_buffer_gles2@pecker_sdk@@6Bpecker_opengles_v2_object@1@@ DD FLAT:??_R4pecker_depth_buffer_gles2@pecker_sdk@@6Bpecker_opengles_v2_object@1@@ ; pecker_sdk::pecker_depth_buffer_gles2::`vftable'
	DD	FLAT:??_Epecker_depth_buffer_gles2@pecker_sdk@@$4PPPPPPPM@BM@AEPAXI@Z
	DD	FLAT:?toString@pecker_render_object@pecker_sdk@@UBEABV?$pecker_share_string_base_t@DU?$pecker_value_compare@D@pecker_sdk@@V?$pecker_simple_allocator@D@2@$0BA@@2@AAV32@@Z
	DD	FLAT:?get_render_system_info@pecker_opengles_v2_object@pecker_sdk@@UBEABUpecker_render_system_info@2@AAU32@@Z
	DD	FLAT:?get_this_reference@pecker_render_object@pecker_sdk@@UAEPAV12@XZ
	DD	FLAT:?release_this_reference@pecker_render_object@pecker_sdk@@UAEJXZ
	DD	FLAT:?get_object_location@pecker_depth_buffer_gles2@pecker_sdk@@$4PPPPPPPM@A@BEIXZ
CONST	ENDS
;	COMDAT ??_7pecker_depth_buffer_gles2@pecker_sdk@@6BIpecker_depth_buffer@1@@
CONST	SEGMENT
??_7pecker_depth_buffer_gles2@pecker_sdk@@6BIpecker_depth_buffer@1@@ DD FLAT:??_R4pecker_depth_buffer_gles2@pecker_sdk@@6BIpecker_depth_buffer@1@@ ; pecker_sdk::pecker_depth_buffer_gles2::`vftable'
	DD	FLAT:??_Epecker_depth_buffer_gles2@pecker_sdk@@UAEPAXI@Z
	DD	FLAT:?attach_by_frame_buffer@pecker_depth_buffer_gles2@pecker_sdk@@UAEJPAUIpecker_frame_buffer@2@I@Z
	DD	FLAT:?bind@pecker_depth_buffer_gles2@pecker_sdk@@UAEJXZ
	DD	FLAT:?get_frame_buffer_object_type@Ipecker_depth_buffer@pecker_sdk@@UBEIXZ
	DD	FLAT:?allocate_buffer_from_gpu_ram@pecker_depth_buffer_gles2@pecker_sdk@@UAEJXZ
	DD	FLAT:?release_buffer_from_gpu_ram@pecker_depth_buffer_gles2@pecker_sdk@@UAEJXZ
	DD	FLAT:?use_render_buffer_info@pecker_depth_buffer_gles2@pecker_sdk@@UAEJABUpecker_render_buffer_info@2@@Z
	DD	FLAT:?use_render_buffer_info@pecker_depth_buffer_gles2@pecker_sdk@@UAEJXZ
	DD	FLAT:?get_render_buffer_info@pecker_depth_buffer_gles2@pecker_sdk@@UBEABUpecker_render_buffer_info@2@XZ
CONST	ENDS
;	COMDAT ??_8pecker_depth_buffer_gles2@pecker_sdk@@7B@
CONST	SEGMENT
??_8pecker_depth_buffer_gles2@pecker_sdk@@7B@ DD 0fffffffcH ; pecker_sdk::pecker_depth_buffer_gles2::`vbtable'
	DD	018H
; Function compile flags: /Odtp /RTCsu /ZI
CONST	ENDS
;	COMDAT ??0pecker_depth_buffer_gles2@pecker_sdk@@QAE@XZ
_TEXT	SEGMENT
$T69993 = -212						; size = 4
_this$ = -8						; size = 4
_$initVBases$ = 8					; size = 4
??0pecker_depth_buffer_gles2@pecker_sdk@@QAE@XZ PROC	; pecker_sdk::pecker_depth_buffer_gles2::pecker_depth_buffer_gles2, COMDAT
; _this$ = ecx

; 143  : {

	push	ebp
	mov	ebp, esp
	sub	esp, 216				; 000000d8H
	push	ebx
	push	esi
	push	edi
	push	ecx
	lea	edi, DWORD PTR [ebp-216]
	mov	ecx, 54					; 00000036H
	mov	eax, -858993460				; ccccccccH
	rep stosd
	pop	ecx
	mov	DWORD PTR _this$[ebp], ecx
	mov	DWORD PTR $T69993[ebp], 0
	cmp	DWORD PTR _$initVBases$[ebp], 0
	je	SHORT $LN1@pecker_dep
	mov	eax, DWORD PTR _this$[ebp]
	mov	DWORD PTR [eax+4], OFFSET ??_8pecker_depth_buffer_gles2@pecker_sdk@@7B@
	mov	ecx, DWORD PTR _this$[ebp]
	add	ecx, 28					; 0000001cH
	call	??0pecker_opengles_v2_object@pecker_sdk@@QAE@XZ
	mov	eax, DWORD PTR $T69993[ebp]
	or	eax, 1
	mov	DWORD PTR $T69993[ebp], eax
$LN1@pecker_dep:
	mov	ecx, DWORD PTR _this$[ebp]
	call	??0Ipecker_depth_buffer@pecker_sdk@@QAE@XZ
	mov	eax, DWORD PTR _this$[ebp]
	mov	DWORD PTR [eax], OFFSET ??_7pecker_depth_buffer_gles2@pecker_sdk@@6BIpecker_depth_buffer@1@@
	mov	eax, DWORD PTR _this$[ebp]
	mov	ecx, DWORD PTR [eax+4]
	mov	edx, DWORD PTR [ecx+4]
	mov	eax, DWORD PTR _this$[ebp]
	mov	DWORD PTR [eax+edx+4], OFFSET ??_7pecker_depth_buffer_gles2@pecker_sdk@@6Bpecker_opengles_v2_object@1@@
	mov	eax, DWORD PTR _this$[ebp]
	mov	ecx, DWORD PTR [eax+4]
	mov	edx, DWORD PTR [ecx+4]
	sub	edx, 24					; 00000018H
	mov	eax, DWORD PTR _this$[ebp]
	mov	ecx, DWORD PTR [eax+4]
	mov	eax, DWORD PTR [ecx+4]
	mov	ecx, DWORD PTR _this$[ebp]
	mov	DWORD PTR [ecx+eax], edx
	mov	eax, DWORD PTR _this$[ebp]
	mov	DWORD PTR [eax+8], 0

; 144  : 
; 145  : }

	mov	eax, DWORD PTR _this$[ebp]
	pop	edi
	pop	esi
	pop	ebx
	add	esp, 216				; 000000d8H
	cmp	ebp, esp
	call	__RTC_CheckEsp
	mov	esp, ebp
	pop	ebp
	ret	4
??0pecker_depth_buffer_gles2@pecker_sdk@@QAE@XZ ENDP	; pecker_sdk::pecker_depth_buffer_gles2::pecker_depth_buffer_gles2
_TEXT	ENDS
PUBLIC	??_Dpecker_depth_buffer_gles2@pecker_sdk@@QAEXXZ ; pecker_sdk::pecker_depth_buffer_gles2::`vbase destructor'
; Function compile flags: /Odtp /RTCsu /ZI
;	COMDAT ??_Gpecker_depth_buffer_gles2@pecker_sdk@@UAEPAXI@Z
_TEXT	SEGMENT
_this$ = -8						; size = 4
___flags$ = 8						; size = 4
??_Gpecker_depth_buffer_gles2@pecker_sdk@@UAEPAXI@Z PROC ; pecker_sdk::pecker_depth_buffer_gles2::`scalar deleting destructor', COMDAT
; _this$ = ecx
	push	ebp
	mov	ebp, esp
	sub	esp, 204				; 000000ccH
	push	ebx
	push	esi
	push	edi
	push	ecx
	lea	edi, DWORD PTR [ebp-204]
	mov	ecx, 51					; 00000033H
	mov	eax, -858993460				; ccccccccH
	rep stosd
	pop	ecx
	mov	DWORD PTR _this$[ebp], ecx
	mov	ecx, DWORD PTR _this$[ebp]
	call	??_Dpecker_depth_buffer_gles2@pecker_sdk@@QAEXXZ
	mov	eax, DWORD PTR ___flags$[ebp]
	and	eax, 1
	je	SHORT $LN1@scalar@6
	mov	eax, DWORD PTR _this$[ebp]
	push	eax
	call	??3@YAXPAX@Z				; operator delete
	add	esp, 4
$LN1@scalar@6:
	mov	eax, DWORD PTR _this$[ebp]
	pop	edi
	pop	esi
	pop	ebx
	add	esp, 204				; 000000ccH
	cmp	ebp, esp
	call	__RTC_CheckEsp
	mov	esp, ebp
	pop	ebp
	ret	4
??_Gpecker_depth_buffer_gles2@pecker_sdk@@UAEPAXI@Z ENDP ; pecker_sdk::pecker_depth_buffer_gles2::`scalar deleting destructor'
_TEXT	ENDS
PUBLIC	??_7Ipecker_depth_buffer@pecker_sdk@@6B@	; pecker_sdk::Ipecker_depth_buffer::`vftable'
PUBLIC	??_R4Ipecker_depth_buffer@pecker_sdk@@6B@	; pecker_sdk::Ipecker_depth_buffer::`RTTI Complete Object Locator'
EXTRN	??_EIpecker_depth_buffer@pecker_sdk@@UAEPAXI@Z:PROC ; pecker_sdk::Ipecker_depth_buffer::`vector deleting destructor'
;	COMDAT ??_R4Ipecker_depth_buffer@pecker_sdk@@6B@
rdata$r	SEGMENT
??_R4Ipecker_depth_buffer@pecker_sdk@@6B@ DD 00H	; pecker_sdk::Ipecker_depth_buffer::`RTTI Complete Object Locator'
	DD	00H
	DD	00H
	DD	FLAT:??_R0?AUIpecker_depth_buffer@pecker_sdk@@@8
	DD	FLAT:??_R3Ipecker_depth_buffer@pecker_sdk@@8
rdata$r	ENDS
;	COMDAT ??_7Ipecker_depth_buffer@pecker_sdk@@6B@
CONST	SEGMENT
??_7Ipecker_depth_buffer@pecker_sdk@@6B@ DD FLAT:??_R4Ipecker_depth_buffer@pecker_sdk@@6B@ ; pecker_sdk::Ipecker_depth_buffer::`vftable'
	DD	FLAT:??_EIpecker_depth_buffer@pecker_sdk@@UAEPAXI@Z
	DD	FLAT:__purecall
	DD	FLAT:__purecall
	DD	FLAT:?get_frame_buffer_object_type@Ipecker_depth_buffer@pecker_sdk@@UBEIXZ
	DD	FLAT:__purecall
	DD	FLAT:__purecall
	DD	FLAT:__purecall
	DD	FLAT:__purecall
	DD	FLAT:__purecall
; Function compile flags: /Odtp /RTCsu /ZI
CONST	ENDS
;	COMDAT ??0Ipecker_depth_buffer@pecker_sdk@@QAE@XZ
_TEXT	SEGMENT
_this$ = -8						; size = 4
??0Ipecker_depth_buffer@pecker_sdk@@QAE@XZ PROC		; pecker_sdk::Ipecker_depth_buffer::Ipecker_depth_buffer, COMDAT
; _this$ = ecx
	push	ebp
	mov	ebp, esp
	sub	esp, 204				; 000000ccH
	push	ebx
	push	esi
	push	edi
	push	ecx
	lea	edi, DWORD PTR [ebp-204]
	mov	ecx, 51					; 00000033H
	mov	eax, -858993460				; ccccccccH
	rep stosd
	pop	ecx
	mov	DWORD PTR _this$[ebp], ecx
	mov	ecx, DWORD PTR _this$[ebp]
	call	??0Ipecker_render_buffer@pecker_sdk@@QAE@XZ
	mov	eax, DWORD PTR _this$[ebp]
	mov	DWORD PTR [eax], OFFSET ??_7Ipecker_depth_buffer@pecker_sdk@@6B@
	mov	eax, DWORD PTR _this$[ebp]
	pop	edi
	pop	esi
	pop	ebx
	add	esp, 204				; 000000ccH
	cmp	ebp, esp
	call	__RTC_CheckEsp
	mov	esp, ebp
	pop	ebp
	ret	0
??0Ipecker_depth_buffer@pecker_sdk@@QAE@XZ ENDP		; pecker_sdk::Ipecker_depth_buffer::Ipecker_depth_buffer
_TEXT	ENDS
PUBLIC	??1Ipecker_depth_buffer@pecker_sdk@@UAE@XZ	; pecker_sdk::Ipecker_depth_buffer::~Ipecker_depth_buffer
; Function compile flags: /Odtp /RTCsu /ZI
;	COMDAT ??_GIpecker_depth_buffer@pecker_sdk@@UAEPAXI@Z
_TEXT	SEGMENT
_this$ = -8						; size = 4
___flags$ = 8						; size = 4
??_GIpecker_depth_buffer@pecker_sdk@@UAEPAXI@Z PROC	; pecker_sdk::Ipecker_depth_buffer::`scalar deleting destructor', COMDAT
; _this$ = ecx
	push	ebp
	mov	ebp, esp
	sub	esp, 204				; 000000ccH
	push	ebx
	push	esi
	push	edi
	push	ecx
	lea	edi, DWORD PTR [ebp-204]
	mov	ecx, 51					; 00000033H
	mov	eax, -858993460				; ccccccccH
	rep stosd
	pop	ecx
	mov	DWORD PTR _this$[ebp], ecx
	mov	ecx, DWORD PTR _this$[ebp]
	call	??1Ipecker_depth_buffer@pecker_sdk@@UAE@XZ ; pecker_sdk::Ipecker_depth_buffer::~Ipecker_depth_buffer
	mov	eax, DWORD PTR ___flags$[ebp]
	and	eax, 1
	je	SHORT $LN1@scalar@7
	mov	eax, DWORD PTR _this$[ebp]
	push	eax
	call	??3@YAXPAX@Z				; operator delete
	add	esp, 4
$LN1@scalar@7:
	mov	eax, DWORD PTR _this$[ebp]
	pop	edi
	pop	esi
	pop	ebx
	add	esp, 204				; 000000ccH
	cmp	ebp, esp
	call	__RTC_CheckEsp
	mov	esp, ebp
	pop	ebp
	ret	4
??_GIpecker_depth_buffer@pecker_sdk@@UAEPAXI@Z ENDP	; pecker_sdk::Ipecker_depth_buffer::`scalar deleting destructor'
; Function compile flags: /Odtp /RTCsu /ZI
; File f:\codes\pecker_framework_git\pecker_src\pecker_framework\render\render_system\pecker_render_buffer.h
_TEXT	ENDS
;	COMDAT ??1Ipecker_depth_buffer@pecker_sdk@@UAE@XZ
_TEXT	SEGMENT
_this$ = -8						; size = 4
??1Ipecker_depth_buffer@pecker_sdk@@UAE@XZ PROC		; pecker_sdk::Ipecker_depth_buffer::~Ipecker_depth_buffer, COMDAT
; _this$ = ecx

; 68   : 	virtual ~Ipecker_depth_buffer(){;}

	push	ebp
	mov	ebp, esp
	sub	esp, 204				; 000000ccH
	push	ebx
	push	esi
	push	edi
	push	ecx
	lea	edi, DWORD PTR [ebp-204]
	mov	ecx, 51					; 00000033H
	mov	eax, -858993460				; ccccccccH
	rep stosd
	pop	ecx
	mov	DWORD PTR _this$[ebp], ecx
	mov	eax, DWORD PTR _this$[ebp]
	mov	DWORD PTR [eax], OFFSET ??_7Ipecker_depth_buffer@pecker_sdk@@6B@
	mov	ecx, DWORD PTR _this$[ebp]
	call	??1Ipecker_render_buffer@pecker_sdk@@UAE@XZ ; pecker_sdk::Ipecker_render_buffer::~Ipecker_render_buffer
	pop	edi
	pop	esi
	pop	ebx
	add	esp, 204				; 000000ccH
	cmp	ebp, esp
	call	__RTC_CheckEsp
	mov	esp, ebp
	pop	ebp
	ret	0
??1Ipecker_depth_buffer@pecker_sdk@@UAE@XZ ENDP		; pecker_sdk::Ipecker_depth_buffer::~Ipecker_depth_buffer
_TEXT	ENDS
PUBLIC	??1pecker_depth_buffer_gles2@pecker_sdk@@UAE@XZ	; pecker_sdk::pecker_depth_buffer_gles2::~pecker_depth_buffer_gles2
; Function compile flags: /Odtp /RTCsu /ZI
;	COMDAT ??_Dpecker_depth_buffer_gles2@pecker_sdk@@QAEXXZ
_TEXT	SEGMENT
_this$ = -8						; size = 4
??_Dpecker_depth_buffer_gles2@pecker_sdk@@QAEXXZ PROC	; pecker_sdk::pecker_depth_buffer_gles2::`vbase destructor', COMDAT
; _this$ = ecx
	push	ebp
	mov	ebp, esp
	sub	esp, 204				; 000000ccH
	push	ebx
	push	esi
	push	edi
	push	ecx
	lea	edi, DWORD PTR [ebp-204]
	mov	ecx, 51					; 00000033H
	mov	eax, -858993460				; ccccccccH
	rep stosd
	pop	ecx
	mov	DWORD PTR _this$[ebp], ecx
	mov	ecx, DWORD PTR _this$[ebp]
	call	??1pecker_depth_buffer_gles2@pecker_sdk@@UAE@XZ ; pecker_sdk::pecker_depth_buffer_gles2::~pecker_depth_buffer_gles2
	mov	ecx, DWORD PTR _this$[ebp]
	add	ecx, 28					; 0000001cH
	call	??1pecker_opengles_v2_object@pecker_sdk@@UAE@XZ
	pop	edi
	pop	esi
	pop	ebx
	add	esp, 204				; 000000ccH
	cmp	ebp, esp
	call	__RTC_CheckEsp
	mov	esp, ebp
	pop	ebp
	ret	0
??_Dpecker_depth_buffer_gles2@pecker_sdk@@QAEXXZ ENDP	; pecker_sdk::pecker_depth_buffer_gles2::`vbase destructor'
_TEXT	ENDS
;	COMDAT xdata$x
; File f:\codes\pecker_framework_git\pecker_src\pecker_framework\render\render_system\opengles\pecker_render_buffer_gl.cpp
xdata$x	SEGMENT
__unwindtable$??1pecker_depth_buffer_gles2@pecker_sdk@@UAE@XZ DD 0ffffffffH
	DD	FLAT:__unwindfunclet$??1pecker_depth_buffer_gles2@pecker_sdk@@UAE@XZ$0
__ehfuncinfo$??1pecker_depth_buffer_gles2@pecker_sdk@@UAE@XZ DD 019930522H
	DD	01H
	DD	FLAT:__unwindtable$??1pecker_depth_buffer_gles2@pecker_sdk@@UAE@XZ
	DD	2 DUP(00H)
	DD	2 DUP(00H)
	DD	00H
	DD	01H
; Function compile flags: /Odtp /RTCsu /ZI
xdata$x	ENDS
;	COMDAT ??1pecker_depth_buffer_gles2@pecker_sdk@@UAE@XZ
_TEXT	SEGMENT
_this$ = -20						; size = 4
__$EHRec$ = -12						; size = 12
??1pecker_depth_buffer_gles2@pecker_sdk@@UAE@XZ PROC	; pecker_sdk::pecker_depth_buffer_gles2::~pecker_depth_buffer_gles2, COMDAT
; _this$ = ecx

; 148  : {

	push	ebp
	mov	ebp, esp
	push	-1
	push	__ehhandler$??1pecker_depth_buffer_gles2@pecker_sdk@@UAE@XZ
	mov	eax, DWORD PTR fs:0
	push	eax
	sub	esp, 204				; 000000ccH
	push	ebx
	push	esi
	push	edi
	push	ecx
	lea	edi, DWORD PTR [ebp-216]
	mov	ecx, 51					; 00000033H
	mov	eax, -858993460				; ccccccccH
	rep stosd
	pop	ecx
	mov	eax, DWORD PTR ___security_cookie
	xor	eax, ebp
	push	eax
	lea	eax, DWORD PTR __$EHRec$[ebp]
	mov	DWORD PTR fs:0, eax
	mov	DWORD PTR _this$[ebp], ecx
	mov	eax, DWORD PTR _this$[ebp]
	mov	DWORD PTR [eax], OFFSET ??_7pecker_depth_buffer_gles2@pecker_sdk@@6BIpecker_depth_buffer@1@@
	mov	eax, DWORD PTR _this$[ebp]
	mov	ecx, DWORD PTR [eax+4]
	mov	edx, DWORD PTR [ecx+4]
	mov	eax, DWORD PTR _this$[ebp]
	mov	DWORD PTR [eax+edx+4], OFFSET ??_7pecker_depth_buffer_gles2@pecker_sdk@@6Bpecker_opengles_v2_object@1@@
	mov	eax, DWORD PTR _this$[ebp]
	mov	ecx, DWORD PTR [eax+4]
	mov	edx, DWORD PTR [ecx+4]
	sub	edx, 24					; 00000018H
	mov	eax, DWORD PTR _this$[ebp]
	mov	ecx, DWORD PTR [eax+4]
	mov	eax, DWORD PTR [ecx+4]
	mov	ecx, DWORD PTR _this$[ebp]
	mov	DWORD PTR [ecx+eax], edx
	mov	DWORD PTR __$EHRec$[ebp+8], 0

; 149  : 	release_buffer_from_gpu_ram();

	mov	ecx, DWORD PTR _this$[ebp]
	call	?release_buffer_from_gpu_ram@pecker_depth_buffer_gles2@pecker_sdk@@UAEJXZ ; pecker_sdk::pecker_depth_buffer_gles2::release_buffer_from_gpu_ram

; 150  : }

	mov	DWORD PTR __$EHRec$[ebp+8], -1
	mov	ecx, DWORD PTR _this$[ebp]
	call	??1Ipecker_depth_buffer@pecker_sdk@@UAE@XZ ; pecker_sdk::Ipecker_depth_buffer::~Ipecker_depth_buffer
	mov	ecx, DWORD PTR __$EHRec$[ebp]
	mov	DWORD PTR fs:0, ecx
	pop	ecx
	pop	edi
	pop	esi
	pop	ebx
	add	esp, 216				; 000000d8H
	cmp	ebp, esp
	call	__RTC_CheckEsp
	mov	esp, ebp
	pop	ebp
	ret	0
_TEXT	ENDS
;	COMDAT text$x
text$x	SEGMENT
__unwindfunclet$??1pecker_depth_buffer_gles2@pecker_sdk@@UAE@XZ$0:
	mov	ecx, DWORD PTR _this$[ebp]
	jmp	??1Ipecker_depth_buffer@pecker_sdk@@UAE@XZ ; pecker_sdk::Ipecker_depth_buffer::~Ipecker_depth_buffer
__ehhandler$??1pecker_depth_buffer_gles2@pecker_sdk@@UAE@XZ:
	mov	edx, DWORD PTR [esp+8]
	lea	eax, DWORD PTR [edx+12]
	mov	ecx, DWORD PTR [edx-220]
	xor	ecx, eax
	call	@__security_check_cookie@4
	mov	eax, OFFSET __ehfuncinfo$??1pecker_depth_buffer_gles2@pecker_sdk@@UAE@XZ
	jmp	___CxxFrameHandler3
text$x	ENDS
??1pecker_depth_buffer_gles2@pecker_sdk@@UAE@XZ ENDP	; pecker_sdk::pecker_depth_buffer_gles2::~pecker_depth_buffer_gles2
; Function compile flags: /Odtp /RTCsu /ZI
;	COMDAT ?attach_by_frame_buffer@pecker_depth_buffer_gles2@pecker_sdk@@UAEJPAUIpecker_frame_buffer@2@I@Z
_TEXT	SEGMENT
_this$ = -8						; size = 4
_pframe_buffer$ = 8					; size = 4
_attach_index$ = 12					; size = 4
?attach_by_frame_buffer@pecker_depth_buffer_gles2@pecker_sdk@@UAEJPAUIpecker_frame_buffer@2@I@Z PROC ; pecker_sdk::pecker_depth_buffer_gles2::attach_by_frame_buffer, COMDAT
; _this$ = ecx

; 153  : {

	push	ebp
	mov	ebp, esp
	sub	esp, 204				; 000000ccH
	push	ebx
	push	esi
	push	edi
	push	ecx
	lea	edi, DWORD PTR [ebp-204]
	mov	ecx, 51					; 00000033H
	mov	eax, -858993460				; ccccccccH
	rep stosd
	pop	ecx
	mov	DWORD PTR _this$[ebp], ecx

; 154  : 	if (null != pframe_buffer)

	cmp	DWORD PTR _pframe_buffer$[ebp], 0
	je	SHORT $LN1@attach_by_@2

; 155  : 	{
; 156  : 		return pframe_buffer->attach_render_buffer(this,attach_index);

	mov	esi, esp
	mov	eax, DWORD PTR _attach_index$[ebp]
	push	eax
	mov	ecx, DWORD PTR _this$[ebp]
	push	ecx
	mov	edx, DWORD PTR _pframe_buffer$[ebp]
	mov	eax, DWORD PTR [edx]
	mov	ecx, DWORD PTR _pframe_buffer$[ebp]
	mov	edx, DWORD PTR [eax+12]
	call	edx
	cmp	esi, esp
	call	__RTC_CheckEsp
	jmp	SHORT $LN2@attach_by_@2
$LN1@attach_by_@2:

; 157  : 	}
; 158  : 
; 159  : 	return P_INVALID_VALUE;

	mov	eax, -2					; fffffffeH
$LN2@attach_by_@2:

; 160  : }

	pop	edi
	pop	esi
	pop	ebx
	add	esp, 204				; 000000ccH
	cmp	ebp, esp
	call	__RTC_CheckEsp
	mov	esp, ebp
	pop	ebp
	ret	8
?attach_by_frame_buffer@pecker_depth_buffer_gles2@pecker_sdk@@UAEJPAUIpecker_frame_buffer@2@I@Z ENDP ; pecker_sdk::pecker_depth_buffer_gles2::attach_by_frame_buffer
; Function compile flags: /Odtp /RTCsu /ZI
_TEXT	ENDS
;	COMDAT ?bind@pecker_depth_buffer_gles2@pecker_sdk@@UAEJXZ
_TEXT	SEGMENT
_this$ = -8						; size = 4
?bind@pecker_depth_buffer_gles2@pecker_sdk@@UAEJXZ PROC	; pecker_sdk::pecker_depth_buffer_gles2::bind, COMDAT
; _this$ = ecx

; 163  : {

	push	ebp
	mov	ebp, esp
	sub	esp, 204				; 000000ccH
	push	ebx
	push	esi
	push	edi
	push	ecx
	lea	edi, DWORD PTR [ebp-204]
	mov	ecx, 51					; 00000033H
	mov	eax, -858993460				; ccccccccH
	rep stosd
	pop	ecx
	mov	DWORD PTR _this$[ebp], ecx

; 164  : 	glBindRenderbuffer(GL_RENDERBUFFER,_M_gpu_target);

	mov	esi, esp
	mov	eax, DWORD PTR _this$[ebp]
	mov	ecx, DWORD PTR [eax+8]
	push	ecx
	push	36161					; 00008d41H
	call	DWORD PTR __imp__glBindRenderbuffer@8
	cmp	esi, esp
	call	__RTC_CheckEsp

; 165  : 	return pecker_opengles_v2_object::get_last_error_code();

	call	?get_last_error_code@pecker_opengles_v2_object@pecker_sdk@@SAJXZ ; pecker_sdk::pecker_opengles_v2_object::get_last_error_code

; 166  : }

	pop	edi
	pop	esi
	pop	ebx
	add	esp, 204				; 000000ccH
	cmp	ebp, esp
	call	__RTC_CheckEsp
	mov	esp, ebp
	pop	ebp
	ret	0
?bind@pecker_depth_buffer_gles2@pecker_sdk@@UAEJXZ ENDP	; pecker_sdk::pecker_depth_buffer_gles2::bind
; Function compile flags: /Odtp /RTCsu /ZI
_TEXT	ENDS
;	COMDAT ?allocate_buffer_from_gpu_ram@pecker_depth_buffer_gles2@pecker_sdk@@UAEJXZ
_TEXT	SEGMENT
_result_$69448 = -20					; size = 4
_this$ = -8						; size = 4
?allocate_buffer_from_gpu_ram@pecker_depth_buffer_gles2@pecker_sdk@@UAEJXZ PROC ; pecker_sdk::pecker_depth_buffer_gles2::allocate_buffer_from_gpu_ram, COMDAT
; _this$ = ecx

; 169  : {

	push	ebp
	mov	ebp, esp
	sub	esp, 216				; 000000d8H
	push	ebx
	push	esi
	push	edi
	push	ecx
	lea	edi, DWORD PTR [ebp-216]
	mov	ecx, 54					; 00000036H
	mov	eax, -858993460				; ccccccccH
	rep stosd
	pop	ecx
	mov	DWORD PTR _this$[ebp], ecx

; 170  : 	if (0 == _M_gpu_target)

	mov	eax, DWORD PTR _this$[ebp]
	cmp	DWORD PTR [eax+8], 0
	jne	SHORT $LN2@allocate_b@2

; 171  : 	{
; 172  : 		glGenRenderbuffers(1,&_M_gpu_target);

	mov	eax, DWORD PTR _this$[ebp]
	add	eax, 8
	mov	esi, esp
	push	eax
	push	1
	call	DWORD PTR __imp__glGenRenderbuffers@8
	cmp	esi, esp
	call	__RTC_CheckEsp

; 173  : 		HResult result_ = pecker_opengles_v2_object::get_last_error_code();

	call	?get_last_error_code@pecker_opengles_v2_object@pecker_sdk@@SAJXZ ; pecker_sdk::pecker_opengles_v2_object::get_last_error_code
	mov	DWORD PTR _result_$69448[ebp], eax

; 174  : 		return result_;

	mov	eax, DWORD PTR _result_$69448[ebp]
	jmp	SHORT $LN3@allocate_b@2

; 175  : 	}
; 176  : 	else

	jmp	SHORT $LN3@allocate_b@2
$LN2@allocate_b@2:

; 177  : 	{
; 178  : 		return P_UNIQUE_ERR;

	mov	eax, -4					; fffffffcH
$LN3@allocate_b@2:

; 179  : 	}
; 180  : }

	pop	edi
	pop	esi
	pop	ebx
	add	esp, 216				; 000000d8H
	cmp	ebp, esp
	call	__RTC_CheckEsp
	mov	esp, ebp
	pop	ebp
	ret	0
?allocate_buffer_from_gpu_ram@pecker_depth_buffer_gles2@pecker_sdk@@UAEJXZ ENDP ; pecker_sdk::pecker_depth_buffer_gles2::allocate_buffer_from_gpu_ram
; Function compile flags: /Odtp /RTCsu /ZI
_TEXT	ENDS
;	COMDAT ?release_buffer_from_gpu_ram@pecker_depth_buffer_gles2@pecker_sdk@@UAEJXZ
_TEXT	SEGMENT
_result_$69454 = -20					; size = 4
_this$ = -8						; size = 4
?release_buffer_from_gpu_ram@pecker_depth_buffer_gles2@pecker_sdk@@UAEJXZ PROC ; pecker_sdk::pecker_depth_buffer_gles2::release_buffer_from_gpu_ram, COMDAT
; _this$ = ecx

; 183  : {

	push	ebp
	mov	ebp, esp
	sub	esp, 216				; 000000d8H
	push	ebx
	push	esi
	push	edi
	push	ecx
	lea	edi, DWORD PTR [ebp-216]
	mov	ecx, 54					; 00000036H
	mov	eax, -858993460				; ccccccccH
	rep stosd
	pop	ecx
	mov	DWORD PTR _this$[ebp], ecx

; 184  : 	if (0 != _M_gpu_target)

	mov	eax, DWORD PTR _this$[ebp]
	cmp	DWORD PTR [eax+8], 0
	je	SHORT $LN2@release_bu@2

; 185  : 	{
; 186  : 		glDeleteRenderbuffers(1,&_M_gpu_target);

	mov	eax, DWORD PTR _this$[ebp]
	add	eax, 8
	mov	esi, esp
	push	eax
	push	1
	call	DWORD PTR __imp__glDeleteRenderbuffers@8
	cmp	esi, esp
	call	__RTC_CheckEsp

; 187  : 		HResult result_ = pecker_opengles_v2_object::get_last_error_code();

	call	?get_last_error_code@pecker_opengles_v2_object@pecker_sdk@@SAJXZ ; pecker_sdk::pecker_opengles_v2_object::get_last_error_code
	mov	DWORD PTR _result_$69454[ebp], eax

; 188  : 		return result_;

	mov	eax, DWORD PTR _result_$69454[ebp]
	jmp	SHORT $LN3@release_bu@2

; 189  : 	}
; 190  : 	else

	jmp	SHORT $LN3@release_bu@2
$LN2@release_bu@2:

; 191  : 	{
; 192  : 		return P_OK;

	xor	eax, eax
$LN3@release_bu@2:

; 193  : 	}
; 194  : }

	pop	edi
	pop	esi
	pop	ebx
	add	esp, 216				; 000000d8H
	cmp	ebp, esp
	call	__RTC_CheckEsp
	mov	esp, ebp
	pop	ebp
	ret	0
?release_buffer_from_gpu_ram@pecker_depth_buffer_gles2@pecker_sdk@@UAEJXZ ENDP ; pecker_sdk::pecker_depth_buffer_gles2::release_buffer_from_gpu_ram
; Function compile flags: /Odtp /RTCsu /ZI
_TEXT	ENDS
;	COMDAT ?use_render_buffer_info@pecker_depth_buffer_gles2@pecker_sdk@@UAEJXZ
_TEXT	SEGMENT
_result_$69462 = -32					; size = 4
_internal_format$69460 = -20				; size = 4
_this$ = -8						; size = 4
?use_render_buffer_info@pecker_depth_buffer_gles2@pecker_sdk@@UAEJXZ PROC ; pecker_sdk::pecker_depth_buffer_gles2::use_render_buffer_info, COMDAT
; _this$ = ecx

; 202  : {

	push	ebp
	mov	ebp, esp
	sub	esp, 228				; 000000e4H
	push	ebx
	push	esi
	push	edi
	push	ecx
	lea	edi, DWORD PTR [ebp-228]
	mov	ecx, 57					; 00000039H
	mov	eax, -858993460				; ccccccccH
	rep stosd
	pop	ecx
	mov	DWORD PTR _this$[ebp], ecx

; 203  : 	if (0 != _M_gpu_target)

	mov	eax, DWORD PTR _this$[ebp]
	cmp	DWORD PTR [eax+8], 0
	je	SHORT $LN2@use_render@3

; 204  : 	{
; 205  : 		UInt internal_format = _M_render_buffer_info._M_internal_format;

	mov	eax, DWORD PTR _this$[ebp]
	mov	ecx, DWORD PTR [eax+12]
	mov	DWORD PTR _internal_format$69460[ebp], ecx

; 206  : 		if (_M_render_buffer_info._M_internal_format < DEPTH_BUFFER_FORMAT_COUNT)

	mov	eax, DWORD PTR _this$[ebp]
	cmp	DWORD PTR [eax+12], 4
	jae	SHORT $LN1@use_render@3

; 207  : 		{
; 208  : 			internal_format = DEPTH_BUFFER_FORMAT_TABLE_GLES2[_M_render_buffer_info._M_internal_format];

	mov	eax, DWORD PTR _this$[ebp]
	mov	ecx, DWORD PTR [eax+12]
	mov	edx, DWORD PTR _DEPTH_BUFFER_FORMAT_TABLE_GLES2[ecx*4]
	mov	DWORD PTR _internal_format$69460[ebp], edx
$LN1@use_render@3:

; 209  : 		}
; 210  : 
; 211  : 		glBindRenderbuffer(GL_RENDERBUFFER,_M_gpu_target);

	mov	esi, esp
	mov	eax, DWORD PTR _this$[ebp]
	mov	ecx, DWORD PTR [eax+8]
	push	ecx
	push	36161					; 00008d41H
	call	DWORD PTR __imp__glBindRenderbuffer@8
	cmp	esi, esp
	call	__RTC_CheckEsp

; 212  : 		glRenderbufferStorage(GL_RENDERBUFFER,_M_render_buffer_info._M_internal_format,
; 213  : 			_M_render_buffer_info._M_width,_M_render_buffer_info._M_heigth);

	mov	esi, esp
	mov	eax, DWORD PTR _this$[ebp]
	mov	ecx, DWORD PTR [eax+20]
	push	ecx
	mov	edx, DWORD PTR _this$[ebp]
	mov	eax, DWORD PTR [edx+16]
	push	eax
	mov	ecx, DWORD PTR _this$[ebp]
	mov	edx, DWORD PTR [ecx+12]
	push	edx
	push	36161					; 00008d41H
	call	DWORD PTR __imp__glRenderbufferStorage@16
	cmp	esi, esp
	call	__RTC_CheckEsp

; 214  : 
; 215  : 		HResult result_ = pecker_opengles_v2_object::get_last_error_code();

	call	?get_last_error_code@pecker_opengles_v2_object@pecker_sdk@@SAJXZ ; pecker_sdk::pecker_opengles_v2_object::get_last_error_code
	mov	DWORD PTR _result_$69462[ebp], eax

; 216  : 		return result_;

	mov	eax, DWORD PTR _result_$69462[ebp]
	jmp	SHORT $LN3@use_render@3
$LN2@use_render@3:

; 217  : 	}
; 218  : 	return P_FAIL;

	mov	eax, 1
$LN3@use_render@3:

; 219  : }

	pop	edi
	pop	esi
	pop	ebx
	add	esp, 228				; 000000e4H
	cmp	ebp, esp
	call	__RTC_CheckEsp
	mov	esp, ebp
	pop	ebp
	ret	0
?use_render_buffer_info@pecker_depth_buffer_gles2@pecker_sdk@@UAEJXZ ENDP ; pecker_sdk::pecker_depth_buffer_gles2::use_render_buffer_info
; Function compile flags: /Odtp /RTCsu /ZI
_TEXT	ENDS
;	COMDAT ?use_render_buffer_info@pecker_depth_buffer_gles2@pecker_sdk@@UAEJABUpecker_render_buffer_info@2@@Z
_TEXT	SEGMENT
_result_$69470 = -32					; size = 4
_internal_format$69468 = -20				; size = 4
_this$ = -8						; size = 4
_buf_info$ = 8						; size = 4
?use_render_buffer_info@pecker_depth_buffer_gles2@pecker_sdk@@UAEJABUpecker_render_buffer_info@2@@Z PROC ; pecker_sdk::pecker_depth_buffer_gles2::use_render_buffer_info, COMDAT
; _this$ = ecx

; 222  : {

	push	ebp
	mov	ebp, esp
	sub	esp, 228				; 000000e4H
	push	ebx
	push	esi
	push	edi
	push	ecx
	lea	edi, DWORD PTR [ebp-228]
	mov	ecx, 57					; 00000039H
	mov	eax, -858993460				; ccccccccH
	rep stosd
	pop	ecx
	mov	DWORD PTR _this$[ebp], ecx

; 223  : 	if (0 != _M_gpu_target)

	mov	eax, DWORD PTR _this$[ebp]
	cmp	DWORD PTR [eax+8], 0
	je	$LN3@use_render@4

; 224  : 	{
; 225  : 		UInt internal_format = buf_info._M_internal_format;

	mov	eax, DWORD PTR _buf_info$[ebp]
	mov	ecx, DWORD PTR [eax]
	mov	DWORD PTR _internal_format$69468[ebp], ecx

; 226  : 		if (buf_info._M_internal_format < DEPTH_BUFFER_FORMAT_COUNT)

	mov	eax, DWORD PTR _buf_info$[ebp]
	cmp	DWORD PTR [eax], 4
	jae	SHORT $LN2@use_render@4

; 227  : 		{
; 228  : 			internal_format = DEPTH_BUFFER_FORMAT_TABLE_GLES2[buf_info._M_internal_format];

	mov	eax, DWORD PTR _buf_info$[ebp]
	mov	ecx, DWORD PTR [eax]
	mov	edx, DWORD PTR _DEPTH_BUFFER_FORMAT_TABLE_GLES2[ecx*4]
	mov	DWORD PTR _internal_format$69468[ebp], edx
$LN2@use_render@4:

; 229  : 		}
; 230  : 		glBindRenderbuffer(GL_RENDERBUFFER,_M_gpu_target);

	mov	esi, esp
	mov	eax, DWORD PTR _this$[ebp]
	mov	ecx, DWORD PTR [eax+8]
	push	ecx
	push	36161					; 00008d41H
	call	DWORD PTR __imp__glBindRenderbuffer@8
	cmp	esi, esp
	call	__RTC_CheckEsp

; 231  : 		glRenderbufferStorage(GL_RENDERBUFFER,internal_format,
; 232  : 			buf_info._M_width,buf_info._M_heigth);

	mov	esi, esp
	mov	eax, DWORD PTR _buf_info$[ebp]
	mov	ecx, DWORD PTR [eax+8]
	push	ecx
	mov	edx, DWORD PTR _buf_info$[ebp]
	mov	eax, DWORD PTR [edx+4]
	push	eax
	mov	ecx, DWORD PTR _internal_format$69468[ebp]
	push	ecx
	push	36161					; 00008d41H
	call	DWORD PTR __imp__glRenderbufferStorage@16
	cmp	esi, esp
	call	__RTC_CheckEsp

; 233  : 
; 234  : 		HResult result_ = pecker_opengles_v2_object::get_last_error_code();

	call	?get_last_error_code@pecker_opengles_v2_object@pecker_sdk@@SAJXZ ; pecker_sdk::pecker_opengles_v2_object::get_last_error_code
	mov	DWORD PTR _result_$69470[ebp], eax

; 235  : 		if (P_OK == result_)

	cmp	DWORD PTR _result_$69470[ebp], 0
	jne	SHORT $LN1@use_render@4

; 236  : 		{
; 237  : 			_M_render_buffer_info = buf_info;

	mov	eax, DWORD PTR _buf_info$[ebp]
	mov	ecx, DWORD PTR _this$[ebp]
	add	ecx, 12					; 0000000cH
	mov	edx, DWORD PTR [eax]
	mov	DWORD PTR [ecx], edx
	mov	edx, DWORD PTR [eax+4]
	mov	DWORD PTR [ecx+4], edx
	mov	eax, DWORD PTR [eax+8]
	mov	DWORD PTR [ecx+8], eax
$LN1@use_render@4:

; 238  : 		}
; 239  : 		return result_;

	mov	eax, DWORD PTR _result_$69470[ebp]
	jmp	SHORT $LN4@use_render@4
$LN3@use_render@4:

; 240  : 	}
; 241  : 	return P_FAIL;

	mov	eax, 1
$LN4@use_render@4:

; 242  : }

	pop	edi
	pop	esi
	pop	ebx
	add	esp, 228				; 000000e4H
	cmp	ebp, esp
	call	__RTC_CheckEsp
	mov	esp, ebp
	pop	ebp
	ret	4
?use_render_buffer_info@pecker_depth_buffer_gles2@pecker_sdk@@UAEJABUpecker_render_buffer_info@2@@Z ENDP ; pecker_sdk::pecker_depth_buffer_gles2::use_render_buffer_info
; Function compile flags: /Odtp /RTCsu /ZI
_TEXT	ENDS
;	COMDAT ?get_render_buffer_info@pecker_depth_buffer_gles2@pecker_sdk@@UBEABUpecker_render_buffer_info@2@XZ
_TEXT	SEGMENT
_this$ = -8						; size = 4
?get_render_buffer_info@pecker_depth_buffer_gles2@pecker_sdk@@UBEABUpecker_render_buffer_info@2@XZ PROC ; pecker_sdk::pecker_depth_buffer_gles2::get_render_buffer_info, COMDAT
; _this$ = ecx

; 245  : {

	push	ebp
	mov	ebp, esp
	sub	esp, 204				; 000000ccH
	push	ebx
	push	esi
	push	edi
	push	ecx
	lea	edi, DWORD PTR [ebp-204]
	mov	ecx, 51					; 00000033H
	mov	eax, -858993460				; ccccccccH
	rep stosd
	pop	ecx
	mov	DWORD PTR _this$[ebp], ecx

; 246  : 	return _M_render_buffer_info;

	mov	eax, DWORD PTR _this$[ebp]
	add	eax, 12					; 0000000cH

; 247  : }

	pop	edi
	pop	esi
	pop	ebx
	mov	esp, ebp
	pop	ebp
	ret	0
?get_render_buffer_info@pecker_depth_buffer_gles2@pecker_sdk@@UBEABUpecker_render_buffer_info@2@XZ ENDP ; pecker_sdk::pecker_depth_buffer_gles2::get_render_buffer_info
_TEXT	ENDS
PUBLIC	?get_object_location@pecker_depth_buffer_gles2@pecker_sdk@@UBEIXZ ; pecker_sdk::pecker_depth_buffer_gles2::get_object_location
; Function compile flags: /Odtp /RTCsu /ZI
;	COMDAT ?get_object_location@pecker_depth_buffer_gles2@pecker_sdk@@UBEIXZ
_TEXT	SEGMENT
_this$ = -8						; size = 4
?get_object_location@pecker_depth_buffer_gles2@pecker_sdk@@UBEIXZ PROC ; pecker_sdk::pecker_depth_buffer_gles2::get_object_location, COMDAT
; _this$ = ecx

; 250  : {

	push	ebp
	mov	ebp, esp
	sub	esp, 204				; 000000ccH
	push	ebx
	push	esi
	push	edi
	push	ecx
	lea	edi, DWORD PTR [ebp-204]
	mov	ecx, 51					; 00000033H
	mov	eax, -858993460				; ccccccccH
	rep stosd
	pop	ecx
	mov	DWORD PTR _this$[ebp], ecx

; 251  : 	return _M_gpu_target;

	mov	eax, DWORD PTR _this$[ebp]
	mov	eax, DWORD PTR [eax-20]

; 252  : }

	pop	edi
	pop	esi
	pop	ebx
	mov	esp, ebp
	pop	ebp
	ret	0
?get_object_location@pecker_depth_buffer_gles2@pecker_sdk@@UBEIXZ ENDP ; pecker_sdk::pecker_depth_buffer_gles2::get_object_location
_TEXT	ENDS
PUBLIC	??_7pecker_stencil_buffer_gles2@pecker_sdk@@6Bpecker_opengles_v2_object@1@@ ; pecker_sdk::pecker_stencil_buffer_gles2::`vftable'
PUBLIC	??_7pecker_stencil_buffer_gles2@pecker_sdk@@6BIpecker_stencil_buffer@1@@ ; pecker_sdk::pecker_stencil_buffer_gles2::`vftable'
PUBLIC	??0Ipecker_stencil_buffer@pecker_sdk@@QAE@XZ	; pecker_sdk::Ipecker_stencil_buffer::Ipecker_stencil_buffer
PUBLIC	??_8pecker_stencil_buffer_gles2@pecker_sdk@@7B@	; pecker_sdk::pecker_stencil_buffer_gles2::`vbtable'
PUBLIC	??0pecker_stencil_buffer_gles2@pecker_sdk@@QAE@XZ ; pecker_sdk::pecker_stencil_buffer_gles2::pecker_stencil_buffer_gles2
PUBLIC	??_R4pecker_stencil_buffer_gles2@pecker_sdk@@6BIpecker_stencil_buffer@1@@ ; pecker_sdk::pecker_stencil_buffer_gles2::`RTTI Complete Object Locator'
PUBLIC	??_R0?AVpecker_stencil_buffer_gles2@pecker_sdk@@@8 ; pecker_sdk::pecker_stencil_buffer_gles2 `RTTI Type Descriptor'
PUBLIC	??_R3pecker_stencil_buffer_gles2@pecker_sdk@@8	; pecker_sdk::pecker_stencil_buffer_gles2::`RTTI Class Hierarchy Descriptor'
PUBLIC	??_R2pecker_stencil_buffer_gles2@pecker_sdk@@8	; pecker_sdk::pecker_stencil_buffer_gles2::`RTTI Base Class Array'
PUBLIC	??_R1A@?0A@EA@pecker_stencil_buffer_gles2@pecker_sdk@@8 ; pecker_sdk::pecker_stencil_buffer_gles2::`RTTI Base Class Descriptor at (0,-1,0,64)'
PUBLIC	??_R1A@?0A@EA@Ipecker_stencil_buffer@pecker_sdk@@8 ; pecker_sdk::Ipecker_stencil_buffer::`RTTI Base Class Descriptor at (0,-1,0,64)'
PUBLIC	??_R0?AUIpecker_stencil_buffer@pecker_sdk@@@8	; pecker_sdk::Ipecker_stencil_buffer `RTTI Type Descriptor'
PUBLIC	??_R3Ipecker_stencil_buffer@pecker_sdk@@8	; pecker_sdk::Ipecker_stencil_buffer::`RTTI Class Hierarchy Descriptor'
PUBLIC	??_R2Ipecker_stencil_buffer@pecker_sdk@@8	; pecker_sdk::Ipecker_stencil_buffer::`RTTI Base Class Array'
PUBLIC	?attach_by_frame_buffer@pecker_stencil_buffer_gles2@pecker_sdk@@UAEJPAUIpecker_frame_buffer@2@I@Z ; pecker_sdk::pecker_stencil_buffer_gles2::attach_by_frame_buffer
PUBLIC	?bind@pecker_stencil_buffer_gles2@pecker_sdk@@UAEJXZ ; pecker_sdk::pecker_stencil_buffer_gles2::bind
PUBLIC	?allocate_buffer_from_gpu_ram@pecker_stencil_buffer_gles2@pecker_sdk@@UAEJXZ ; pecker_sdk::pecker_stencil_buffer_gles2::allocate_buffer_from_gpu_ram
PUBLIC	?release_buffer_from_gpu_ram@pecker_stencil_buffer_gles2@pecker_sdk@@UAEJXZ ; pecker_sdk::pecker_stencil_buffer_gles2::release_buffer_from_gpu_ram
PUBLIC	?use_render_buffer_info@pecker_stencil_buffer_gles2@pecker_sdk@@UAEJABUpecker_render_buffer_info@2@@Z ; pecker_sdk::pecker_stencil_buffer_gles2::use_render_buffer_info
PUBLIC	?use_render_buffer_info@pecker_stencil_buffer_gles2@pecker_sdk@@UAEJXZ ; pecker_sdk::pecker_stencil_buffer_gles2::use_render_buffer_info
PUBLIC	?get_render_buffer_info@pecker_stencil_buffer_gles2@pecker_sdk@@UBEABUpecker_render_buffer_info@2@XZ ; pecker_sdk::pecker_stencil_buffer_gles2::get_render_buffer_info
PUBLIC	??_R4pecker_stencil_buffer_gles2@pecker_sdk@@6Bpecker_opengles_v2_object@1@@ ; pecker_sdk::pecker_stencil_buffer_gles2::`RTTI Complete Object Locator'
PUBLIC	??_Epecker_stencil_buffer_gles2@pecker_sdk@@$4PPPPPPPM@BM@AEPAXI@Z ; pecker_sdk::pecker_stencil_buffer_gles2::`vector deleting destructor'
PUBLIC	?get_object_location@pecker_stencil_buffer_gles2@pecker_sdk@@$4PPPPPPPM@A@BEIXZ ; pecker_sdk::pecker_stencil_buffer_gles2::get_object_location
EXTRN	??_Epecker_stencil_buffer_gles2@pecker_sdk@@UAEPAXI@Z:PROC ; pecker_sdk::pecker_stencil_buffer_gles2::`vector deleting destructor'
EXTRN	?get_frame_buffer_object_type@Ipecker_stencil_buffer@pecker_sdk@@UBEIXZ:PROC ; pecker_sdk::Ipecker_stencil_buffer::get_frame_buffer_object_type
;	COMDAT ??_R4pecker_stencil_buffer_gles2@pecker_sdk@@6Bpecker_opengles_v2_object@1@@
rdata$r	SEGMENT
??_R4pecker_stencil_buffer_gles2@pecker_sdk@@6Bpecker_opengles_v2_object@1@@ DD 00H ; pecker_sdk::pecker_stencil_buffer_gles2::`RTTI Complete Object Locator'
	DD	01cH
	DD	04H
	DD	FLAT:??_R0?AVpecker_stencil_buffer_gles2@pecker_sdk@@@8
	DD	FLAT:??_R3pecker_stencil_buffer_gles2@pecker_sdk@@8
rdata$r	ENDS
;	COMDAT ??_R2Ipecker_stencil_buffer@pecker_sdk@@8
rdata$r	SEGMENT
??_R2Ipecker_stencil_buffer@pecker_sdk@@8 DD FLAT:??_R1A@?0A@EA@Ipecker_stencil_buffer@pecker_sdk@@8 ; pecker_sdk::Ipecker_stencil_buffer::`RTTI Base Class Array'
	DD	FLAT:??_R1A@?0A@EA@Ipecker_render_buffer@pecker_sdk@@8
	DD	FLAT:??_R1A@?0A@EA@Ipecker_frame_buffer_object@pecker_sdk@@8
rdata$r	ENDS
;	COMDAT ??_R3Ipecker_stencil_buffer@pecker_sdk@@8
rdata$r	SEGMENT
??_R3Ipecker_stencil_buffer@pecker_sdk@@8 DD 00H	; pecker_sdk::Ipecker_stencil_buffer::`RTTI Class Hierarchy Descriptor'
	DD	00H
	DD	03H
	DD	FLAT:??_R2Ipecker_stencil_buffer@pecker_sdk@@8
rdata$r	ENDS
;	COMDAT ??_R0?AUIpecker_stencil_buffer@pecker_sdk@@@8
_DATA	SEGMENT
??_R0?AUIpecker_stencil_buffer@pecker_sdk@@@8 DD FLAT:??_7type_info@@6B@ ; pecker_sdk::Ipecker_stencil_buffer `RTTI Type Descriptor'
	DD	00H
	DB	'.?AUIpecker_stencil_buffer@pecker_sdk@@', 00H
_DATA	ENDS
;	COMDAT ??_R1A@?0A@EA@Ipecker_stencil_buffer@pecker_sdk@@8
rdata$r	SEGMENT
??_R1A@?0A@EA@Ipecker_stencil_buffer@pecker_sdk@@8 DD FLAT:??_R0?AUIpecker_stencil_buffer@pecker_sdk@@@8 ; pecker_sdk::Ipecker_stencil_buffer::`RTTI Base Class Descriptor at (0,-1,0,64)'
	DD	02H
	DD	00H
	DD	0ffffffffH
	DD	00H
	DD	040H
	DD	FLAT:??_R3Ipecker_stencil_buffer@pecker_sdk@@8
rdata$r	ENDS
;	COMDAT ??_R1A@?0A@EA@pecker_stencil_buffer_gles2@pecker_sdk@@8
rdata$r	SEGMENT
??_R1A@?0A@EA@pecker_stencil_buffer_gles2@pecker_sdk@@8 DD FLAT:??_R0?AVpecker_stencil_buffer_gles2@pecker_sdk@@@8 ; pecker_sdk::pecker_stencil_buffer_gles2::`RTTI Base Class Descriptor at (0,-1,0,64)'
	DD	05H
	DD	00H
	DD	0ffffffffH
	DD	00H
	DD	040H
	DD	FLAT:??_R3pecker_stencil_buffer_gles2@pecker_sdk@@8
rdata$r	ENDS
;	COMDAT ??_R2pecker_stencil_buffer_gles2@pecker_sdk@@8
rdata$r	SEGMENT
??_R2pecker_stencil_buffer_gles2@pecker_sdk@@8 DD FLAT:??_R1A@?0A@EA@pecker_stencil_buffer_gles2@pecker_sdk@@8 ; pecker_sdk::pecker_stencil_buffer_gles2::`RTTI Base Class Array'
	DD	FLAT:??_R1A@?0A@EA@Ipecker_stencil_buffer@pecker_sdk@@8
	DD	FLAT:??_R1A@?0A@EA@Ipecker_render_buffer@pecker_sdk@@8
	DD	FLAT:??_R1A@?0A@EA@Ipecker_frame_buffer_object@pecker_sdk@@8
	DD	FLAT:??_R1A@33FA@pecker_opengles_v2_object@pecker_sdk@@8
	DD	FLAT:??_R1A@33EA@pecker_render_object@pecker_sdk@@8
rdata$r	ENDS
;	COMDAT ??_R3pecker_stencil_buffer_gles2@pecker_sdk@@8
rdata$r	SEGMENT
??_R3pecker_stencil_buffer_gles2@pecker_sdk@@8 DD 00H	; pecker_sdk::pecker_stencil_buffer_gles2::`RTTI Class Hierarchy Descriptor'
	DD	03H
	DD	06H
	DD	FLAT:??_R2pecker_stencil_buffer_gles2@pecker_sdk@@8
rdata$r	ENDS
;	COMDAT ??_R0?AVpecker_stencil_buffer_gles2@pecker_sdk@@@8
_DATA	SEGMENT
??_R0?AVpecker_stencil_buffer_gles2@pecker_sdk@@@8 DD FLAT:??_7type_info@@6B@ ; pecker_sdk::pecker_stencil_buffer_gles2 `RTTI Type Descriptor'
	DD	00H
	DB	'.?AVpecker_stencil_buffer_gles2@pecker_sdk@@', 00H
_DATA	ENDS
;	COMDAT ??_R4pecker_stencil_buffer_gles2@pecker_sdk@@6BIpecker_stencil_buffer@1@@
rdata$r	SEGMENT
??_R4pecker_stencil_buffer_gles2@pecker_sdk@@6BIpecker_stencil_buffer@1@@ DD 00H ; pecker_sdk::pecker_stencil_buffer_gles2::`RTTI Complete Object Locator'
	DD	00H
	DD	00H
	DD	FLAT:??_R0?AVpecker_stencil_buffer_gles2@pecker_sdk@@@8
	DD	FLAT:??_R3pecker_stencil_buffer_gles2@pecker_sdk@@8
rdata$r	ENDS
;	COMDAT ??_7pecker_stencil_buffer_gles2@pecker_sdk@@6Bpecker_opengles_v2_object@1@@
CONST	SEGMENT
??_7pecker_stencil_buffer_gles2@pecker_sdk@@6Bpecker_opengles_v2_object@1@@ DD FLAT:??_R4pecker_stencil_buffer_gles2@pecker_sdk@@6Bpecker_opengles_v2_object@1@@ ; pecker_sdk::pecker_stencil_buffer_gles2::`vftable'
	DD	FLAT:??_Epecker_stencil_buffer_gles2@pecker_sdk@@$4PPPPPPPM@BM@AEPAXI@Z
	DD	FLAT:?toString@pecker_render_object@pecker_sdk@@UBEABV?$pecker_share_string_base_t@DU?$pecker_value_compare@D@pecker_sdk@@V?$pecker_simple_allocator@D@2@$0BA@@2@AAV32@@Z
	DD	FLAT:?get_render_system_info@pecker_opengles_v2_object@pecker_sdk@@UBEABUpecker_render_system_info@2@AAU32@@Z
	DD	FLAT:?get_this_reference@pecker_render_object@pecker_sdk@@UAEPAV12@XZ
	DD	FLAT:?release_this_reference@pecker_render_object@pecker_sdk@@UAEJXZ
	DD	FLAT:?get_object_location@pecker_stencil_buffer_gles2@pecker_sdk@@$4PPPPPPPM@A@BEIXZ
CONST	ENDS
;	COMDAT ??_7pecker_stencil_buffer_gles2@pecker_sdk@@6BIpecker_stencil_buffer@1@@
CONST	SEGMENT
??_7pecker_stencil_buffer_gles2@pecker_sdk@@6BIpecker_stencil_buffer@1@@ DD FLAT:??_R4pecker_stencil_buffer_gles2@pecker_sdk@@6BIpecker_stencil_buffer@1@@ ; pecker_sdk::pecker_stencil_buffer_gles2::`vftable'
	DD	FLAT:??_Epecker_stencil_buffer_gles2@pecker_sdk@@UAEPAXI@Z
	DD	FLAT:?attach_by_frame_buffer@pecker_stencil_buffer_gles2@pecker_sdk@@UAEJPAUIpecker_frame_buffer@2@I@Z
	DD	FLAT:?bind@pecker_stencil_buffer_gles2@pecker_sdk@@UAEJXZ
	DD	FLAT:?get_frame_buffer_object_type@Ipecker_stencil_buffer@pecker_sdk@@UBEIXZ
	DD	FLAT:?allocate_buffer_from_gpu_ram@pecker_stencil_buffer_gles2@pecker_sdk@@UAEJXZ
	DD	FLAT:?release_buffer_from_gpu_ram@pecker_stencil_buffer_gles2@pecker_sdk@@UAEJXZ
	DD	FLAT:?use_render_buffer_info@pecker_stencil_buffer_gles2@pecker_sdk@@UAEJABUpecker_render_buffer_info@2@@Z
	DD	FLAT:?use_render_buffer_info@pecker_stencil_buffer_gles2@pecker_sdk@@UAEJXZ
	DD	FLAT:?get_render_buffer_info@pecker_stencil_buffer_gles2@pecker_sdk@@UBEABUpecker_render_buffer_info@2@XZ
CONST	ENDS
;	COMDAT ??_8pecker_stencil_buffer_gles2@pecker_sdk@@7B@
CONST	SEGMENT
??_8pecker_stencil_buffer_gles2@pecker_sdk@@7B@ DD 0fffffffcH ; pecker_sdk::pecker_stencil_buffer_gles2::`vbtable'
	DD	018H
; Function compile flags: /Odtp /RTCsu /ZI
CONST	ENDS
;	COMDAT ??0pecker_stencil_buffer_gles2@pecker_sdk@@QAE@XZ
_TEXT	SEGMENT
$T70035 = -212						; size = 4
_this$ = -8						; size = 4
_$initVBases$ = 8					; size = 4
??0pecker_stencil_buffer_gles2@pecker_sdk@@QAE@XZ PROC	; pecker_sdk::pecker_stencil_buffer_gles2::pecker_stencil_buffer_gles2, COMDAT
; _this$ = ecx

; 258  : {

	push	ebp
	mov	ebp, esp
	sub	esp, 216				; 000000d8H
	push	ebx
	push	esi
	push	edi
	push	ecx
	lea	edi, DWORD PTR [ebp-216]
	mov	ecx, 54					; 00000036H
	mov	eax, -858993460				; ccccccccH
	rep stosd
	pop	ecx
	mov	DWORD PTR _this$[ebp], ecx
	mov	DWORD PTR $T70035[ebp], 0
	cmp	DWORD PTR _$initVBases$[ebp], 0
	je	SHORT $LN1@pecker_ste
	mov	eax, DWORD PTR _this$[ebp]
	mov	DWORD PTR [eax+4], OFFSET ??_8pecker_stencil_buffer_gles2@pecker_sdk@@7B@
	mov	ecx, DWORD PTR _this$[ebp]
	add	ecx, 28					; 0000001cH
	call	??0pecker_opengles_v2_object@pecker_sdk@@QAE@XZ
	mov	eax, DWORD PTR $T70035[ebp]
	or	eax, 1
	mov	DWORD PTR $T70035[ebp], eax
$LN1@pecker_ste:
	mov	ecx, DWORD PTR _this$[ebp]
	call	??0Ipecker_stencil_buffer@pecker_sdk@@QAE@XZ
	mov	eax, DWORD PTR _this$[ebp]
	mov	DWORD PTR [eax], OFFSET ??_7pecker_stencil_buffer_gles2@pecker_sdk@@6BIpecker_stencil_buffer@1@@
	mov	eax, DWORD PTR _this$[ebp]
	mov	ecx, DWORD PTR [eax+4]
	mov	edx, DWORD PTR [ecx+4]
	mov	eax, DWORD PTR _this$[ebp]
	mov	DWORD PTR [eax+edx+4], OFFSET ??_7pecker_stencil_buffer_gles2@pecker_sdk@@6Bpecker_opengles_v2_object@1@@
	mov	eax, DWORD PTR _this$[ebp]
	mov	ecx, DWORD PTR [eax+4]
	mov	edx, DWORD PTR [ecx+4]
	sub	edx, 24					; 00000018H
	mov	eax, DWORD PTR _this$[ebp]
	mov	ecx, DWORD PTR [eax+4]
	mov	eax, DWORD PTR [ecx+4]
	mov	ecx, DWORD PTR _this$[ebp]
	mov	DWORD PTR [ecx+eax], edx
	mov	eax, DWORD PTR _this$[ebp]
	mov	DWORD PTR [eax+8], 0

; 259  : 
; 260  : }

	mov	eax, DWORD PTR _this$[ebp]
	pop	edi
	pop	esi
	pop	ebx
	add	esp, 216				; 000000d8H
	cmp	ebp, esp
	call	__RTC_CheckEsp
	mov	esp, ebp
	pop	ebp
	ret	4
??0pecker_stencil_buffer_gles2@pecker_sdk@@QAE@XZ ENDP	; pecker_sdk::pecker_stencil_buffer_gles2::pecker_stencil_buffer_gles2
_TEXT	ENDS
PUBLIC	??_Dpecker_stencil_buffer_gles2@pecker_sdk@@QAEXXZ ; pecker_sdk::pecker_stencil_buffer_gles2::`vbase destructor'
; Function compile flags: /Odtp /RTCsu /ZI
;	COMDAT ??_Gpecker_stencil_buffer_gles2@pecker_sdk@@UAEPAXI@Z
_TEXT	SEGMENT
_this$ = -8						; size = 4
___flags$ = 8						; size = 4
??_Gpecker_stencil_buffer_gles2@pecker_sdk@@UAEPAXI@Z PROC ; pecker_sdk::pecker_stencil_buffer_gles2::`scalar deleting destructor', COMDAT
; _this$ = ecx
	push	ebp
	mov	ebp, esp
	sub	esp, 204				; 000000ccH
	push	ebx
	push	esi
	push	edi
	push	ecx
	lea	edi, DWORD PTR [ebp-204]
	mov	ecx, 51					; 00000033H
	mov	eax, -858993460				; ccccccccH
	rep stosd
	pop	ecx
	mov	DWORD PTR _this$[ebp], ecx
	mov	ecx, DWORD PTR _this$[ebp]
	call	??_Dpecker_stencil_buffer_gles2@pecker_sdk@@QAEXXZ
	mov	eax, DWORD PTR ___flags$[ebp]
	and	eax, 1
	je	SHORT $LN1@scalar@8
	mov	eax, DWORD PTR _this$[ebp]
	push	eax
	call	??3@YAXPAX@Z				; operator delete
	add	esp, 4
$LN1@scalar@8:
	mov	eax, DWORD PTR _this$[ebp]
	pop	edi
	pop	esi
	pop	ebx
	add	esp, 204				; 000000ccH
	cmp	ebp, esp
	call	__RTC_CheckEsp
	mov	esp, ebp
	pop	ebp
	ret	4
??_Gpecker_stencil_buffer_gles2@pecker_sdk@@UAEPAXI@Z ENDP ; pecker_sdk::pecker_stencil_buffer_gles2::`scalar deleting destructor'
_TEXT	ENDS
PUBLIC	??_7Ipecker_stencil_buffer@pecker_sdk@@6B@	; pecker_sdk::Ipecker_stencil_buffer::`vftable'
PUBLIC	??_R4Ipecker_stencil_buffer@pecker_sdk@@6B@	; pecker_sdk::Ipecker_stencil_buffer::`RTTI Complete Object Locator'
EXTRN	??_EIpecker_stencil_buffer@pecker_sdk@@UAEPAXI@Z:PROC ; pecker_sdk::Ipecker_stencil_buffer::`vector deleting destructor'
;	COMDAT ??_R4Ipecker_stencil_buffer@pecker_sdk@@6B@
rdata$r	SEGMENT
??_R4Ipecker_stencil_buffer@pecker_sdk@@6B@ DD 00H	; pecker_sdk::Ipecker_stencil_buffer::`RTTI Complete Object Locator'
	DD	00H
	DD	00H
	DD	FLAT:??_R0?AUIpecker_stencil_buffer@pecker_sdk@@@8
	DD	FLAT:??_R3Ipecker_stencil_buffer@pecker_sdk@@8
rdata$r	ENDS
;	COMDAT ??_7Ipecker_stencil_buffer@pecker_sdk@@6B@
CONST	SEGMENT
??_7Ipecker_stencil_buffer@pecker_sdk@@6B@ DD FLAT:??_R4Ipecker_stencil_buffer@pecker_sdk@@6B@ ; pecker_sdk::Ipecker_stencil_buffer::`vftable'
	DD	FLAT:??_EIpecker_stencil_buffer@pecker_sdk@@UAEPAXI@Z
	DD	FLAT:__purecall
	DD	FLAT:__purecall
	DD	FLAT:?get_frame_buffer_object_type@Ipecker_stencil_buffer@pecker_sdk@@UBEIXZ
	DD	FLAT:__purecall
	DD	FLAT:__purecall
	DD	FLAT:__purecall
	DD	FLAT:__purecall
	DD	FLAT:__purecall
; Function compile flags: /Odtp /RTCsu /ZI
CONST	ENDS
;	COMDAT ??0Ipecker_stencil_buffer@pecker_sdk@@QAE@XZ
_TEXT	SEGMENT
_this$ = -8						; size = 4
??0Ipecker_stencil_buffer@pecker_sdk@@QAE@XZ PROC	; pecker_sdk::Ipecker_stencil_buffer::Ipecker_stencil_buffer, COMDAT
; _this$ = ecx
	push	ebp
	mov	ebp, esp
	sub	esp, 204				; 000000ccH
	push	ebx
	push	esi
	push	edi
	push	ecx
	lea	edi, DWORD PTR [ebp-204]
	mov	ecx, 51					; 00000033H
	mov	eax, -858993460				; ccccccccH
	rep stosd
	pop	ecx
	mov	DWORD PTR _this$[ebp], ecx
	mov	ecx, DWORD PTR _this$[ebp]
	call	??0Ipecker_render_buffer@pecker_sdk@@QAE@XZ
	mov	eax, DWORD PTR _this$[ebp]
	mov	DWORD PTR [eax], OFFSET ??_7Ipecker_stencil_buffer@pecker_sdk@@6B@
	mov	eax, DWORD PTR _this$[ebp]
	pop	edi
	pop	esi
	pop	ebx
	add	esp, 204				; 000000ccH
	cmp	ebp, esp
	call	__RTC_CheckEsp
	mov	esp, ebp
	pop	ebp
	ret	0
??0Ipecker_stencil_buffer@pecker_sdk@@QAE@XZ ENDP	; pecker_sdk::Ipecker_stencil_buffer::Ipecker_stencil_buffer
_TEXT	ENDS
PUBLIC	??1Ipecker_stencil_buffer@pecker_sdk@@UAE@XZ	; pecker_sdk::Ipecker_stencil_buffer::~Ipecker_stencil_buffer
; Function compile flags: /Odtp /RTCsu /ZI
;	COMDAT ??_GIpecker_stencil_buffer@pecker_sdk@@UAEPAXI@Z
_TEXT	SEGMENT
_this$ = -8						; size = 4
___flags$ = 8						; size = 4
??_GIpecker_stencil_buffer@pecker_sdk@@UAEPAXI@Z PROC	; pecker_sdk::Ipecker_stencil_buffer::`scalar deleting destructor', COMDAT
; _this$ = ecx
	push	ebp
	mov	ebp, esp
	sub	esp, 204				; 000000ccH
	push	ebx
	push	esi
	push	edi
	push	ecx
	lea	edi, DWORD PTR [ebp-204]
	mov	ecx, 51					; 00000033H
	mov	eax, -858993460				; ccccccccH
	rep stosd
	pop	ecx
	mov	DWORD PTR _this$[ebp], ecx
	mov	ecx, DWORD PTR _this$[ebp]
	call	??1Ipecker_stencil_buffer@pecker_sdk@@UAE@XZ ; pecker_sdk::Ipecker_stencil_buffer::~Ipecker_stencil_buffer
	mov	eax, DWORD PTR ___flags$[ebp]
	and	eax, 1
	je	SHORT $LN1@scalar@9
	mov	eax, DWORD PTR _this$[ebp]
	push	eax
	call	??3@YAXPAX@Z				; operator delete
	add	esp, 4
$LN1@scalar@9:
	mov	eax, DWORD PTR _this$[ebp]
	pop	edi
	pop	esi
	pop	ebx
	add	esp, 204				; 000000ccH
	cmp	ebp, esp
	call	__RTC_CheckEsp
	mov	esp, ebp
	pop	ebp
	ret	4
??_GIpecker_stencil_buffer@pecker_sdk@@UAEPAXI@Z ENDP	; pecker_sdk::Ipecker_stencil_buffer::`scalar deleting destructor'
; Function compile flags: /Odtp /RTCsu /ZI
; File f:\codes\pecker_framework_git\pecker_src\pecker_framework\render\render_system\pecker_render_buffer.h
_TEXT	ENDS
;	COMDAT ??1Ipecker_stencil_buffer@pecker_sdk@@UAE@XZ
_TEXT	SEGMENT
_this$ = -8						; size = 4
??1Ipecker_stencil_buffer@pecker_sdk@@UAE@XZ PROC	; pecker_sdk::Ipecker_stencil_buffer::~Ipecker_stencil_buffer, COMDAT
; _this$ = ecx

; 87   : 	virtual ~Ipecker_stencil_buffer(){;}

	push	ebp
	mov	ebp, esp
	sub	esp, 204				; 000000ccH
	push	ebx
	push	esi
	push	edi
	push	ecx
	lea	edi, DWORD PTR [ebp-204]
	mov	ecx, 51					; 00000033H
	mov	eax, -858993460				; ccccccccH
	rep stosd
	pop	ecx
	mov	DWORD PTR _this$[ebp], ecx
	mov	eax, DWORD PTR _this$[ebp]
	mov	DWORD PTR [eax], OFFSET ??_7Ipecker_stencil_buffer@pecker_sdk@@6B@
	mov	ecx, DWORD PTR _this$[ebp]
	call	??1Ipecker_render_buffer@pecker_sdk@@UAE@XZ ; pecker_sdk::Ipecker_render_buffer::~Ipecker_render_buffer
	pop	edi
	pop	esi
	pop	ebx
	add	esp, 204				; 000000ccH
	cmp	ebp, esp
	call	__RTC_CheckEsp
	mov	esp, ebp
	pop	ebp
	ret	0
??1Ipecker_stencil_buffer@pecker_sdk@@UAE@XZ ENDP	; pecker_sdk::Ipecker_stencil_buffer::~Ipecker_stencil_buffer
_TEXT	ENDS
PUBLIC	??1pecker_stencil_buffer_gles2@pecker_sdk@@UAE@XZ ; pecker_sdk::pecker_stencil_buffer_gles2::~pecker_stencil_buffer_gles2
; Function compile flags: /Odtp /RTCsu /ZI
;	COMDAT ??_Dpecker_stencil_buffer_gles2@pecker_sdk@@QAEXXZ
_TEXT	SEGMENT
_this$ = -8						; size = 4
??_Dpecker_stencil_buffer_gles2@pecker_sdk@@QAEXXZ PROC	; pecker_sdk::pecker_stencil_buffer_gles2::`vbase destructor', COMDAT
; _this$ = ecx
	push	ebp
	mov	ebp, esp
	sub	esp, 204				; 000000ccH
	push	ebx
	push	esi
	push	edi
	push	ecx
	lea	edi, DWORD PTR [ebp-204]
	mov	ecx, 51					; 00000033H
	mov	eax, -858993460				; ccccccccH
	rep stosd
	pop	ecx
	mov	DWORD PTR _this$[ebp], ecx
	mov	ecx, DWORD PTR _this$[ebp]
	call	??1pecker_stencil_buffer_gles2@pecker_sdk@@UAE@XZ ; pecker_sdk::pecker_stencil_buffer_gles2::~pecker_stencil_buffer_gles2
	mov	ecx, DWORD PTR _this$[ebp]
	add	ecx, 28					; 0000001cH
	call	??1pecker_opengles_v2_object@pecker_sdk@@UAE@XZ
	pop	edi
	pop	esi
	pop	ebx
	add	esp, 204				; 000000ccH
	cmp	ebp, esp
	call	__RTC_CheckEsp
	mov	esp, ebp
	pop	ebp
	ret	0
??_Dpecker_stencil_buffer_gles2@pecker_sdk@@QAEXXZ ENDP	; pecker_sdk::pecker_stencil_buffer_gles2::`vbase destructor'
_TEXT	ENDS
;	COMDAT xdata$x
; File f:\codes\pecker_framework_git\pecker_src\pecker_framework\render\render_system\opengles\pecker_render_buffer_gl.cpp
xdata$x	SEGMENT
__unwindtable$??1pecker_stencil_buffer_gles2@pecker_sdk@@UAE@XZ DD 0ffffffffH
	DD	FLAT:__unwindfunclet$??1pecker_stencil_buffer_gles2@pecker_sdk@@UAE@XZ$0
__ehfuncinfo$??1pecker_stencil_buffer_gles2@pecker_sdk@@UAE@XZ DD 019930522H
	DD	01H
	DD	FLAT:__unwindtable$??1pecker_stencil_buffer_gles2@pecker_sdk@@UAE@XZ
	DD	2 DUP(00H)
	DD	2 DUP(00H)
	DD	00H
	DD	01H
; Function compile flags: /Odtp /RTCsu /ZI
xdata$x	ENDS
;	COMDAT ??1pecker_stencil_buffer_gles2@pecker_sdk@@UAE@XZ
_TEXT	SEGMENT
_this$ = -20						; size = 4
__$EHRec$ = -12						; size = 12
??1pecker_stencil_buffer_gles2@pecker_sdk@@UAE@XZ PROC	; pecker_sdk::pecker_stencil_buffer_gles2::~pecker_stencil_buffer_gles2, COMDAT
; _this$ = ecx

; 263  : {

	push	ebp
	mov	ebp, esp
	push	-1
	push	__ehhandler$??1pecker_stencil_buffer_gles2@pecker_sdk@@UAE@XZ
	mov	eax, DWORD PTR fs:0
	push	eax
	sub	esp, 204				; 000000ccH
	push	ebx
	push	esi
	push	edi
	push	ecx
	lea	edi, DWORD PTR [ebp-216]
	mov	ecx, 51					; 00000033H
	mov	eax, -858993460				; ccccccccH
	rep stosd
	pop	ecx
	mov	eax, DWORD PTR ___security_cookie
	xor	eax, ebp
	push	eax
	lea	eax, DWORD PTR __$EHRec$[ebp]
	mov	DWORD PTR fs:0, eax
	mov	DWORD PTR _this$[ebp], ecx
	mov	eax, DWORD PTR _this$[ebp]
	mov	DWORD PTR [eax], OFFSET ??_7pecker_stencil_buffer_gles2@pecker_sdk@@6BIpecker_stencil_buffer@1@@
	mov	eax, DWORD PTR _this$[ebp]
	mov	ecx, DWORD PTR [eax+4]
	mov	edx, DWORD PTR [ecx+4]
	mov	eax, DWORD PTR _this$[ebp]
	mov	DWORD PTR [eax+edx+4], OFFSET ??_7pecker_stencil_buffer_gles2@pecker_sdk@@6Bpecker_opengles_v2_object@1@@
	mov	eax, DWORD PTR _this$[ebp]
	mov	ecx, DWORD PTR [eax+4]
	mov	edx, DWORD PTR [ecx+4]
	sub	edx, 24					; 00000018H
	mov	eax, DWORD PTR _this$[ebp]
	mov	ecx, DWORD PTR [eax+4]
	mov	eax, DWORD PTR [ecx+4]
	mov	ecx, DWORD PTR _this$[ebp]
	mov	DWORD PTR [ecx+eax], edx
	mov	DWORD PTR __$EHRec$[ebp+8], 0

; 264  : 	release_buffer_from_gpu_ram();

	mov	ecx, DWORD PTR _this$[ebp]
	call	?release_buffer_from_gpu_ram@pecker_stencil_buffer_gles2@pecker_sdk@@UAEJXZ ; pecker_sdk::pecker_stencil_buffer_gles2::release_buffer_from_gpu_ram

; 265  : }

	mov	DWORD PTR __$EHRec$[ebp+8], -1
	mov	ecx, DWORD PTR _this$[ebp]
	call	??1Ipecker_stencil_buffer@pecker_sdk@@UAE@XZ ; pecker_sdk::Ipecker_stencil_buffer::~Ipecker_stencil_buffer
	mov	ecx, DWORD PTR __$EHRec$[ebp]
	mov	DWORD PTR fs:0, ecx
	pop	ecx
	pop	edi
	pop	esi
	pop	ebx
	add	esp, 216				; 000000d8H
	cmp	ebp, esp
	call	__RTC_CheckEsp
	mov	esp, ebp
	pop	ebp
	ret	0
_TEXT	ENDS
;	COMDAT text$x
text$x	SEGMENT
__unwindfunclet$??1pecker_stencil_buffer_gles2@pecker_sdk@@UAE@XZ$0:
	mov	ecx, DWORD PTR _this$[ebp]
	jmp	??1Ipecker_stencil_buffer@pecker_sdk@@UAE@XZ ; pecker_sdk::Ipecker_stencil_buffer::~Ipecker_stencil_buffer
__ehhandler$??1pecker_stencil_buffer_gles2@pecker_sdk@@UAE@XZ:
	mov	edx, DWORD PTR [esp+8]
	lea	eax, DWORD PTR [edx+12]
	mov	ecx, DWORD PTR [edx-220]
	xor	ecx, eax
	call	@__security_check_cookie@4
	mov	eax, OFFSET __ehfuncinfo$??1pecker_stencil_buffer_gles2@pecker_sdk@@UAE@XZ
	jmp	___CxxFrameHandler3
text$x	ENDS
??1pecker_stencil_buffer_gles2@pecker_sdk@@UAE@XZ ENDP	; pecker_sdk::pecker_stencil_buffer_gles2::~pecker_stencil_buffer_gles2
; Function compile flags: /Odtp /RTCsu /ZI
;	COMDAT ?attach_by_frame_buffer@pecker_stencil_buffer_gles2@pecker_sdk@@UAEJPAUIpecker_frame_buffer@2@I@Z
_TEXT	SEGMENT
_this$ = -8						; size = 4
_pframe_buffer$ = 8					; size = 4
_attach_index$ = 12					; size = 4
?attach_by_frame_buffer@pecker_stencil_buffer_gles2@pecker_sdk@@UAEJPAUIpecker_frame_buffer@2@I@Z PROC ; pecker_sdk::pecker_stencil_buffer_gles2::attach_by_frame_buffer, COMDAT
; _this$ = ecx

; 268  : {

	push	ebp
	mov	ebp, esp
	sub	esp, 204				; 000000ccH
	push	ebx
	push	esi
	push	edi
	push	ecx
	lea	edi, DWORD PTR [ebp-204]
	mov	ecx, 51					; 00000033H
	mov	eax, -858993460				; ccccccccH
	rep stosd
	pop	ecx
	mov	DWORD PTR _this$[ebp], ecx

; 269  : 	if (null != pframe_buffer)

	cmp	DWORD PTR _pframe_buffer$[ebp], 0
	je	SHORT $LN1@attach_by_@3

; 270  : 	{
; 271  : 		return pframe_buffer->attach_render_buffer(this,attach_index);

	mov	esi, esp
	mov	eax, DWORD PTR _attach_index$[ebp]
	push	eax
	mov	ecx, DWORD PTR _this$[ebp]
	push	ecx
	mov	edx, DWORD PTR _pframe_buffer$[ebp]
	mov	eax, DWORD PTR [edx]
	mov	ecx, DWORD PTR _pframe_buffer$[ebp]
	mov	edx, DWORD PTR [eax+12]
	call	edx
	cmp	esi, esp
	call	__RTC_CheckEsp
	jmp	SHORT $LN2@attach_by_@3
$LN1@attach_by_@3:

; 272  : 	}
; 273  : 	return P_FAIL;

	mov	eax, 1
$LN2@attach_by_@3:

; 274  : }

	pop	edi
	pop	esi
	pop	ebx
	add	esp, 204				; 000000ccH
	cmp	ebp, esp
	call	__RTC_CheckEsp
	mov	esp, ebp
	pop	ebp
	ret	8
?attach_by_frame_buffer@pecker_stencil_buffer_gles2@pecker_sdk@@UAEJPAUIpecker_frame_buffer@2@I@Z ENDP ; pecker_sdk::pecker_stencil_buffer_gles2::attach_by_frame_buffer
; Function compile flags: /Odtp /RTCsu /ZI
_TEXT	ENDS
;	COMDAT ?bind@pecker_stencil_buffer_gles2@pecker_sdk@@UAEJXZ
_TEXT	SEGMENT
_this$ = -8						; size = 4
?bind@pecker_stencil_buffer_gles2@pecker_sdk@@UAEJXZ PROC ; pecker_sdk::pecker_stencil_buffer_gles2::bind, COMDAT
; _this$ = ecx

; 277  : {

	push	ebp
	mov	ebp, esp
	sub	esp, 204				; 000000ccH
	push	ebx
	push	esi
	push	edi
	push	ecx
	lea	edi, DWORD PTR [ebp-204]
	mov	ecx, 51					; 00000033H
	mov	eax, -858993460				; ccccccccH
	rep stosd
	pop	ecx
	mov	DWORD PTR _this$[ebp], ecx

; 278  : 	glBindRenderbuffer(GL_RENDERBUFFER,_M_gpu_target);

	mov	esi, esp
	mov	eax, DWORD PTR _this$[ebp]
	mov	ecx, DWORD PTR [eax+8]
	push	ecx
	push	36161					; 00008d41H
	call	DWORD PTR __imp__glBindRenderbuffer@8
	cmp	esi, esp
	call	__RTC_CheckEsp

; 279  : 	return pecker_opengles_v2_object::get_last_error_code();

	call	?get_last_error_code@pecker_opengles_v2_object@pecker_sdk@@SAJXZ ; pecker_sdk::pecker_opengles_v2_object::get_last_error_code

; 280  : }

	pop	edi
	pop	esi
	pop	ebx
	add	esp, 204				; 000000ccH
	cmp	ebp, esp
	call	__RTC_CheckEsp
	mov	esp, ebp
	pop	ebp
	ret	0
?bind@pecker_stencil_buffer_gles2@pecker_sdk@@UAEJXZ ENDP ; pecker_sdk::pecker_stencil_buffer_gles2::bind
; Function compile flags: /Odtp /RTCsu /ZI
_TEXT	ENDS
;	COMDAT ?allocate_buffer_from_gpu_ram@pecker_stencil_buffer_gles2@pecker_sdk@@UAEJXZ
_TEXT	SEGMENT
_result_$69507 = -20					; size = 4
_this$ = -8						; size = 4
?allocate_buffer_from_gpu_ram@pecker_stencil_buffer_gles2@pecker_sdk@@UAEJXZ PROC ; pecker_sdk::pecker_stencil_buffer_gles2::allocate_buffer_from_gpu_ram, COMDAT
; _this$ = ecx

; 283  : {

	push	ebp
	mov	ebp, esp
	sub	esp, 216				; 000000d8H
	push	ebx
	push	esi
	push	edi
	push	ecx
	lea	edi, DWORD PTR [ebp-216]
	mov	ecx, 54					; 00000036H
	mov	eax, -858993460				; ccccccccH
	rep stosd
	pop	ecx
	mov	DWORD PTR _this$[ebp], ecx

; 284  : 	if (0 == _M_gpu_target)

	mov	eax, DWORD PTR _this$[ebp]
	cmp	DWORD PTR [eax+8], 0
	jne	SHORT $LN2@allocate_b@3

; 285  : 	{
; 286  : 		glGenRenderbuffers(1,&_M_gpu_target);

	mov	eax, DWORD PTR _this$[ebp]
	add	eax, 8
	mov	esi, esp
	push	eax
	push	1
	call	DWORD PTR __imp__glGenRenderbuffers@8
	cmp	esi, esp
	call	__RTC_CheckEsp

; 287  : 		HResult result_ = pecker_opengles_v2_object::get_last_error_code();

	call	?get_last_error_code@pecker_opengles_v2_object@pecker_sdk@@SAJXZ ; pecker_sdk::pecker_opengles_v2_object::get_last_error_code
	mov	DWORD PTR _result_$69507[ebp], eax

; 288  : 		return result_;

	mov	eax, DWORD PTR _result_$69507[ebp]
	jmp	SHORT $LN3@allocate_b@3

; 289  : 	}
; 290  : 	else

	jmp	SHORT $LN3@allocate_b@3
$LN2@allocate_b@3:

; 291  : 	{
; 292  : 		return P_UNIQUE_ERR;

	mov	eax, -4					; fffffffcH
$LN3@allocate_b@3:

; 293  : 	}
; 294  : }

	pop	edi
	pop	esi
	pop	ebx
	add	esp, 216				; 000000d8H
	cmp	ebp, esp
	call	__RTC_CheckEsp
	mov	esp, ebp
	pop	ebp
	ret	0
?allocate_buffer_from_gpu_ram@pecker_stencil_buffer_gles2@pecker_sdk@@UAEJXZ ENDP ; pecker_sdk::pecker_stencil_buffer_gles2::allocate_buffer_from_gpu_ram
; Function compile flags: /Odtp /RTCsu /ZI
_TEXT	ENDS
;	COMDAT ?release_buffer_from_gpu_ram@pecker_stencil_buffer_gles2@pecker_sdk@@UAEJXZ
_TEXT	SEGMENT
_result_$69513 = -20					; size = 4
_this$ = -8						; size = 4
?release_buffer_from_gpu_ram@pecker_stencil_buffer_gles2@pecker_sdk@@UAEJXZ PROC ; pecker_sdk::pecker_stencil_buffer_gles2::release_buffer_from_gpu_ram, COMDAT
; _this$ = ecx

; 297  : {

	push	ebp
	mov	ebp, esp
	sub	esp, 216				; 000000d8H
	push	ebx
	push	esi
	push	edi
	push	ecx
	lea	edi, DWORD PTR [ebp-216]
	mov	ecx, 54					; 00000036H
	mov	eax, -858993460				; ccccccccH
	rep stosd
	pop	ecx
	mov	DWORD PTR _this$[ebp], ecx

; 298  : 	if (0 != _M_gpu_target)

	mov	eax, DWORD PTR _this$[ebp]
	cmp	DWORD PTR [eax+8], 0
	je	SHORT $LN2@release_bu@3

; 299  : 	{
; 300  : 		glDeleteRenderbuffers(1,&_M_gpu_target);

	mov	eax, DWORD PTR _this$[ebp]
	add	eax, 8
	mov	esi, esp
	push	eax
	push	1
	call	DWORD PTR __imp__glDeleteRenderbuffers@8
	cmp	esi, esp
	call	__RTC_CheckEsp

; 301  : 		HResult result_ = pecker_opengles_v2_object::get_last_error_code();

	call	?get_last_error_code@pecker_opengles_v2_object@pecker_sdk@@SAJXZ ; pecker_sdk::pecker_opengles_v2_object::get_last_error_code
	mov	DWORD PTR _result_$69513[ebp], eax

; 302  : 		return result_;

	mov	eax, DWORD PTR _result_$69513[ebp]
	jmp	SHORT $LN3@release_bu@3

; 303  : 	}
; 304  : 	else

	jmp	SHORT $LN3@release_bu@3
$LN2@release_bu@3:

; 305  : 	{
; 306  : 		return P_OK;

	xor	eax, eax
$LN3@release_bu@3:

; 307  : 	}
; 308  : }

	pop	edi
	pop	esi
	pop	ebx
	add	esp, 216				; 000000d8H
	cmp	ebp, esp
	call	__RTC_CheckEsp
	mov	esp, ebp
	pop	ebp
	ret	0
?release_buffer_from_gpu_ram@pecker_stencil_buffer_gles2@pecker_sdk@@UAEJXZ ENDP ; pecker_sdk::pecker_stencil_buffer_gles2::release_buffer_from_gpu_ram
; Function compile flags: /Odtp /RTCsu /ZI
_TEXT	ENDS
;	COMDAT ?use_render_buffer_info@pecker_stencil_buffer_gles2@pecker_sdk@@UAEJXZ
_TEXT	SEGMENT
_result_$69521 = -32					; size = 4
_internal_format$69519 = -20				; size = 4
_this$ = -8						; size = 4
?use_render_buffer_info@pecker_stencil_buffer_gles2@pecker_sdk@@UAEJXZ PROC ; pecker_sdk::pecker_stencil_buffer_gles2::use_render_buffer_info, COMDAT
; _this$ = ecx

; 316  : {

	push	ebp
	mov	ebp, esp
	sub	esp, 228				; 000000e4H
	push	ebx
	push	esi
	push	edi
	push	ecx
	lea	edi, DWORD PTR [ebp-228]
	mov	ecx, 57					; 00000039H
	mov	eax, -858993460				; ccccccccH
	rep stosd
	pop	ecx
	mov	DWORD PTR _this$[ebp], ecx

; 317  : 	if (0 != _M_gpu_target)

	mov	eax, DWORD PTR _this$[ebp]
	cmp	DWORD PTR [eax+8], 0
	je	SHORT $LN2@use_render@5

; 318  : 	{
; 319  : 		UInt internal_format = _M_render_buffer_info._M_internal_format;

	mov	eax, DWORD PTR _this$[ebp]
	mov	ecx, DWORD PTR [eax+12]
	mov	DWORD PTR _internal_format$69519[ebp], ecx

; 320  : 		if (_M_render_buffer_info._M_internal_format < STENCIL_BUFFER_FORMAT_COUNT)

	mov	eax, DWORD PTR _this$[ebp]
	cmp	DWORD PTR [eax+12], 4
	jae	SHORT $LN1@use_render@5

; 321  : 		{
; 322  : 			internal_format = STENCIL_BUFFER_FORMAT_TABLE_GLES2[_M_render_buffer_info._M_internal_format];

	mov	eax, DWORD PTR _this$[ebp]
	mov	ecx, DWORD PTR [eax+12]
	mov	edx, DWORD PTR _STENCIL_BUFFER_FORMAT_TABLE_GLES2[ecx*4]
	mov	DWORD PTR _internal_format$69519[ebp], edx
$LN1@use_render@5:

; 323  : 		}
; 324  : 
; 325  : 		glBindRenderbuffer(GL_RENDERBUFFER,_M_gpu_target);

	mov	esi, esp
	mov	eax, DWORD PTR _this$[ebp]
	mov	ecx, DWORD PTR [eax+8]
	push	ecx
	push	36161					; 00008d41H
	call	DWORD PTR __imp__glBindRenderbuffer@8
	cmp	esi, esp
	call	__RTC_CheckEsp

; 326  : 		glRenderbufferStorage(GL_RENDERBUFFER,_M_render_buffer_info._M_internal_format,
; 327  : 			_M_render_buffer_info._M_width,_M_render_buffer_info._M_heigth);

	mov	esi, esp
	mov	eax, DWORD PTR _this$[ebp]
	mov	ecx, DWORD PTR [eax+20]
	push	ecx
	mov	edx, DWORD PTR _this$[ebp]
	mov	eax, DWORD PTR [edx+16]
	push	eax
	mov	ecx, DWORD PTR _this$[ebp]
	mov	edx, DWORD PTR [ecx+12]
	push	edx
	push	36161					; 00008d41H
	call	DWORD PTR __imp__glRenderbufferStorage@16
	cmp	esi, esp
	call	__RTC_CheckEsp

; 328  : 
; 329  : 		HResult result_ = pecker_opengles_v2_object::get_last_error_code();

	call	?get_last_error_code@pecker_opengles_v2_object@pecker_sdk@@SAJXZ ; pecker_sdk::pecker_opengles_v2_object::get_last_error_code
	mov	DWORD PTR _result_$69521[ebp], eax

; 330  : 		return result_;

	mov	eax, DWORD PTR _result_$69521[ebp]
	jmp	SHORT $LN3@use_render@5
$LN2@use_render@5:

; 331  : 	}
; 332  : 	return P_FAIL;

	mov	eax, 1
$LN3@use_render@5:

; 333  : }

	pop	edi
	pop	esi
	pop	ebx
	add	esp, 228				; 000000e4H
	cmp	ebp, esp
	call	__RTC_CheckEsp
	mov	esp, ebp
	pop	ebp
	ret	0
?use_render_buffer_info@pecker_stencil_buffer_gles2@pecker_sdk@@UAEJXZ ENDP ; pecker_sdk::pecker_stencil_buffer_gles2::use_render_buffer_info
; Function compile flags: /Odtp /RTCsu /ZI
_TEXT	ENDS
;	COMDAT ?use_render_buffer_info@pecker_stencil_buffer_gles2@pecker_sdk@@UAEJABUpecker_render_buffer_info@2@@Z
_TEXT	SEGMENT
_result_$69529 = -32					; size = 4
_internal_format$69527 = -20				; size = 4
_this$ = -8						; size = 4
_buf_info$ = 8						; size = 4
?use_render_buffer_info@pecker_stencil_buffer_gles2@pecker_sdk@@UAEJABUpecker_render_buffer_info@2@@Z PROC ; pecker_sdk::pecker_stencil_buffer_gles2::use_render_buffer_info, COMDAT
; _this$ = ecx

; 336  : {

	push	ebp
	mov	ebp, esp
	sub	esp, 228				; 000000e4H
	push	ebx
	push	esi
	push	edi
	push	ecx
	lea	edi, DWORD PTR [ebp-228]
	mov	ecx, 57					; 00000039H
	mov	eax, -858993460				; ccccccccH
	rep stosd
	pop	ecx
	mov	DWORD PTR _this$[ebp], ecx

; 337  : 	if (0 != _M_gpu_target)

	mov	eax, DWORD PTR _this$[ebp]
	cmp	DWORD PTR [eax+8], 0
	je	$LN3@use_render@6

; 338  : 	{
; 339  : 		UInt internal_format = buf_info._M_internal_format;

	mov	eax, DWORD PTR _buf_info$[ebp]
	mov	ecx, DWORD PTR [eax]
	mov	DWORD PTR _internal_format$69527[ebp], ecx

; 340  : 		if (buf_info._M_internal_format < DEPTH_BUFFER_FORMAT_COUNT)

	mov	eax, DWORD PTR _buf_info$[ebp]
	cmp	DWORD PTR [eax], 4
	jae	SHORT $LN2@use_render@6

; 341  : 		{
; 342  : 			internal_format = DEPTH_BUFFER_FORMAT_TABLE_GLES2[buf_info._M_internal_format];

	mov	eax, DWORD PTR _buf_info$[ebp]
	mov	ecx, DWORD PTR [eax]
	mov	edx, DWORD PTR _DEPTH_BUFFER_FORMAT_TABLE_GLES2[ecx*4]
	mov	DWORD PTR _internal_format$69527[ebp], edx
$LN2@use_render@6:

; 343  : 		}
; 344  : 		glBindRenderbuffer(GL_RENDERBUFFER,_M_gpu_target);

	mov	esi, esp
	mov	eax, DWORD PTR _this$[ebp]
	mov	ecx, DWORD PTR [eax+8]
	push	ecx
	push	36161					; 00008d41H
	call	DWORD PTR __imp__glBindRenderbuffer@8
	cmp	esi, esp
	call	__RTC_CheckEsp

; 345  : 		glRenderbufferStorage(GL_RENDERBUFFER,internal_format,
; 346  : 			buf_info._M_width,buf_info._M_heigth);

	mov	esi, esp
	mov	eax, DWORD PTR _buf_info$[ebp]
	mov	ecx, DWORD PTR [eax+8]
	push	ecx
	mov	edx, DWORD PTR _buf_info$[ebp]
	mov	eax, DWORD PTR [edx+4]
	push	eax
	mov	ecx, DWORD PTR _internal_format$69527[ebp]
	push	ecx
	push	36161					; 00008d41H
	call	DWORD PTR __imp__glRenderbufferStorage@16
	cmp	esi, esp
	call	__RTC_CheckEsp

; 347  : 
; 348  : 		HResult result_ = pecker_opengles_v2_object::get_last_error_code();

	call	?get_last_error_code@pecker_opengles_v2_object@pecker_sdk@@SAJXZ ; pecker_sdk::pecker_opengles_v2_object::get_last_error_code
	mov	DWORD PTR _result_$69529[ebp], eax

; 349  : 		if (P_OK == result_)

	cmp	DWORD PTR _result_$69529[ebp], 0
	jne	SHORT $LN1@use_render@6

; 350  : 		{
; 351  : 			_M_render_buffer_info = buf_info;

	mov	eax, DWORD PTR _buf_info$[ebp]
	mov	ecx, DWORD PTR _this$[ebp]
	add	ecx, 12					; 0000000cH
	mov	edx, DWORD PTR [eax]
	mov	DWORD PTR [ecx], edx
	mov	edx, DWORD PTR [eax+4]
	mov	DWORD PTR [ecx+4], edx
	mov	eax, DWORD PTR [eax+8]
	mov	DWORD PTR [ecx+8], eax
$LN1@use_render@6:

; 352  : 		}
; 353  : 		return result_;

	mov	eax, DWORD PTR _result_$69529[ebp]
	jmp	SHORT $LN4@use_render@6
$LN3@use_render@6:

; 354  : 	}
; 355  : 	return P_FAIL;

	mov	eax, 1
$LN4@use_render@6:

; 356  : }

	pop	edi
	pop	esi
	pop	ebx
	add	esp, 228				; 000000e4H
	cmp	ebp, esp
	call	__RTC_CheckEsp
	mov	esp, ebp
	pop	ebp
	ret	4
?use_render_buffer_info@pecker_stencil_buffer_gles2@pecker_sdk@@UAEJABUpecker_render_buffer_info@2@@Z ENDP ; pecker_sdk::pecker_stencil_buffer_gles2::use_render_buffer_info
; Function compile flags: /Odtp /RTCsu /ZI
_TEXT	ENDS
;	COMDAT ?get_render_buffer_info@pecker_stencil_buffer_gles2@pecker_sdk@@UBEABUpecker_render_buffer_info@2@XZ
_TEXT	SEGMENT
_this$ = -8						; size = 4
?get_render_buffer_info@pecker_stencil_buffer_gles2@pecker_sdk@@UBEABUpecker_render_buffer_info@2@XZ PROC ; pecker_sdk::pecker_stencil_buffer_gles2::get_render_buffer_info, COMDAT
; _this$ = ecx

; 359  : {

	push	ebp
	mov	ebp, esp
	sub	esp, 204				; 000000ccH
	push	ebx
	push	esi
	push	edi
	push	ecx
	lea	edi, DWORD PTR [ebp-204]
	mov	ecx, 51					; 00000033H
	mov	eax, -858993460				; ccccccccH
	rep stosd
	pop	ecx
	mov	DWORD PTR _this$[ebp], ecx

; 360  : 	return _M_render_buffer_info;

	mov	eax, DWORD PTR _this$[ebp]
	add	eax, 12					; 0000000cH

; 361  : }

	pop	edi
	pop	esi
	pop	ebx
	mov	esp, ebp
	pop	ebp
	ret	0
?get_render_buffer_info@pecker_stencil_buffer_gles2@pecker_sdk@@UBEABUpecker_render_buffer_info@2@XZ ENDP ; pecker_sdk::pecker_stencil_buffer_gles2::get_render_buffer_info
_TEXT	ENDS
PUBLIC	?get_object_location@pecker_stencil_buffer_gles2@pecker_sdk@@UBEIXZ ; pecker_sdk::pecker_stencil_buffer_gles2::get_object_location
; Function compile flags: /Odtp /RTCsu /ZI
;	COMDAT ?get_object_location@pecker_stencil_buffer_gles2@pecker_sdk@@UBEIXZ
_TEXT	SEGMENT
_this$ = -8						; size = 4
?get_object_location@pecker_stencil_buffer_gles2@pecker_sdk@@UBEIXZ PROC ; pecker_sdk::pecker_stencil_buffer_gles2::get_object_location, COMDAT
; _this$ = ecx

; 364  : {

	push	ebp
	mov	ebp, esp
	sub	esp, 204				; 000000ccH
	push	ebx
	push	esi
	push	edi
	push	ecx
	lea	edi, DWORD PTR [ebp-204]
	mov	ecx, 51					; 00000033H
	mov	eax, -858993460				; ccccccccH
	rep stosd
	pop	ecx
	mov	DWORD PTR _this$[ebp], ecx

; 365  : 	return _M_gpu_target;

	mov	eax, DWORD PTR _this$[ebp]
	mov	eax, DWORD PTR [eax-20]

; 366  : }

	pop	edi
	pop	esi
	pop	ebx
	mov	esp, ebp
	pop	ebp
	ret	0
?get_object_location@pecker_stencil_buffer_gles2@pecker_sdk@@UBEIXZ ENDP ; pecker_sdk::pecker_stencil_buffer_gles2::get_object_location
; Function compile flags: /Odtp /RTCsu /ZI
_TEXT	ENDS
;	COMDAT ?get_object_location@pecker_depth_buffer_gles2@pecker_sdk@@$4PPPPPPPM@A@BEIXZ
_TEXT	SEGMENT
?get_object_location@pecker_depth_buffer_gles2@pecker_sdk@@$4PPPPPPPM@A@BEIXZ PROC ; pecker_sdk::pecker_depth_buffer_gles2::get_object_location, COMDAT
	sub	ecx, DWORD PTR [ecx-4]
	jmp	?get_object_location@pecker_depth_buffer_gles2@pecker_sdk@@UBEIXZ ; pecker_sdk::pecker_depth_buffer_gles2::get_object_location
?get_object_location@pecker_depth_buffer_gles2@pecker_sdk@@$4PPPPPPPM@A@BEIXZ ENDP ; pecker_sdk::pecker_depth_buffer_gles2::get_object_location
; Function compile flags: /Odtp /RTCsu /ZI
_TEXT	ENDS
;	COMDAT ??_Epecker_depth_buffer_gles2@pecker_sdk@@$4PPPPPPPM@BM@AEPAXI@Z
_TEXT	SEGMENT
??_Epecker_depth_buffer_gles2@pecker_sdk@@$4PPPPPPPM@BM@AEPAXI@Z PROC ; pecker_sdk::pecker_depth_buffer_gles2::`vector deleting destructor', COMDAT
	sub	ecx, DWORD PTR [ecx-4]
	sub	ecx, 28					; 0000001cH
	jmp	??_Epecker_depth_buffer_gles2@pecker_sdk@@UAEPAXI@Z
??_Epecker_depth_buffer_gles2@pecker_sdk@@$4PPPPPPPM@BM@AEPAXI@Z ENDP ; pecker_sdk::pecker_depth_buffer_gles2::`vector deleting destructor'
; Function compile flags: /Odtp /RTCsu /ZI
_TEXT	ENDS
;	COMDAT ?get_object_location@pecker_stencil_buffer_gles2@pecker_sdk@@$4PPPPPPPM@A@BEIXZ
_TEXT	SEGMENT
?get_object_location@pecker_stencil_buffer_gles2@pecker_sdk@@$4PPPPPPPM@A@BEIXZ PROC ; pecker_sdk::pecker_stencil_buffer_gles2::get_object_location, COMDAT
	sub	ecx, DWORD PTR [ecx-4]
	jmp	?get_object_location@pecker_stencil_buffer_gles2@pecker_sdk@@UBEIXZ ; pecker_sdk::pecker_stencil_buffer_gles2::get_object_location
?get_object_location@pecker_stencil_buffer_gles2@pecker_sdk@@$4PPPPPPPM@A@BEIXZ ENDP ; pecker_sdk::pecker_stencil_buffer_gles2::get_object_location
; Function compile flags: /Odtp /RTCsu /ZI
_TEXT	ENDS
;	COMDAT ??_Epecker_color_buffer_gles2@pecker_sdk@@$4PPPPPPPM@BM@AEPAXI@Z
_TEXT	SEGMENT
??_Epecker_color_buffer_gles2@pecker_sdk@@$4PPPPPPPM@BM@AEPAXI@Z PROC ; pecker_sdk::pecker_color_buffer_gles2::`vector deleting destructor', COMDAT
	sub	ecx, DWORD PTR [ecx-4]
	sub	ecx, 28					; 0000001cH
	jmp	??_Epecker_color_buffer_gles2@pecker_sdk@@UAEPAXI@Z
??_Epecker_color_buffer_gles2@pecker_sdk@@$4PPPPPPPM@BM@AEPAXI@Z ENDP ; pecker_sdk::pecker_color_buffer_gles2::`vector deleting destructor'
; Function compile flags: /Odtp /RTCsu /ZI
_TEXT	ENDS
;	COMDAT ??_Epecker_stencil_buffer_gles2@pecker_sdk@@$4PPPPPPPM@BM@AEPAXI@Z
_TEXT	SEGMENT
??_Epecker_stencil_buffer_gles2@pecker_sdk@@$4PPPPPPPM@BM@AEPAXI@Z PROC ; pecker_sdk::pecker_stencil_buffer_gles2::`vector deleting destructor', COMDAT
	sub	ecx, DWORD PTR [ecx-4]
	sub	ecx, 28					; 0000001cH
	jmp	??_Epecker_stencil_buffer_gles2@pecker_sdk@@UAEPAXI@Z
??_Epecker_stencil_buffer_gles2@pecker_sdk@@$4PPPPPPPM@BM@AEPAXI@Z ENDP ; pecker_sdk::pecker_stencil_buffer_gles2::`vector deleting destructor'
; Function compile flags: /Odtp /RTCsu /ZI
_TEXT	ENDS
;	COMDAT ?get_object_location@pecker_color_buffer_gles2@pecker_sdk@@$4PPPPPPPM@A@BEIXZ
_TEXT	SEGMENT
?get_object_location@pecker_color_buffer_gles2@pecker_sdk@@$4PPPPPPPM@A@BEIXZ PROC ; pecker_sdk::pecker_color_buffer_gles2::get_object_location, COMDAT
	sub	ecx, DWORD PTR [ecx-4]
	jmp	?get_object_location@pecker_color_buffer_gles2@pecker_sdk@@UBEIXZ ; pecker_sdk::pecker_color_buffer_gles2::get_object_location
?get_object_location@pecker_color_buffer_gles2@pecker_sdk@@$4PPPPPPPM@A@BEIXZ ENDP ; pecker_sdk::pecker_color_buffer_gles2::get_object_location
_TEXT	ENDS
END
