; Listing generated by Microsoft (R) Optimizing Compiler Version 16.00.40219.01 

	TITLE	F:\codes\pecker_framework_git\pecker_src\pecker_framework\render\render_system\opengles\pecker_shader_program_glsles1.cpp
	.686P
	.XMM
	include listing.inc
	.model	flat

INCLUDELIB MSVCRTD
INCLUDELIB OLDNAMES

_BSS	SEGMENT
_g_pusing_shader_program DD 01H DUP (?)
_BSS	ENDS
PUBLIC	??_7pecker_shader_program_glsles1@pecker_sdk@@6B@ ; pecker_sdk::pecker_shader_program_glsles1::`vftable'
PUBLIC	??0pecker_opengles_v2_object@pecker_sdk@@QAE@XZ	; pecker_sdk::pecker_opengles_v2_object::pecker_opengles_v2_object
PUBLIC	??0pecker_shader_program_glsles1@pecker_sdk@@QAE@XZ ; pecker_sdk::pecker_shader_program_glsles1::pecker_shader_program_glsles1
PUBLIC	??_R4pecker_shader_program_glsles1@pecker_sdk@@6B@ ; pecker_sdk::pecker_shader_program_glsles1::`RTTI Complete Object Locator'
PUBLIC	??_R0?AVpecker_shader_program_glsles1@pecker_sdk@@@8 ; pecker_sdk::pecker_shader_program_glsles1 `RTTI Type Descriptor'
PUBLIC	??_R3pecker_shader_program_glsles1@pecker_sdk@@8 ; pecker_sdk::pecker_shader_program_glsles1::`RTTI Class Hierarchy Descriptor'
PUBLIC	??_R2pecker_shader_program_glsles1@pecker_sdk@@8 ; pecker_sdk::pecker_shader_program_glsles1::`RTTI Base Class Array'
PUBLIC	??_R1A@?0A@EA@pecker_shader_program_glsles1@pecker_sdk@@8 ; pecker_sdk::pecker_shader_program_glsles1::`RTTI Base Class Descriptor at (0,-1,0,64)'
PUBLIC	??_R1A@?0A@EA@pecker_opengles_v2_object@pecker_sdk@@8 ; pecker_sdk::pecker_opengles_v2_object::`RTTI Base Class Descriptor at (0,-1,0,64)'
PUBLIC	??_R0?AVpecker_opengles_v2_object@pecker_sdk@@@8 ; pecker_sdk::pecker_opengles_v2_object `RTTI Type Descriptor'
PUBLIC	??_R3pecker_opengles_v2_object@pecker_sdk@@8	; pecker_sdk::pecker_opengles_v2_object::`RTTI Class Hierarchy Descriptor'
PUBLIC	??_R2pecker_opengles_v2_object@pecker_sdk@@8	; pecker_sdk::pecker_opengles_v2_object::`RTTI Base Class Array'
PUBLIC	??_R1A@?0A@EA@pecker_render_object@pecker_sdk@@8 ; pecker_sdk::pecker_render_object::`RTTI Base Class Descriptor at (0,-1,0,64)'
PUBLIC	??_R0?AVpecker_render_object@pecker_sdk@@@8	; pecker_sdk::pecker_render_object `RTTI Type Descriptor'
PUBLIC	??_R3pecker_render_object@pecker_sdk@@8		; pecker_sdk::pecker_render_object::`RTTI Class Hierarchy Descriptor'
PUBLIC	??_R2pecker_render_object@pecker_sdk@@8		; pecker_sdk::pecker_render_object::`RTTI Base Class Array'
PUBLIC	?get_object_location@pecker_shader_program_glsles1@pecker_sdk@@UBEIXZ ; pecker_sdk::pecker_shader_program_glsles1::get_object_location
EXTRN	__RTC_CheckEsp:PROC
EXTRN	__RTC_Shutdown:PROC
EXTRN	__RTC_InitBase:PROC
EXTRN	??_7type_info@@6B@:QWORD			; type_info::`vftable'
EXTRN	??_Epecker_shader_program_glsles1@pecker_sdk@@UAEPAXI@Z:PROC ; pecker_sdk::pecker_shader_program_glsles1::`vector deleting destructor'
EXTRN	?toString@pecker_render_object@pecker_sdk@@UBEABV?$pecker_share_string_base_t@DU?$pecker_value_compare@D@pecker_sdk@@V?$pecker_simple_allocator@D@2@$0BA@@2@AAV32@@Z:PROC ; pecker_sdk::pecker_render_object::toString
EXTRN	?get_render_system_info@pecker_opengles_v2_object@pecker_sdk@@UBEABUpecker_render_system_info@2@AAU32@@Z:PROC ; pecker_sdk::pecker_opengles_v2_object::get_render_system_info
EXTRN	?get_this_reference@pecker_render_object@pecker_sdk@@UAEPAV12@XZ:PROC ; pecker_sdk::pecker_render_object::get_this_reference
EXTRN	?release_this_reference@pecker_render_object@pecker_sdk@@UAEJXZ:PROC ; pecker_sdk::pecker_render_object::release_this_reference
;	COMDAT ??_R2pecker_render_object@pecker_sdk@@8
; File f:\codes\pecker_framework_git\pecker_src\pecker_framework\render\render_system\opengles\pecker_shader_program_glsles1.cpp
rdata$r	SEGMENT
??_R2pecker_render_object@pecker_sdk@@8 DD FLAT:??_R1A@?0A@EA@pecker_render_object@pecker_sdk@@8 ; pecker_sdk::pecker_render_object::`RTTI Base Class Array'
rdata$r	ENDS
;	COMDAT ??_R3pecker_render_object@pecker_sdk@@8
rdata$r	SEGMENT
??_R3pecker_render_object@pecker_sdk@@8 DD 00H		; pecker_sdk::pecker_render_object::`RTTI Class Hierarchy Descriptor'
	DD	00H
	DD	01H
	DD	FLAT:??_R2pecker_render_object@pecker_sdk@@8
rdata$r	ENDS
;	COMDAT ??_R0?AVpecker_render_object@pecker_sdk@@@8
_DATA	SEGMENT
??_R0?AVpecker_render_object@pecker_sdk@@@8 DD FLAT:??_7type_info@@6B@ ; pecker_sdk::pecker_render_object `RTTI Type Descriptor'
	DD	00H
	DB	'.?AVpecker_render_object@pecker_sdk@@', 00H
_DATA	ENDS
;	COMDAT ??_R1A@?0A@EA@pecker_render_object@pecker_sdk@@8
rdata$r	SEGMENT
??_R1A@?0A@EA@pecker_render_object@pecker_sdk@@8 DD FLAT:??_R0?AVpecker_render_object@pecker_sdk@@@8 ; pecker_sdk::pecker_render_object::`RTTI Base Class Descriptor at (0,-1,0,64)'
	DD	00H
	DD	00H
	DD	0ffffffffH
	DD	00H
	DD	040H
	DD	FLAT:??_R3pecker_render_object@pecker_sdk@@8
rdata$r	ENDS
;	COMDAT ??_R2pecker_opengles_v2_object@pecker_sdk@@8
rdata$r	SEGMENT
??_R2pecker_opengles_v2_object@pecker_sdk@@8 DD FLAT:??_R1A@?0A@EA@pecker_opengles_v2_object@pecker_sdk@@8 ; pecker_sdk::pecker_opengles_v2_object::`RTTI Base Class Array'
	DD	FLAT:??_R1A@?0A@EA@pecker_render_object@pecker_sdk@@8
rdata$r	ENDS
;	COMDAT ??_R3pecker_opengles_v2_object@pecker_sdk@@8
rdata$r	SEGMENT
??_R3pecker_opengles_v2_object@pecker_sdk@@8 DD 00H	; pecker_sdk::pecker_opengles_v2_object::`RTTI Class Hierarchy Descriptor'
	DD	00H
	DD	02H
	DD	FLAT:??_R2pecker_opengles_v2_object@pecker_sdk@@8
rdata$r	ENDS
;	COMDAT ??_R0?AVpecker_opengles_v2_object@pecker_sdk@@@8
_DATA	SEGMENT
??_R0?AVpecker_opengles_v2_object@pecker_sdk@@@8 DD FLAT:??_7type_info@@6B@ ; pecker_sdk::pecker_opengles_v2_object `RTTI Type Descriptor'
	DD	00H
	DB	'.?AVpecker_opengles_v2_object@pecker_sdk@@', 00H
_DATA	ENDS
;	COMDAT ??_R1A@?0A@EA@pecker_opengles_v2_object@pecker_sdk@@8
rdata$r	SEGMENT
??_R1A@?0A@EA@pecker_opengles_v2_object@pecker_sdk@@8 DD FLAT:??_R0?AVpecker_opengles_v2_object@pecker_sdk@@@8 ; pecker_sdk::pecker_opengles_v2_object::`RTTI Base Class Descriptor at (0,-1,0,64)'
	DD	01H
	DD	00H
	DD	0ffffffffH
	DD	00H
	DD	040H
	DD	FLAT:??_R3pecker_opengles_v2_object@pecker_sdk@@8
rdata$r	ENDS
;	COMDAT ??_R1A@?0A@EA@pecker_shader_program_glsles1@pecker_sdk@@8
rdata$r	SEGMENT
??_R1A@?0A@EA@pecker_shader_program_glsles1@pecker_sdk@@8 DD FLAT:??_R0?AVpecker_shader_program_glsles1@pecker_sdk@@@8 ; pecker_sdk::pecker_shader_program_glsles1::`RTTI Base Class Descriptor at (0,-1,0,64)'
	DD	02H
	DD	00H
	DD	0ffffffffH
	DD	00H
	DD	040H
	DD	FLAT:??_R3pecker_shader_program_glsles1@pecker_sdk@@8
rdata$r	ENDS
;	COMDAT ??_R2pecker_shader_program_glsles1@pecker_sdk@@8
rdata$r	SEGMENT
??_R2pecker_shader_program_glsles1@pecker_sdk@@8 DD FLAT:??_R1A@?0A@EA@pecker_shader_program_glsles1@pecker_sdk@@8 ; pecker_sdk::pecker_shader_program_glsles1::`RTTI Base Class Array'
	DD	FLAT:??_R1A@?0A@EA@pecker_opengles_v2_object@pecker_sdk@@8
	DD	FLAT:??_R1A@?0A@EA@pecker_render_object@pecker_sdk@@8
rdata$r	ENDS
;	COMDAT ??_R3pecker_shader_program_glsles1@pecker_sdk@@8
rdata$r	SEGMENT
??_R3pecker_shader_program_glsles1@pecker_sdk@@8 DD 00H	; pecker_sdk::pecker_shader_program_glsles1::`RTTI Class Hierarchy Descriptor'
	DD	00H
	DD	03H
	DD	FLAT:??_R2pecker_shader_program_glsles1@pecker_sdk@@8
rdata$r	ENDS
;	COMDAT ??_R0?AVpecker_shader_program_glsles1@pecker_sdk@@@8
_DATA	SEGMENT
??_R0?AVpecker_shader_program_glsles1@pecker_sdk@@@8 DD FLAT:??_7type_info@@6B@ ; pecker_sdk::pecker_shader_program_glsles1 `RTTI Type Descriptor'
	DD	00H
	DB	'.?AVpecker_shader_program_glsles1@pecker_sdk@@', 00H
_DATA	ENDS
;	COMDAT ??_R4pecker_shader_program_glsles1@pecker_sdk@@6B@
rdata$r	SEGMENT
??_R4pecker_shader_program_glsles1@pecker_sdk@@6B@ DD 00H ; pecker_sdk::pecker_shader_program_glsles1::`RTTI Complete Object Locator'
	DD	00H
	DD	00H
	DD	FLAT:??_R0?AVpecker_shader_program_glsles1@pecker_sdk@@@8
	DD	FLAT:??_R3pecker_shader_program_glsles1@pecker_sdk@@8
rdata$r	ENDS
;	COMDAT ??_7pecker_shader_program_glsles1@pecker_sdk@@6B@
CONST	SEGMENT
??_7pecker_shader_program_glsles1@pecker_sdk@@6B@ DD FLAT:??_R4pecker_shader_program_glsles1@pecker_sdk@@6B@ ; pecker_sdk::pecker_shader_program_glsles1::`vftable'
	DD	FLAT:??_Epecker_shader_program_glsles1@pecker_sdk@@UAEPAXI@Z
	DD	FLAT:?toString@pecker_render_object@pecker_sdk@@UBEABV?$pecker_share_string_base_t@DU?$pecker_value_compare@D@pecker_sdk@@V?$pecker_simple_allocator@D@2@$0BA@@2@AAV32@@Z
	DD	FLAT:?get_render_system_info@pecker_opengles_v2_object@pecker_sdk@@UBEABUpecker_render_system_info@2@AAU32@@Z
	DD	FLAT:?get_this_reference@pecker_render_object@pecker_sdk@@UAEPAV12@XZ
	DD	FLAT:?release_this_reference@pecker_render_object@pecker_sdk@@UAEJXZ
	DD	FLAT:?get_object_location@pecker_shader_program_glsles1@pecker_sdk@@UBEIXZ
CONST	ENDS
;	COMDAT rtc$TMZ
rtc$TMZ	SEGMENT
__RTC_Shutdown.rtc$TMZ DD FLAT:__RTC_Shutdown
rtc$TMZ	ENDS
;	COMDAT rtc$IMZ
rtc$IMZ	SEGMENT
__RTC_InitBase.rtc$IMZ DD FLAT:__RTC_InitBase
; Function compile flags: /Odtp /RTCsu /ZI
rtc$IMZ	ENDS
;	COMDAT ??0pecker_shader_program_glsles1@pecker_sdk@@QAE@XZ
_TEXT	SEGMENT
_this$ = -8						; size = 4
??0pecker_shader_program_glsles1@pecker_sdk@@QAE@XZ PROC ; pecker_sdk::pecker_shader_program_glsles1::pecker_shader_program_glsles1, COMDAT
; _this$ = ecx

; 16   : {

	push	ebp
	mov	ebp, esp
	sub	esp, 204				; 000000ccH
	push	ebx
	push	esi
	push	edi
	push	ecx
	lea	edi, DWORD PTR [ebp-204]
	mov	ecx, 51					; 00000033H
	mov	eax, -858993460				; ccccccccH
	rep stosd
	pop	ecx
	mov	DWORD PTR _this$[ebp], ecx
	mov	ecx, DWORD PTR _this$[ebp]
	call	??0pecker_opengles_v2_object@pecker_sdk@@QAE@XZ
	mov	eax, DWORD PTR _this$[ebp]
	mov	DWORD PTR [eax], OFFSET ??_7pecker_shader_program_glsles1@pecker_sdk@@6B@
	mov	eax, DWORD PTR _this$[ebp]
	mov	DWORD PTR [eax+8], 0
	mov	eax, DWORD PTR _this$[ebp]
	mov	DWORD PTR [eax+12], 0
	mov	eax, DWORD PTR _this$[ebp]
	mov	DWORD PTR [eax+16], 0

; 17   : 	;
; 18   : }

	mov	eax, DWORD PTR _this$[ebp]
	pop	edi
	pop	esi
	pop	ebx
	add	esp, 204				; 000000ccH
	cmp	ebp, esp
	call	__RTC_CheckEsp
	mov	esp, ebp
	pop	ebp
	ret	0
??0pecker_shader_program_glsles1@pecker_sdk@@QAE@XZ ENDP ; pecker_sdk::pecker_shader_program_glsles1::pecker_shader_program_glsles1
_TEXT	ENDS
PUBLIC	??1pecker_shader_program_glsles1@pecker_sdk@@UAE@XZ ; pecker_sdk::pecker_shader_program_glsles1::~pecker_shader_program_glsles1
EXTRN	??3@YAXPAX@Z:PROC				; operator delete
; Function compile flags: /Odtp /RTCsu /ZI
;	COMDAT ??_Gpecker_shader_program_glsles1@pecker_sdk@@UAEPAXI@Z
_TEXT	SEGMENT
_this$ = -8						; size = 4
___flags$ = 8						; size = 4
??_Gpecker_shader_program_glsles1@pecker_sdk@@UAEPAXI@Z PROC ; pecker_sdk::pecker_shader_program_glsles1::`scalar deleting destructor', COMDAT
; _this$ = ecx
	push	ebp
	mov	ebp, esp
	sub	esp, 204				; 000000ccH
	push	ebx
	push	esi
	push	edi
	push	ecx
	lea	edi, DWORD PTR [ebp-204]
	mov	ecx, 51					; 00000033H
	mov	eax, -858993460				; ccccccccH
	rep stosd
	pop	ecx
	mov	DWORD PTR _this$[ebp], ecx
	mov	ecx, DWORD PTR _this$[ebp]
	call	??1pecker_shader_program_glsles1@pecker_sdk@@UAE@XZ ; pecker_sdk::pecker_shader_program_glsles1::~pecker_shader_program_glsles1
	mov	eax, DWORD PTR ___flags$[ebp]
	and	eax, 1
	je	SHORT $LN1@scalar
	mov	eax, DWORD PTR _this$[ebp]
	push	eax
	call	??3@YAXPAX@Z				; operator delete
	add	esp, 4
$LN1@scalar:
	mov	eax, DWORD PTR _this$[ebp]
	pop	edi
	pop	esi
	pop	ebx
	add	esp, 204				; 000000ccH
	cmp	ebp, esp
	call	__RTC_CheckEsp
	mov	esp, ebp
	pop	ebp
	ret	4
??_Gpecker_shader_program_glsles1@pecker_sdk@@UAEPAXI@Z ENDP ; pecker_sdk::pecker_shader_program_glsles1::`scalar deleting destructor'
_TEXT	ENDS
PUBLIC	??_7pecker_opengles_v2_object@pecker_sdk@@6B@	; pecker_sdk::pecker_opengles_v2_object::`vftable'
PUBLIC	??_R4pecker_opengles_v2_object@pecker_sdk@@6B@	; pecker_sdk::pecker_opengles_v2_object::`RTTI Complete Object Locator'
EXTRN	??0pecker_render_object@pecker_sdk@@QAE@XZ:PROC	; pecker_sdk::pecker_render_object::pecker_render_object
EXTRN	??_Epecker_opengles_v2_object@pecker_sdk@@UAEPAXI@Z:PROC ; pecker_sdk::pecker_opengles_v2_object::`vector deleting destructor'
EXTRN	?get_object_location@pecker_opengles_v2_object@pecker_sdk@@UBEIXZ:PROC ; pecker_sdk::pecker_opengles_v2_object::get_object_location
;	COMDAT ??_R4pecker_opengles_v2_object@pecker_sdk@@6B@
rdata$r	SEGMENT
??_R4pecker_opengles_v2_object@pecker_sdk@@6B@ DD 00H	; pecker_sdk::pecker_opengles_v2_object::`RTTI Complete Object Locator'
	DD	00H
	DD	00H
	DD	FLAT:??_R0?AVpecker_opengles_v2_object@pecker_sdk@@@8
	DD	FLAT:??_R3pecker_opengles_v2_object@pecker_sdk@@8
rdata$r	ENDS
;	COMDAT ??_7pecker_opengles_v2_object@pecker_sdk@@6B@
CONST	SEGMENT
??_7pecker_opengles_v2_object@pecker_sdk@@6B@ DD FLAT:??_R4pecker_opengles_v2_object@pecker_sdk@@6B@ ; pecker_sdk::pecker_opengles_v2_object::`vftable'
	DD	FLAT:??_Epecker_opengles_v2_object@pecker_sdk@@UAEPAXI@Z
	DD	FLAT:?toString@pecker_render_object@pecker_sdk@@UBEABV?$pecker_share_string_base_t@DU?$pecker_value_compare@D@pecker_sdk@@V?$pecker_simple_allocator@D@2@$0BA@@2@AAV32@@Z
	DD	FLAT:?get_render_system_info@pecker_opengles_v2_object@pecker_sdk@@UBEABUpecker_render_system_info@2@AAU32@@Z
	DD	FLAT:?get_this_reference@pecker_render_object@pecker_sdk@@UAEPAV12@XZ
	DD	FLAT:?release_this_reference@pecker_render_object@pecker_sdk@@UAEJXZ
	DD	FLAT:?get_object_location@pecker_opengles_v2_object@pecker_sdk@@UBEIXZ
; Function compile flags: /Odtp /RTCsu /ZI
CONST	ENDS
;	COMDAT ??0pecker_opengles_v2_object@pecker_sdk@@QAE@XZ
_TEXT	SEGMENT
_this$ = -8						; size = 4
??0pecker_opengles_v2_object@pecker_sdk@@QAE@XZ PROC	; pecker_sdk::pecker_opengles_v2_object::pecker_opengles_v2_object, COMDAT
; _this$ = ecx
	push	ebp
	mov	ebp, esp
	sub	esp, 204				; 000000ccH
	push	ebx
	push	esi
	push	edi
	push	ecx
	lea	edi, DWORD PTR [ebp-204]
	mov	ecx, 51					; 00000033H
	mov	eax, -858993460				; ccccccccH
	rep stosd
	pop	ecx
	mov	DWORD PTR _this$[ebp], ecx
	mov	ecx, DWORD PTR _this$[ebp]
	call	??0pecker_render_object@pecker_sdk@@QAE@XZ ; pecker_sdk::pecker_render_object::pecker_render_object
	mov	eax, DWORD PTR _this$[ebp]
	mov	DWORD PTR [eax], OFFSET ??_7pecker_opengles_v2_object@pecker_sdk@@6B@
	mov	eax, DWORD PTR _this$[ebp]
	pop	edi
	pop	esi
	pop	ebx
	add	esp, 204				; 000000ccH
	cmp	ebp, esp
	call	__RTC_CheckEsp
	mov	esp, ebp
	pop	ebp
	ret	0
??0pecker_opengles_v2_object@pecker_sdk@@QAE@XZ ENDP	; pecker_sdk::pecker_opengles_v2_object::pecker_opengles_v2_object
_TEXT	ENDS
PUBLIC	??1pecker_opengles_v2_object@pecker_sdk@@UAE@XZ	; pecker_sdk::pecker_opengles_v2_object::~pecker_opengles_v2_object
; Function compile flags: /Odtp /RTCsu /ZI
;	COMDAT ??_Gpecker_opengles_v2_object@pecker_sdk@@UAEPAXI@Z
_TEXT	SEGMENT
_this$ = -8						; size = 4
___flags$ = 8						; size = 4
??_Gpecker_opengles_v2_object@pecker_sdk@@UAEPAXI@Z PROC ; pecker_sdk::pecker_opengles_v2_object::`scalar deleting destructor', COMDAT
; _this$ = ecx
	push	ebp
	mov	ebp, esp
	sub	esp, 204				; 000000ccH
	push	ebx
	push	esi
	push	edi
	push	ecx
	lea	edi, DWORD PTR [ebp-204]
	mov	ecx, 51					; 00000033H
	mov	eax, -858993460				; ccccccccH
	rep stosd
	pop	ecx
	mov	DWORD PTR _this$[ebp], ecx
	mov	ecx, DWORD PTR _this$[ebp]
	call	??1pecker_opengles_v2_object@pecker_sdk@@UAE@XZ
	mov	eax, DWORD PTR ___flags$[ebp]
	and	eax, 1
	je	SHORT $LN1@scalar@2
	mov	eax, DWORD PTR _this$[ebp]
	push	eax
	call	??3@YAXPAX@Z				; operator delete
	add	esp, 4
$LN1@scalar@2:
	mov	eax, DWORD PTR _this$[ebp]
	pop	edi
	pop	esi
	pop	ebx
	add	esp, 204				; 000000ccH
	cmp	ebp, esp
	call	__RTC_CheckEsp
	mov	esp, ebp
	pop	ebp
	ret	4
??_Gpecker_opengles_v2_object@pecker_sdk@@UAEPAXI@Z ENDP ; pecker_sdk::pecker_opengles_v2_object::`scalar deleting destructor'
_TEXT	ENDS
EXTRN	??1pecker_render_object@pecker_sdk@@UAE@XZ:PROC	; pecker_sdk::pecker_render_object::~pecker_render_object
; Function compile flags: /Odtp /RTCsu /ZI
;	COMDAT ??1pecker_opengles_v2_object@pecker_sdk@@UAE@XZ
_TEXT	SEGMENT
_this$ = -8						; size = 4
??1pecker_opengles_v2_object@pecker_sdk@@UAE@XZ PROC	; pecker_sdk::pecker_opengles_v2_object::~pecker_opengles_v2_object, COMDAT
; _this$ = ecx
	push	ebp
	mov	ebp, esp
	sub	esp, 204				; 000000ccH
	push	ebx
	push	esi
	push	edi
	push	ecx
	lea	edi, DWORD PTR [ebp-204]
	mov	ecx, 51					; 00000033H
	mov	eax, -858993460				; ccccccccH
	rep stosd
	pop	ecx
	mov	DWORD PTR _this$[ebp], ecx
	mov	ecx, DWORD PTR _this$[ebp]
	call	??1pecker_render_object@pecker_sdk@@UAE@XZ ; pecker_sdk::pecker_render_object::~pecker_render_object
	pop	edi
	pop	esi
	pop	ebx
	add	esp, 204				; 000000ccH
	cmp	ebp, esp
	call	__RTC_CheckEsp
	mov	esp, ebp
	pop	ebp
	ret	0
??1pecker_opengles_v2_object@pecker_sdk@@UAE@XZ ENDP	; pecker_sdk::pecker_opengles_v2_object::~pecker_opengles_v2_object
_TEXT	ENDS
PUBLIC	?delete_vertex_shader@pecker_shader_program_glsles1@pecker_sdk@@QAEIXZ ; pecker_sdk::pecker_shader_program_glsles1::delete_vertex_shader
PUBLIC	?delete_frame_shader@pecker_shader_program_glsles1@pecker_sdk@@QAEIXZ ; pecker_sdk::pecker_shader_program_glsles1::delete_frame_shader
PUBLIC	?delete_shader_program@pecker_shader_program_glsles1@pecker_sdk@@QAEIXZ ; pecker_sdk::pecker_shader_program_glsles1::delete_shader_program
EXTRN	___security_cookie:DWORD
EXTRN	___CxxFrameHandler3:PROC
EXTRN	@__security_check_cookie@4:PROC
;	COMDAT xdata$x
xdata$x	SEGMENT
__unwindtable$??1pecker_shader_program_glsles1@pecker_sdk@@UAE@XZ DD 0ffffffffH
	DD	FLAT:__unwindfunclet$??1pecker_shader_program_glsles1@pecker_sdk@@UAE@XZ$0
__ehfuncinfo$??1pecker_shader_program_glsles1@pecker_sdk@@UAE@XZ DD 019930522H
	DD	01H
	DD	FLAT:__unwindtable$??1pecker_shader_program_glsles1@pecker_sdk@@UAE@XZ
	DD	2 DUP(00H)
	DD	2 DUP(00H)
	DD	00H
	DD	01H
; Function compile flags: /Odtp /RTCsu /ZI
xdata$x	ENDS
;	COMDAT ??1pecker_shader_program_glsles1@pecker_sdk@@UAE@XZ
_TEXT	SEGMENT
_this$ = -20						; size = 4
__$EHRec$ = -12						; size = 12
??1pecker_shader_program_glsles1@pecker_sdk@@UAE@XZ PROC ; pecker_sdk::pecker_shader_program_glsles1::~pecker_shader_program_glsles1, COMDAT
; _this$ = ecx

; 22   : {

	push	ebp
	mov	ebp, esp
	push	-1
	push	__ehhandler$??1pecker_shader_program_glsles1@pecker_sdk@@UAE@XZ
	mov	eax, DWORD PTR fs:0
	push	eax
	sub	esp, 204				; 000000ccH
	push	ebx
	push	esi
	push	edi
	push	ecx
	lea	edi, DWORD PTR [ebp-216]
	mov	ecx, 51					; 00000033H
	mov	eax, -858993460				; ccccccccH
	rep stosd
	pop	ecx
	mov	eax, DWORD PTR ___security_cookie
	xor	eax, ebp
	push	eax
	lea	eax, DWORD PTR __$EHRec$[ebp]
	mov	DWORD PTR fs:0, eax
	mov	DWORD PTR _this$[ebp], ecx
	mov	eax, DWORD PTR _this$[ebp]
	mov	DWORD PTR [eax], OFFSET ??_7pecker_shader_program_glsles1@pecker_sdk@@6B@
	mov	DWORD PTR __$EHRec$[ebp+8], 0

; 23   : 	delete_shader_program();

	mov	ecx, DWORD PTR _this$[ebp]
	call	?delete_shader_program@pecker_shader_program_glsles1@pecker_sdk@@QAEIXZ ; pecker_sdk::pecker_shader_program_glsles1::delete_shader_program

; 24   : 	delete_frame_shader();

	mov	ecx, DWORD PTR _this$[ebp]
	call	?delete_frame_shader@pecker_shader_program_glsles1@pecker_sdk@@QAEIXZ ; pecker_sdk::pecker_shader_program_glsles1::delete_frame_shader

; 25   : 	delete_vertex_shader();

	mov	ecx, DWORD PTR _this$[ebp]
	call	?delete_vertex_shader@pecker_shader_program_glsles1@pecker_sdk@@QAEIXZ ; pecker_sdk::pecker_shader_program_glsles1::delete_vertex_shader

; 26   : 
; 27   : 	if (this == g_pusing_shader_program)

	mov	eax, DWORD PTR _this$[ebp]
	cmp	eax, DWORD PTR _g_pusing_shader_program
	jne	SHORT $LN2@pecker_sha

; 28   : 	{
; 29   : 		g_pusing_shader_program = null;

	mov	DWORD PTR _g_pusing_shader_program, 0
$LN2@pecker_sha:

; 30   : 	}
; 31   : }

	mov	DWORD PTR __$EHRec$[ebp+8], -1
	mov	ecx, DWORD PTR _this$[ebp]
	call	??1pecker_opengles_v2_object@pecker_sdk@@UAE@XZ
	mov	ecx, DWORD PTR __$EHRec$[ebp]
	mov	DWORD PTR fs:0, ecx
	pop	ecx
	pop	edi
	pop	esi
	pop	ebx
	add	esp, 216				; 000000d8H
	cmp	ebp, esp
	call	__RTC_CheckEsp
	mov	esp, ebp
	pop	ebp
	ret	0
_TEXT	ENDS
;	COMDAT text$x
text$x	SEGMENT
__unwindfunclet$??1pecker_shader_program_glsles1@pecker_sdk@@UAE@XZ$0:
	mov	ecx, DWORD PTR _this$[ebp]
	jmp	??1pecker_opengles_v2_object@pecker_sdk@@UAE@XZ
__ehhandler$??1pecker_shader_program_glsles1@pecker_sdk@@UAE@XZ:
	mov	edx, DWORD PTR [esp+8]
	lea	eax, DWORD PTR [edx+12]
	mov	ecx, DWORD PTR [edx-220]
	xor	ecx, eax
	call	@__security_check_cookie@4
	mov	eax, OFFSET __ehfuncinfo$??1pecker_shader_program_glsles1@pecker_sdk@@UAE@XZ
	jmp	___CxxFrameHandler3
text$x	ENDS
??1pecker_shader_program_glsles1@pecker_sdk@@UAE@XZ ENDP ; pecker_sdk::pecker_shader_program_glsles1::~pecker_shader_program_glsles1
PUBLIC	?init_shader_program@pecker_shader_program_glsles1@pecker_sdk@@QAEIIIPBV?$pecker_share_string_base_t@DU?$pecker_value_compare@D@pecker_sdk@@V?$pecker_simple_allocator@D@2@$0BA@@2@HPAV32@@Z ; pecker_sdk::pecker_shader_program_glsles1::init_shader_program
; Function compile flags: /Odtp /RTCsu /ZI
;	COMDAT ?init_shader_program@pecker_shader_program_glsles1@pecker_sdk@@QAEIIIPBV?$pecker_share_string_base_t@DU?$pecker_value_compare@D@pecker_sdk@@V?$pecker_simple_allocator@D@2@$0BA@@2@HPAV32@@Z
_TEXT	SEGMENT
_this$ = -8						; size = 4
_nvertex_shader$ = 8					; size = 4
_nframe_shader$ = 12					; size = 4
_pstr_bind_attributes$ = 16				; size = 4
_nAttributes_count$ = 20				; size = 4
_pstr_error_info$ = 24					; size = 4
?init_shader_program@pecker_shader_program_glsles1@pecker_sdk@@QAEIIIPBV?$pecker_share_string_base_t@DU?$pecker_value_compare@D@pecker_sdk@@V?$pecker_simple_allocator@D@2@$0BA@@2@HPAV32@@Z PROC ; pecker_sdk::pecker_shader_program_glsles1::init_shader_program, COMDAT
; _this$ = ecx

; 34   : {

	push	ebp
	mov	ebp, esp
	sub	esp, 204				; 000000ccH
	push	ebx
	push	esi
	push	edi
	push	ecx
	lea	edi, DWORD PTR [ebp-204]
	mov	ecx, 51					; 00000033H
	mov	eax, -858993460				; ccccccccH
	rep stosd
	pop	ecx
	mov	DWORD PTR _this$[ebp], ecx

; 35   : 	if (0 != _M_program)

	mov	eax, DWORD PTR _this$[ebp]
	cmp	DWORD PTR [eax+8], 0
	je	SHORT $LN1@init_shade

; 36   : 	{
; 37   : 		return 0;

	xor	eax, eax
	jmp	SHORT $LN2@init_shade
$LN1@init_shade:

; 38   : 	}
; 39   : 
; 40   : 	return _M_program;

	mov	eax, DWORD PTR _this$[ebp]
	mov	eax, DWORD PTR [eax+8]
$LN2@init_shade:

; 41   : }

	pop	edi
	pop	esi
	pop	ebx
	mov	esp, ebp
	pop	ebp
	ret	20					; 00000014H
?init_shader_program@pecker_shader_program_glsles1@pecker_sdk@@QAEIIIPBV?$pecker_share_string_base_t@DU?$pecker_value_compare@D@pecker_sdk@@V?$pecker_simple_allocator@D@2@$0BA@@2@HPAV32@@Z ENDP ; pecker_sdk::pecker_shader_program_glsles1::init_shader_program
_TEXT	ENDS
PUBLIC	?init_shader_program@pecker_shader_program_glsles1@pecker_sdk@@QAEIPBV?$pecker_share_string_base_t@DU?$pecker_value_compare@D@pecker_sdk@@V?$pecker_simple_allocator@D@2@$0BA@@2@HPAV32@@Z ; pecker_sdk::pecker_shader_program_glsles1::init_shader_program
; Function compile flags: /Odtp /RTCsu /ZI
;	COMDAT ?init_shader_program@pecker_shader_program_glsles1@pecker_sdk@@QAEIPBV?$pecker_share_string_base_t@DU?$pecker_value_compare@D@pecker_sdk@@V?$pecker_simple_allocator@D@2@$0BA@@2@HPAV32@@Z
_TEXT	SEGMENT
_this$ = -8						; size = 4
_pstr_bind_attributes$ = 8				; size = 4
_nAttributes_count$ = 12				; size = 4
_pstr_error_info$ = 16					; size = 4
?init_shader_program@pecker_shader_program_glsles1@pecker_sdk@@QAEIPBV?$pecker_share_string_base_t@DU?$pecker_value_compare@D@pecker_sdk@@V?$pecker_simple_allocator@D@2@$0BA@@2@HPAV32@@Z PROC ; pecker_sdk::pecker_shader_program_glsles1::init_shader_program, COMDAT
; _this$ = ecx

; 43   : {

	push	ebp
	mov	ebp, esp
	sub	esp, 204				; 000000ccH
	push	ebx
	push	esi
	push	edi
	push	ecx
	lea	edi, DWORD PTR [ebp-204]
	mov	ecx, 51					; 00000033H
	mov	eax, -858993460				; ccccccccH
	rep stosd
	pop	ecx
	mov	DWORD PTR _this$[ebp], ecx

; 44   : 	if (0 != _M_program)

	mov	eax, DWORD PTR _this$[ebp]
	cmp	DWORD PTR [eax+8], 0
	je	SHORT $LN1@init_shade@2

; 45   : 	{
; 46   : 		return 0;

	xor	eax, eax
	jmp	SHORT $LN2@init_shade@2
$LN1@init_shade@2:

; 47   : 	}
; 48   : 
; 49   : 	return _M_program;

	mov	eax, DWORD PTR _this$[ebp]
	mov	eax, DWORD PTR [eax+8]
$LN2@init_shade@2:

; 50   : }

	pop	edi
	pop	esi
	pop	ebx
	mov	esp, ebp
	pop	ebp
	ret	12					; 0000000cH
?init_shader_program@pecker_shader_program_glsles1@pecker_sdk@@QAEIPBV?$pecker_share_string_base_t@DU?$pecker_value_compare@D@pecker_sdk@@V?$pecker_simple_allocator@D@2@$0BA@@2@HPAV32@@Z ENDP ; pecker_sdk::pecker_shader_program_glsles1::init_shader_program
_TEXT	ENDS
PUBLIC	??_C@_0BA@IEHLPPIE@error?5info?5?$DN?5?$CFs?$AA@ ; `string'
PUBLIC	??_C@_01EEMJAFIK@?6?$AA@			; `string'
PUBLIC	??_C@_0DI@NLMDAKEL@pecker_shader_program_glsles1?3?3l@ ; `string'
PUBLIC	??_C@_0M@ONMFDOOB@ERROR_INFO?5?$AA@		; `string'
PUBLIC	?init@?$pecker_share_string_base_t@DU?$pecker_value_compare@D@pecker_sdk@@V?$pecker_simple_allocator@D@2@$0BA@@pecker_sdk@@QAEJH_N@Z ; pecker_sdk::pecker_share_string_base_t<char,pecker_sdk::pecker_value_compare<char>,pecker_sdk::pecker_simple_allocator<char>,16>::init
PUBLIC	?get_data@?$pecker_share_string_base_t@DU?$pecker_value_compare@D@pecker_sdk@@V?$pecker_simple_allocator@D@2@$0BA@@pecker_sdk@@QBEPBDXZ ; pecker_sdk::pecker_share_string_base_t<char,pecker_sdk::pecker_value_compare<char>,pecker_sdk::pecker_simple_allocator<char>,16>::get_data
PUBLIC	?get_string_length@?$pecker_share_string_base_t@DU?$pecker_value_compare@D@pecker_sdk@@V?$pecker_simple_allocator@D@2@$0BA@@pecker_sdk@@QBEHXZ ; pecker_sdk::pecker_share_string_base_t<char,pecker_sdk::pecker_value_compare<char>,pecker_sdk::pecker_simple_allocator<char>,16>::get_string_length
PUBLIC	?load_frame_shader_source@pecker_shader_program_glsles1@pecker_sdk@@QAEIABV?$pecker_share_string_base_t@DU?$pecker_value_compare@D@pecker_sdk@@V?$pecker_simple_allocator@D@2@$0BA@@2@PAV32@@Z ; pecker_sdk::pecker_shader_program_glsles1::load_frame_shader_source
EXTRN	__imp__glDeleteShader@4:PROC
EXTRN	__imp__printf:PROC
EXTRN	__imp__glGetShaderInfoLog@16:PROC
EXTRN	__imp__glGetShaderiv@12:PROC
EXTRN	__imp__glCompileShader@4:PROC
EXTRN	__imp__glShaderSource@16:PROC
EXTRN	__imp__glCreateShader@4:PROC
EXTRN	@_RTC_CheckStackVars@8:PROC
;	COMDAT ??_C@_0BA@IEHLPPIE@error?5info?5?$DN?5?$CFs?$AA@
CONST	SEGMENT
??_C@_0BA@IEHLPPIE@error?5info?5?$DN?5?$CFs?$AA@ DB 'error info = %s', 00H ; `string'
CONST	ENDS
;	COMDAT ??_C@_01EEMJAFIK@?6?$AA@
CONST	SEGMENT
??_C@_01EEMJAFIK@?6?$AA@ DB 0aH, 00H			; `string'
CONST	ENDS
;	COMDAT ??_C@_0DI@NLMDAKEL@pecker_shader_program_glsles1?3?3l@
CONST	SEGMENT
??_C@_0DI@NLMDAKEL@pecker_shader_program_glsles1?3?3l@ DB 'pecker_shader_'
	DB	'program_glsles1::load_frame_shader_source', 00H ; `string'
CONST	ENDS
;	COMDAT ??_C@_0M@ONMFDOOB@ERROR_INFO?5?$AA@
CONST	SEGMENT
??_C@_0M@ONMFDOOB@ERROR_INFO?5?$AA@ DB 'ERROR_INFO ', 00H ; `string'
; Function compile flags: /Odtp /RTCsu /ZI
CONST	ENDS
;	COMDAT ?load_frame_shader_source@pecker_shader_program_glsles1@pecker_sdk@@QAEIABV?$pecker_share_string_base_t@DU?$pecker_value_compare@D@pecker_sdk@@V?$pecker_simple_allocator@D@2@$0BA@@2@PAV32@@Z
_TEXT	SEGMENT
_print_error_length$69013 = -80				; size = 4
_print_err_buf$69011 = -68				; size = 4
_info_length$69009 = -56				; size = 4
_compiled$69006 = -44					; size = 4
_pSource$69004 = -32					; size = 4
_shader$ = -20						; size = 4
_this$ = -8						; size = 4
_str_source_code$ = 8					; size = 4
_pstr_error_info$ = 12					; size = 4
?load_frame_shader_source@pecker_shader_program_glsles1@pecker_sdk@@QAEIABV?$pecker_share_string_base_t@DU?$pecker_value_compare@D@pecker_sdk@@V?$pecker_simple_allocator@D@2@$0BA@@2@PAV32@@Z PROC ; pecker_sdk::pecker_shader_program_glsles1::load_frame_shader_source, COMDAT
; _this$ = ecx

; 53   : {

	push	ebp
	mov	ebp, esp
	sub	esp, 276				; 00000114H
	push	ebx
	push	esi
	push	edi
	push	ecx
	lea	edi, DWORD PTR [ebp-276]
	mov	ecx, 69					; 00000045H
	mov	eax, -858993460				; ccccccccH
	rep stosd
	pop	ecx
	mov	DWORD PTR _this$[ebp], ecx

; 54   : 	if (0 != _M_frame_shader)

	mov	eax, DWORD PTR _this$[ebp]
	cmp	DWORD PTR [eax+12], 0
	je	SHORT $LN6@load_frame

; 55   : 	{
; 56   : 		return 0;

	xor	eax, eax
	jmp	$LN7@load_frame
$LN6@load_frame:

; 57   : 	}
; 58   : 	if (str_source_code.get_string_length() <= 0)

	mov	ecx, DWORD PTR _str_source_code$[ebp]
	call	?get_string_length@?$pecker_share_string_base_t@DU?$pecker_value_compare@D@pecker_sdk@@V?$pecker_simple_allocator@D@2@$0BA@@pecker_sdk@@QBEHXZ ; pecker_sdk::pecker_share_string_base_t<char,pecker_sdk::pecker_value_compare<char>,pecker_sdk::pecker_simple_allocator<char>,16>::get_string_length
	test	eax, eax
	jg	SHORT $LN5@load_frame

; 59   : 	{
; 60   : 		return 0;

	xor	eax, eax
	jmp	$LN7@load_frame
$LN5@load_frame:

; 61   : 	}
; 62   : 	// 创建着色器
; 63   : 	GLuint shader = glCreateShader(GL_FRAGMENT_SHADER);

	mov	esi, esp
	push	35632					; 00008b30H
	call	DWORD PTR __imp__glCreateShader@4
	cmp	esi, esp
	call	__RTC_CheckEsp
	mov	DWORD PTR _shader$[ebp], eax

; 64   : 	if (shader)

	cmp	DWORD PTR _shader$[ebp], 0
	je	$LN4@load_frame

; 65   : 	{
; 66   : 		//编译着色源代码
; 67   : 		const GLchar* pSource = (GLchar*)(str_source_code.get_data());

	mov	ecx, DWORD PTR _str_source_code$[ebp]
	call	?get_data@?$pecker_share_string_base_t@DU?$pecker_value_compare@D@pecker_sdk@@V?$pecker_simple_allocator@D@2@$0BA@@pecker_sdk@@QBEPBDXZ ; pecker_sdk::pecker_share_string_base_t<char,pecker_sdk::pecker_value_compare<char>,pecker_sdk::pecker_simple_allocator<char>,16>::get_data
	mov	DWORD PTR _pSource$69004[ebp], eax

; 68   : 		::glShaderSource(shader, 1, &pSource, null);

	mov	esi, esp
	push	0
	lea	eax, DWORD PTR _pSource$69004[ebp]
	push	eax
	push	1
	mov	ecx, DWORD PTR _shader$[ebp]
	push	ecx
	call	DWORD PTR __imp__glShaderSource@16
	cmp	esi, esp
	call	__RTC_CheckEsp

; 69   : 		::glCompileShader(shader);

	mov	esi, esp
	mov	eax, DWORD PTR _shader$[ebp]
	push	eax
	call	DWORD PTR __imp__glCompileShader@4
	cmp	esi, esp
	call	__RTC_CheckEsp

; 70   : 		GLint compiled = 0;

	mov	DWORD PTR _compiled$69006[ebp], 0

; 71   : 		//获取编译结果
; 72   : 		::glGetShaderiv(shader, GL_COMPILE_STATUS, &compiled);

	mov	esi, esp
	lea	eax, DWORD PTR _compiled$69006[ebp]
	push	eax
	push	35713					; 00008b81H
	mov	ecx, DWORD PTR _shader$[ebp]
	push	ecx
	call	DWORD PTR __imp__glGetShaderiv@12
	cmp	esi, esp
	call	__RTC_CheckEsp

; 73   : 		if (!compiled)

	cmp	DWORD PTR _compiled$69006[ebp], 0
	jne	$LN3@load_frame

; 74   : 		{
; 75   : 			if(pstr_error_info)

	cmp	DWORD PTR _pstr_error_info$[ebp], 0
	je	$LN2@load_frame

; 76   : 			{
; 77   : 				GLint info_length = 0;

	mov	DWORD PTR _info_length$69009[ebp], 0

; 78   : 				::glGetShaderiv(shader, GL_INFO_LOG_LENGTH, &info_length);

	mov	esi, esp
	lea	eax, DWORD PTR _info_length$69009[ebp]
	push	eax
	push	35716					; 00008b84H
	mov	ecx, DWORD PTR _shader$[ebp]
	push	ecx
	call	DWORD PTR __imp__glGetShaderiv@12
	cmp	esi, esp
	call	__RTC_CheckEsp

; 79   : 				if (info_length)

	cmp	DWORD PTR _info_length$69009[ebp], 0
	je	$LN2@load_frame

; 80   : 				{
; 81   : 					pstr_error_info->init(info_length);

	push	0
	mov	eax, DWORD PTR _info_length$69009[ebp]
	push	eax
	mov	ecx, DWORD PTR _pstr_error_info$[ebp]
	call	?init@?$pecker_share_string_base_t@DU?$pecker_value_compare@D@pecker_sdk@@V?$pecker_simple_allocator@D@2@$0BA@@pecker_sdk@@QAEJH_N@Z ; pecker_sdk::pecker_share_string_base_t<char,pecker_sdk::pecker_value_compare<char>,pecker_sdk::pecker_simple_allocator<char>,16>::init

; 82   : 					GLchar* print_err_buf = (GLchar*) pstr_error_info->get_data();

	mov	ecx, DWORD PTR _pstr_error_info$[ebp]
	call	?get_data@?$pecker_share_string_base_t@DU?$pecker_value_compare@D@pecker_sdk@@V?$pecker_simple_allocator@D@2@$0BA@@pecker_sdk@@QBEPBDXZ ; pecker_sdk::pecker_share_string_base_t<char,pecker_sdk::pecker_value_compare<char>,pecker_sdk::pecker_simple_allocator<char>,16>::get_data
	mov	DWORD PTR _print_err_buf$69011[ebp], eax

; 83   : 					GLsizei print_error_length = info_length;

	mov	eax, DWORD PTR _info_length$69009[ebp]
	mov	DWORD PTR _print_error_length$69013[ebp], eax

; 84   : 					::glGetShaderInfoLog(shader, info_length, &print_error_length, print_err_buf);

	mov	esi, esp
	mov	eax, DWORD PTR _print_err_buf$69011[ebp]
	push	eax
	lea	ecx, DWORD PTR _print_error_length$69013[ebp]
	push	ecx
	mov	edx, DWORD PTR _info_length$69009[ebp]
	push	edx
	mov	eax, DWORD PTR _shader$[ebp]
	push	eax
	call	DWORD PTR __imp__glGetShaderInfoLog@16
	cmp	esi, esp
	call	__RTC_CheckEsp

; 85   : 
; 86   : 					PECKER_LOG_ERR("pecker_shader_program_glsles1::load_frame_shader_source","error info = %s",print_err_buf);

	mov	esi, esp
	push	OFFSET ??_C@_0M@ONMFDOOB@ERROR_INFO?5?$AA@
	call	DWORD PTR __imp__printf
	add	esp, 4
	cmp	esi, esp
	call	__RTC_CheckEsp
	mov	esi, esp
	push	OFFSET ??_C@_0DI@NLMDAKEL@pecker_shader_program_glsles1?3?3l@
	call	DWORD PTR __imp__printf
	add	esp, 4
	cmp	esi, esp
	call	__RTC_CheckEsp
	mov	esi, esp
	push	OFFSET ??_C@_01EEMJAFIK@?6?$AA@
	call	DWORD PTR __imp__printf
	add	esp, 4
	cmp	esi, esp
	call	__RTC_CheckEsp
	mov	esi, esp
	mov	eax, DWORD PTR _print_err_buf$69011[ebp]
	push	eax
	push	OFFSET ??_C@_0BA@IEHLPPIE@error?5info?5?$DN?5?$CFs?$AA@
	call	DWORD PTR __imp__printf
	add	esp, 8
	cmp	esi, esp
	call	__RTC_CheckEsp
	mov	esi, esp
	push	OFFSET ??_C@_01EEMJAFIK@?6?$AA@
	call	DWORD PTR __imp__printf
	add	esp, 4
	cmp	esi, esp
	call	__RTC_CheckEsp
$LN2@load_frame:

; 87   : 				}
; 88   : 			}
; 89   : 			::glDeleteShader(shader);

	mov	esi, esp
	mov	eax, DWORD PTR _shader$[ebp]
	push	eax
	call	DWORD PTR __imp__glDeleteShader@4
	cmp	esi, esp
	call	__RTC_CheckEsp

; 90   : 			shader = 0;

	mov	DWORD PTR _shader$[ebp], 0
$LN3@load_frame:

; 91   : 		}
; 92   : 		_M_frame_shader = shader;

	mov	eax, DWORD PTR _this$[ebp]
	mov	ecx, DWORD PTR _shader$[ebp]
	mov	DWORD PTR [eax+12], ecx
$LN4@load_frame:

; 93   : 	}
; 94   : 	return (UInt)shader;

	mov	eax, DWORD PTR _shader$[ebp]
$LN7@load_frame:

; 95   : }

	push	edx
	mov	ecx, ebp
	push	eax
	lea	edx, DWORD PTR $LN14@load_frame
	call	@_RTC_CheckStackVars@8
	pop	eax
	pop	edx
	pop	edi
	pop	esi
	pop	ebx
	add	esp, 276				; 00000114H
	cmp	ebp, esp
	call	__RTC_CheckEsp
	mov	esp, ebp
	pop	ebp
	ret	8
	npad	2
$LN14@load_frame:
	DD	4
	DD	$LN13@load_frame
$LN13@load_frame:
	DD	-32					; ffffffe0H
	DD	4
	DD	$LN9@load_frame
	DD	-44					; ffffffd4H
	DD	4
	DD	$LN10@load_frame
	DD	-56					; ffffffc8H
	DD	4
	DD	$LN11@load_frame
	DD	-80					; ffffffb0H
	DD	4
	DD	$LN12@load_frame
$LN12@load_frame:
	DB	112					; 00000070H
	DB	114					; 00000072H
	DB	105					; 00000069H
	DB	110					; 0000006eH
	DB	116					; 00000074H
	DB	95					; 0000005fH
	DB	101					; 00000065H
	DB	114					; 00000072H
	DB	114					; 00000072H
	DB	111					; 0000006fH
	DB	114					; 00000072H
	DB	95					; 0000005fH
	DB	108					; 0000006cH
	DB	101					; 00000065H
	DB	110					; 0000006eH
	DB	103					; 00000067H
	DB	116					; 00000074H
	DB	104					; 00000068H
	DB	0
$LN11@load_frame:
	DB	105					; 00000069H
	DB	110					; 0000006eH
	DB	102					; 00000066H
	DB	111					; 0000006fH
	DB	95					; 0000005fH
	DB	108					; 0000006cH
	DB	101					; 00000065H
	DB	110					; 0000006eH
	DB	103					; 00000067H
	DB	116					; 00000074H
	DB	104					; 00000068H
	DB	0
$LN10@load_frame:
	DB	99					; 00000063H
	DB	111					; 0000006fH
	DB	109					; 0000006dH
	DB	112					; 00000070H
	DB	105					; 00000069H
	DB	108					; 0000006cH
	DB	101					; 00000065H
	DB	100					; 00000064H
	DB	0
$LN9@load_frame:
	DB	112					; 00000070H
	DB	83					; 00000053H
	DB	111					; 0000006fH
	DB	117					; 00000075H
	DB	114					; 00000072H
	DB	99					; 00000063H
	DB	101					; 00000065H
	DB	0
?load_frame_shader_source@pecker_shader_program_glsles1@pecker_sdk@@QAEIABV?$pecker_share_string_base_t@DU?$pecker_value_compare@D@pecker_sdk@@V?$pecker_simple_allocator@D@2@$0BA@@2@PAV32@@Z ENDP ; pecker_sdk::pecker_shader_program_glsles1::load_frame_shader_source
_TEXT	ENDS
PUBLIC	?load_vertex_shader_source@pecker_shader_program_glsles1@pecker_sdk@@QAEIABV?$pecker_share_string_base_t@DU?$pecker_value_compare@D@pecker_sdk@@V?$pecker_simple_allocator@D@2@$0BA@@2@PAV32@@Z ; pecker_sdk::pecker_shader_program_glsles1::load_vertex_shader_source
; Function compile flags: /Odtp /RTCsu /ZI
;	COMDAT ?load_vertex_shader_source@pecker_shader_program_glsles1@pecker_sdk@@QAEIABV?$pecker_share_string_base_t@DU?$pecker_value_compare@D@pecker_sdk@@V?$pecker_simple_allocator@D@2@$0BA@@2@PAV32@@Z
_TEXT	SEGMENT
_print_error_length$69037 = -80				; size = 4
_print_err_buf$69035 = -68				; size = 4
_info_length$69033 = -56				; size = 4
_compiled$69030 = -44					; size = 4
_pSource$69028 = -32					; size = 4
_shader$ = -20						; size = 4
_this$ = -8						; size = 4
_str_source_code$ = 8					; size = 4
_pstr_error_info$ = 12					; size = 4
?load_vertex_shader_source@pecker_shader_program_glsles1@pecker_sdk@@QAEIABV?$pecker_share_string_base_t@DU?$pecker_value_compare@D@pecker_sdk@@V?$pecker_simple_allocator@D@2@$0BA@@2@PAV32@@Z PROC ; pecker_sdk::pecker_shader_program_glsles1::load_vertex_shader_source, COMDAT
; _this$ = ecx

; 97   : {

	push	ebp
	mov	ebp, esp
	sub	esp, 276				; 00000114H
	push	ebx
	push	esi
	push	edi
	push	ecx
	lea	edi, DWORD PTR [ebp-276]
	mov	ecx, 69					; 00000045H
	mov	eax, -858993460				; ccccccccH
	rep stosd
	pop	ecx
	mov	DWORD PTR _this$[ebp], ecx

; 98   : 	if (0 != _M_vertex_shader)

	mov	eax, DWORD PTR _this$[ebp]
	cmp	DWORD PTR [eax+16], 0
	je	SHORT $LN6@load_verte

; 99   : 	{
; 100  : 		return 0;

	xor	eax, eax
	jmp	$LN7@load_verte
$LN6@load_verte:

; 101  : 	}
; 102  : 	if (str_source_code.get_string_length() <= 0)

	mov	ecx, DWORD PTR _str_source_code$[ebp]
	call	?get_string_length@?$pecker_share_string_base_t@DU?$pecker_value_compare@D@pecker_sdk@@V?$pecker_simple_allocator@D@2@$0BA@@pecker_sdk@@QBEHXZ ; pecker_sdk::pecker_share_string_base_t<char,pecker_sdk::pecker_value_compare<char>,pecker_sdk::pecker_simple_allocator<char>,16>::get_string_length
	test	eax, eax
	jg	SHORT $LN5@load_verte

; 103  : 	{
; 104  : 		return 0;

	xor	eax, eax
	jmp	$LN7@load_verte
$LN5@load_verte:

; 105  : 	}
; 106  : 	// 创建着色器
; 107  : 	GLuint shader = glCreateShader(GL_VERTEX_SHADER);

	mov	esi, esp
	push	35633					; 00008b31H
	call	DWORD PTR __imp__glCreateShader@4
	cmp	esi, esp
	call	__RTC_CheckEsp
	mov	DWORD PTR _shader$[ebp], eax

; 108  : 	if (shader)

	cmp	DWORD PTR _shader$[ebp], 0
	je	$LN4@load_verte

; 109  : 	{
; 110  : 		//编译着色源代码
; 111  : 		const GLchar* pSource = (GLchar*)(str_source_code.get_data());

	mov	ecx, DWORD PTR _str_source_code$[ebp]
	call	?get_data@?$pecker_share_string_base_t@DU?$pecker_value_compare@D@pecker_sdk@@V?$pecker_simple_allocator@D@2@$0BA@@pecker_sdk@@QBEPBDXZ ; pecker_sdk::pecker_share_string_base_t<char,pecker_sdk::pecker_value_compare<char>,pecker_sdk::pecker_simple_allocator<char>,16>::get_data
	mov	DWORD PTR _pSource$69028[ebp], eax

; 112  : 		::glShaderSource(shader, 1, &pSource, null);

	mov	esi, esp
	push	0
	lea	eax, DWORD PTR _pSource$69028[ebp]
	push	eax
	push	1
	mov	ecx, DWORD PTR _shader$[ebp]
	push	ecx
	call	DWORD PTR __imp__glShaderSource@16
	cmp	esi, esp
	call	__RTC_CheckEsp

; 113  : 		::glCompileShader(shader);

	mov	esi, esp
	mov	eax, DWORD PTR _shader$[ebp]
	push	eax
	call	DWORD PTR __imp__glCompileShader@4
	cmp	esi, esp
	call	__RTC_CheckEsp

; 114  : 		GLint compiled = 0;

	mov	DWORD PTR _compiled$69030[ebp], 0

; 115  : 		//获取编译结果
; 116  : 		::glGetShaderiv(shader, GL_COMPILE_STATUS, &compiled);

	mov	esi, esp
	lea	eax, DWORD PTR _compiled$69030[ebp]
	push	eax
	push	35713					; 00008b81H
	mov	ecx, DWORD PTR _shader$[ebp]
	push	ecx
	call	DWORD PTR __imp__glGetShaderiv@12
	cmp	esi, esp
	call	__RTC_CheckEsp

; 117  : 		if (!compiled)

	cmp	DWORD PTR _compiled$69030[ebp], 0
	jne	$LN3@load_verte

; 118  : 		{
; 119  : 			if(pstr_error_info)

	cmp	DWORD PTR _pstr_error_info$[ebp], 0
	je	$LN2@load_verte

; 120  : 			{
; 121  : 				GLint info_length = 0;

	mov	DWORD PTR _info_length$69033[ebp], 0

; 122  : 				::glGetShaderiv(shader, GL_INFO_LOG_LENGTH, &info_length);

	mov	esi, esp
	lea	eax, DWORD PTR _info_length$69033[ebp]
	push	eax
	push	35716					; 00008b84H
	mov	ecx, DWORD PTR _shader$[ebp]
	push	ecx
	call	DWORD PTR __imp__glGetShaderiv@12
	cmp	esi, esp
	call	__RTC_CheckEsp

; 123  : 				if (info_length)

	cmp	DWORD PTR _info_length$69033[ebp], 0
	je	$LN2@load_verte

; 124  : 				{
; 125  : 					pstr_error_info->init(info_length);

	push	0
	mov	eax, DWORD PTR _info_length$69033[ebp]
	push	eax
	mov	ecx, DWORD PTR _pstr_error_info$[ebp]
	call	?init@?$pecker_share_string_base_t@DU?$pecker_value_compare@D@pecker_sdk@@V?$pecker_simple_allocator@D@2@$0BA@@pecker_sdk@@QAEJH_N@Z ; pecker_sdk::pecker_share_string_base_t<char,pecker_sdk::pecker_value_compare<char>,pecker_sdk::pecker_simple_allocator<char>,16>::init

; 126  : 					GLchar* print_err_buf = (GLchar*) pstr_error_info->get_data();

	mov	ecx, DWORD PTR _pstr_error_info$[ebp]
	call	?get_data@?$pecker_share_string_base_t@DU?$pecker_value_compare@D@pecker_sdk@@V?$pecker_simple_allocator@D@2@$0BA@@pecker_sdk@@QBEPBDXZ ; pecker_sdk::pecker_share_string_base_t<char,pecker_sdk::pecker_value_compare<char>,pecker_sdk::pecker_simple_allocator<char>,16>::get_data
	mov	DWORD PTR _print_err_buf$69035[ebp], eax

; 127  : 					GLsizei print_error_length = info_length;

	mov	eax, DWORD PTR _info_length$69033[ebp]
	mov	DWORD PTR _print_error_length$69037[ebp], eax

; 128  : 					::glGetShaderInfoLog(shader, info_length, &print_error_length, print_err_buf);

	mov	esi, esp
	mov	eax, DWORD PTR _print_err_buf$69035[ebp]
	push	eax
	lea	ecx, DWORD PTR _print_error_length$69037[ebp]
	push	ecx
	mov	edx, DWORD PTR _info_length$69033[ebp]
	push	edx
	mov	eax, DWORD PTR _shader$[ebp]
	push	eax
	call	DWORD PTR __imp__glGetShaderInfoLog@16
	cmp	esi, esp
	call	__RTC_CheckEsp

; 129  : 
; 130  : 					PECKER_LOG_ERR("pecker_shader_program_glsles1::load_frame_shader_source","error info = %s",print_err_buf);

	mov	esi, esp
	push	OFFSET ??_C@_0M@ONMFDOOB@ERROR_INFO?5?$AA@
	call	DWORD PTR __imp__printf
	add	esp, 4
	cmp	esi, esp
	call	__RTC_CheckEsp
	mov	esi, esp
	push	OFFSET ??_C@_0DI@NLMDAKEL@pecker_shader_program_glsles1?3?3l@
	call	DWORD PTR __imp__printf
	add	esp, 4
	cmp	esi, esp
	call	__RTC_CheckEsp
	mov	esi, esp
	push	OFFSET ??_C@_01EEMJAFIK@?6?$AA@
	call	DWORD PTR __imp__printf
	add	esp, 4
	cmp	esi, esp
	call	__RTC_CheckEsp
	mov	esi, esp
	mov	eax, DWORD PTR _print_err_buf$69035[ebp]
	push	eax
	push	OFFSET ??_C@_0BA@IEHLPPIE@error?5info?5?$DN?5?$CFs?$AA@
	call	DWORD PTR __imp__printf
	add	esp, 8
	cmp	esi, esp
	call	__RTC_CheckEsp
	mov	esi, esp
	push	OFFSET ??_C@_01EEMJAFIK@?6?$AA@
	call	DWORD PTR __imp__printf
	add	esp, 4
	cmp	esi, esp
	call	__RTC_CheckEsp
$LN2@load_verte:

; 131  : 				}
; 132  : 			}
; 133  : 			::glDeleteShader(shader);

	mov	esi, esp
	mov	eax, DWORD PTR _shader$[ebp]
	push	eax
	call	DWORD PTR __imp__glDeleteShader@4
	cmp	esi, esp
	call	__RTC_CheckEsp

; 134  : 			shader = 0;

	mov	DWORD PTR _shader$[ebp], 0
$LN3@load_verte:

; 135  : 		}
; 136  : 		_M_vertex_shader = shader;

	mov	eax, DWORD PTR _this$[ebp]
	mov	ecx, DWORD PTR _shader$[ebp]
	mov	DWORD PTR [eax+16], ecx
$LN4@load_verte:

; 137  : 	}
; 138  : 	return (UInt)shader;

	mov	eax, DWORD PTR _shader$[ebp]
$LN7@load_verte:

; 139  : }

	push	edx
	mov	ecx, ebp
	push	eax
	lea	edx, DWORD PTR $LN14@load_verte
	call	@_RTC_CheckStackVars@8
	pop	eax
	pop	edx
	pop	edi
	pop	esi
	pop	ebx
	add	esp, 276				; 00000114H
	cmp	ebp, esp
	call	__RTC_CheckEsp
	mov	esp, ebp
	pop	ebp
	ret	8
	npad	2
$LN14@load_verte:
	DD	4
	DD	$LN13@load_verte
$LN13@load_verte:
	DD	-32					; ffffffe0H
	DD	4
	DD	$LN9@load_verte
	DD	-44					; ffffffd4H
	DD	4
	DD	$LN10@load_verte
	DD	-56					; ffffffc8H
	DD	4
	DD	$LN11@load_verte
	DD	-80					; ffffffb0H
	DD	4
	DD	$LN12@load_verte
$LN12@load_verte:
	DB	112					; 00000070H
	DB	114					; 00000072H
	DB	105					; 00000069H
	DB	110					; 0000006eH
	DB	116					; 00000074H
	DB	95					; 0000005fH
	DB	101					; 00000065H
	DB	114					; 00000072H
	DB	114					; 00000072H
	DB	111					; 0000006fH
	DB	114					; 00000072H
	DB	95					; 0000005fH
	DB	108					; 0000006cH
	DB	101					; 00000065H
	DB	110					; 0000006eH
	DB	103					; 00000067H
	DB	116					; 00000074H
	DB	104					; 00000068H
	DB	0
$LN11@load_verte:
	DB	105					; 00000069H
	DB	110					; 0000006eH
	DB	102					; 00000066H
	DB	111					; 0000006fH
	DB	95					; 0000005fH
	DB	108					; 0000006cH
	DB	101					; 00000065H
	DB	110					; 0000006eH
	DB	103					; 00000067H
	DB	116					; 00000074H
	DB	104					; 00000068H
	DB	0
$LN10@load_verte:
	DB	99					; 00000063H
	DB	111					; 0000006fH
	DB	109					; 0000006dH
	DB	112					; 00000070H
	DB	105					; 00000069H
	DB	108					; 0000006cH
	DB	101					; 00000065H
	DB	100					; 00000064H
	DB	0
$LN9@load_verte:
	DB	112					; 00000070H
	DB	83					; 00000053H
	DB	111					; 0000006fH
	DB	117					; 00000075H
	DB	114					; 00000072H
	DB	99					; 00000063H
	DB	101					; 00000065H
	DB	0
?load_vertex_shader_source@pecker_shader_program_glsles1@pecker_sdk@@QAEIABV?$pecker_share_string_base_t@DU?$pecker_value_compare@D@pecker_sdk@@V?$pecker_simple_allocator@D@2@$0BA@@2@PAV32@@Z ENDP ; pecker_sdk::pecker_shader_program_glsles1::load_vertex_shader_source
_TEXT	ENDS
EXTRN	?get_last_error_code@pecker_opengles_v2_object@pecker_sdk@@SAJXZ:PROC ; pecker_sdk::pecker_opengles_v2_object::get_last_error_code
EXTRN	__imp__glDeleteProgram@4:PROC
; Function compile flags: /Odtp /RTCsu /ZI
;	COMDAT ?delete_shader_program@pecker_shader_program_glsles1@pecker_sdk@@QAEIXZ
_TEXT	SEGMENT
_uerror_code$69043 = -20				; size = 4
_this$ = -8						; size = 4
?delete_shader_program@pecker_shader_program_glsles1@pecker_sdk@@QAEIXZ PROC ; pecker_sdk::pecker_shader_program_glsles1::delete_shader_program, COMDAT
; _this$ = ecx

; 142  : {

	push	ebp
	mov	ebp, esp
	sub	esp, 216				; 000000d8H
	push	ebx
	push	esi
	push	edi
	push	ecx
	lea	edi, DWORD PTR [ebp-216]
	mov	ecx, 54					; 00000036H
	mov	eax, -858993460				; ccccccccH
	rep stosd
	pop	ecx
	mov	DWORD PTR _this$[ebp], ecx

; 143  : 	if (0 != _M_program)

	mov	eax, DWORD PTR _this$[ebp]
	cmp	DWORD PTR [eax+8], 0
	je	SHORT $LN2@delete_sha

; 144  : 	{
; 145  : 		::glDeleteProgram(_M_program);

	mov	esi, esp
	mov	eax, DWORD PTR _this$[ebp]
	mov	ecx, DWORD PTR [eax+8]
	push	ecx
	call	DWORD PTR __imp__glDeleteProgram@4
	cmp	esi, esp
	call	__RTC_CheckEsp

; 146  : 		UInt uerror_code = pecker_opengles_v2_object::get_last_error_code();

	call	?get_last_error_code@pecker_opengles_v2_object@pecker_sdk@@SAJXZ ; pecker_sdk::pecker_opengles_v2_object::get_last_error_code
	mov	DWORD PTR _uerror_code$69043[ebp], eax

; 147  : 		if (GL_NO_ERROR == uerror_code)

	cmp	DWORD PTR _uerror_code$69043[ebp], 0
	jne	SHORT $LN1@delete_sha

; 148  : 		{
; 149  : 			_M_program = 0;

	mov	eax, DWORD PTR _this$[ebp]
	mov	DWORD PTR [eax+8], 0
$LN1@delete_sha:

; 150  : 		}
; 151  : 		return uerror_code;

	mov	eax, DWORD PTR _uerror_code$69043[ebp]
	jmp	SHORT $LN3@delete_sha
$LN2@delete_sha:

; 152  : 
; 153  : 	}
; 154  : 	return P_OK;

	xor	eax, eax
$LN3@delete_sha:

; 155  : }

	pop	edi
	pop	esi
	pop	ebx
	add	esp, 216				; 000000d8H
	cmp	ebp, esp
	call	__RTC_CheckEsp
	mov	esp, ebp
	pop	ebp
	ret	0
?delete_shader_program@pecker_shader_program_glsles1@pecker_sdk@@QAEIXZ ENDP ; pecker_sdk::pecker_shader_program_glsles1::delete_shader_program
; Function compile flags: /Odtp /RTCsu /ZI
_TEXT	ENDS
;	COMDAT ?delete_frame_shader@pecker_shader_program_glsles1@pecker_sdk@@QAEIXZ
_TEXT	SEGMENT
_uerror_code$69049 = -20				; size = 4
_this$ = -8						; size = 4
?delete_frame_shader@pecker_shader_program_glsles1@pecker_sdk@@QAEIXZ PROC ; pecker_sdk::pecker_shader_program_glsles1::delete_frame_shader, COMDAT
; _this$ = ecx

; 157  : {

	push	ebp
	mov	ebp, esp
	sub	esp, 216				; 000000d8H
	push	ebx
	push	esi
	push	edi
	push	ecx
	lea	edi, DWORD PTR [ebp-216]
	mov	ecx, 54					; 00000036H
	mov	eax, -858993460				; ccccccccH
	rep stosd
	pop	ecx
	mov	DWORD PTR _this$[ebp], ecx

; 158  : 	if (0 != _M_frame_shader)

	mov	eax, DWORD PTR _this$[ebp]
	cmp	DWORD PTR [eax+12], 0
	je	SHORT $LN2@delete_fra

; 159  : 	{
; 160  : 		::glDeleteShader(_M_frame_shader);

	mov	esi, esp
	mov	eax, DWORD PTR _this$[ebp]
	mov	ecx, DWORD PTR [eax+12]
	push	ecx
	call	DWORD PTR __imp__glDeleteShader@4
	cmp	esi, esp
	call	__RTC_CheckEsp

; 161  : 		UInt uerror_code = pecker_opengles_v2_object::get_last_error_code();

	call	?get_last_error_code@pecker_opengles_v2_object@pecker_sdk@@SAJXZ ; pecker_sdk::pecker_opengles_v2_object::get_last_error_code
	mov	DWORD PTR _uerror_code$69049[ebp], eax

; 162  : 		if (GL_NO_ERROR == uerror_code)

	cmp	DWORD PTR _uerror_code$69049[ebp], 0
	jne	SHORT $LN1@delete_fra

; 163  : 		{
; 164  : 			_M_frame_shader = 0;

	mov	eax, DWORD PTR _this$[ebp]
	mov	DWORD PTR [eax+12], 0
$LN1@delete_fra:

; 165  : 		}
; 166  : 
; 167  : 		return uerror_code;

	mov	eax, DWORD PTR _uerror_code$69049[ebp]
	jmp	SHORT $LN3@delete_fra
$LN2@delete_fra:

; 168  : 		
; 169  : 	}
; 170  : 	return P_OK;

	xor	eax, eax
$LN3@delete_fra:

; 171  : }

	pop	edi
	pop	esi
	pop	ebx
	add	esp, 216				; 000000d8H
	cmp	ebp, esp
	call	__RTC_CheckEsp
	mov	esp, ebp
	pop	ebp
	ret	0
?delete_frame_shader@pecker_shader_program_glsles1@pecker_sdk@@QAEIXZ ENDP ; pecker_sdk::pecker_shader_program_glsles1::delete_frame_shader
; Function compile flags: /Odtp /RTCsu /ZI
_TEXT	ENDS
;	COMDAT ?delete_vertex_shader@pecker_shader_program_glsles1@pecker_sdk@@QAEIXZ
_TEXT	SEGMENT
_uerror_code$69055 = -20				; size = 4
_this$ = -8						; size = 4
?delete_vertex_shader@pecker_shader_program_glsles1@pecker_sdk@@QAEIXZ PROC ; pecker_sdk::pecker_shader_program_glsles1::delete_vertex_shader, COMDAT
; _this$ = ecx

; 173  : {

	push	ebp
	mov	ebp, esp
	sub	esp, 216				; 000000d8H
	push	ebx
	push	esi
	push	edi
	push	ecx
	lea	edi, DWORD PTR [ebp-216]
	mov	ecx, 54					; 00000036H
	mov	eax, -858993460				; ccccccccH
	rep stosd
	pop	ecx
	mov	DWORD PTR _this$[ebp], ecx

; 174  : 	if (0 != _M_vertex_shader)

	mov	eax, DWORD PTR _this$[ebp]
	cmp	DWORD PTR [eax+16], 0
	je	SHORT $LN2@delete_ver

; 175  : 	{
; 176  : 		::glDeleteShader(_M_vertex_shader);

	mov	esi, esp
	mov	eax, DWORD PTR _this$[ebp]
	mov	ecx, DWORD PTR [eax+16]
	push	ecx
	call	DWORD PTR __imp__glDeleteShader@4
	cmp	esi, esp
	call	__RTC_CheckEsp

; 177  : 		UInt uerror_code = pecker_opengles_v2_object::get_last_error_code();

	call	?get_last_error_code@pecker_opengles_v2_object@pecker_sdk@@SAJXZ ; pecker_sdk::pecker_opengles_v2_object::get_last_error_code
	mov	DWORD PTR _uerror_code$69055[ebp], eax

; 178  : 		if (GL_NO_ERROR == uerror_code)

	cmp	DWORD PTR _uerror_code$69055[ebp], 0
	jne	SHORT $LN1@delete_ver

; 179  : 		{
; 180  : 			_M_vertex_shader = 0;

	mov	eax, DWORD PTR _this$[ebp]
	mov	DWORD PTR [eax+16], 0
$LN1@delete_ver:

; 181  : 		}
; 182  : 		return uerror_code;

	mov	eax, DWORD PTR _uerror_code$69055[ebp]
	jmp	SHORT $LN3@delete_ver
$LN2@delete_ver:

; 183  : 	}
; 184  : 	return P_OK;

	xor	eax, eax
$LN3@delete_ver:

; 185  : }

	pop	edi
	pop	esi
	pop	ebx
	add	esp, 216				; 000000d8H
	cmp	ebp, esp
	call	__RTC_CheckEsp
	mov	esp, ebp
	pop	ebp
	ret	0
?delete_vertex_shader@pecker_shader_program_glsles1@pecker_sdk@@QAEIXZ ENDP ; pecker_sdk::pecker_shader_program_glsles1::delete_vertex_shader
_TEXT	ENDS
PUBLIC	?using_program@pecker_shader_program_glsles1@pecker_sdk@@QAEIXZ ; pecker_sdk::pecker_shader_program_glsles1::using_program
EXTRN	__imp__glUseProgram@4:PROC
; Function compile flags: /Odtp /RTCsu /ZI
;	COMDAT ?using_program@pecker_shader_program_glsles1@pecker_sdk@@QAEIXZ
_TEXT	SEGMENT
_uerror_code$69061 = -20				; size = 4
_this$ = -8						; size = 4
?using_program@pecker_shader_program_glsles1@pecker_sdk@@QAEIXZ PROC ; pecker_sdk::pecker_shader_program_glsles1::using_program, COMDAT
; _this$ = ecx

; 188  : {

	push	ebp
	mov	ebp, esp
	sub	esp, 216				; 000000d8H
	push	ebx
	push	esi
	push	edi
	push	ecx
	lea	edi, DWORD PTR [ebp-216]
	mov	ecx, 54					; 00000036H
	mov	eax, -858993460				; ccccccccH
	rep stosd
	pop	ecx
	mov	DWORD PTR _this$[ebp], ecx

; 189  : 	if (0 != _M_program)

	mov	eax, DWORD PTR _this$[ebp]
	cmp	DWORD PTR [eax+8], 0
	je	SHORT $LN2@using_prog

; 190  : 	{
; 191  : 		::glUseProgram(_M_program);

	mov	esi, esp
	mov	eax, DWORD PTR _this$[ebp]
	mov	ecx, DWORD PTR [eax+8]
	push	ecx
	call	DWORD PTR __imp__glUseProgram@4
	cmp	esi, esp
	call	__RTC_CheckEsp

; 192  : 		UInt uerror_code = pecker_opengles_v2_object::get_last_error_code();

	call	?get_last_error_code@pecker_opengles_v2_object@pecker_sdk@@SAJXZ ; pecker_sdk::pecker_opengles_v2_object::get_last_error_code
	mov	DWORD PTR _uerror_code$69061[ebp], eax

; 193  : 		if (GL_NO_ERROR == uerror_code)

	cmp	DWORD PTR _uerror_code$69061[ebp], 0
	jne	SHORT $LN2@using_prog

; 194  : 		{
; 195  : 			g_pusing_shader_program = this;

	mov	eax, DWORD PTR _this$[ebp]
	mov	DWORD PTR _g_pusing_shader_program, eax

; 196  : 			return _M_program;

	mov	eax, DWORD PTR _this$[ebp]
	mov	eax, DWORD PTR [eax+8]
	jmp	SHORT $LN3@using_prog
$LN2@using_prog:

; 197  : 		}
; 198  : 	}
; 199  : 	return 0;

	xor	eax, eax
$LN3@using_prog:

; 200  : }

	pop	edi
	pop	esi
	pop	ebx
	add	esp, 216				; 000000d8H
	cmp	ebp, esp
	call	__RTC_CheckEsp
	mov	esp, ebp
	pop	ebp
	ret	0
?using_program@pecker_shader_program_glsles1@pecker_sdk@@QAEIXZ ENDP ; pecker_sdk::pecker_shader_program_glsles1::using_program
_TEXT	ENDS
PUBLIC	?get_attribute_location@pecker_shader_program_glsles1@pecker_sdk@@QBEIABV?$pecker_share_string_base_t@DU?$pecker_value_compare@D@pecker_sdk@@V?$pecker_simple_allocator@D@2@$0BA@@2@@Z ; pecker_sdk::pecker_shader_program_glsles1::get_attribute_location
EXTRN	__imp__glGetAttribLocation@8:PROC
; Function compile flags: /Odtp /RTCsu /ZI
;	COMDAT ?get_attribute_location@pecker_shader_program_glsles1@pecker_sdk@@QBEIABV?$pecker_share_string_base_t@DU?$pecker_value_compare@D@pecker_sdk@@V?$pecker_simple_allocator@D@2@$0BA@@2@@Z
_TEXT	SEGMENT
_return_index$ = -20					; size = 4
_this$ = -8						; size = 4
_str_attribute_name$ = 8				; size = 4
?get_attribute_location@pecker_shader_program_glsles1@pecker_sdk@@QBEIABV?$pecker_share_string_base_t@DU?$pecker_value_compare@D@pecker_sdk@@V?$pecker_simple_allocator@D@2@$0BA@@2@@Z PROC ; pecker_sdk::pecker_shader_program_glsles1::get_attribute_location, COMDAT
; _this$ = ecx

; 203  : {

	push	ebp
	mov	ebp, esp
	sub	esp, 216				; 000000d8H
	push	ebx
	push	esi
	push	edi
	push	ecx
	lea	edi, DWORD PTR [ebp-216]
	mov	ecx, 54					; 00000036H
	mov	eax, -858993460				; ccccccccH
	rep stosd
	pop	ecx
	mov	DWORD PTR _this$[ebp], ecx

; 204  : 	UInt return_index = (UInt)(-1);

	mov	DWORD PTR _return_index$[ebp], -1

; 205  : 	if (0 != _M_program && str_attribute_name.get_string_length() > 0)

	mov	eax, DWORD PTR _this$[ebp]
	cmp	DWORD PTR [eax+8], 0
	je	SHORT $LN1@get_attrib
	mov	ecx, DWORD PTR _str_attribute_name$[ebp]
	call	?get_string_length@?$pecker_share_string_base_t@DU?$pecker_value_compare@D@pecker_sdk@@V?$pecker_simple_allocator@D@2@$0BA@@pecker_sdk@@QBEHXZ ; pecker_sdk::pecker_share_string_base_t<char,pecker_sdk::pecker_value_compare<char>,pecker_sdk::pecker_simple_allocator<char>,16>::get_string_length
	test	eax, eax
	jle	SHORT $LN1@get_attrib

; 206  : 	{
; 207  : 		return_index = ::glGetAttribLocation(_M_program,str_attribute_name.get_data());

	mov	ecx, DWORD PTR _str_attribute_name$[ebp]
	call	?get_data@?$pecker_share_string_base_t@DU?$pecker_value_compare@D@pecker_sdk@@V?$pecker_simple_allocator@D@2@$0BA@@pecker_sdk@@QBEPBDXZ ; pecker_sdk::pecker_share_string_base_t<char,pecker_sdk::pecker_value_compare<char>,pecker_sdk::pecker_simple_allocator<char>,16>::get_data
	mov	esi, esp
	push	eax
	mov	eax, DWORD PTR _this$[ebp]
	mov	ecx, DWORD PTR [eax+8]
	push	ecx
	call	DWORD PTR __imp__glGetAttribLocation@8
	cmp	esi, esp
	call	__RTC_CheckEsp
	mov	DWORD PTR _return_index$[ebp], eax
$LN1@get_attrib:

; 208  : 		//if (GL_NO_ERROR != ::glGetError())
; 209  : 		//{
; 210  : 		//	return_index = (UInt)(-1);
; 211  : 		//}
; 212  : 	}
; 213  : 	return return_index;

	mov	eax, DWORD PTR _return_index$[ebp]

; 214  : }

	pop	edi
	pop	esi
	pop	ebx
	add	esp, 216				; 000000d8H
	cmp	ebp, esp
	call	__RTC_CheckEsp
	mov	esp, ebp
	pop	ebp
	ret	4
?get_attribute_location@pecker_shader_program_glsles1@pecker_sdk@@QBEIABV?$pecker_share_string_base_t@DU?$pecker_value_compare@D@pecker_sdk@@V?$pecker_simple_allocator@D@2@$0BA@@2@@Z ENDP ; pecker_sdk::pecker_shader_program_glsles1::get_attribute_location
_TEXT	ENDS
PUBLIC	?get_active_attribute@pecker_shader_program_glsles1@pecker_sdk@@QBEJIAAIAAHAAV?$pecker_share_string_base_t@DU?$pecker_value_compare@D@pecker_sdk@@V?$pecker_simple_allocator@D@2@$0BA@@2@@Z ; pecker_sdk::pecker_shader_program_glsles1::get_active_attribute
EXTRN	__imp__glGetActiveAttrib@28:PROC
; Function compile flags: /Odtp /RTCsu /ZI
;	COMDAT ?get_active_attribute@pecker_shader_program_glsles1@pecker_sdk@@QBEJIAAIAAHAAV?$pecker_share_string_base_t@DU?$pecker_value_compare@D@pecker_sdk@@V?$pecker_simple_allocator@D@2@$0BA@@2@@Z
_TEXT	SEGMENT
_pstr_name$69081 = -44					; size = 4
_uerror_code$ = -32					; size = 4
_strlength$ = -20					; size = 4
_this$ = -8						; size = 4
_attribute_index$ = 8					; size = 4
_attribute_type$ = 12					; size = 4
_attribute_size$ = 16					; size = 4
_str_attribute_name$ = 20				; size = 4
?get_active_attribute@pecker_shader_program_glsles1@pecker_sdk@@QBEJIAAIAAHAAV?$pecker_share_string_base_t@DU?$pecker_value_compare@D@pecker_sdk@@V?$pecker_simple_allocator@D@2@$0BA@@2@@Z PROC ; pecker_sdk::pecker_shader_program_glsles1::get_active_attribute, COMDAT
; _this$ = ecx

; 218  : {

	push	ebp
	mov	ebp, esp
	sub	esp, 240				; 000000f0H
	push	ebx
	push	esi
	push	edi
	push	ecx
	lea	edi, DWORD PTR [ebp-240]
	mov	ecx, 60					; 0000003cH
	mov	eax, -858993460				; ccccccccH
	rep stosd
	pop	ecx
	mov	DWORD PTR _this$[ebp], ecx

; 219  : 	GLsizei strlength = 0;

	mov	DWORD PTR _strlength$[ebp], 0

; 220  : 	::glGetActiveAttrib(_M_program,attribute_index,strlength,&strlength,&attribute_size,(GLenum*)(&attribute_type),null);

	mov	esi, esp
	push	0
	mov	eax, DWORD PTR _attribute_type$[ebp]
	push	eax
	mov	ecx, DWORD PTR _attribute_size$[ebp]
	push	ecx
	lea	edx, DWORD PTR _strlength$[ebp]
	push	edx
	mov	eax, DWORD PTR _strlength$[ebp]
	push	eax
	mov	ecx, DWORD PTR _attribute_index$[ebp]
	push	ecx
	mov	edx, DWORD PTR _this$[ebp]
	mov	eax, DWORD PTR [edx+8]
	push	eax
	call	DWORD PTR __imp__glGetActiveAttrib@28
	cmp	esi, esp
	call	__RTC_CheckEsp

; 221  : 	UInt uerror_code = pecker_opengles_v2_object::get_last_error_code();

	call	?get_last_error_code@pecker_opengles_v2_object@pecker_sdk@@SAJXZ ; pecker_sdk::pecker_opengles_v2_object::get_last_error_code
	mov	DWORD PTR _uerror_code$[ebp], eax

; 222  : 	if (GL_NO_ERROR == uerror_code)

	cmp	DWORD PTR _uerror_code$[ebp], 0
	jne	SHORT $LN1@get_active

; 223  : 	{
; 224  : 		str_attribute_name.init(strlength);

	push	0
	mov	eax, DWORD PTR _strlength$[ebp]
	push	eax
	mov	ecx, DWORD PTR _str_attribute_name$[ebp]
	call	?init@?$pecker_share_string_base_t@DU?$pecker_value_compare@D@pecker_sdk@@V?$pecker_simple_allocator@D@2@$0BA@@pecker_sdk@@QAEJH_N@Z ; pecker_sdk::pecker_share_string_base_t<char,pecker_sdk::pecker_value_compare<char>,pecker_sdk::pecker_simple_allocator<char>,16>::init

; 225  : 		GLchar* pstr_name = (GLchar*)str_attribute_name.get_data();

	mov	ecx, DWORD PTR _str_attribute_name$[ebp]
	call	?get_data@?$pecker_share_string_base_t@DU?$pecker_value_compare@D@pecker_sdk@@V?$pecker_simple_allocator@D@2@$0BA@@pecker_sdk@@QBEPBDXZ ; pecker_sdk::pecker_share_string_base_t<char,pecker_sdk::pecker_value_compare<char>,pecker_sdk::pecker_simple_allocator<char>,16>::get_data
	mov	DWORD PTR _pstr_name$69081[ebp], eax

; 226  : 		::glGetActiveAttrib(_M_program,attribute_index,strlength,&strlength,&attribute_size,(GLenum*)(&attribute_type),pstr_name);

	mov	esi, esp
	mov	eax, DWORD PTR _pstr_name$69081[ebp]
	push	eax
	mov	ecx, DWORD PTR _attribute_type$[ebp]
	push	ecx
	mov	edx, DWORD PTR _attribute_size$[ebp]
	push	edx
	lea	eax, DWORD PTR _strlength$[ebp]
	push	eax
	mov	ecx, DWORD PTR _strlength$[ebp]
	push	ecx
	mov	edx, DWORD PTR _attribute_index$[ebp]
	push	edx
	mov	eax, DWORD PTR _this$[ebp]
	mov	ecx, DWORD PTR [eax+8]
	push	ecx
	call	DWORD PTR __imp__glGetActiveAttrib@28
	cmp	esi, esp
	call	__RTC_CheckEsp

; 227  : 		uerror_code = pecker_opengles_v2_object::get_last_error_code();

	call	?get_last_error_code@pecker_opengles_v2_object@pecker_sdk@@SAJXZ ; pecker_sdk::pecker_opengles_v2_object::get_last_error_code
	mov	DWORD PTR _uerror_code$[ebp], eax
$LN1@get_active:

; 228  : 	}
; 229  : 		
; 230  : 	return uerror_code;

	mov	eax, DWORD PTR _uerror_code$[ebp]

; 231  : }

	push	edx
	mov	ecx, ebp
	push	eax
	lea	edx, DWORD PTR $LN6@get_active
	call	@_RTC_CheckStackVars@8
	pop	eax
	pop	edx
	pop	edi
	pop	esi
	pop	ebx
	add	esp, 240				; 000000f0H
	cmp	ebp, esp
	call	__RTC_CheckEsp
	mov	esp, ebp
	pop	ebp
	ret	16					; 00000010H
	npad	3
$LN6@get_active:
	DD	1
	DD	$LN5@get_active
$LN5@get_active:
	DD	-20					; ffffffecH
	DD	4
	DD	$LN4@get_active
$LN4@get_active:
	DB	115					; 00000073H
	DB	116					; 00000074H
	DB	114					; 00000072H
	DB	108					; 0000006cH
	DB	101					; 00000065H
	DB	110					; 0000006eH
	DB	103					; 00000067H
	DB	116					; 00000074H
	DB	104					; 00000068H
	DB	0
?get_active_attribute@pecker_shader_program_glsles1@pecker_sdk@@QBEJIAAIAAHAAV?$pecker_share_string_base_t@DU?$pecker_value_compare@D@pecker_sdk@@V?$pecker_simple_allocator@D@2@$0BA@@2@@Z ENDP ; pecker_sdk::pecker_shader_program_glsles1::get_active_attribute
_TEXT	ENDS
PUBLIC	?get_uniform_location@pecker_shader_program_glsles1@pecker_sdk@@QBEIABV?$pecker_share_string_base_t@DU?$pecker_value_compare@D@pecker_sdk@@V?$pecker_simple_allocator@D@2@$0BA@@2@@Z ; pecker_sdk::pecker_shader_program_glsles1::get_uniform_location
EXTRN	__imp__glGetUniformLocation@8:PROC
; Function compile flags: /Odtp /RTCsu /ZI
;	COMDAT ?get_uniform_location@pecker_shader_program_glsles1@pecker_sdk@@QBEIABV?$pecker_share_string_base_t@DU?$pecker_value_compare@D@pecker_sdk@@V?$pecker_simple_allocator@D@2@$0BA@@2@@Z
_TEXT	SEGMENT
_return_index$ = -20					; size = 4
_this$ = -8						; size = 4
_str_uniform_name$ = 8					; size = 4
?get_uniform_location@pecker_shader_program_glsles1@pecker_sdk@@QBEIABV?$pecker_share_string_base_t@DU?$pecker_value_compare@D@pecker_sdk@@V?$pecker_simple_allocator@D@2@$0BA@@2@@Z PROC ; pecker_sdk::pecker_shader_program_glsles1::get_uniform_location, COMDAT
; _this$ = ecx

; 236  : {

	push	ebp
	mov	ebp, esp
	sub	esp, 216				; 000000d8H
	push	ebx
	push	esi
	push	edi
	push	ecx
	lea	edi, DWORD PTR [ebp-216]
	mov	ecx, 54					; 00000036H
	mov	eax, -858993460				; ccccccccH
	rep stosd
	pop	ecx
	mov	DWORD PTR _this$[ebp], ecx

; 237  : 	UInt return_index = (UInt)(-1);

	mov	DWORD PTR _return_index$[ebp], -1

; 238  : 	if (0 != _M_program && str_uniform_name.get_string_length() > 0)

	mov	eax, DWORD PTR _this$[ebp]
	cmp	DWORD PTR [eax+8], 0
	je	SHORT $LN1@get_unifor
	mov	ecx, DWORD PTR _str_uniform_name$[ebp]
	call	?get_string_length@?$pecker_share_string_base_t@DU?$pecker_value_compare@D@pecker_sdk@@V?$pecker_simple_allocator@D@2@$0BA@@pecker_sdk@@QBEHXZ ; pecker_sdk::pecker_share_string_base_t<char,pecker_sdk::pecker_value_compare<char>,pecker_sdk::pecker_simple_allocator<char>,16>::get_string_length
	test	eax, eax
	jle	SHORT $LN1@get_unifor

; 239  : 	{
; 240  : 		return_index = ::glGetUniformLocation(_M_program,str_uniform_name.get_data());

	mov	ecx, DWORD PTR _str_uniform_name$[ebp]
	call	?get_data@?$pecker_share_string_base_t@DU?$pecker_value_compare@D@pecker_sdk@@V?$pecker_simple_allocator@D@2@$0BA@@pecker_sdk@@QBEPBDXZ ; pecker_sdk::pecker_share_string_base_t<char,pecker_sdk::pecker_value_compare<char>,pecker_sdk::pecker_simple_allocator<char>,16>::get_data
	mov	esi, esp
	push	eax
	mov	eax, DWORD PTR _this$[ebp]
	mov	ecx, DWORD PTR [eax+8]
	push	ecx
	call	DWORD PTR __imp__glGetUniformLocation@8
	cmp	esi, esp
	call	__RTC_CheckEsp
	mov	DWORD PTR _return_index$[ebp], eax
$LN1@get_unifor:

; 241  : 	}
; 242  : 	return return_index;

	mov	eax, DWORD PTR _return_index$[ebp]

; 243  : }

	pop	edi
	pop	esi
	pop	ebx
	add	esp, 216				; 000000d8H
	cmp	ebp, esp
	call	__RTC_CheckEsp
	mov	esp, ebp
	pop	ebp
	ret	4
?get_uniform_location@pecker_shader_program_glsles1@pecker_sdk@@QBEIABV?$pecker_share_string_base_t@DU?$pecker_value_compare@D@pecker_sdk@@V?$pecker_simple_allocator@D@2@$0BA@@2@@Z ENDP ; pecker_sdk::pecker_shader_program_glsles1::get_uniform_location
_TEXT	ENDS
PUBLIC	?get_active_uniform@pecker_shader_program_glsles1@pecker_sdk@@QBEJIAAIAAHAAV?$pecker_share_string_base_t@DU?$pecker_value_compare@D@pecker_sdk@@V?$pecker_simple_allocator@D@2@$0BA@@2@@Z ; pecker_sdk::pecker_shader_program_glsles1::get_active_uniform
; Function compile flags: /Odtp /RTCsu /ZI
;	COMDAT ?get_active_uniform@pecker_shader_program_glsles1@pecker_sdk@@QBEJIAAIAAHAAV?$pecker_share_string_base_t@DU?$pecker_value_compare@D@pecker_sdk@@V?$pecker_simple_allocator@D@2@$0BA@@2@@Z
_TEXT	SEGMENT
_pstr_name$69102 = -44					; size = 4
_uerror_code$ = -32					; size = 4
_strlength$ = -20					; size = 4
_this$ = -8						; size = 4
_uniform_index$ = 8					; size = 4
_uniform_type$ = 12					; size = 4
_uniform_size$ = 16					; size = 4
_str_uniform_name$ = 20					; size = 4
?get_active_uniform@pecker_shader_program_glsles1@pecker_sdk@@QBEJIAAIAAHAAV?$pecker_share_string_base_t@DU?$pecker_value_compare@D@pecker_sdk@@V?$pecker_simple_allocator@D@2@$0BA@@2@@Z PROC ; pecker_sdk::pecker_shader_program_glsles1::get_active_uniform, COMDAT
; _this$ = ecx

; 247  : {

	push	ebp
	mov	ebp, esp
	sub	esp, 240				; 000000f0H
	push	ebx
	push	esi
	push	edi
	push	ecx
	lea	edi, DWORD PTR [ebp-240]
	mov	ecx, 60					; 0000003cH
	mov	eax, -858993460				; ccccccccH
	rep stosd
	pop	ecx
	mov	DWORD PTR _this$[ebp], ecx

; 248  : 
; 249  : 	GLsizei strlength = 0;

	mov	DWORD PTR _strlength$[ebp], 0

; 250  : 	::glGetActiveAttrib(_M_program,uniform_index,strlength,&strlength,&uniform_size,(GLenum*)(&uniform_type),null);

	mov	esi, esp
	push	0
	mov	eax, DWORD PTR _uniform_type$[ebp]
	push	eax
	mov	ecx, DWORD PTR _uniform_size$[ebp]
	push	ecx
	lea	edx, DWORD PTR _strlength$[ebp]
	push	edx
	mov	eax, DWORD PTR _strlength$[ebp]
	push	eax
	mov	ecx, DWORD PTR _uniform_index$[ebp]
	push	ecx
	mov	edx, DWORD PTR _this$[ebp]
	mov	eax, DWORD PTR [edx+8]
	push	eax
	call	DWORD PTR __imp__glGetActiveAttrib@28
	cmp	esi, esp
	call	__RTC_CheckEsp

; 251  : 	UInt uerror_code = pecker_opengles_v2_object::get_last_error_code();

	call	?get_last_error_code@pecker_opengles_v2_object@pecker_sdk@@SAJXZ ; pecker_sdk::pecker_opengles_v2_object::get_last_error_code
	mov	DWORD PTR _uerror_code$[ebp], eax

; 252  : 	if (GL_NO_ERROR == uerror_code)

	cmp	DWORD PTR _uerror_code$[ebp], 0
	jne	SHORT $LN1@get_active@2

; 253  : 	{
; 254  : 		str_uniform_name.init(strlength);

	push	0
	mov	eax, DWORD PTR _strlength$[ebp]
	push	eax
	mov	ecx, DWORD PTR _str_uniform_name$[ebp]
	call	?init@?$pecker_share_string_base_t@DU?$pecker_value_compare@D@pecker_sdk@@V?$pecker_simple_allocator@D@2@$0BA@@pecker_sdk@@QAEJH_N@Z ; pecker_sdk::pecker_share_string_base_t<char,pecker_sdk::pecker_value_compare<char>,pecker_sdk::pecker_simple_allocator<char>,16>::init

; 255  : 		GLchar* pstr_name = (GLchar*)str_uniform_name.get_data();

	mov	ecx, DWORD PTR _str_uniform_name$[ebp]
	call	?get_data@?$pecker_share_string_base_t@DU?$pecker_value_compare@D@pecker_sdk@@V?$pecker_simple_allocator@D@2@$0BA@@pecker_sdk@@QBEPBDXZ ; pecker_sdk::pecker_share_string_base_t<char,pecker_sdk::pecker_value_compare<char>,pecker_sdk::pecker_simple_allocator<char>,16>::get_data
	mov	DWORD PTR _pstr_name$69102[ebp], eax

; 256  : 		::glGetActiveAttrib(_M_program,uniform_index,strlength,&strlength,&uniform_size,(GLenum*)(&uniform_type),pstr_name);

	mov	esi, esp
	mov	eax, DWORD PTR _pstr_name$69102[ebp]
	push	eax
	mov	ecx, DWORD PTR _uniform_type$[ebp]
	push	ecx
	mov	edx, DWORD PTR _uniform_size$[ebp]
	push	edx
	lea	eax, DWORD PTR _strlength$[ebp]
	push	eax
	mov	ecx, DWORD PTR _strlength$[ebp]
	push	ecx
	mov	edx, DWORD PTR _uniform_index$[ebp]
	push	edx
	mov	eax, DWORD PTR _this$[ebp]
	mov	ecx, DWORD PTR [eax+8]
	push	ecx
	call	DWORD PTR __imp__glGetActiveAttrib@28
	cmp	esi, esp
	call	__RTC_CheckEsp

; 257  : 		uerror_code = pecker_opengles_v2_object::get_last_error_code();

	call	?get_last_error_code@pecker_opengles_v2_object@pecker_sdk@@SAJXZ ; pecker_sdk::pecker_opengles_v2_object::get_last_error_code
	mov	DWORD PTR _uerror_code$[ebp], eax
$LN1@get_active@2:

; 258  : 	}
; 259  : 	return uerror_code;

	mov	eax, DWORD PTR _uerror_code$[ebp]

; 260  : 
; 261  : }

	push	edx
	mov	ecx, ebp
	push	eax
	lea	edx, DWORD PTR $LN6@get_active@2
	call	@_RTC_CheckStackVars@8
	pop	eax
	pop	edx
	pop	edi
	pop	esi
	pop	ebx
	add	esp, 240				; 000000f0H
	cmp	ebp, esp
	call	__RTC_CheckEsp
	mov	esp, ebp
	pop	ebp
	ret	16					; 00000010H
	npad	3
$LN6@get_active@2:
	DD	1
	DD	$LN5@get_active@2
$LN5@get_active@2:
	DD	-20					; ffffffecH
	DD	4
	DD	$LN4@get_active@2
$LN4@get_active@2:
	DB	115					; 00000073H
	DB	116					; 00000074H
	DB	114					; 00000072H
	DB	108					; 0000006cH
	DB	101					; 00000065H
	DB	110					; 0000006eH
	DB	103					; 00000067H
	DB	116					; 00000074H
	DB	104					; 00000068H
	DB	0
?get_active_uniform@pecker_shader_program_glsles1@pecker_sdk@@QBEJIAAIAAHAAV?$pecker_share_string_base_t@DU?$pecker_value_compare@D@pecker_sdk@@V?$pecker_simple_allocator@D@2@$0BA@@2@@Z ENDP ; pecker_sdk::pecker_shader_program_glsles1::get_active_uniform
_TEXT	ENDS
PUBLIC	?get_uniform_float_value@pecker_shader_program_glsles1@pecker_sdk@@QBEJIPAM@Z ; pecker_sdk::pecker_shader_program_glsles1::get_uniform_float_value
EXTRN	__imp__glGetUniformfv@12:PROC
; Function compile flags: /Odtp /RTCsu /ZI
;	COMDAT ?get_uniform_float_value@pecker_shader_program_glsles1@pecker_sdk@@QBEJIPAM@Z
_TEXT	SEGMENT
_this$ = -8						; size = 4
_uniform_index$ = 8					; size = 4
_pUniform_value$ = 12					; size = 4
?get_uniform_float_value@pecker_shader_program_glsles1@pecker_sdk@@QBEJIPAM@Z PROC ; pecker_sdk::pecker_shader_program_glsles1::get_uniform_float_value, COMDAT
; _this$ = ecx

; 265  : {

	push	ebp
	mov	ebp, esp
	sub	esp, 204				; 000000ccH
	push	ebx
	push	esi
	push	edi
	push	ecx
	lea	edi, DWORD PTR [ebp-204]
	mov	ecx, 51					; 00000033H
	mov	eax, -858993460				; ccccccccH
	rep stosd
	pop	ecx
	mov	DWORD PTR _this$[ebp], ecx

; 266  : 	::glGetUniformfv(_M_program,uniform_index,pUniform_value);

	mov	esi, esp
	mov	eax, DWORD PTR _pUniform_value$[ebp]
	push	eax
	mov	ecx, DWORD PTR _uniform_index$[ebp]
	push	ecx
	mov	edx, DWORD PTR _this$[ebp]
	mov	eax, DWORD PTR [edx+8]
	push	eax
	call	DWORD PTR __imp__glGetUniformfv@12
	cmp	esi, esp
	call	__RTC_CheckEsp

; 267  : 	return pecker_opengles_v2_object::get_last_error_code();

	call	?get_last_error_code@pecker_opengles_v2_object@pecker_sdk@@SAJXZ ; pecker_sdk::pecker_opengles_v2_object::get_last_error_code

; 268  : }

	pop	edi
	pop	esi
	pop	ebx
	add	esp, 204				; 000000ccH
	cmp	ebp, esp
	call	__RTC_CheckEsp
	mov	esp, ebp
	pop	ebp
	ret	8
?get_uniform_float_value@pecker_shader_program_glsles1@pecker_sdk@@QBEJIPAM@Z ENDP ; pecker_sdk::pecker_shader_program_glsles1::get_uniform_float_value
_TEXT	ENDS
PUBLIC	?get_uniform_int_value@pecker_shader_program_glsles1@pecker_sdk@@QBEJIPAH@Z ; pecker_sdk::pecker_shader_program_glsles1::get_uniform_int_value
EXTRN	__imp__glGetUniformiv@12:PROC
; Function compile flags: /Odtp /RTCsu /ZI
;	COMDAT ?get_uniform_int_value@pecker_shader_program_glsles1@pecker_sdk@@QBEJIPAH@Z
_TEXT	SEGMENT
_this$ = -8						; size = 4
_uniform_index$ = 8					; size = 4
_pUniform_value$ = 12					; size = 4
?get_uniform_int_value@pecker_shader_program_glsles1@pecker_sdk@@QBEJIPAH@Z PROC ; pecker_sdk::pecker_shader_program_glsles1::get_uniform_int_value, COMDAT
; _this$ = ecx

; 271  : {

	push	ebp
	mov	ebp, esp
	sub	esp, 204				; 000000ccH
	push	ebx
	push	esi
	push	edi
	push	ecx
	lea	edi, DWORD PTR [ebp-204]
	mov	ecx, 51					; 00000033H
	mov	eax, -858993460				; ccccccccH
	rep stosd
	pop	ecx
	mov	DWORD PTR _this$[ebp], ecx

; 272  : 	if (0 != _M_program)

	mov	eax, DWORD PTR _this$[ebp]
	cmp	DWORD PTR [eax+8], 0
	je	SHORT $LN1@get_unifor@2

; 273  : 	{
; 274  : 		::glGetUniformiv(_M_program,uniform_index,pUniform_value);

	mov	esi, esp
	mov	eax, DWORD PTR _pUniform_value$[ebp]
	push	eax
	mov	ecx, DWORD PTR _uniform_index$[ebp]
	push	ecx
	mov	edx, DWORD PTR _this$[ebp]
	mov	eax, DWORD PTR [edx+8]
	push	eax
	call	DWORD PTR __imp__glGetUniformiv@12
	cmp	esi, esp
	call	__RTC_CheckEsp

; 275  : 		return pecker_opengles_v2_object::get_last_error_code();

	call	?get_last_error_code@pecker_opengles_v2_object@pecker_sdk@@SAJXZ ; pecker_sdk::pecker_opengles_v2_object::get_last_error_code
	jmp	SHORT $LN2@get_unifor@2
$LN1@get_unifor@2:

; 276  : 	}
; 277  : 	return P_OK;

	xor	eax, eax
$LN2@get_unifor@2:

; 278  : }

	pop	edi
	pop	esi
	pop	ebx
	add	esp, 204				; 000000ccH
	cmp	ebp, esp
	call	__RTC_CheckEsp
	mov	esp, ebp
	pop	ebp
	ret	8
?get_uniform_int_value@pecker_shader_program_glsles1@pecker_sdk@@QBEJIPAH@Z ENDP ; pecker_sdk::pecker_shader_program_glsles1::get_uniform_int_value
_TEXT	ENDS
PUBLIC	?get_program@pecker_shader_program_glsles1@pecker_sdk@@QBEIXZ ; pecker_sdk::pecker_shader_program_glsles1::get_program
; Function compile flags: /Odtp /RTCsu /ZI
;	COMDAT ?get_program@pecker_shader_program_glsles1@pecker_sdk@@QBEIXZ
_TEXT	SEGMENT
_this$ = -8						; size = 4
?get_program@pecker_shader_program_glsles1@pecker_sdk@@QBEIXZ PROC ; pecker_sdk::pecker_shader_program_glsles1::get_program, COMDAT
; _this$ = ecx

; 281  : {

	push	ebp
	mov	ebp, esp
	sub	esp, 204				; 000000ccH
	push	ebx
	push	esi
	push	edi
	push	ecx
	lea	edi, DWORD PTR [ebp-204]
	mov	ecx, 51					; 00000033H
	mov	eax, -858993460				; ccccccccH
	rep stosd
	pop	ecx
	mov	DWORD PTR _this$[ebp], ecx

; 282  : 	return _M_program;

	mov	eax, DWORD PTR _this$[ebp]
	mov	eax, DWORD PTR [eax+8]

; 283  : }

	pop	edi
	pop	esi
	pop	ebx
	mov	esp, ebp
	pop	ebp
	ret	0
?get_program@pecker_shader_program_glsles1@pecker_sdk@@QBEIXZ ENDP ; pecker_sdk::pecker_shader_program_glsles1::get_program
_TEXT	ENDS
PUBLIC	?get_frame_shader@pecker_shader_program_glsles1@pecker_sdk@@QBEIXZ ; pecker_sdk::pecker_shader_program_glsles1::get_frame_shader
; Function compile flags: /Odtp /RTCsu /ZI
;	COMDAT ?get_frame_shader@pecker_shader_program_glsles1@pecker_sdk@@QBEIXZ
_TEXT	SEGMENT
_this$ = -8						; size = 4
?get_frame_shader@pecker_shader_program_glsles1@pecker_sdk@@QBEIXZ PROC ; pecker_sdk::pecker_shader_program_glsles1::get_frame_shader, COMDAT
; _this$ = ecx

; 286  : {

	push	ebp
	mov	ebp, esp
	sub	esp, 204				; 000000ccH
	push	ebx
	push	esi
	push	edi
	push	ecx
	lea	edi, DWORD PTR [ebp-204]
	mov	ecx, 51					; 00000033H
	mov	eax, -858993460				; ccccccccH
	rep stosd
	pop	ecx
	mov	DWORD PTR _this$[ebp], ecx

; 287  : 	return _M_frame_shader;

	mov	eax, DWORD PTR _this$[ebp]
	mov	eax, DWORD PTR [eax+12]

; 288  : }

	pop	edi
	pop	esi
	pop	ebx
	mov	esp, ebp
	pop	ebp
	ret	0
?get_frame_shader@pecker_shader_program_glsles1@pecker_sdk@@QBEIXZ ENDP ; pecker_sdk::pecker_shader_program_glsles1::get_frame_shader
_TEXT	ENDS
PUBLIC	?get_vertex_shader@pecker_shader_program_glsles1@pecker_sdk@@QBEIXZ ; pecker_sdk::pecker_shader_program_glsles1::get_vertex_shader
; Function compile flags: /Odtp /RTCsu /ZI
;	COMDAT ?get_vertex_shader@pecker_shader_program_glsles1@pecker_sdk@@QBEIXZ
_TEXT	SEGMENT
_this$ = -8						; size = 4
?get_vertex_shader@pecker_shader_program_glsles1@pecker_sdk@@QBEIXZ PROC ; pecker_sdk::pecker_shader_program_glsles1::get_vertex_shader, COMDAT
; _this$ = ecx

; 291  : {

	push	ebp
	mov	ebp, esp
	sub	esp, 204				; 000000ccH
	push	ebx
	push	esi
	push	edi
	push	ecx
	lea	edi, DWORD PTR [ebp-204]
	mov	ecx, 51					; 00000033H
	mov	eax, -858993460				; ccccccccH
	rep stosd
	pop	ecx
	mov	DWORD PTR _this$[ebp], ecx

; 292  : 	return _M_vertex_shader;

	mov	eax, DWORD PTR _this$[ebp]
	mov	eax, DWORD PTR [eax+16]

; 293  : }

	pop	edi
	pop	esi
	pop	ebx
	mov	esp, ebp
	pop	ebp
	ret	0
?get_vertex_shader@pecker_shader_program_glsles1@pecker_sdk@@QBEIXZ ENDP ; pecker_sdk::pecker_shader_program_glsles1::get_vertex_shader
_TEXT	ENDS
PUBLIC	?get_using_program@pecker_shader_program_glsles1@pecker_sdk@@SAPAV12@XZ ; pecker_sdk::pecker_shader_program_glsles1::get_using_program
; Function compile flags: /Odtp /RTCsu /ZI
;	COMDAT ?get_using_program@pecker_shader_program_glsles1@pecker_sdk@@SAPAV12@XZ
_TEXT	SEGMENT
?get_using_program@pecker_shader_program_glsles1@pecker_sdk@@SAPAV12@XZ PROC ; pecker_sdk::pecker_shader_program_glsles1::get_using_program, COMDAT

; 297  : {

	push	ebp
	mov	ebp, esp
	sub	esp, 192				; 000000c0H
	push	ebx
	push	esi
	push	edi
	lea	edi, DWORD PTR [ebp-192]
	mov	ecx, 48					; 00000030H
	mov	eax, -858993460				; ccccccccH
	rep stosd

; 298  : 	return g_pusing_shader_program;

	mov	eax, DWORD PTR _g_pusing_shader_program

; 299  : }

	pop	edi
	pop	esi
	pop	ebx
	mov	esp, ebp
	pop	ebp
	ret	0
?get_using_program@pecker_shader_program_glsles1@pecker_sdk@@SAPAV12@XZ ENDP ; pecker_sdk::pecker_shader_program_glsles1::get_using_program
_TEXT	ENDS
PUBLIC	?set_uniform_1float@pecker_shader_program_glsles1@pecker_sdk@@SAJIM@Z ; pecker_sdk::pecker_shader_program_glsles1::set_uniform_1float
EXTRN	__imp__glUniform1f@8:PROC
EXTRN	__fltused:DWORD
; Function compile flags: /Odtp /RTCsu /ZI
;	COMDAT ?set_uniform_1float@pecker_shader_program_glsles1@pecker_sdk@@SAJIM@Z
_TEXT	SEGMENT
_uniform_index$ = 8					; size = 4
_x$ = 12						; size = 4
?set_uniform_1float@pecker_shader_program_glsles1@pecker_sdk@@SAJIM@Z PROC ; pecker_sdk::pecker_shader_program_glsles1::set_uniform_1float, COMDAT

; 301  : {

	push	ebp
	mov	ebp, esp
	sub	esp, 192				; 000000c0H
	push	ebx
	push	esi
	push	edi
	lea	edi, DWORD PTR [ebp-192]
	mov	ecx, 48					; 00000030H
	mov	eax, -858993460				; ccccccccH
	rep stosd

; 302  : 	::glUniform1f(uniform_index,x);

	mov	esi, esp
	push	ecx
	fld	DWORD PTR _x$[ebp]
	fstp	DWORD PTR [esp]
	mov	eax, DWORD PTR _uniform_index$[ebp]
	push	eax
	call	DWORD PTR __imp__glUniform1f@8
	cmp	esi, esp
	call	__RTC_CheckEsp

; 303  : 	return pecker_opengles_v2_object::get_last_error_code();

	call	?get_last_error_code@pecker_opengles_v2_object@pecker_sdk@@SAJXZ ; pecker_sdk::pecker_opengles_v2_object::get_last_error_code

; 304  : }

	pop	edi
	pop	esi
	pop	ebx
	add	esp, 192				; 000000c0H
	cmp	ebp, esp
	call	__RTC_CheckEsp
	mov	esp, ebp
	pop	ebp
	ret	0
?set_uniform_1float@pecker_shader_program_glsles1@pecker_sdk@@SAJIM@Z ENDP ; pecker_sdk::pecker_shader_program_glsles1::set_uniform_1float
_TEXT	ENDS
PUBLIC	?set_uniform_2float@pecker_shader_program_glsles1@pecker_sdk@@SAJIMM@Z ; pecker_sdk::pecker_shader_program_glsles1::set_uniform_2float
EXTRN	__imp__glUniform2f@12:PROC
; Function compile flags: /Odtp /RTCsu /ZI
;	COMDAT ?set_uniform_2float@pecker_shader_program_glsles1@pecker_sdk@@SAJIMM@Z
_TEXT	SEGMENT
_uniform_index$ = 8					; size = 4
_x$ = 12						; size = 4
_y$ = 16						; size = 4
?set_uniform_2float@pecker_shader_program_glsles1@pecker_sdk@@SAJIMM@Z PROC ; pecker_sdk::pecker_shader_program_glsles1::set_uniform_2float, COMDAT

; 306  : {

	push	ebp
	mov	ebp, esp
	sub	esp, 192				; 000000c0H
	push	ebx
	push	esi
	push	edi
	lea	edi, DWORD PTR [ebp-192]
	mov	ecx, 48					; 00000030H
	mov	eax, -858993460				; ccccccccH
	rep stosd

; 307  : 	::glUniform2f(uniform_index,x,y);

	mov	esi, esp
	push	ecx
	fld	DWORD PTR _y$[ebp]
	fstp	DWORD PTR [esp]
	push	ecx
	fld	DWORD PTR _x$[ebp]
	fstp	DWORD PTR [esp]
	mov	eax, DWORD PTR _uniform_index$[ebp]
	push	eax
	call	DWORD PTR __imp__glUniform2f@12
	cmp	esi, esp
	call	__RTC_CheckEsp

; 308  : 	return pecker_opengles_v2_object::get_last_error_code();

	call	?get_last_error_code@pecker_opengles_v2_object@pecker_sdk@@SAJXZ ; pecker_sdk::pecker_opengles_v2_object::get_last_error_code

; 309  : }

	pop	edi
	pop	esi
	pop	ebx
	add	esp, 192				; 000000c0H
	cmp	ebp, esp
	call	__RTC_CheckEsp
	mov	esp, ebp
	pop	ebp
	ret	0
?set_uniform_2float@pecker_shader_program_glsles1@pecker_sdk@@SAJIMM@Z ENDP ; pecker_sdk::pecker_shader_program_glsles1::set_uniform_2float
_TEXT	ENDS
PUBLIC	?set_uniform_3float@pecker_shader_program_glsles1@pecker_sdk@@SAJIMMM@Z ; pecker_sdk::pecker_shader_program_glsles1::set_uniform_3float
EXTRN	__imp__glUniform3f@16:PROC
; Function compile flags: /Odtp /RTCsu /ZI
;	COMDAT ?set_uniform_3float@pecker_shader_program_glsles1@pecker_sdk@@SAJIMMM@Z
_TEXT	SEGMENT
_uniform_index$ = 8					; size = 4
_x$ = 12						; size = 4
_y$ = 16						; size = 4
_z$ = 20						; size = 4
?set_uniform_3float@pecker_shader_program_glsles1@pecker_sdk@@SAJIMMM@Z PROC ; pecker_sdk::pecker_shader_program_glsles1::set_uniform_3float, COMDAT

; 311  : {

	push	ebp
	mov	ebp, esp
	sub	esp, 192				; 000000c0H
	push	ebx
	push	esi
	push	edi
	lea	edi, DWORD PTR [ebp-192]
	mov	ecx, 48					; 00000030H
	mov	eax, -858993460				; ccccccccH
	rep stosd

; 312  : 	::glUniform3f(uniform_index,x,y,z);

	mov	esi, esp
	push	ecx
	fld	DWORD PTR _z$[ebp]
	fstp	DWORD PTR [esp]
	push	ecx
	fld	DWORD PTR _y$[ebp]
	fstp	DWORD PTR [esp]
	push	ecx
	fld	DWORD PTR _x$[ebp]
	fstp	DWORD PTR [esp]
	mov	eax, DWORD PTR _uniform_index$[ebp]
	push	eax
	call	DWORD PTR __imp__glUniform3f@16
	cmp	esi, esp
	call	__RTC_CheckEsp

; 313  : 	return pecker_opengles_v2_object::get_last_error_code();

	call	?get_last_error_code@pecker_opengles_v2_object@pecker_sdk@@SAJXZ ; pecker_sdk::pecker_opengles_v2_object::get_last_error_code

; 314  : }

	pop	edi
	pop	esi
	pop	ebx
	add	esp, 192				; 000000c0H
	cmp	ebp, esp
	call	__RTC_CheckEsp
	mov	esp, ebp
	pop	ebp
	ret	0
?set_uniform_3float@pecker_shader_program_glsles1@pecker_sdk@@SAJIMMM@Z ENDP ; pecker_sdk::pecker_shader_program_glsles1::set_uniform_3float
_TEXT	ENDS
PUBLIC	?set_uniform_4float@pecker_shader_program_glsles1@pecker_sdk@@SAJIMMMM@Z ; pecker_sdk::pecker_shader_program_glsles1::set_uniform_4float
EXTRN	__imp__glUniform4f@20:PROC
; Function compile flags: /Odtp /RTCsu /ZI
;	COMDAT ?set_uniform_4float@pecker_shader_program_glsles1@pecker_sdk@@SAJIMMMM@Z
_TEXT	SEGMENT
_uniform_index$ = 8					; size = 4
_x$ = 12						; size = 4
_y$ = 16						; size = 4
_z$ = 20						; size = 4
_w$ = 24						; size = 4
?set_uniform_4float@pecker_shader_program_glsles1@pecker_sdk@@SAJIMMMM@Z PROC ; pecker_sdk::pecker_shader_program_glsles1::set_uniform_4float, COMDAT

; 316  : {

	push	ebp
	mov	ebp, esp
	sub	esp, 192				; 000000c0H
	push	ebx
	push	esi
	push	edi
	lea	edi, DWORD PTR [ebp-192]
	mov	ecx, 48					; 00000030H
	mov	eax, -858993460				; ccccccccH
	rep stosd

; 317  : 	::glUniform4f(uniform_index,x,y,z,w);

	mov	esi, esp
	push	ecx
	fld	DWORD PTR _w$[ebp]
	fstp	DWORD PTR [esp]
	push	ecx
	fld	DWORD PTR _z$[ebp]
	fstp	DWORD PTR [esp]
	push	ecx
	fld	DWORD PTR _y$[ebp]
	fstp	DWORD PTR [esp]
	push	ecx
	fld	DWORD PTR _x$[ebp]
	fstp	DWORD PTR [esp]
	mov	eax, DWORD PTR _uniform_index$[ebp]
	push	eax
	call	DWORD PTR __imp__glUniform4f@20
	cmp	esi, esp
	call	__RTC_CheckEsp

; 318  : 	return pecker_opengles_v2_object::get_last_error_code();

	call	?get_last_error_code@pecker_opengles_v2_object@pecker_sdk@@SAJXZ ; pecker_sdk::pecker_opengles_v2_object::get_last_error_code

; 319  : }

	pop	edi
	pop	esi
	pop	ebx
	add	esp, 192				; 000000c0H
	cmp	ebp, esp
	call	__RTC_CheckEsp
	mov	esp, ebp
	pop	ebp
	ret	0
?set_uniform_4float@pecker_shader_program_glsles1@pecker_sdk@@SAJIMMMM@Z ENDP ; pecker_sdk::pecker_shader_program_glsles1::set_uniform_4float
_TEXT	ENDS
PUBLIC	?set_uniform_2float@pecker_shader_program_glsles1@pecker_sdk@@SAJIABUpecker_vector2@2@@Z ; pecker_sdk::pecker_shader_program_glsles1::set_uniform_2float
; Function compile flags: /Odtp /RTCsu /ZI
;	COMDAT ?set_uniform_2float@pecker_shader_program_glsles1@pecker_sdk@@SAJIABUpecker_vector2@2@@Z
_TEXT	SEGMENT
_uniform_index$ = 8					; size = 4
_vector2$ = 12						; size = 4
?set_uniform_2float@pecker_shader_program_glsles1@pecker_sdk@@SAJIABUpecker_vector2@2@@Z PROC ; pecker_sdk::pecker_shader_program_glsles1::set_uniform_2float, COMDAT

; 322  : {

	push	ebp
	mov	ebp, esp
	sub	esp, 192				; 000000c0H
	push	ebx
	push	esi
	push	edi
	lea	edi, DWORD PTR [ebp-192]
	mov	ecx, 48					; 00000030H
	mov	eax, -858993460				; ccccccccH
	rep stosd

; 323  : 	::glUniform2f(uniform_index,vector2.x,vector2.y);

	mov	esi, esp
	mov	eax, DWORD PTR _vector2$[ebp]
	push	ecx
	fld	DWORD PTR [eax+4]
	fstp	DWORD PTR [esp]
	mov	ecx, DWORD PTR _vector2$[ebp]
	push	ecx
	fld	DWORD PTR [ecx]
	fstp	DWORD PTR [esp]
	mov	edx, DWORD PTR _uniform_index$[ebp]
	push	edx
	call	DWORD PTR __imp__glUniform2f@12
	cmp	esi, esp
	call	__RTC_CheckEsp

; 324  : 	return pecker_opengles_v2_object::get_last_error_code();

	call	?get_last_error_code@pecker_opengles_v2_object@pecker_sdk@@SAJXZ ; pecker_sdk::pecker_opengles_v2_object::get_last_error_code

; 325  : }

	pop	edi
	pop	esi
	pop	ebx
	add	esp, 192				; 000000c0H
	cmp	ebp, esp
	call	__RTC_CheckEsp
	mov	esp, ebp
	pop	ebp
	ret	0
?set_uniform_2float@pecker_shader_program_glsles1@pecker_sdk@@SAJIABUpecker_vector2@2@@Z ENDP ; pecker_sdk::pecker_shader_program_glsles1::set_uniform_2float
_TEXT	ENDS
PUBLIC	?set_uniform_3float@pecker_shader_program_glsles1@pecker_sdk@@SAJIABUpecker_vector3@2@@Z ; pecker_sdk::pecker_shader_program_glsles1::set_uniform_3float
; Function compile flags: /Odtp /RTCsu /ZI
;	COMDAT ?set_uniform_3float@pecker_shader_program_glsles1@pecker_sdk@@SAJIABUpecker_vector3@2@@Z
_TEXT	SEGMENT
_uniform_index$ = 8					; size = 4
_vector3$ = 12						; size = 4
?set_uniform_3float@pecker_shader_program_glsles1@pecker_sdk@@SAJIABUpecker_vector3@2@@Z PROC ; pecker_sdk::pecker_shader_program_glsles1::set_uniform_3float, COMDAT

; 327  : {

	push	ebp
	mov	ebp, esp
	sub	esp, 192				; 000000c0H
	push	ebx
	push	esi
	push	edi
	lea	edi, DWORD PTR [ebp-192]
	mov	ecx, 48					; 00000030H
	mov	eax, -858993460				; ccccccccH
	rep stosd

; 328  : 	::glUniform3f(uniform_index,vector3.x,vector3.y,vector3.z);

	mov	esi, esp
	mov	eax, DWORD PTR _vector3$[ebp]
	push	ecx
	fld	DWORD PTR [eax+8]
	fstp	DWORD PTR [esp]
	mov	ecx, DWORD PTR _vector3$[ebp]
	push	ecx
	fld	DWORD PTR [ecx+4]
	fstp	DWORD PTR [esp]
	mov	edx, DWORD PTR _vector3$[ebp]
	push	ecx
	fld	DWORD PTR [edx]
	fstp	DWORD PTR [esp]
	mov	eax, DWORD PTR _uniform_index$[ebp]
	push	eax
	call	DWORD PTR __imp__glUniform3f@16
	cmp	esi, esp
	call	__RTC_CheckEsp

; 329  : 	return pecker_opengles_v2_object::get_last_error_code();

	call	?get_last_error_code@pecker_opengles_v2_object@pecker_sdk@@SAJXZ ; pecker_sdk::pecker_opengles_v2_object::get_last_error_code

; 330  : }

	pop	edi
	pop	esi
	pop	ebx
	add	esp, 192				; 000000c0H
	cmp	ebp, esp
	call	__RTC_CheckEsp
	mov	esp, ebp
	pop	ebp
	ret	0
?set_uniform_3float@pecker_shader_program_glsles1@pecker_sdk@@SAJIABUpecker_vector3@2@@Z ENDP ; pecker_sdk::pecker_shader_program_glsles1::set_uniform_3float
_TEXT	ENDS
PUBLIC	?set_uniform_4float@pecker_shader_program_glsles1@pecker_sdk@@SAJIABUpecker_vector4@2@@Z ; pecker_sdk::pecker_shader_program_glsles1::set_uniform_4float
; Function compile flags: /Odtp /RTCsu /ZI
;	COMDAT ?set_uniform_4float@pecker_shader_program_glsles1@pecker_sdk@@SAJIABUpecker_vector4@2@@Z
_TEXT	SEGMENT
_uniform_index$ = 8					; size = 4
_vector4$ = 12						; size = 4
?set_uniform_4float@pecker_shader_program_glsles1@pecker_sdk@@SAJIABUpecker_vector4@2@@Z PROC ; pecker_sdk::pecker_shader_program_glsles1::set_uniform_4float, COMDAT

; 332  : {

	push	ebp
	mov	ebp, esp
	sub	esp, 192				; 000000c0H
	push	ebx
	push	esi
	push	edi
	lea	edi, DWORD PTR [ebp-192]
	mov	ecx, 48					; 00000030H
	mov	eax, -858993460				; ccccccccH
	rep stosd

; 333  : 	::glUniform4f(uniform_index,vector4.x,vector4.y,vector4.z,vector4.w);

	mov	esi, esp
	mov	eax, DWORD PTR _vector4$[ebp]
	push	ecx
	fld	DWORD PTR [eax+12]
	fstp	DWORD PTR [esp]
	mov	ecx, DWORD PTR _vector4$[ebp]
	push	ecx
	fld	DWORD PTR [ecx+8]
	fstp	DWORD PTR [esp]
	mov	edx, DWORD PTR _vector4$[ebp]
	push	ecx
	fld	DWORD PTR [edx+4]
	fstp	DWORD PTR [esp]
	mov	eax, DWORD PTR _vector4$[ebp]
	push	ecx
	fld	DWORD PTR [eax]
	fstp	DWORD PTR [esp]
	mov	ecx, DWORD PTR _uniform_index$[ebp]
	push	ecx
	call	DWORD PTR __imp__glUniform4f@20
	cmp	esi, esp
	call	__RTC_CheckEsp

; 334  : 	return pecker_opengles_v2_object::get_last_error_code();

	call	?get_last_error_code@pecker_opengles_v2_object@pecker_sdk@@SAJXZ ; pecker_sdk::pecker_opengles_v2_object::get_last_error_code

; 335  : }

	pop	edi
	pop	esi
	pop	ebx
	add	esp, 192				; 000000c0H
	cmp	ebp, esp
	call	__RTC_CheckEsp
	mov	esp, ebp
	pop	ebp
	ret	0
?set_uniform_4float@pecker_shader_program_glsles1@pecker_sdk@@SAJIABUpecker_vector4@2@@Z ENDP ; pecker_sdk::pecker_shader_program_glsles1::set_uniform_4float
_TEXT	ENDS
PUBLIC	?set_uniform_1int@pecker_shader_program_glsles1@pecker_sdk@@SAJIH@Z ; pecker_sdk::pecker_shader_program_glsles1::set_uniform_1int
EXTRN	__imp__glUniform1i@8:PROC
; Function compile flags: /Odtp /RTCsu /ZI
;	COMDAT ?set_uniform_1int@pecker_shader_program_glsles1@pecker_sdk@@SAJIH@Z
_TEXT	SEGMENT
_uniform_index$ = 8					; size = 4
_x$ = 12						; size = 4
?set_uniform_1int@pecker_shader_program_glsles1@pecker_sdk@@SAJIH@Z PROC ; pecker_sdk::pecker_shader_program_glsles1::set_uniform_1int, COMDAT

; 338  : {

	push	ebp
	mov	ebp, esp
	sub	esp, 192				; 000000c0H
	push	ebx
	push	esi
	push	edi
	lea	edi, DWORD PTR [ebp-192]
	mov	ecx, 48					; 00000030H
	mov	eax, -858993460				; ccccccccH
	rep stosd

; 339  : 	::glUniform1i(uniform_index,x);

	mov	esi, esp
	mov	eax, DWORD PTR _x$[ebp]
	push	eax
	mov	ecx, DWORD PTR _uniform_index$[ebp]
	push	ecx
	call	DWORD PTR __imp__glUniform1i@8
	cmp	esi, esp
	call	__RTC_CheckEsp

; 340  : 	return pecker_opengles_v2_object::get_last_error_code();

	call	?get_last_error_code@pecker_opengles_v2_object@pecker_sdk@@SAJXZ ; pecker_sdk::pecker_opengles_v2_object::get_last_error_code

; 341  : }

	pop	edi
	pop	esi
	pop	ebx
	add	esp, 192				; 000000c0H
	cmp	ebp, esp
	call	__RTC_CheckEsp
	mov	esp, ebp
	pop	ebp
	ret	0
?set_uniform_1int@pecker_shader_program_glsles1@pecker_sdk@@SAJIH@Z ENDP ; pecker_sdk::pecker_shader_program_glsles1::set_uniform_1int
_TEXT	ENDS
PUBLIC	?set_uniform_2int@pecker_shader_program_glsles1@pecker_sdk@@SAJIHH@Z ; pecker_sdk::pecker_shader_program_glsles1::set_uniform_2int
EXTRN	__imp__glUniform2i@12:PROC
; Function compile flags: /Odtp /RTCsu /ZI
;	COMDAT ?set_uniform_2int@pecker_shader_program_glsles1@pecker_sdk@@SAJIHH@Z
_TEXT	SEGMENT
_uniform_index$ = 8					; size = 4
_x$ = 12						; size = 4
_y$ = 16						; size = 4
?set_uniform_2int@pecker_shader_program_glsles1@pecker_sdk@@SAJIHH@Z PROC ; pecker_sdk::pecker_shader_program_glsles1::set_uniform_2int, COMDAT

; 343  : {

	push	ebp
	mov	ebp, esp
	sub	esp, 192				; 000000c0H
	push	ebx
	push	esi
	push	edi
	lea	edi, DWORD PTR [ebp-192]
	mov	ecx, 48					; 00000030H
	mov	eax, -858993460				; ccccccccH
	rep stosd

; 344  : 	::glUniform2i(uniform_index,x,y);

	mov	esi, esp
	mov	eax, DWORD PTR _y$[ebp]
	push	eax
	mov	ecx, DWORD PTR _x$[ebp]
	push	ecx
	mov	edx, DWORD PTR _uniform_index$[ebp]
	push	edx
	call	DWORD PTR __imp__glUniform2i@12
	cmp	esi, esp
	call	__RTC_CheckEsp

; 345  : 	return pecker_opengles_v2_object::get_last_error_code();

	call	?get_last_error_code@pecker_opengles_v2_object@pecker_sdk@@SAJXZ ; pecker_sdk::pecker_opengles_v2_object::get_last_error_code

; 346  : }

	pop	edi
	pop	esi
	pop	ebx
	add	esp, 192				; 000000c0H
	cmp	ebp, esp
	call	__RTC_CheckEsp
	mov	esp, ebp
	pop	ebp
	ret	0
?set_uniform_2int@pecker_shader_program_glsles1@pecker_sdk@@SAJIHH@Z ENDP ; pecker_sdk::pecker_shader_program_glsles1::set_uniform_2int
_TEXT	ENDS
PUBLIC	?set_uniform_3int@pecker_shader_program_glsles1@pecker_sdk@@SAJIHHH@Z ; pecker_sdk::pecker_shader_program_glsles1::set_uniform_3int
EXTRN	__imp__glUniform3i@16:PROC
; Function compile flags: /Odtp /RTCsu /ZI
;	COMDAT ?set_uniform_3int@pecker_shader_program_glsles1@pecker_sdk@@SAJIHHH@Z
_TEXT	SEGMENT
_uniform_index$ = 8					; size = 4
_x$ = 12						; size = 4
_y$ = 16						; size = 4
_z$ = 20						; size = 4
?set_uniform_3int@pecker_shader_program_glsles1@pecker_sdk@@SAJIHHH@Z PROC ; pecker_sdk::pecker_shader_program_glsles1::set_uniform_3int, COMDAT

; 348  : {

	push	ebp
	mov	ebp, esp
	sub	esp, 192				; 000000c0H
	push	ebx
	push	esi
	push	edi
	lea	edi, DWORD PTR [ebp-192]
	mov	ecx, 48					; 00000030H
	mov	eax, -858993460				; ccccccccH
	rep stosd

; 349  : 	::glUniform3i(uniform_index,x,y,z);

	mov	esi, esp
	mov	eax, DWORD PTR _z$[ebp]
	push	eax
	mov	ecx, DWORD PTR _y$[ebp]
	push	ecx
	mov	edx, DWORD PTR _x$[ebp]
	push	edx
	mov	eax, DWORD PTR _uniform_index$[ebp]
	push	eax
	call	DWORD PTR __imp__glUniform3i@16
	cmp	esi, esp
	call	__RTC_CheckEsp

; 350  : 	return pecker_opengles_v2_object::get_last_error_code();

	call	?get_last_error_code@pecker_opengles_v2_object@pecker_sdk@@SAJXZ ; pecker_sdk::pecker_opengles_v2_object::get_last_error_code

; 351  : }

	pop	edi
	pop	esi
	pop	ebx
	add	esp, 192				; 000000c0H
	cmp	ebp, esp
	call	__RTC_CheckEsp
	mov	esp, ebp
	pop	ebp
	ret	0
?set_uniform_3int@pecker_shader_program_glsles1@pecker_sdk@@SAJIHHH@Z ENDP ; pecker_sdk::pecker_shader_program_glsles1::set_uniform_3int
_TEXT	ENDS
PUBLIC	?set_uniform_4int@pecker_shader_program_glsles1@pecker_sdk@@SAJIHHHH@Z ; pecker_sdk::pecker_shader_program_glsles1::set_uniform_4int
EXTRN	__imp__glUniform4i@20:PROC
; Function compile flags: /Odtp /RTCsu /ZI
;	COMDAT ?set_uniform_4int@pecker_shader_program_glsles1@pecker_sdk@@SAJIHHHH@Z
_TEXT	SEGMENT
_uniform_index$ = 8					; size = 4
_x$ = 12						; size = 4
_y$ = 16						; size = 4
_z$ = 20						; size = 4
_w$ = 24						; size = 4
?set_uniform_4int@pecker_shader_program_glsles1@pecker_sdk@@SAJIHHHH@Z PROC ; pecker_sdk::pecker_shader_program_glsles1::set_uniform_4int, COMDAT

; 353  : {

	push	ebp
	mov	ebp, esp
	sub	esp, 192				; 000000c0H
	push	ebx
	push	esi
	push	edi
	lea	edi, DWORD PTR [ebp-192]
	mov	ecx, 48					; 00000030H
	mov	eax, -858993460				; ccccccccH
	rep stosd

; 354  : 	::glUniform4i(uniform_index,x,y,z,w);

	mov	esi, esp
	mov	eax, DWORD PTR _w$[ebp]
	push	eax
	mov	ecx, DWORD PTR _z$[ebp]
	push	ecx
	mov	edx, DWORD PTR _y$[ebp]
	push	edx
	mov	eax, DWORD PTR _x$[ebp]
	push	eax
	mov	ecx, DWORD PTR _uniform_index$[ebp]
	push	ecx
	call	DWORD PTR __imp__glUniform4i@20
	cmp	esi, esp
	call	__RTC_CheckEsp

; 355  : 	return pecker_opengles_v2_object::get_last_error_code();

	call	?get_last_error_code@pecker_opengles_v2_object@pecker_sdk@@SAJXZ ; pecker_sdk::pecker_opengles_v2_object::get_last_error_code

; 356  : }

	pop	edi
	pop	esi
	pop	ebx
	add	esp, 192				; 000000c0H
	cmp	ebp, esp
	call	__RTC_CheckEsp
	mov	esp, ebp
	pop	ebp
	ret	0
?set_uniform_4int@pecker_shader_program_glsles1@pecker_sdk@@SAJIHHHH@Z ENDP ; pecker_sdk::pecker_shader_program_glsles1::set_uniform_4int
_TEXT	ENDS
PUBLIC	?set_uniform_vector1_array@pecker_shader_program_glsles1@pecker_sdk@@SAJIHPBM@Z ; pecker_sdk::pecker_shader_program_glsles1::set_uniform_vector1_array
EXTRN	__imp__glUniform1fv@12:PROC
; Function compile flags: /Odtp /RTCsu /ZI
;	COMDAT ?set_uniform_vector1_array@pecker_shader_program_glsles1@pecker_sdk@@SAJIHPBM@Z
_TEXT	SEGMENT
_uniform_index$ = 8					; size = 4
_vector_count$ = 12					; size = 4
_vector1_array$ = 16					; size = 4
?set_uniform_vector1_array@pecker_shader_program_glsles1@pecker_sdk@@SAJIHPBM@Z PROC ; pecker_sdk::pecker_shader_program_glsles1::set_uniform_vector1_array, COMDAT

; 359  : {

	push	ebp
	mov	ebp, esp
	sub	esp, 192				; 000000c0H
	push	ebx
	push	esi
	push	edi
	lea	edi, DWORD PTR [ebp-192]
	mov	ecx, 48					; 00000030H
	mov	eax, -858993460				; ccccccccH
	rep stosd

; 360  : 	::glUniform1fv(uniform_index,vector_count,vector1_array);

	mov	esi, esp
	mov	eax, DWORD PTR _vector1_array$[ebp]
	push	eax
	mov	ecx, DWORD PTR _vector_count$[ebp]
	push	ecx
	mov	edx, DWORD PTR _uniform_index$[ebp]
	push	edx
	call	DWORD PTR __imp__glUniform1fv@12
	cmp	esi, esp
	call	__RTC_CheckEsp

; 361  : 	return pecker_opengles_v2_object::get_last_error_code();

	call	?get_last_error_code@pecker_opengles_v2_object@pecker_sdk@@SAJXZ ; pecker_sdk::pecker_opengles_v2_object::get_last_error_code

; 362  : }

	pop	edi
	pop	esi
	pop	ebx
	add	esp, 192				; 000000c0H
	cmp	ebp, esp
	call	__RTC_CheckEsp
	mov	esp, ebp
	pop	ebp
	ret	0
?set_uniform_vector1_array@pecker_shader_program_glsles1@pecker_sdk@@SAJIHPBM@Z ENDP ; pecker_sdk::pecker_shader_program_glsles1::set_uniform_vector1_array
_TEXT	ENDS
PUBLIC	?set_uniform_vector2_array@pecker_shader_program_glsles1@pecker_sdk@@SAJIHPBUpecker_vector2@2@@Z ; pecker_sdk::pecker_shader_program_glsles1::set_uniform_vector2_array
EXTRN	__imp__glUniform2fv@12:PROC
; Function compile flags: /Odtp /RTCsu /ZI
;	COMDAT ?set_uniform_vector2_array@pecker_shader_program_glsles1@pecker_sdk@@SAJIHPBUpecker_vector2@2@@Z
_TEXT	SEGMENT
_uniform_index$ = 8					; size = 4
_vector_count$ = 12					; size = 4
_vector2_array$ = 16					; size = 4
?set_uniform_vector2_array@pecker_shader_program_glsles1@pecker_sdk@@SAJIHPBUpecker_vector2@2@@Z PROC ; pecker_sdk::pecker_shader_program_glsles1::set_uniform_vector2_array, COMDAT

; 364  : {

	push	ebp
	mov	ebp, esp
	sub	esp, 192				; 000000c0H
	push	ebx
	push	esi
	push	edi
	lea	edi, DWORD PTR [ebp-192]
	mov	ecx, 48					; 00000030H
	mov	eax, -858993460				; ccccccccH
	rep stosd

; 365  : 	::glUniform2fv(uniform_index,vector_count,(const GLfloat*)vector2_array);

	mov	esi, esp
	mov	eax, DWORD PTR _vector2_array$[ebp]
	push	eax
	mov	ecx, DWORD PTR _vector_count$[ebp]
	push	ecx
	mov	edx, DWORD PTR _uniform_index$[ebp]
	push	edx
	call	DWORD PTR __imp__glUniform2fv@12
	cmp	esi, esp
	call	__RTC_CheckEsp

; 366  : 	return pecker_opengles_v2_object::get_last_error_code();

	call	?get_last_error_code@pecker_opengles_v2_object@pecker_sdk@@SAJXZ ; pecker_sdk::pecker_opengles_v2_object::get_last_error_code

; 367  : }

	pop	edi
	pop	esi
	pop	ebx
	add	esp, 192				; 000000c0H
	cmp	ebp, esp
	call	__RTC_CheckEsp
	mov	esp, ebp
	pop	ebp
	ret	0
?set_uniform_vector2_array@pecker_shader_program_glsles1@pecker_sdk@@SAJIHPBUpecker_vector2@2@@Z ENDP ; pecker_sdk::pecker_shader_program_glsles1::set_uniform_vector2_array
_TEXT	ENDS
PUBLIC	?set_uniform_vector3_array@pecker_shader_program_glsles1@pecker_sdk@@SAJIHPBUpecker_vector3@2@@Z ; pecker_sdk::pecker_shader_program_glsles1::set_uniform_vector3_array
EXTRN	__imp__glUniform3fv@12:PROC
; Function compile flags: /Odtp /RTCsu /ZI
;	COMDAT ?set_uniform_vector3_array@pecker_shader_program_glsles1@pecker_sdk@@SAJIHPBUpecker_vector3@2@@Z
_TEXT	SEGMENT
_uniform_index$ = 8					; size = 4
_vector_count$ = 12					; size = 4
_vector3_array$ = 16					; size = 4
?set_uniform_vector3_array@pecker_shader_program_glsles1@pecker_sdk@@SAJIHPBUpecker_vector3@2@@Z PROC ; pecker_sdk::pecker_shader_program_glsles1::set_uniform_vector3_array, COMDAT

; 369  : {

	push	ebp
	mov	ebp, esp
	sub	esp, 192				; 000000c0H
	push	ebx
	push	esi
	push	edi
	lea	edi, DWORD PTR [ebp-192]
	mov	ecx, 48					; 00000030H
	mov	eax, -858993460				; ccccccccH
	rep stosd

; 370  : 	::glUniform3fv(uniform_index,vector_count,(const GLfloat*)vector3_array);

	mov	esi, esp
	mov	eax, DWORD PTR _vector3_array$[ebp]
	push	eax
	mov	ecx, DWORD PTR _vector_count$[ebp]
	push	ecx
	mov	edx, DWORD PTR _uniform_index$[ebp]
	push	edx
	call	DWORD PTR __imp__glUniform3fv@12
	cmp	esi, esp
	call	__RTC_CheckEsp

; 371  : 	return pecker_opengles_v2_object::get_last_error_code();

	call	?get_last_error_code@pecker_opengles_v2_object@pecker_sdk@@SAJXZ ; pecker_sdk::pecker_opengles_v2_object::get_last_error_code

; 372  : }

	pop	edi
	pop	esi
	pop	ebx
	add	esp, 192				; 000000c0H
	cmp	ebp, esp
	call	__RTC_CheckEsp
	mov	esp, ebp
	pop	ebp
	ret	0
?set_uniform_vector3_array@pecker_shader_program_glsles1@pecker_sdk@@SAJIHPBUpecker_vector3@2@@Z ENDP ; pecker_sdk::pecker_shader_program_glsles1::set_uniform_vector3_array
_TEXT	ENDS
PUBLIC	?set_uniform_vector4_array@pecker_shader_program_glsles1@pecker_sdk@@SAJIHPBUpecker_vector4@2@@Z ; pecker_sdk::pecker_shader_program_glsles1::set_uniform_vector4_array
EXTRN	__imp__glUniform4fv@12:PROC
; Function compile flags: /Odtp /RTCsu /ZI
;	COMDAT ?set_uniform_vector4_array@pecker_shader_program_glsles1@pecker_sdk@@SAJIHPBUpecker_vector4@2@@Z
_TEXT	SEGMENT
_uniform_index$ = 8					; size = 4
_vector_count$ = 12					; size = 4
_vector4_array$ = 16					; size = 4
?set_uniform_vector4_array@pecker_shader_program_glsles1@pecker_sdk@@SAJIHPBUpecker_vector4@2@@Z PROC ; pecker_sdk::pecker_shader_program_glsles1::set_uniform_vector4_array, COMDAT

; 374  : {

	push	ebp
	mov	ebp, esp
	sub	esp, 192				; 000000c0H
	push	ebx
	push	esi
	push	edi
	lea	edi, DWORD PTR [ebp-192]
	mov	ecx, 48					; 00000030H
	mov	eax, -858993460				; ccccccccH
	rep stosd

; 375  : 	::glUniform4fv(uniform_index,vector_count,(const GLfloat*)vector4_array);

	mov	esi, esp
	mov	eax, DWORD PTR _vector4_array$[ebp]
	push	eax
	mov	ecx, DWORD PTR _vector_count$[ebp]
	push	ecx
	mov	edx, DWORD PTR _uniform_index$[ebp]
	push	edx
	call	DWORD PTR __imp__glUniform4fv@12
	cmp	esi, esp
	call	__RTC_CheckEsp

; 376  : 	return pecker_opengles_v2_object::get_last_error_code();

	call	?get_last_error_code@pecker_opengles_v2_object@pecker_sdk@@SAJXZ ; pecker_sdk::pecker_opengles_v2_object::get_last_error_code

; 377  : }

	pop	edi
	pop	esi
	pop	ebx
	add	esp, 192				; 000000c0H
	cmp	ebp, esp
	call	__RTC_CheckEsp
	mov	esp, ebp
	pop	ebp
	ret	0
?set_uniform_vector4_array@pecker_shader_program_glsles1@pecker_sdk@@SAJIHPBUpecker_vector4@2@@Z ENDP ; pecker_sdk::pecker_shader_program_glsles1::set_uniform_vector4_array
_TEXT	ENDS
PUBLIC	?set_uniform_matrix2_array@pecker_shader_program_glsles1@pecker_sdk@@SAJIHPBM@Z ; pecker_sdk::pecker_shader_program_glsles1::set_uniform_matrix2_array
EXTRN	__imp__glUniformMatrix2fv@16:PROC
; Function compile flags: /Odtp /RTCsu /ZI
;	COMDAT ?set_uniform_matrix2_array@pecker_shader_program_glsles1@pecker_sdk@@SAJIHPBM@Z
_TEXT	SEGMENT
_uniform_index$ = 8					; size = 4
_matrix_count$ = 12					; size = 4
_matrix2_array$ = 16					; size = 4
?set_uniform_matrix2_array@pecker_shader_program_glsles1@pecker_sdk@@SAJIHPBM@Z PROC ; pecker_sdk::pecker_shader_program_glsles1::set_uniform_matrix2_array, COMDAT

; 380  : {

	push	ebp
	mov	ebp, esp
	sub	esp, 192				; 000000c0H
	push	ebx
	push	esi
	push	edi
	lea	edi, DWORD PTR [ebp-192]
	mov	ecx, 48					; 00000030H
	mov	eax, -858993460				; ccccccccH
	rep stosd

; 381  : 	::glUniformMatrix2fv(uniform_index,matrix_count,GL_FALSE,matrix2_array);

	mov	esi, esp
	mov	eax, DWORD PTR _matrix2_array$[ebp]
	push	eax
	push	0
	mov	ecx, DWORD PTR _matrix_count$[ebp]
	push	ecx
	mov	edx, DWORD PTR _uniform_index$[ebp]
	push	edx
	call	DWORD PTR __imp__glUniformMatrix2fv@16
	cmp	esi, esp
	call	__RTC_CheckEsp

; 382  : 	return pecker_opengles_v2_object::get_last_error_code();

	call	?get_last_error_code@pecker_opengles_v2_object@pecker_sdk@@SAJXZ ; pecker_sdk::pecker_opengles_v2_object::get_last_error_code

; 383  : }

	pop	edi
	pop	esi
	pop	ebx
	add	esp, 192				; 000000c0H
	cmp	ebp, esp
	call	__RTC_CheckEsp
	mov	esp, ebp
	pop	ebp
	ret	0
?set_uniform_matrix2_array@pecker_shader_program_glsles1@pecker_sdk@@SAJIHPBM@Z ENDP ; pecker_sdk::pecker_shader_program_glsles1::set_uniform_matrix2_array
_TEXT	ENDS
PUBLIC	?set_uniform_matrix3_array@pecker_shader_program_glsles1@pecker_sdk@@SAJIHPBUpecker_matrix3@2@@Z ; pecker_sdk::pecker_shader_program_glsles1::set_uniform_matrix3_array
EXTRN	__imp__glUniformMatrix3fv@16:PROC
; Function compile flags: /Odtp /RTCsu /ZI
;	COMDAT ?set_uniform_matrix3_array@pecker_shader_program_glsles1@pecker_sdk@@SAJIHPBUpecker_matrix3@2@@Z
_TEXT	SEGMENT
_uniform_index$ = 8					; size = 4
_matrix_count$ = 12					; size = 4
_matrix3_array$ = 16					; size = 4
?set_uniform_matrix3_array@pecker_shader_program_glsles1@pecker_sdk@@SAJIHPBUpecker_matrix3@2@@Z PROC ; pecker_sdk::pecker_shader_program_glsles1::set_uniform_matrix3_array, COMDAT

; 385  : {

	push	ebp
	mov	ebp, esp
	sub	esp, 192				; 000000c0H
	push	ebx
	push	esi
	push	edi
	lea	edi, DWORD PTR [ebp-192]
	mov	ecx, 48					; 00000030H
	mov	eax, -858993460				; ccccccccH
	rep stosd

; 386  : 	::glUniformMatrix3fv(uniform_index,matrix_count,GL_FALSE,(const GLfloat*)matrix3_array);

	mov	esi, esp
	mov	eax, DWORD PTR _matrix3_array$[ebp]
	push	eax
	push	0
	mov	ecx, DWORD PTR _matrix_count$[ebp]
	push	ecx
	mov	edx, DWORD PTR _uniform_index$[ebp]
	push	edx
	call	DWORD PTR __imp__glUniformMatrix3fv@16
	cmp	esi, esp
	call	__RTC_CheckEsp

; 387  : 	return pecker_opengles_v2_object::get_last_error_code();

	call	?get_last_error_code@pecker_opengles_v2_object@pecker_sdk@@SAJXZ ; pecker_sdk::pecker_opengles_v2_object::get_last_error_code

; 388  : }

	pop	edi
	pop	esi
	pop	ebx
	add	esp, 192				; 000000c0H
	cmp	ebp, esp
	call	__RTC_CheckEsp
	mov	esp, ebp
	pop	ebp
	ret	0
?set_uniform_matrix3_array@pecker_shader_program_glsles1@pecker_sdk@@SAJIHPBUpecker_matrix3@2@@Z ENDP ; pecker_sdk::pecker_shader_program_glsles1::set_uniform_matrix3_array
_TEXT	ENDS
PUBLIC	?set_uniform_matrix4_array@pecker_shader_program_glsles1@pecker_sdk@@SAJIHPBUpecker_matrix4@2@@Z ; pecker_sdk::pecker_shader_program_glsles1::set_uniform_matrix4_array
EXTRN	__imp__glUniformMatrix4fv@16:PROC
; Function compile flags: /Odtp /RTCsu /ZI
;	COMDAT ?set_uniform_matrix4_array@pecker_shader_program_glsles1@pecker_sdk@@SAJIHPBUpecker_matrix4@2@@Z
_TEXT	SEGMENT
_uniform_index$ = 8					; size = 4
_matrix_count$ = 12					; size = 4
_matrix4_array$ = 16					; size = 4
?set_uniform_matrix4_array@pecker_shader_program_glsles1@pecker_sdk@@SAJIHPBUpecker_matrix4@2@@Z PROC ; pecker_sdk::pecker_shader_program_glsles1::set_uniform_matrix4_array, COMDAT

; 390  : {

	push	ebp
	mov	ebp, esp
	sub	esp, 192				; 000000c0H
	push	ebx
	push	esi
	push	edi
	lea	edi, DWORD PTR [ebp-192]
	mov	ecx, 48					; 00000030H
	mov	eax, -858993460				; ccccccccH
	rep stosd

; 391  : 	::glUniformMatrix4fv(uniform_index,matrix_count,GL_FALSE,(const GLfloat*)matrix4_array);

	mov	esi, esp
	mov	eax, DWORD PTR _matrix4_array$[ebp]
	push	eax
	push	0
	mov	ecx, DWORD PTR _matrix_count$[ebp]
	push	ecx
	mov	edx, DWORD PTR _uniform_index$[ebp]
	push	edx
	call	DWORD PTR __imp__glUniformMatrix4fv@16
	cmp	esi, esp
	call	__RTC_CheckEsp

; 392  : 	return pecker_opengles_v2_object::get_last_error_code();

	call	?get_last_error_code@pecker_opengles_v2_object@pecker_sdk@@SAJXZ ; pecker_sdk::pecker_opengles_v2_object::get_last_error_code

; 393  : }

	pop	edi
	pop	esi
	pop	ebx
	add	esp, 192				; 000000c0H
	cmp	ebp, esp
	call	__RTC_CheckEsp
	mov	esp, ebp
	pop	ebp
	ret	0
?set_uniform_matrix4_array@pecker_shader_program_glsles1@pecker_sdk@@SAJIHPBUpecker_matrix4@2@@Z ENDP ; pecker_sdk::pecker_shader_program_glsles1::set_uniform_matrix4_array
_TEXT	ENDS
PUBLIC	?get_vertex_attribute_float_value@pecker_shader_program_glsles1@pecker_sdk@@SAJIIPAM@Z ; pecker_sdk::pecker_shader_program_glsles1::get_vertex_attribute_float_value
EXTRN	__imp__glGetVertexAttribfv@12:PROC
; Function compile flags: /Odtp /RTCsu /ZI
;	COMDAT ?get_vertex_attribute_float_value@pecker_shader_program_glsles1@pecker_sdk@@SAJIIPAM@Z
_TEXT	SEGMENT
_attribute_index$ = 8					; size = 4
_attribute_type$ = 12					; size = 4
_pfloat_value$ = 16					; size = 4
?get_vertex_attribute_float_value@pecker_shader_program_glsles1@pecker_sdk@@SAJIIPAM@Z PROC ; pecker_sdk::pecker_shader_program_glsles1::get_vertex_attribute_float_value, COMDAT

; 396  : {

	push	ebp
	mov	ebp, esp
	sub	esp, 192				; 000000c0H
	push	ebx
	push	esi
	push	edi
	lea	edi, DWORD PTR [ebp-192]
	mov	ecx, 48					; 00000030H
	mov	eax, -858993460				; ccccccccH
	rep stosd

; 397  : 	::glGetVertexAttribfv(attribute_index,attribute_type,pfloat_value);

	mov	esi, esp
	mov	eax, DWORD PTR _pfloat_value$[ebp]
	push	eax
	mov	ecx, DWORD PTR _attribute_type$[ebp]
	push	ecx
	mov	edx, DWORD PTR _attribute_index$[ebp]
	push	edx
	call	DWORD PTR __imp__glGetVertexAttribfv@12
	cmp	esi, esp
	call	__RTC_CheckEsp

; 398  : 	return pecker_opengles_v2_object::get_last_error_code();

	call	?get_last_error_code@pecker_opengles_v2_object@pecker_sdk@@SAJXZ ; pecker_sdk::pecker_opengles_v2_object::get_last_error_code

; 399  : }

	pop	edi
	pop	esi
	pop	ebx
	add	esp, 192				; 000000c0H
	cmp	ebp, esp
	call	__RTC_CheckEsp
	mov	esp, ebp
	pop	ebp
	ret	0
?get_vertex_attribute_float_value@pecker_shader_program_glsles1@pecker_sdk@@SAJIIPAM@Z ENDP ; pecker_sdk::pecker_shader_program_glsles1::get_vertex_attribute_float_value
_TEXT	ENDS
PUBLIC	?get_vertex_attribute_int_value@pecker_shader_program_glsles1@pecker_sdk@@SAJIIPAH@Z ; pecker_sdk::pecker_shader_program_glsles1::get_vertex_attribute_int_value
EXTRN	__imp__glGetVertexAttribiv@12:PROC
; Function compile flags: /Odtp /RTCsu /ZI
;	COMDAT ?get_vertex_attribute_int_value@pecker_shader_program_glsles1@pecker_sdk@@SAJIIPAH@Z
_TEXT	SEGMENT
_attribute_index$ = 8					; size = 4
_attribute_type$ = 12					; size = 4
_pint_value$ = 16					; size = 4
?get_vertex_attribute_int_value@pecker_shader_program_glsles1@pecker_sdk@@SAJIIPAH@Z PROC ; pecker_sdk::pecker_shader_program_glsles1::get_vertex_attribute_int_value, COMDAT

; 401  : {

	push	ebp
	mov	ebp, esp
	sub	esp, 192				; 000000c0H
	push	ebx
	push	esi
	push	edi
	lea	edi, DWORD PTR [ebp-192]
	mov	ecx, 48					; 00000030H
	mov	eax, -858993460				; ccccccccH
	rep stosd

; 402  : 	::glGetVertexAttribiv(attribute_index,attribute_type,pint_value);

	mov	esi, esp
	mov	eax, DWORD PTR _pint_value$[ebp]
	push	eax
	mov	ecx, DWORD PTR _attribute_type$[ebp]
	push	ecx
	mov	edx, DWORD PTR _attribute_index$[ebp]
	push	edx
	call	DWORD PTR __imp__glGetVertexAttribiv@12
	cmp	esi, esp
	call	__RTC_CheckEsp

; 403  : 	return pecker_opengles_v2_object::get_last_error_code();

	call	?get_last_error_code@pecker_opengles_v2_object@pecker_sdk@@SAJXZ ; pecker_sdk::pecker_opengles_v2_object::get_last_error_code

; 404  : }

	pop	edi
	pop	esi
	pop	ebx
	add	esp, 192				; 000000c0H
	cmp	ebp, esp
	call	__RTC_CheckEsp
	mov	esp, ebp
	pop	ebp
	ret	0
?get_vertex_attribute_int_value@pecker_shader_program_glsles1@pecker_sdk@@SAJIIPAH@Z ENDP ; pecker_sdk::pecker_shader_program_glsles1::get_vertex_attribute_int_value
_TEXT	ENDS
PUBLIC	?get_vertex_attribute_pointer_value@pecker_shader_program_glsles1@pecker_sdk@@SAJIIPAPAX@Z ; pecker_sdk::pecker_shader_program_glsles1::get_vertex_attribute_pointer_value
EXTRN	__imp__glGetVertexAttribPointerv@12:PROC
; Function compile flags: /Odtp /RTCsu /ZI
;	COMDAT ?get_vertex_attribute_pointer_value@pecker_shader_program_glsles1@pecker_sdk@@SAJIIPAPAX@Z
_TEXT	SEGMENT
_attribute_index$ = 8					; size = 4
_attribute_type$ = 12					; size = 4
_ppointer$ = 16						; size = 4
?get_vertex_attribute_pointer_value@pecker_shader_program_glsles1@pecker_sdk@@SAJIIPAPAX@Z PROC ; pecker_sdk::pecker_shader_program_glsles1::get_vertex_attribute_pointer_value, COMDAT

; 406  : {

	push	ebp
	mov	ebp, esp
	sub	esp, 192				; 000000c0H
	push	ebx
	push	esi
	push	edi
	lea	edi, DWORD PTR [ebp-192]
	mov	ecx, 48					; 00000030H
	mov	eax, -858993460				; ccccccccH
	rep stosd

; 407  : 	::glGetVertexAttribPointerv(attribute_index,attribute_type,ppointer);

	mov	esi, esp
	mov	eax, DWORD PTR _ppointer$[ebp]
	push	eax
	mov	ecx, DWORD PTR _attribute_type$[ebp]
	push	ecx
	mov	edx, DWORD PTR _attribute_index$[ebp]
	push	edx
	call	DWORD PTR __imp__glGetVertexAttribPointerv@12
	cmp	esi, esp
	call	__RTC_CheckEsp

; 408  : 	return pecker_opengles_v2_object::get_last_error_code();

	call	?get_last_error_code@pecker_opengles_v2_object@pecker_sdk@@SAJXZ ; pecker_sdk::pecker_opengles_v2_object::get_last_error_code

; 409  : }

	pop	edi
	pop	esi
	pop	ebx
	add	esp, 192				; 000000c0H
	cmp	ebp, esp
	call	__RTC_CheckEsp
	mov	esp, ebp
	pop	ebp
	ret	0
?get_vertex_attribute_pointer_value@pecker_shader_program_glsles1@pecker_sdk@@SAJIIPAPAX@Z ENDP ; pecker_sdk::pecker_shader_program_glsles1::get_vertex_attribute_pointer_value
_TEXT	ENDS
PUBLIC	?set_vertex_attribute_float1_value@pecker_shader_program_glsles1@pecker_sdk@@SAJIM@Z ; pecker_sdk::pecker_shader_program_glsles1::set_vertex_attribute_float1_value
EXTRN	__imp__glVertexAttrib1f@8:PROC
; Function compile flags: /Odtp /RTCsu /ZI
;	COMDAT ?set_vertex_attribute_float1_value@pecker_shader_program_glsles1@pecker_sdk@@SAJIM@Z
_TEXT	SEGMENT
_attribute_index$ = 8					; size = 4
_x$ = 12						; size = 4
?set_vertex_attribute_float1_value@pecker_shader_program_glsles1@pecker_sdk@@SAJIM@Z PROC ; pecker_sdk::pecker_shader_program_glsles1::set_vertex_attribute_float1_value, COMDAT

; 412  : {

	push	ebp
	mov	ebp, esp
	sub	esp, 192				; 000000c0H
	push	ebx
	push	esi
	push	edi
	lea	edi, DWORD PTR [ebp-192]
	mov	ecx, 48					; 00000030H
	mov	eax, -858993460				; ccccccccH
	rep stosd

; 413  : 	::glVertexAttrib1f(attribute_index,x);

	mov	esi, esp
	push	ecx
	fld	DWORD PTR _x$[ebp]
	fstp	DWORD PTR [esp]
	mov	eax, DWORD PTR _attribute_index$[ebp]
	push	eax
	call	DWORD PTR __imp__glVertexAttrib1f@8
	cmp	esi, esp
	call	__RTC_CheckEsp

; 414  : 	return pecker_opengles_v2_object::get_last_error_code();

	call	?get_last_error_code@pecker_opengles_v2_object@pecker_sdk@@SAJXZ ; pecker_sdk::pecker_opengles_v2_object::get_last_error_code

; 415  : }

	pop	edi
	pop	esi
	pop	ebx
	add	esp, 192				; 000000c0H
	cmp	ebp, esp
	call	__RTC_CheckEsp
	mov	esp, ebp
	pop	ebp
	ret	0
?set_vertex_attribute_float1_value@pecker_shader_program_glsles1@pecker_sdk@@SAJIM@Z ENDP ; pecker_sdk::pecker_shader_program_glsles1::set_vertex_attribute_float1_value
_TEXT	ENDS
PUBLIC	?set_vertex_attribute_float2_value@pecker_shader_program_glsles1@pecker_sdk@@SAJIMM@Z ; pecker_sdk::pecker_shader_program_glsles1::set_vertex_attribute_float2_value
EXTRN	__imp__glVertexAttrib2f@12:PROC
; Function compile flags: /Odtp /RTCsu /ZI
;	COMDAT ?set_vertex_attribute_float2_value@pecker_shader_program_glsles1@pecker_sdk@@SAJIMM@Z
_TEXT	SEGMENT
_attribute_index$ = 8					; size = 4
_x$ = 12						; size = 4
_y$ = 16						; size = 4
?set_vertex_attribute_float2_value@pecker_shader_program_glsles1@pecker_sdk@@SAJIMM@Z PROC ; pecker_sdk::pecker_shader_program_glsles1::set_vertex_attribute_float2_value, COMDAT

; 417  : {

	push	ebp
	mov	ebp, esp
	sub	esp, 192				; 000000c0H
	push	ebx
	push	esi
	push	edi
	lea	edi, DWORD PTR [ebp-192]
	mov	ecx, 48					; 00000030H
	mov	eax, -858993460				; ccccccccH
	rep stosd

; 418  : 	::glVertexAttrib2f(attribute_index,x,y);

	mov	esi, esp
	push	ecx
	fld	DWORD PTR _y$[ebp]
	fstp	DWORD PTR [esp]
	push	ecx
	fld	DWORD PTR _x$[ebp]
	fstp	DWORD PTR [esp]
	mov	eax, DWORD PTR _attribute_index$[ebp]
	push	eax
	call	DWORD PTR __imp__glVertexAttrib2f@12
	cmp	esi, esp
	call	__RTC_CheckEsp

; 419  : 	return pecker_opengles_v2_object::get_last_error_code();

	call	?get_last_error_code@pecker_opengles_v2_object@pecker_sdk@@SAJXZ ; pecker_sdk::pecker_opengles_v2_object::get_last_error_code

; 420  : }

	pop	edi
	pop	esi
	pop	ebx
	add	esp, 192				; 000000c0H
	cmp	ebp, esp
	call	__RTC_CheckEsp
	mov	esp, ebp
	pop	ebp
	ret	0
?set_vertex_attribute_float2_value@pecker_shader_program_glsles1@pecker_sdk@@SAJIMM@Z ENDP ; pecker_sdk::pecker_shader_program_glsles1::set_vertex_attribute_float2_value
_TEXT	ENDS
PUBLIC	?set_vertex_attribute_float3_value@pecker_shader_program_glsles1@pecker_sdk@@SAJIMMM@Z ; pecker_sdk::pecker_shader_program_glsles1::set_vertex_attribute_float3_value
EXTRN	__imp__glVertexAttrib3f@16:PROC
; Function compile flags: /Odtp /RTCsu /ZI
;	COMDAT ?set_vertex_attribute_float3_value@pecker_shader_program_glsles1@pecker_sdk@@SAJIMMM@Z
_TEXT	SEGMENT
_attribute_index$ = 8					; size = 4
_x$ = 12						; size = 4
_y$ = 16						; size = 4
_z$ = 20						; size = 4
?set_vertex_attribute_float3_value@pecker_shader_program_glsles1@pecker_sdk@@SAJIMMM@Z PROC ; pecker_sdk::pecker_shader_program_glsles1::set_vertex_attribute_float3_value, COMDAT

; 422  : {

	push	ebp
	mov	ebp, esp
	sub	esp, 192				; 000000c0H
	push	ebx
	push	esi
	push	edi
	lea	edi, DWORD PTR [ebp-192]
	mov	ecx, 48					; 00000030H
	mov	eax, -858993460				; ccccccccH
	rep stosd

; 423  : 	::glVertexAttrib3f(attribute_index,x,y,z);

	mov	esi, esp
	push	ecx
	fld	DWORD PTR _z$[ebp]
	fstp	DWORD PTR [esp]
	push	ecx
	fld	DWORD PTR _y$[ebp]
	fstp	DWORD PTR [esp]
	push	ecx
	fld	DWORD PTR _x$[ebp]
	fstp	DWORD PTR [esp]
	mov	eax, DWORD PTR _attribute_index$[ebp]
	push	eax
	call	DWORD PTR __imp__glVertexAttrib3f@16
	cmp	esi, esp
	call	__RTC_CheckEsp

; 424  : 	return pecker_opengles_v2_object::get_last_error_code();

	call	?get_last_error_code@pecker_opengles_v2_object@pecker_sdk@@SAJXZ ; pecker_sdk::pecker_opengles_v2_object::get_last_error_code

; 425  : }

	pop	edi
	pop	esi
	pop	ebx
	add	esp, 192				; 000000c0H
	cmp	ebp, esp
	call	__RTC_CheckEsp
	mov	esp, ebp
	pop	ebp
	ret	0
?set_vertex_attribute_float3_value@pecker_shader_program_glsles1@pecker_sdk@@SAJIMMM@Z ENDP ; pecker_sdk::pecker_shader_program_glsles1::set_vertex_attribute_float3_value
_TEXT	ENDS
PUBLIC	?set_vertex_attribute_float4_value@pecker_shader_program_glsles1@pecker_sdk@@SAJIMMMM@Z ; pecker_sdk::pecker_shader_program_glsles1::set_vertex_attribute_float4_value
EXTRN	__imp__glVertexAttrib4f@20:PROC
; Function compile flags: /Odtp /RTCsu /ZI
;	COMDAT ?set_vertex_attribute_float4_value@pecker_shader_program_glsles1@pecker_sdk@@SAJIMMMM@Z
_TEXT	SEGMENT
_attribute_index$ = 8					; size = 4
_x$ = 12						; size = 4
_y$ = 16						; size = 4
_z$ = 20						; size = 4
_w$ = 24						; size = 4
?set_vertex_attribute_float4_value@pecker_shader_program_glsles1@pecker_sdk@@SAJIMMMM@Z PROC ; pecker_sdk::pecker_shader_program_glsles1::set_vertex_attribute_float4_value, COMDAT

; 427  : {

	push	ebp
	mov	ebp, esp
	sub	esp, 192				; 000000c0H
	push	ebx
	push	esi
	push	edi
	lea	edi, DWORD PTR [ebp-192]
	mov	ecx, 48					; 00000030H
	mov	eax, -858993460				; ccccccccH
	rep stosd

; 428  : 	::glVertexAttrib4f(attribute_index,x,y,z,w);

	mov	esi, esp
	push	ecx
	fld	DWORD PTR _w$[ebp]
	fstp	DWORD PTR [esp]
	push	ecx
	fld	DWORD PTR _z$[ebp]
	fstp	DWORD PTR [esp]
	push	ecx
	fld	DWORD PTR _y$[ebp]
	fstp	DWORD PTR [esp]
	push	ecx
	fld	DWORD PTR _x$[ebp]
	fstp	DWORD PTR [esp]
	mov	eax, DWORD PTR _attribute_index$[ebp]
	push	eax
	call	DWORD PTR __imp__glVertexAttrib4f@20
	cmp	esi, esp
	call	__RTC_CheckEsp

; 429  : 	return pecker_opengles_v2_object::get_last_error_code();

	call	?get_last_error_code@pecker_opengles_v2_object@pecker_sdk@@SAJXZ ; pecker_sdk::pecker_opengles_v2_object::get_last_error_code

; 430  : }

	pop	edi
	pop	esi
	pop	ebx
	add	esp, 192				; 000000c0H
	cmp	ebp, esp
	call	__RTC_CheckEsp
	mov	esp, ebp
	pop	ebp
	ret	0
?set_vertex_attribute_float4_value@pecker_shader_program_glsles1@pecker_sdk@@SAJIMMMM@Z ENDP ; pecker_sdk::pecker_shader_program_glsles1::set_vertex_attribute_float4_value
_TEXT	ENDS
PUBLIC	?set_vertex_attribute_vector2_value@pecker_shader_program_glsles1@pecker_sdk@@SAJIABUpecker_vector2@2@@Z ; pecker_sdk::pecker_shader_program_glsles1::set_vertex_attribute_vector2_value
; Function compile flags: /Odtp /RTCsu /ZI
;	COMDAT ?set_vertex_attribute_vector2_value@pecker_shader_program_glsles1@pecker_sdk@@SAJIABUpecker_vector2@2@@Z
_TEXT	SEGMENT
_attribute_index$ = 8					; size = 4
_vector2$ = 12						; size = 4
?set_vertex_attribute_vector2_value@pecker_shader_program_glsles1@pecker_sdk@@SAJIABUpecker_vector2@2@@Z PROC ; pecker_sdk::pecker_shader_program_glsles1::set_vertex_attribute_vector2_value, COMDAT

; 433  : {

	push	ebp
	mov	ebp, esp
	sub	esp, 192				; 000000c0H
	push	ebx
	push	esi
	push	edi
	lea	edi, DWORD PTR [ebp-192]
	mov	ecx, 48					; 00000030H
	mov	eax, -858993460				; ccccccccH
	rep stosd

; 434  : 	::glVertexAttrib2f(attribute_index,vector2.x,vector2.y);

	mov	esi, esp
	mov	eax, DWORD PTR _vector2$[ebp]
	push	ecx
	fld	DWORD PTR [eax+4]
	fstp	DWORD PTR [esp]
	mov	ecx, DWORD PTR _vector2$[ebp]
	push	ecx
	fld	DWORD PTR [ecx]
	fstp	DWORD PTR [esp]
	mov	edx, DWORD PTR _attribute_index$[ebp]
	push	edx
	call	DWORD PTR __imp__glVertexAttrib2f@12
	cmp	esi, esp
	call	__RTC_CheckEsp

; 435  : 	return pecker_opengles_v2_object::get_last_error_code();

	call	?get_last_error_code@pecker_opengles_v2_object@pecker_sdk@@SAJXZ ; pecker_sdk::pecker_opengles_v2_object::get_last_error_code

; 436  : }

	pop	edi
	pop	esi
	pop	ebx
	add	esp, 192				; 000000c0H
	cmp	ebp, esp
	call	__RTC_CheckEsp
	mov	esp, ebp
	pop	ebp
	ret	0
?set_vertex_attribute_vector2_value@pecker_shader_program_glsles1@pecker_sdk@@SAJIABUpecker_vector2@2@@Z ENDP ; pecker_sdk::pecker_shader_program_glsles1::set_vertex_attribute_vector2_value
_TEXT	ENDS
PUBLIC	?set_vertex_attribute_vector3_value@pecker_shader_program_glsles1@pecker_sdk@@SAJIABUpecker_vector3@2@@Z ; pecker_sdk::pecker_shader_program_glsles1::set_vertex_attribute_vector3_value
; Function compile flags: /Odtp /RTCsu /ZI
;	COMDAT ?set_vertex_attribute_vector3_value@pecker_shader_program_glsles1@pecker_sdk@@SAJIABUpecker_vector3@2@@Z
_TEXT	SEGMENT
_attribute_index$ = 8					; size = 4
_vector3$ = 12						; size = 4
?set_vertex_attribute_vector3_value@pecker_shader_program_glsles1@pecker_sdk@@SAJIABUpecker_vector3@2@@Z PROC ; pecker_sdk::pecker_shader_program_glsles1::set_vertex_attribute_vector3_value, COMDAT

; 438  : {

	push	ebp
	mov	ebp, esp
	sub	esp, 192				; 000000c0H
	push	ebx
	push	esi
	push	edi
	lea	edi, DWORD PTR [ebp-192]
	mov	ecx, 48					; 00000030H
	mov	eax, -858993460				; ccccccccH
	rep stosd

; 439  : 	::glVertexAttrib3f(attribute_index,vector3.x,vector3.y,vector3.z);

	mov	esi, esp
	mov	eax, DWORD PTR _vector3$[ebp]
	push	ecx
	fld	DWORD PTR [eax+8]
	fstp	DWORD PTR [esp]
	mov	ecx, DWORD PTR _vector3$[ebp]
	push	ecx
	fld	DWORD PTR [ecx+4]
	fstp	DWORD PTR [esp]
	mov	edx, DWORD PTR _vector3$[ebp]
	push	ecx
	fld	DWORD PTR [edx]
	fstp	DWORD PTR [esp]
	mov	eax, DWORD PTR _attribute_index$[ebp]
	push	eax
	call	DWORD PTR __imp__glVertexAttrib3f@16
	cmp	esi, esp
	call	__RTC_CheckEsp

; 440  : 	return pecker_opengles_v2_object::get_last_error_code();

	call	?get_last_error_code@pecker_opengles_v2_object@pecker_sdk@@SAJXZ ; pecker_sdk::pecker_opengles_v2_object::get_last_error_code

; 441  : }

	pop	edi
	pop	esi
	pop	ebx
	add	esp, 192				; 000000c0H
	cmp	ebp, esp
	call	__RTC_CheckEsp
	mov	esp, ebp
	pop	ebp
	ret	0
?set_vertex_attribute_vector3_value@pecker_shader_program_glsles1@pecker_sdk@@SAJIABUpecker_vector3@2@@Z ENDP ; pecker_sdk::pecker_shader_program_glsles1::set_vertex_attribute_vector3_value
_TEXT	ENDS
PUBLIC	?set_vertex_attribute_vector4_value@pecker_shader_program_glsles1@pecker_sdk@@SAJIABUpecker_vector4@2@@Z ; pecker_sdk::pecker_shader_program_glsles1::set_vertex_attribute_vector4_value
; Function compile flags: /Odtp /RTCsu /ZI
;	COMDAT ?set_vertex_attribute_vector4_value@pecker_shader_program_glsles1@pecker_sdk@@SAJIABUpecker_vector4@2@@Z
_TEXT	SEGMENT
_attribute_index$ = 8					; size = 4
_vector4$ = 12						; size = 4
?set_vertex_attribute_vector4_value@pecker_shader_program_glsles1@pecker_sdk@@SAJIABUpecker_vector4@2@@Z PROC ; pecker_sdk::pecker_shader_program_glsles1::set_vertex_attribute_vector4_value, COMDAT

; 443  : {

	push	ebp
	mov	ebp, esp
	sub	esp, 192				; 000000c0H
	push	ebx
	push	esi
	push	edi
	lea	edi, DWORD PTR [ebp-192]
	mov	ecx, 48					; 00000030H
	mov	eax, -858993460				; ccccccccH
	rep stosd

; 444  : 	::glVertexAttrib4f(attribute_index,vector4.x,vector4.y,vector4.z,vector4.w);

	mov	esi, esp
	mov	eax, DWORD PTR _vector4$[ebp]
	push	ecx
	fld	DWORD PTR [eax+12]
	fstp	DWORD PTR [esp]
	mov	ecx, DWORD PTR _vector4$[ebp]
	push	ecx
	fld	DWORD PTR [ecx+8]
	fstp	DWORD PTR [esp]
	mov	edx, DWORD PTR _vector4$[ebp]
	push	ecx
	fld	DWORD PTR [edx+4]
	fstp	DWORD PTR [esp]
	mov	eax, DWORD PTR _vector4$[ebp]
	push	ecx
	fld	DWORD PTR [eax]
	fstp	DWORD PTR [esp]
	mov	ecx, DWORD PTR _attribute_index$[ebp]
	push	ecx
	call	DWORD PTR __imp__glVertexAttrib4f@20
	cmp	esi, esp
	call	__RTC_CheckEsp

; 445  : 	return pecker_opengles_v2_object::get_last_error_code();

	call	?get_last_error_code@pecker_opengles_v2_object@pecker_sdk@@SAJXZ ; pecker_sdk::pecker_opengles_v2_object::get_last_error_code

; 446  : }

	pop	edi
	pop	esi
	pop	ebx
	add	esp, 192				; 000000c0H
	cmp	ebp, esp
	call	__RTC_CheckEsp
	mov	esp, ebp
	pop	ebp
	ret	0
?set_vertex_attribute_vector4_value@pecker_shader_program_glsles1@pecker_sdk@@SAJIABUpecker_vector4@2@@Z ENDP ; pecker_sdk::pecker_shader_program_glsles1::set_vertex_attribute_vector4_value
_TEXT	ENDS
PUBLIC	?set_vertex_attribute_pointer_value@pecker_shader_program_glsles1@pecker_sdk@@SAJIHIJQAXI_N@Z ; pecker_sdk::pecker_shader_program_glsles1::set_vertex_attribute_pointer_value
EXTRN	__imp__glVertexAttribPointer@24:PROC
; Function compile flags: /Odtp /RTCsu /ZI
;	COMDAT ?set_vertex_attribute_pointer_value@pecker_shader_program_glsles1@pecker_sdk@@SAJIHIJQAXI_N@Z
_TEXT	SEGMENT
_attribute_index$ = 8					; size = 4
_attribute_size$ = 12					; size = 4
_attribute_type$ = 16					; size = 4
_nstride$ = 20						; size = 4
_ppointer$ = 24						; size = 4
_attribute_data_type$ = 28				; size = 4
_normalized$ = 32					; size = 1
?set_vertex_attribute_pointer_value@pecker_shader_program_glsles1@pecker_sdk@@SAJIHIJQAXI_N@Z PROC ; pecker_sdk::pecker_shader_program_glsles1::set_vertex_attribute_pointer_value, COMDAT

; 467  : {

	push	ebp
	mov	ebp, esp
	sub	esp, 192				; 000000c0H
	push	ebx
	push	esi
	push	edi
	lea	edi, DWORD PTR [ebp-192]
	mov	ecx, 48					; 00000030H
	mov	eax, -858993460				; ccccccccH
	rep stosd

; 468  : 	::glVertexAttribPointer(attribute_index,attribute_size,attribute_type,normalized,nstride,ppointer);

	mov	esi, esp
	mov	eax, DWORD PTR _ppointer$[ebp]
	push	eax
	mov	ecx, DWORD PTR _nstride$[ebp]
	push	ecx
	movzx	edx, BYTE PTR _normalized$[ebp]
	push	edx
	mov	eax, DWORD PTR _attribute_type$[ebp]
	push	eax
	mov	ecx, DWORD PTR _attribute_size$[ebp]
	push	ecx
	mov	edx, DWORD PTR _attribute_index$[ebp]
	push	edx
	call	DWORD PTR __imp__glVertexAttribPointer@24
	cmp	esi, esp
	call	__RTC_CheckEsp

; 469  : 	return pecker_opengles_v2_object::get_last_error_code();

	call	?get_last_error_code@pecker_opengles_v2_object@pecker_sdk@@SAJXZ ; pecker_sdk::pecker_opengles_v2_object::get_last_error_code

; 470  : }

	pop	edi
	pop	esi
	pop	ebx
	add	esp, 192				; 000000c0H
	cmp	ebp, esp
	call	__RTC_CheckEsp
	mov	esp, ebp
	pop	ebp
	ret	0
?set_vertex_attribute_pointer_value@pecker_shader_program_glsles1@pecker_sdk@@SAJIHIJQAXI_N@Z ENDP ; pecker_sdk::pecker_shader_program_glsles1::set_vertex_attribute_pointer_value
_TEXT	ENDS
PUBLIC	?enable_vertex_attribute_array@pecker_shader_program_glsles1@pecker_sdk@@SAJI@Z ; pecker_sdk::pecker_shader_program_glsles1::enable_vertex_attribute_array
EXTRN	__imp__glEnableVertexAttribArray@4:PROC
; Function compile flags: /Odtp /RTCsu /ZI
;	COMDAT ?enable_vertex_attribute_array@pecker_shader_program_glsles1@pecker_sdk@@SAJI@Z
_TEXT	SEGMENT
_attribute_index$ = 8					; size = 4
?enable_vertex_attribute_array@pecker_shader_program_glsles1@pecker_sdk@@SAJI@Z PROC ; pecker_sdk::pecker_shader_program_glsles1::enable_vertex_attribute_array, COMDAT

; 473  : {

	push	ebp
	mov	ebp, esp
	sub	esp, 192				; 000000c0H
	push	ebx
	push	esi
	push	edi
	lea	edi, DWORD PTR [ebp-192]
	mov	ecx, 48					; 00000030H
	mov	eax, -858993460				; ccccccccH
	rep stosd

; 474  : 	::glEnableVertexAttribArray(attribute_index);

	mov	esi, esp
	mov	eax, DWORD PTR _attribute_index$[ebp]
	push	eax
	call	DWORD PTR __imp__glEnableVertexAttribArray@4
	cmp	esi, esp
	call	__RTC_CheckEsp

; 475  : 	return pecker_opengles_v2_object::get_last_error_code();

	call	?get_last_error_code@pecker_opengles_v2_object@pecker_sdk@@SAJXZ ; pecker_sdk::pecker_opengles_v2_object::get_last_error_code

; 476  : }

	pop	edi
	pop	esi
	pop	ebx
	add	esp, 192				; 000000c0H
	cmp	ebp, esp
	call	__RTC_CheckEsp
	mov	esp, ebp
	pop	ebp
	ret	0
?enable_vertex_attribute_array@pecker_shader_program_glsles1@pecker_sdk@@SAJI@Z ENDP ; pecker_sdk::pecker_shader_program_glsles1::enable_vertex_attribute_array
_TEXT	ENDS
PUBLIC	?disable_vertex_attribute_array@pecker_shader_program_glsles1@pecker_sdk@@SAJI@Z ; pecker_sdk::pecker_shader_program_glsles1::disable_vertex_attribute_array
EXTRN	__imp__glDisableVertexAttribArray@4:PROC
; Function compile flags: /Odtp /RTCsu /ZI
;	COMDAT ?disable_vertex_attribute_array@pecker_shader_program_glsles1@pecker_sdk@@SAJI@Z
_TEXT	SEGMENT
_attribute_index$ = 8					; size = 4
?disable_vertex_attribute_array@pecker_shader_program_glsles1@pecker_sdk@@SAJI@Z PROC ; pecker_sdk::pecker_shader_program_glsles1::disable_vertex_attribute_array, COMDAT

; 478  : {

	push	ebp
	mov	ebp, esp
	sub	esp, 192				; 000000c0H
	push	ebx
	push	esi
	push	edi
	lea	edi, DWORD PTR [ebp-192]
	mov	ecx, 48					; 00000030H
	mov	eax, -858993460				; ccccccccH
	rep stosd

; 479  : 	::glDisableVertexAttribArray(attribute_index);

	mov	esi, esp
	mov	eax, DWORD PTR _attribute_index$[ebp]
	push	eax
	call	DWORD PTR __imp__glDisableVertexAttribArray@4
	cmp	esi, esp
	call	__RTC_CheckEsp

; 480  : 	return pecker_opengles_v2_object::get_last_error_code();

	call	?get_last_error_code@pecker_opengles_v2_object@pecker_sdk@@SAJXZ ; pecker_sdk::pecker_opengles_v2_object::get_last_error_code

; 481  : }

	pop	edi
	pop	esi
	pop	ebx
	add	esp, 192				; 000000c0H
	cmp	ebp, esp
	call	__RTC_CheckEsp
	mov	esp, ebp
	pop	ebp
	ret	0
?disable_vertex_attribute_array@pecker_shader_program_glsles1@pecker_sdk@@SAJI@Z ENDP ; pecker_sdk::pecker_shader_program_glsles1::disable_vertex_attribute_array
; Function compile flags: /Odtp /RTCsu /ZI
_TEXT	ENDS
;	COMDAT ?get_object_location@pecker_shader_program_glsles1@pecker_sdk@@UBEIXZ
_TEXT	SEGMENT
_this$ = -8						; size = 4
?get_object_location@pecker_shader_program_glsles1@pecker_sdk@@UBEIXZ PROC ; pecker_sdk::pecker_shader_program_glsles1::get_object_location, COMDAT
; _this$ = ecx

; 484  : {

	push	ebp
	mov	ebp, esp
	sub	esp, 204				; 000000ccH
	push	ebx
	push	esi
	push	edi
	push	ecx
	lea	edi, DWORD PTR [ebp-204]
	mov	ecx, 51					; 00000033H
	mov	eax, -858993460				; ccccccccH
	rep stosd
	pop	ecx
	mov	DWORD PTR _this$[ebp], ecx

; 485  : 	return _M_program;

	mov	eax, DWORD PTR _this$[ebp]
	mov	eax, DWORD PTR [eax+8]

; 486  : }

	pop	edi
	pop	esi
	pop	ebx
	mov	esp, ebp
	pop	ebp
	ret	0
?get_object_location@pecker_shader_program_glsles1@pecker_sdk@@UBEIXZ ENDP ; pecker_sdk::pecker_shader_program_glsles1::get_object_location
_TEXT	ENDS
PUBLIC	?allocate_objects@?$pecker_simple_allocator@D@pecker_sdk@@SAPADH@Z ; pecker_sdk::pecker_simple_allocator<char>::allocate_objects
PUBLIC	?deallocate_objects@?$pecker_simple_allocator@D@pecker_sdk@@SAXPAD@Z ; pecker_sdk::pecker_simple_allocator<char>::deallocate_objects
; Function compile flags: /Odtp /RTCsu /ZI
; File f:\codes\pecker_framework_git\pecker_src\pecker_framework\data\pecker_string.h
;	COMDAT ?init@?$pecker_share_string_base_t@DU?$pecker_value_compare@D@pecker_sdk@@V?$pecker_simple_allocator@D@2@$0BA@@pecker_sdk@@QAEJH_N@Z
_TEXT	SEGMENT
tv69 = -232						; size = 4
_bis_release_buffer$ = -29				; size = 1
_pheaderpointer$ = -20					; size = 4
_this$ = -8						; size = 4
_string_length$ = 8					; size = 4
_bnew_buffer$ = 12					; size = 1
?init@?$pecker_share_string_base_t@DU?$pecker_value_compare@D@pecker_sdk@@V?$pecker_simple_allocator@D@2@$0BA@@pecker_sdk@@QAEJH_N@Z PROC ; pecker_sdk::pecker_share_string_base_t<char,pecker_sdk::pecker_value_compare<char>,pecker_sdk::pecker_simple_allocator<char>,16>::init, COMDAT
; _this$ = ecx

; 361  : 	{

	push	ebp
	mov	ebp, esp
	sub	esp, 232				; 000000e8H
	push	ebx
	push	esi
	push	edi
	push	ecx
	lea	edi, DWORD PTR [ebp-232]
	mov	ecx, 58					; 0000003aH
	mov	eax, -858993460				; ccccccccH
	rep stosd
	pop	ecx
	mov	DWORD PTR _this$[ebp], ecx

; 362  : 		if ( (0 >= string_length) )

	cmp	DWORD PTR _string_length$[ebp], 0
	jg	SHORT $LN18@init

; 363  : 		{
; 364  : 			return P_ERR;

	or	eax, -1
	jmp	$LN19@init
$LN18@init:

; 365  : 		}
; 366  : 
; 367  : 		char_value_t* pheaderpointer = null;

	mov	DWORD PTR _pheaderpointer$[ebp], 0

; 368  : 		bool bis_release_buffer = (null == _M_shared_buffer_pre_string && null == _M_shared_buffer_next_string);

	mov	eax, DWORD PTR _this$[ebp]
	cmp	DWORD PTR [eax+28], 0
	jne	SHORT $LN21@init
	mov	ecx, DWORD PTR _this$[ebp]
	cmp	DWORD PTR [ecx+32], 0
	jne	SHORT $LN21@init
	mov	DWORD PTR tv69[ebp], 1
	jmp	SHORT $LN22@init
$LN21@init:
	mov	DWORD PTR tv69[ebp], 0
$LN22@init:
	mov	dl, BYTE PTR tv69[ebp]
	mov	BYTE PTR _bis_release_buffer$[ebp], dl

; 369  : 
; 370  : 		if (string_length <= _BUFFER_SIZE)

	cmp	DWORD PTR _string_length$[ebp], 16	; 00000010H
	jg	SHORT $LN17@init

; 371  : 		{
; 372  : 			if (_M_string_buffer_size > _BUFFER_SIZE)

	mov	eax, DWORD PTR _this$[ebp]
	cmp	DWORD PTR [eax+20], 16			; 00000010H
	jle	SHORT $LN16@init

; 373  : 			{
; 374  : 				if (STRING_BOOLEAN_FALSE == bnew_buffer)

	movzx	eax, BYTE PTR _bnew_buffer$[ebp]
	test	eax, eax
	jne	SHORT $LN15@init

; 375  : 				{
; 376  : 					if (bis_release_buffer)

	movzx	eax, BYTE PTR _bis_release_buffer$[ebp]
	test	eax, eax
	je	SHORT $LN14@init

; 377  : 					{
; 378  : 						pheaderpointer = _M_pstring_data_header._Large_buffer;

	mov	eax, DWORD PTR _this$[ebp]
	mov	ecx, DWORD PTR [eax]
	mov	DWORD PTR _pheaderpointer$[ebp], ecx

; 379  : 					}
; 380  : 					else

	jmp	SHORT $LN13@init
$LN14@init:

; 381  : 					{
; 382  : 						pheaderpointer = _M_pstring_data_header._Small_buffer;

	mov	eax, DWORD PTR _this$[ebp]
	mov	DWORD PTR _pheaderpointer$[ebp], eax

; 383  : 						_M_string_buffer_size = _BUFFER_SIZE;

	mov	eax, DWORD PTR _this$[ebp]
	mov	DWORD PTR [eax+20], 16			; 00000010H
$LN13@init:

; 384  : 					}
; 385  : 				}
; 386  : 				else

	jmp	SHORT $LN12@init
$LN15@init:

; 387  : 				{
; 388  : 					if (bis_release_buffer)

	movzx	eax, BYTE PTR _bis_release_buffer$[ebp]
	test	eax, eax
	je	SHORT $LN11@init

; 389  : 					{
; 390  : 						allocate_object_t::deallocate_objects(_M_pstring_data_header._Large_buffer);

	mov	eax, DWORD PTR _this$[ebp]
	mov	ecx, DWORD PTR [eax]
	push	ecx
	call	?deallocate_objects@?$pecker_simple_allocator@D@pecker_sdk@@SAXPAD@Z ; pecker_sdk::pecker_simple_allocator<char>::deallocate_objects
	add	esp, 4
$LN11@init:

; 391  : 					}
; 392  : 					pheaderpointer = _M_pstring_data_header._Small_buffer;

	mov	eax, DWORD PTR _this$[ebp]
	mov	DWORD PTR _pheaderpointer$[ebp], eax

; 393  : 					_M_string_buffer_size = _BUFFER_SIZE;

	mov	eax, DWORD PTR _this$[ebp]
	mov	DWORD PTR [eax+20], 16			; 00000010H
$LN12@init:

; 394  : 				}
; 395  : 			}
; 396  : 			else

	jmp	SHORT $LN10@init
$LN16@init:

; 397  : 			{
; 398  : 				pheaderpointer = _M_pstring_data_header._Small_buffer;

	mov	eax, DWORD PTR _this$[ebp]
	mov	DWORD PTR _pheaderpointer$[ebp], eax

; 399  : 				_M_string_buffer_size = _BUFFER_SIZE;

	mov	eax, DWORD PTR _this$[ebp]
	mov	DWORD PTR [eax+20], 16			; 00000010H
$LN10@init:

; 400  : 			}
; 401  : 		}
; 402  : 		else

	jmp	SHORT $LN9@init
$LN17@init:

; 403  : 		{
; 404  : 			if ((string_length > _M_string_buffer_size) ||  
; 405  : 				 false == bis_release_buffer || 
; 406  : 				bnew_buffer)

	mov	eax, DWORD PTR _this$[ebp]
	mov	ecx, DWORD PTR _string_length$[ebp]
	cmp	ecx, DWORD PTR [eax+20]
	jg	SHORT $LN7@init
	movzx	eax, BYTE PTR _bis_release_buffer$[ebp]
	test	eax, eax
	je	SHORT $LN7@init
	movzx	eax, BYTE PTR _bnew_buffer$[ebp]
	test	eax, eax
	je	SHORT $LN8@init
$LN7@init:

; 407  : 			{
; 408  : 				pheaderpointer = allocate_object_t::allocate_objects(string_length);

	mov	eax, DWORD PTR _string_length$[ebp]
	push	eax
	call	?allocate_objects@?$pecker_simple_allocator@D@pecker_sdk@@SAPADH@Z ; pecker_sdk::pecker_simple_allocator<char>::allocate_objects
	add	esp, 4
	mov	DWORD PTR _pheaderpointer$[ebp], eax

; 409  : 				if (null != pheaderpointer)

	cmp	DWORD PTR _pheaderpointer$[ebp], 0
	je	SHORT $LN6@init

; 410  : 				{
; 411  : 						if ( bis_release_buffer && _M_string_buffer_size > _BUFFER_SIZE )

	movzx	eax, BYTE PTR _bis_release_buffer$[ebp]
	test	eax, eax
	je	SHORT $LN5@init
	mov	eax, DWORD PTR _this$[ebp]
	cmp	DWORD PTR [eax+20], 16			; 00000010H
	jle	SHORT $LN5@init

; 412  : 						{
; 413  : 							allocate_object_t::deallocate_objects(_M_pstring_data_header._Large_buffer);

	mov	eax, DWORD PTR _this$[ebp]
	mov	ecx, DWORD PTR [eax]
	push	ecx
	call	?deallocate_objects@?$pecker_simple_allocator@D@pecker_sdk@@SAXPAD@Z ; pecker_sdk::pecker_simple_allocator<char>::deallocate_objects
	add	esp, 4
$LN5@init:

; 414  : 						}
; 415  : 						_M_pstring_data_header._Large_buffer = pheaderpointer;

	mov	eax, DWORD PTR _this$[ebp]
	mov	ecx, DWORD PTR _pheaderpointer$[ebp]
	mov	DWORD PTR [eax], ecx

; 416  : 						_M_string_buffer_size = string_length;

	mov	eax, DWORD PTR _this$[ebp]
	mov	ecx, DWORD PTR _string_length$[ebp]
	mov	DWORD PTR [eax+20], ecx
$LN6@init:

; 417  : 				}
; 418  : 			}
; 419  : 			else

	jmp	SHORT $LN9@init
$LN8@init:

; 420  : 			{
; 421  : 				pheaderpointer = _M_pstring_data_header._Large_buffer;

	mov	eax, DWORD PTR _this$[ebp]
	mov	ecx, DWORD PTR [eax]
	mov	DWORD PTR _pheaderpointer$[ebp], ecx
$LN9@init:

; 422  : 			}
; 423  : 		}
; 424  : 	
; 425  : 		if (null == pheaderpointer)

	cmp	DWORD PTR _pheaderpointer$[ebp], 0
	jne	SHORT $LN3@init

; 426  : 		{
; 427  : 			return P_ERR;

	or	eax, -1
	jmp	SHORT $LN19@init
$LN3@init:

; 428  : 		}
; 429  : 
; 430  : 		if (null != _M_shared_buffer_pre_string)

	mov	eax, DWORD PTR _this$[ebp]
	cmp	DWORD PTR [eax+28], 0
	je	SHORT $LN2@init

; 431  : 		{
; 432  : 			_M_shared_buffer_pre_string->_M_shared_buffer_next_string = _M_shared_buffer_next_string;

	mov	eax, DWORD PTR _this$[ebp]
	mov	ecx, DWORD PTR [eax+28]
	mov	edx, DWORD PTR _this$[ebp]
	mov	eax, DWORD PTR [edx+32]
	mov	DWORD PTR [ecx+32], eax

; 433  : 			_M_shared_buffer_pre_string = null;

	mov	eax, DWORD PTR _this$[ebp]
	mov	DWORD PTR [eax+28], 0
$LN2@init:

; 434  : 		}
; 435  : 
; 436  : 		if (null != _M_shared_buffer_next_string)

	mov	eax, DWORD PTR _this$[ebp]
	cmp	DWORD PTR [eax+32], 0
	je	SHORT $LN1@init

; 437  : 		{
; 438  : 			_M_shared_buffer_next_string->_M_shared_buffer_pre_string = _M_shared_buffer_pre_string;

	mov	eax, DWORD PTR _this$[ebp]
	mov	ecx, DWORD PTR [eax+32]
	mov	edx, DWORD PTR _this$[ebp]
	mov	eax, DWORD PTR [edx+28]
	mov	DWORD PTR [ecx+28], eax

; 439  : 			_M_shared_buffer_next_string = null;

	mov	eax, DWORD PTR _this$[ebp]
	mov	DWORD PTR [eax+32], 0
$LN1@init:

; 440  : 		}
; 441  : 
; 442  : 		_M_pthis_string_data = pheaderpointer;

	mov	eax, DWORD PTR _this$[ebp]
	mov	ecx, DWORD PTR _pheaderpointer$[ebp]
	mov	DWORD PTR [eax+16], ecx

; 443  : 		_M_string_length = 0;//string_length;

	mov	eax, DWORD PTR _this$[ebp]
	mov	DWORD PTR [eax+24], 0

; 444  : 
; 445  : 		return P_OK;

	xor	eax, eax
$LN19@init:

; 446  : 	}

	pop	edi
	pop	esi
	pop	ebx
	add	esp, 232				; 000000e8H
	cmp	ebp, esp
	call	__RTC_CheckEsp
	mov	esp, ebp
	pop	ebp
	ret	8
?init@?$pecker_share_string_base_t@DU?$pecker_value_compare@D@pecker_sdk@@V?$pecker_simple_allocator@D@2@$0BA@@pecker_sdk@@QAEJH_N@Z ENDP ; pecker_sdk::pecker_share_string_base_t<char,pecker_sdk::pecker_value_compare<char>,pecker_sdk::pecker_simple_allocator<char>,16>::init
; Function compile flags: /Odtp /RTCsu /ZI
_TEXT	ENDS
;	COMDAT ?get_data@?$pecker_share_string_base_t@DU?$pecker_value_compare@D@pecker_sdk@@V?$pecker_simple_allocator@D@2@$0BA@@pecker_sdk@@QBEPBDXZ
_TEXT	SEGMENT
_this$ = -8						; size = 4
?get_data@?$pecker_share_string_base_t@DU?$pecker_value_compare@D@pecker_sdk@@V?$pecker_simple_allocator@D@2@$0BA@@pecker_sdk@@QBEPBDXZ PROC ; pecker_sdk::pecker_share_string_base_t<char,pecker_sdk::pecker_value_compare<char>,pecker_sdk::pecker_simple_allocator<char>,16>::get_data, COMDAT
; _this$ = ecx

; 778  : 	{

	push	ebp
	mov	ebp, esp
	sub	esp, 204				; 000000ccH
	push	ebx
	push	esi
	push	edi
	push	ecx
	lea	edi, DWORD PTR [ebp-204]
	mov	ecx, 51					; 00000033H
	mov	eax, -858993460				; ccccccccH
	rep stosd
	pop	ecx
	mov	DWORD PTR _this$[ebp], ecx

; 779  : 		return _M_pthis_string_data;

	mov	eax, DWORD PTR _this$[ebp]
	mov	eax, DWORD PTR [eax+16]

; 780  : 	}

	pop	edi
	pop	esi
	pop	ebx
	mov	esp, ebp
	pop	ebp
	ret	0
?get_data@?$pecker_share_string_base_t@DU?$pecker_value_compare@D@pecker_sdk@@V?$pecker_simple_allocator@D@2@$0BA@@pecker_sdk@@QBEPBDXZ ENDP ; pecker_sdk::pecker_share_string_base_t<char,pecker_sdk::pecker_value_compare<char>,pecker_sdk::pecker_simple_allocator<char>,16>::get_data
; Function compile flags: /Odtp /RTCsu /ZI
_TEXT	ENDS
;	COMDAT ?get_string_length@?$pecker_share_string_base_t@DU?$pecker_value_compare@D@pecker_sdk@@V?$pecker_simple_allocator@D@2@$0BA@@pecker_sdk@@QBEHXZ
_TEXT	SEGMENT
_this$ = -8						; size = 4
?get_string_length@?$pecker_share_string_base_t@DU?$pecker_value_compare@D@pecker_sdk@@V?$pecker_simple_allocator@D@2@$0BA@@pecker_sdk@@QBEHXZ PROC ; pecker_sdk::pecker_share_string_base_t<char,pecker_sdk::pecker_value_compare<char>,pecker_sdk::pecker_simple_allocator<char>,16>::get_string_length, COMDAT
; _this$ = ecx

; 782  : 	{

	push	ebp
	mov	ebp, esp
	sub	esp, 204				; 000000ccH
	push	ebx
	push	esi
	push	edi
	push	ecx
	lea	edi, DWORD PTR [ebp-204]
	mov	ecx, 51					; 00000033H
	mov	eax, -858993460				; ccccccccH
	rep stosd
	pop	ecx
	mov	DWORD PTR _this$[ebp], ecx

; 783  : 		return _M_string_length;

	mov	eax, DWORD PTR _this$[ebp]
	mov	eax, DWORD PTR [eax+24]

; 784  : 	}

	pop	edi
	pop	esi
	pop	ebx
	mov	esp, ebp
	pop	ebp
	ret	0
?get_string_length@?$pecker_share_string_base_t@DU?$pecker_value_compare@D@pecker_sdk@@V?$pecker_simple_allocator@D@2@$0BA@@pecker_sdk@@QBEHXZ ENDP ; pecker_sdk::pecker_share_string_base_t<char,pecker_sdk::pecker_value_compare<char>,pecker_sdk::pecker_simple_allocator<char>,16>::get_string_length
_TEXT	ENDS
EXTRN	??_U@YAPAXI@Z:PROC				; operator new[]
; Function compile flags: /Odtp /RTCsu /ZI
; File f:\codes\pecker_framework_git\pecker_src\pecker_framework\native\pecker_allocator.h
;	COMDAT ?allocate_objects@?$pecker_simple_allocator@D@pecker_sdk@@SAPADH@Z
_TEXT	SEGMENT
$T69789 = -200						; size = 4
_nSize$ = 8						; size = 4
?allocate_objects@?$pecker_simple_allocator@D@pecker_sdk@@SAPADH@Z PROC ; pecker_sdk::pecker_simple_allocator<char>::allocate_objects, COMDAT

; 45   : 		{

	push	ebp
	mov	ebp, esp
	sub	esp, 204				; 000000ccH
	push	ebx
	push	esi
	push	edi
	lea	edi, DWORD PTR [ebp-204]
	mov	ecx, 51					; 00000033H
	mov	eax, -858993460				; ccccccccH
	rep stosd

; 46   : 			if(nSize > 0)

	cmp	DWORD PTR _nSize$[ebp], 0
	jle	SHORT $LN1@allocate_o

; 47   : 			{
; 48   : 				return new className[nSize];

	mov	eax, DWORD PTR _nSize$[ebp]
	push	eax
	call	??_U@YAPAXI@Z				; operator new[]
	add	esp, 4
	mov	DWORD PTR $T69789[ebp], eax
	mov	eax, DWORD PTR $T69789[ebp]
	jmp	SHORT $LN2@allocate_o
$LN1@allocate_o:

; 49   : 			}
; 50   : 			return null;

	xor	eax, eax
$LN2@allocate_o:

; 51   : 		}

	pop	edi
	pop	esi
	pop	ebx
	add	esp, 204				; 000000ccH
	cmp	ebp, esp
	call	__RTC_CheckEsp
	mov	esp, ebp
	pop	ebp
	ret	0
?allocate_objects@?$pecker_simple_allocator@D@pecker_sdk@@SAPADH@Z ENDP ; pecker_sdk::pecker_simple_allocator<char>::allocate_objects
_TEXT	ENDS
EXTRN	??_V@YAXPAX@Z:PROC				; operator delete[]
; Function compile flags: /Odtp /RTCsu /ZI
;	COMDAT ?deallocate_objects@?$pecker_simple_allocator@D@pecker_sdk@@SAXPAD@Z
_TEXT	SEGMENT
$T69792 = -200						; size = 4
_pDelObject$ = 8					; size = 4
?deallocate_objects@?$pecker_simple_allocator@D@pecker_sdk@@SAXPAD@Z PROC ; pecker_sdk::pecker_simple_allocator<char>::deallocate_objects, COMDAT

; 54   : 		{

	push	ebp
	mov	ebp, esp
	sub	esp, 204				; 000000ccH
	push	ebx
	push	esi
	push	edi
	lea	edi, DWORD PTR [ebp-204]
	mov	ecx, 51					; 00000033H
	mov	eax, -858993460				; ccccccccH
	rep stosd

; 55   : 			if(null != pDelObject)

	cmp	DWORD PTR _pDelObject$[ebp], 0
	je	SHORT $LN2@deallocate

; 56   : 			{
; 57   : 				delete [] pDelObject;

	mov	eax, DWORD PTR _pDelObject$[ebp]
	mov	DWORD PTR $T69792[ebp], eax
	mov	ecx, DWORD PTR $T69792[ebp]
	push	ecx
	call	??_V@YAXPAX@Z				; operator delete[]
	add	esp, 4
$LN2@deallocate:

; 58   : 			}
; 59   : 		}

	pop	edi
	pop	esi
	pop	ebx
	add	esp, 204				; 000000ccH
	cmp	ebp, esp
	call	__RTC_CheckEsp
	mov	esp, ebp
	pop	ebp
	ret	0
?deallocate_objects@?$pecker_simple_allocator@D@pecker_sdk@@SAXPAD@Z ENDP ; pecker_sdk::pecker_simple_allocator<char>::deallocate_objects
_TEXT	ENDS
END
