; Listing generated by Microsoft (R) Optimizing Compiler Version 16.00.40219.01 

	TITLE	F:\codes\pecker_framework_git\pecker_src\pecker_framework\data\pecker_matrix.cpp
	.686P
	.XMM
	include listing.inc
	.model	flat

INCLUDELIB MSVCRTD
INCLUDELIB OLDNAMES

PUBLIC	??0pecker_matrix3@pecker_sdk@@QAE@XZ		; pecker_sdk::pecker_matrix3::pecker_matrix3
EXTRN	__RTC_Shutdown:PROC
EXTRN	__RTC_InitBase:PROC
;	COMDAT rtc$TMZ
; File f:\codes\pecker_framework_git\pecker_src\pecker_framework\data\pecker_matrix.cpp
rtc$TMZ	SEGMENT
__RTC_Shutdown.rtc$TMZ DD FLAT:__RTC_Shutdown
rtc$TMZ	ENDS
;	COMDAT rtc$IMZ
rtc$IMZ	SEGMENT
__RTC_InitBase.rtc$IMZ DD FLAT:__RTC_InitBase
; Function compile flags: /Odtp /RTCsu /ZI
rtc$IMZ	ENDS
;	COMDAT ??0pecker_matrix3@pecker_sdk@@QAE@XZ
_TEXT	SEGMENT
_this$ = -8						; size = 4
??0pecker_matrix3@pecker_sdk@@QAE@XZ PROC		; pecker_sdk::pecker_matrix3::pecker_matrix3, COMDAT
; _this$ = ecx

; 16   : {

	push	ebp
	mov	ebp, esp
	sub	esp, 204				; 000000ccH
	push	ebx
	push	esi
	push	edi
	push	ecx
	lea	edi, DWORD PTR [ebp-204]
	mov	ecx, 51					; 00000033H
	mov	eax, -858993460				; ccccccccH
	rep stosd
	pop	ecx
	mov	DWORD PTR _this$[ebp], ecx

; 17   : //  for (nINDEX i=0;i<M3_INDEX_COUNT;++i)
; 18   : //  {
; 19   : //    m_Mat[i] = 0.0f;
; 20   : //  }
; 21   : }

	mov	eax, DWORD PTR _this$[ebp]
	pop	edi
	pop	esi
	pop	ebx
	mov	esp, ebp
	pop	ebp
	ret	0
??0pecker_matrix3@pecker_sdk@@QAE@XZ ENDP		; pecker_sdk::pecker_matrix3::pecker_matrix3
_TEXT	ENDS
PUBLIC	??0pecker_matrix3@pecker_sdk@@QAE@M@Z		; pecker_sdk::pecker_matrix3::pecker_matrix3
EXTRN	__fltused:DWORD
; Function compile flags: /Odtp /RTCsu /ZI
;	COMDAT ??0pecker_matrix3@pecker_sdk@@QAE@M@Z
_TEXT	SEGMENT
_i$67836 = -20						; size = 4
_this$ = -8						; size = 4
_fVal$ = 8						; size = 4
??0pecker_matrix3@pecker_sdk@@QAE@M@Z PROC		; pecker_sdk::pecker_matrix3::pecker_matrix3, COMDAT
; _this$ = ecx

; 23   : {

	push	ebp
	mov	ebp, esp
	sub	esp, 216				; 000000d8H
	push	ebx
	push	esi
	push	edi
	push	ecx
	lea	edi, DWORD PTR [ebp-216]
	mov	ecx, 54					; 00000036H
	mov	eax, -858993460				; ccccccccH
	rep stosd
	pop	ecx
	mov	DWORD PTR _this$[ebp], ecx

; 24   :   for (nINDEX i=0;i<M3_INDEX_COUNT;++i)

	mov	DWORD PTR _i$67836[ebp], 0
	jmp	SHORT $LN3@pecker_mat
$LN2@pecker_mat:
	mov	eax, DWORD PTR _i$67836[ebp]
	add	eax, 1
	mov	DWORD PTR _i$67836[ebp], eax
$LN3@pecker_mat:
	cmp	DWORD PTR _i$67836[ebp], 9
	jge	SHORT $LN1@pecker_mat

; 25   :   {
; 26   :     m_Mat[i] = fVal;

	mov	eax, DWORD PTR _i$67836[ebp]
	mov	ecx, DWORD PTR _this$[ebp]
	fld	DWORD PTR _fVal$[ebp]
	fstp	DWORD PTR [ecx+eax*4]

; 27   :   }

	jmp	SHORT $LN2@pecker_mat
$LN1@pecker_mat:

; 28   : }

	mov	eax, DWORD PTR _this$[ebp]
	pop	edi
	pop	esi
	pop	ebx
	mov	esp, ebp
	pop	ebp
	ret	4
??0pecker_matrix3@pecker_sdk@@QAE@M@Z ENDP		; pecker_sdk::pecker_matrix3::pecker_matrix3
_TEXT	ENDS
PUBLIC	??0pecker_matrix3@pecker_sdk@@QAE@PBM@Z		; pecker_sdk::pecker_matrix3::pecker_matrix3
; Function compile flags: /Odtp /RTCsu /ZI
;	COMDAT ??0pecker_matrix3@pecker_sdk@@QAE@PBM@Z
_TEXT	SEGMENT
_i$67844 = -20						; size = 4
_this$ = -8						; size = 4
_fMat3$ = 8						; size = 4
??0pecker_matrix3@pecker_sdk@@QAE@PBM@Z PROC		; pecker_sdk::pecker_matrix3::pecker_matrix3, COMDAT
; _this$ = ecx

; 30   : {

	push	ebp
	mov	ebp, esp
	sub	esp, 216				; 000000d8H
	push	ebx
	push	esi
	push	edi
	push	ecx
	lea	edi, DWORD PTR [ebp-216]
	mov	ecx, 54					; 00000036H
	mov	eax, -858993460				; ccccccccH
	rep stosd
	pop	ecx
	mov	DWORD PTR _this$[ebp], ecx

; 31   :   for (nINDEX i=0;i<M3_INDEX_COUNT;++i)

	mov	DWORD PTR _i$67844[ebp], 0
	jmp	SHORT $LN3@pecker_mat@2
$LN2@pecker_mat@2:
	mov	eax, DWORD PTR _i$67844[ebp]
	add	eax, 1
	mov	DWORD PTR _i$67844[ebp], eax
$LN3@pecker_mat@2:
	cmp	DWORD PTR _i$67844[ebp], 9
	jge	SHORT $LN1@pecker_mat@2

; 32   :   {
; 33   :     m_Mat[i] = fMat3[i];

	mov	eax, DWORD PTR _i$67844[ebp]
	mov	ecx, DWORD PTR _this$[ebp]
	mov	edx, DWORD PTR _i$67844[ebp]
	mov	esi, DWORD PTR _fMat3$[ebp]
	fld	DWORD PTR [esi+edx*4]
	fstp	DWORD PTR [ecx+eax*4]

; 34   :   }

	jmp	SHORT $LN2@pecker_mat@2
$LN1@pecker_mat@2:

; 35   : }

	mov	eax, DWORD PTR _this$[ebp]
	pop	edi
	pop	esi
	pop	ebx
	mov	esp, ebp
	pop	ebp
	ret	4
??0pecker_matrix3@pecker_sdk@@QAE@PBM@Z ENDP		; pecker_sdk::pecker_matrix3::pecker_matrix3
_TEXT	ENDS
PUBLIC	??0pecker_matrix3@pecker_sdk@@QAE@MMMMMMMMM@Z	; pecker_sdk::pecker_matrix3::pecker_matrix3
; Function compile flags: /Odtp /RTCsu /ZI
;	COMDAT ??0pecker_matrix3@pecker_sdk@@QAE@MMMMMMMMM@Z
_TEXT	SEGMENT
_this$ = -8						; size = 4
_fM00$ = 8						; size = 4
_fM01$ = 12						; size = 4
_fM02$ = 16						; size = 4
_fM10$ = 20						; size = 4
_fM11$ = 24						; size = 4
_fM12$ = 28						; size = 4
_fM20$ = 32						; size = 4
_fM21$ = 36						; size = 4
_fM22$ = 40						; size = 4
??0pecker_matrix3@pecker_sdk@@QAE@MMMMMMMMM@Z PROC	; pecker_sdk::pecker_matrix3::pecker_matrix3, COMDAT
; _this$ = ecx

; 39   : {

	push	ebp
	mov	ebp, esp
	sub	esp, 204				; 000000ccH
	push	ebx
	push	esi
	push	edi
	push	ecx
	lea	edi, DWORD PTR [ebp-204]
	mov	ecx, 51					; 00000033H
	mov	eax, -858993460				; ccccccccH
	rep stosd
	pop	ecx
	mov	DWORD PTR _this$[ebp], ecx

; 40   :   m_Mat[M3_00] = fM00; m_Mat[M3_01] = fM01; m_Mat[M3_02] = fM02;

	mov	eax, DWORD PTR _this$[ebp]
	fld	DWORD PTR _fM00$[ebp]
	fstp	DWORD PTR [eax]
	mov	eax, DWORD PTR _this$[ebp]
	fld	DWORD PTR _fM01$[ebp]
	fstp	DWORD PTR [eax+4]
	mov	eax, DWORD PTR _this$[ebp]
	fld	DWORD PTR _fM02$[ebp]
	fstp	DWORD PTR [eax+8]

; 41   :   m_Mat[M3_10] = fM10; m_Mat[M3_11] = fM11; m_Mat[M3_12] = fM12;

	mov	eax, DWORD PTR _this$[ebp]
	fld	DWORD PTR _fM10$[ebp]
	fstp	DWORD PTR [eax+12]
	mov	eax, DWORD PTR _this$[ebp]
	fld	DWORD PTR _fM11$[ebp]
	fstp	DWORD PTR [eax+16]
	mov	eax, DWORD PTR _this$[ebp]
	fld	DWORD PTR _fM12$[ebp]
	fstp	DWORD PTR [eax+20]

; 42   :   m_Mat[M3_20] = fM20; m_Mat[M3_21] = fM21; m_Mat[M3_22] = fM22;

	mov	eax, DWORD PTR _this$[ebp]
	fld	DWORD PTR _fM20$[ebp]
	fstp	DWORD PTR [eax+24]
	mov	eax, DWORD PTR _this$[ebp]
	fld	DWORD PTR _fM21$[ebp]
	fstp	DWORD PTR [eax+28]
	mov	eax, DWORD PTR _this$[ebp]
	fld	DWORD PTR _fM22$[ebp]
	fstp	DWORD PTR [eax+32]

; 43   : }

	mov	eax, DWORD PTR _this$[ebp]
	pop	edi
	pop	esi
	pop	ebx
	mov	esp, ebp
	pop	ebp
	ret	36					; 00000024H
??0pecker_matrix3@pecker_sdk@@QAE@MMMMMMMMM@Z ENDP	; pecker_sdk::pecker_matrix3::pecker_matrix3
_TEXT	ENDS
PUBLIC	??0pecker_matrix3@pecker_sdk@@QAE@ABU01@@Z	; pecker_sdk::pecker_matrix3::pecker_matrix3
; Function compile flags: /Odtp /RTCsu /ZI
;	COMDAT ??0pecker_matrix3@pecker_sdk@@QAE@ABU01@@Z
_TEXT	SEGMENT
_i$67865 = -20						; size = 4
_this$ = -8						; size = 4
_other$ = 8						; size = 4
??0pecker_matrix3@pecker_sdk@@QAE@ABU01@@Z PROC		; pecker_sdk::pecker_matrix3::pecker_matrix3, COMDAT
; _this$ = ecx

; 46   : {

	push	ebp
	mov	ebp, esp
	sub	esp, 216				; 000000d8H
	push	ebx
	push	esi
	push	edi
	push	ecx
	lea	edi, DWORD PTR [ebp-216]
	mov	ecx, 54					; 00000036H
	mov	eax, -858993460				; ccccccccH
	rep stosd
	pop	ecx
	mov	DWORD PTR _this$[ebp], ecx

; 47   :   if (&other != this)

	mov	eax, DWORD PTR _other$[ebp]
	cmp	eax, DWORD PTR _this$[ebp]
	je	SHORT $LN1@pecker_mat@3

; 48   :   for (nINDEX i=0; i<M3_INDEX_COUNT; ++i)

	mov	DWORD PTR _i$67865[ebp], 0
	jmp	SHORT $LN3@pecker_mat@3
$LN2@pecker_mat@3:
	mov	eax, DWORD PTR _i$67865[ebp]
	add	eax, 1
	mov	DWORD PTR _i$67865[ebp], eax
$LN3@pecker_mat@3:
	cmp	DWORD PTR _i$67865[ebp], 9
	jge	SHORT $LN1@pecker_mat@3

; 49   :   {
; 50   :     m_Mat[i] = other.m_Mat[i];

	mov	eax, DWORD PTR _i$67865[ebp]
	mov	ecx, DWORD PTR _this$[ebp]
	mov	edx, DWORD PTR _i$67865[ebp]
	mov	esi, DWORD PTR _other$[ebp]
	fld	DWORD PTR [esi+edx*4]
	fstp	DWORD PTR [ecx+eax*4]

; 51   :   }

	jmp	SHORT $LN2@pecker_mat@3
$LN1@pecker_mat@3:

; 52   : }

	mov	eax, DWORD PTR _this$[ebp]
	pop	edi
	pop	esi
	pop	ebx
	mov	esp, ebp
	pop	ebp
	ret	4
??0pecker_matrix3@pecker_sdk@@QAE@ABU01@@Z ENDP		; pecker_sdk::pecker_matrix3::pecker_matrix3
_TEXT	ENDS
PUBLIC	??0pecker_matrix3@pecker_sdk@@QAE@ABUpecker_matrix4@1@@Z ; pecker_sdk::pecker_matrix3::pecker_matrix3
; Function compile flags: /Odtp /RTCsu /ZI
;	COMDAT ??0pecker_matrix3@pecker_sdk@@QAE@ABUpecker_matrix4@1@@Z
_TEXT	SEGMENT
_i$67873 = -20						; size = 4
_this$ = -8						; size = 4
_Mat4$ = 8						; size = 4
??0pecker_matrix3@pecker_sdk@@QAE@ABUpecker_matrix4@1@@Z PROC ; pecker_sdk::pecker_matrix3::pecker_matrix3, COMDAT
; _this$ = ecx

; 55   : {

	push	ebp
	mov	ebp, esp
	sub	esp, 216				; 000000d8H
	push	ebx
	push	esi
	push	edi
	push	ecx
	lea	edi, DWORD PTR [ebp-216]
	mov	ecx, 54					; 00000036H
	mov	eax, -858993460				; ccccccccH
	rep stosd
	pop	ecx
	mov	DWORD PTR _this$[ebp], ecx

; 56   :   for(nINDEX i=0;i<3;++i)

	mov	DWORD PTR _i$67873[ebp], 0
	jmp	SHORT $LN3@pecker_mat@4
$LN2@pecker_mat@4:
	mov	eax, DWORD PTR _i$67873[ebp]
	add	eax, 1
	mov	DWORD PTR _i$67873[ebp], eax
$LN3@pecker_mat@4:
	cmp	DWORD PTR _i$67873[ebp], 3
	jge	SHORT $LN1@pecker_mat@4

; 57   :   {
; 58   :     m_Mat[i] = Mat4.m_Mat[i];

	mov	eax, DWORD PTR _i$67873[ebp]
	mov	ecx, DWORD PTR _this$[ebp]
	mov	edx, DWORD PTR _i$67873[ebp]
	mov	esi, DWORD PTR _Mat4$[ebp]
	fld	DWORD PTR [esi+edx*4]
	fstp	DWORD PTR [ecx+eax*4]

; 59   :     m_Mat[i+3] = Mat4.m_Mat[i+4];

	mov	eax, DWORD PTR _i$67873[ebp]
	mov	ecx, DWORD PTR _this$[ebp]
	mov	edx, DWORD PTR _i$67873[ebp]
	mov	esi, DWORD PTR _Mat4$[ebp]
	fld	DWORD PTR [esi+edx*4+16]
	fstp	DWORD PTR [ecx+eax*4+12]

; 60   :     m_Mat[i+6] = Mat4.m_Mat[i+8];

	mov	eax, DWORD PTR _i$67873[ebp]
	mov	ecx, DWORD PTR _this$[ebp]
	mov	edx, DWORD PTR _i$67873[ebp]
	mov	esi, DWORD PTR _Mat4$[ebp]
	fld	DWORD PTR [esi+edx*4+32]
	fstp	DWORD PTR [ecx+eax*4+24]

; 61   :   }

	jmp	SHORT $LN2@pecker_mat@4
$LN1@pecker_mat@4:

; 62   : }

	mov	eax, DWORD PTR _this$[ebp]
	pop	edi
	pop	esi
	pop	ebx
	mov	esp, ebp
	pop	ebp
	ret	4
??0pecker_matrix3@pecker_sdk@@QAE@ABUpecker_matrix4@1@@Z ENDP ; pecker_sdk::pecker_matrix3::pecker_matrix3
_TEXT	ENDS
PUBLIC	??Rpecker_matrix3@pecker_sdk@@QAEAAMHH@Z	; pecker_sdk::pecker_matrix3::operator()
; Function compile flags: /Odtp /RTCsu /ZI
;	COMDAT ??Rpecker_matrix3@pecker_sdk@@QAEAAMHH@Z
_TEXT	SEGMENT
_this$ = -8						; size = 4
_row$ = 8						; size = 4
_column$ = 12						; size = 4
??Rpecker_matrix3@pecker_sdk@@QAEAAMHH@Z PROC		; pecker_sdk::pecker_matrix3::operator(), COMDAT
; _this$ = ecx

; 65   : {

	push	ebp
	mov	ebp, esp
	sub	esp, 204				; 000000ccH
	push	ebx
	push	esi
	push	edi
	push	ecx
	lea	edi, DWORD PTR [ebp-204]
	mov	ecx, 51					; 00000033H
	mov	eax, -858993460				; ccccccccH
	rep stosd
	pop	ecx
	mov	DWORD PTR _this$[ebp], ecx

; 66   :   return (m_Mat[row+column*3]);

	mov	eax, DWORD PTR _column$[ebp]
	imul	eax, 3
	add	eax, DWORD PTR _row$[ebp]
	mov	ecx, DWORD PTR _this$[ebp]
	lea	eax, DWORD PTR [ecx+eax*4]

; 67   : }

	pop	edi
	pop	esi
	pop	ebx
	mov	esp, ebp
	pop	ebp
	ret	8
??Rpecker_matrix3@pecker_sdk@@QAEAAMHH@Z ENDP		; pecker_sdk::pecker_matrix3::operator()
_TEXT	ENDS
PUBLIC	??Rpecker_matrix3@pecker_sdk@@QBEMHH@Z		; pecker_sdk::pecker_matrix3::operator()
; Function compile flags: /Odtp /RTCsu /ZI
;	COMDAT ??Rpecker_matrix3@pecker_sdk@@QBEMHH@Z
_TEXT	SEGMENT
_this$ = -8						; size = 4
_row$ = 8						; size = 4
_column$ = 12						; size = 4
??Rpecker_matrix3@pecker_sdk@@QBEMHH@Z PROC		; pecker_sdk::pecker_matrix3::operator(), COMDAT
; _this$ = ecx

; 70   : {

	push	ebp
	mov	ebp, esp
	sub	esp, 204				; 000000ccH
	push	ebx
	push	esi
	push	edi
	push	ecx
	lea	edi, DWORD PTR [ebp-204]
	mov	ecx, 51					; 00000033H
	mov	eax, -858993460				; ccccccccH
	rep stosd
	pop	ecx
	mov	DWORD PTR _this$[ebp], ecx

; 71   :   return (m_Mat[row+column*3]);

	mov	eax, DWORD PTR _column$[ebp]
	imul	eax, 3
	add	eax, DWORD PTR _row$[ebp]
	mov	ecx, DWORD PTR _this$[ebp]
	fld	DWORD PTR [ecx+eax*4]

; 72   : }

	pop	edi
	pop	esi
	pop	ebx
	mov	esp, ebp
	pop	ebp
	ret	8
??Rpecker_matrix3@pecker_sdk@@QBEMHH@Z ENDP		; pecker_sdk::pecker_matrix3::operator()
_TEXT	ENDS
PUBLIC	__$ArrayPad$
PUBLIC	??Dpecker_matrix3@pecker_sdk@@QBE?AU01@ABU01@@Z	; pecker_sdk::pecker_matrix3::operator*
EXTRN	___security_cookie:DWORD
EXTRN	__RTC_CheckEsp:PROC
EXTRN	@__security_check_cookie@4:PROC
EXTRN	@_RTC_CheckStackVars@8:PROC
; Function compile flags: /Odtp /RTCsu /ZI
;	COMDAT ??Dpecker_matrix3@pecker_sdk@@QBE?AU01@ABU01@@Z
_TEXT	SEGMENT
_res$ = -56						; size = 36
_this$ = -12						; size = 4
__$ArrayPad$ = -4					; size = 4
___$ReturnUdt$ = 8					; size = 4
_Mat3$ = 12						; size = 4
??Dpecker_matrix3@pecker_sdk@@QBE?AU01@ABU01@@Z PROC	; pecker_sdk::pecker_matrix3::operator*, COMDAT
; _this$ = ecx

; 75   : {

	push	ebp
	mov	ebp, esp
	sub	esp, 252				; 000000fcH
	push	ebx
	push	esi
	push	edi
	push	ecx
	lea	edi, DWORD PTR [ebp-252]
	mov	ecx, 63					; 0000003fH
	mov	eax, -858993460				; ccccccccH
	rep stosd
	pop	ecx
	mov	eax, DWORD PTR ___security_cookie
	xor	eax, ebp
	mov	DWORD PTR __$ArrayPad$[ebp], eax
	mov	DWORD PTR _this$[ebp], ecx

; 76   :   pecker_matrix3 res;

	lea	ecx, DWORD PTR _res$[ebp]
	call	??0pecker_matrix3@pecker_sdk@@QAE@XZ	; pecker_sdk::pecker_matrix3::pecker_matrix3

; 77   : 
; 78   :   // col 1
; 79   :   res.m_Mat[M3_00] = m_Mat[M3_00]*Mat3.m_Mat[M3_00] + m_Mat[M3_10]*Mat3.m_Mat[M3_01] + m_Mat[M3_20]*Mat3.m_Mat[M3_02];

	mov	eax, DWORD PTR _this$[ebp]
	fld	DWORD PTR [eax]
	mov	ecx, DWORD PTR _Mat3$[ebp]
	fmul	DWORD PTR [ecx]
	mov	edx, DWORD PTR _this$[ebp]
	fld	DWORD PTR [edx+12]
	mov	eax, DWORD PTR _Mat3$[ebp]
	fmul	DWORD PTR [eax+4]
	faddp	ST(1), ST(0)
	mov	ecx, DWORD PTR _this$[ebp]
	fld	DWORD PTR [ecx+24]
	mov	edx, DWORD PTR _Mat3$[ebp]
	fmul	DWORD PTR [edx+8]
	faddp	ST(1), ST(0)
	fstp	DWORD PTR _res$[ebp]

; 80   :   res.m_Mat[M3_01] = m_Mat[M3_01]*Mat3.m_Mat[M3_00] + m_Mat[M3_11]*Mat3.m_Mat[M3_01] + m_Mat[M3_21]*Mat3.m_Mat[M3_02];

	mov	eax, DWORD PTR _this$[ebp]
	fld	DWORD PTR [eax+4]
	mov	ecx, DWORD PTR _Mat3$[ebp]
	fmul	DWORD PTR [ecx]
	mov	edx, DWORD PTR _this$[ebp]
	fld	DWORD PTR [edx+16]
	mov	eax, DWORD PTR _Mat3$[ebp]
	fmul	DWORD PTR [eax+4]
	faddp	ST(1), ST(0)
	mov	ecx, DWORD PTR _this$[ebp]
	fld	DWORD PTR [ecx+28]
	mov	edx, DWORD PTR _Mat3$[ebp]
	fmul	DWORD PTR [edx+8]
	faddp	ST(1), ST(0)
	fstp	DWORD PTR _res$[ebp+4]

; 81   :   res.m_Mat[M3_02] = m_Mat[M3_02]*Mat3.m_Mat[M3_00] + m_Mat[M3_12]*Mat3.m_Mat[M3_01] + m_Mat[M3_22]*Mat3.m_Mat[M3_02];

	mov	eax, DWORD PTR _this$[ebp]
	fld	DWORD PTR [eax+8]
	mov	ecx, DWORD PTR _Mat3$[ebp]
	fmul	DWORD PTR [ecx]
	mov	edx, DWORD PTR _this$[ebp]
	fld	DWORD PTR [edx+20]
	mov	eax, DWORD PTR _Mat3$[ebp]
	fmul	DWORD PTR [eax+4]
	faddp	ST(1), ST(0)
	mov	ecx, DWORD PTR _this$[ebp]
	fld	DWORD PTR [ecx+32]
	mov	edx, DWORD PTR _Mat3$[ebp]
	fmul	DWORD PTR [edx+8]
	faddp	ST(1), ST(0)
	fstp	DWORD PTR _res$[ebp+8]

; 82   : 
; 83   :   // col 2
; 84   :   res.m_Mat[M3_10] = m_Mat[M3_00]*Mat3.m_Mat[M3_10] + m_Mat[M3_10]*Mat3.m_Mat[M3_11] + m_Mat[M3_20]*Mat3.m_Mat[M3_12];

	mov	eax, DWORD PTR _this$[ebp]
	fld	DWORD PTR [eax]
	mov	ecx, DWORD PTR _Mat3$[ebp]
	fmul	DWORD PTR [ecx+12]
	mov	edx, DWORD PTR _this$[ebp]
	fld	DWORD PTR [edx+12]
	mov	eax, DWORD PTR _Mat3$[ebp]
	fmul	DWORD PTR [eax+16]
	faddp	ST(1), ST(0)
	mov	ecx, DWORD PTR _this$[ebp]
	fld	DWORD PTR [ecx+24]
	mov	edx, DWORD PTR _Mat3$[ebp]
	fmul	DWORD PTR [edx+20]
	faddp	ST(1), ST(0)
	fstp	DWORD PTR _res$[ebp+12]

; 85   :   res.m_Mat[M3_11] = m_Mat[M3_01]*Mat3.m_Mat[M3_10] + m_Mat[M3_11]*Mat3.m_Mat[M3_11] + m_Mat[M3_21]*Mat3.m_Mat[M3_12];

	mov	eax, DWORD PTR _this$[ebp]
	fld	DWORD PTR [eax+4]
	mov	ecx, DWORD PTR _Mat3$[ebp]
	fmul	DWORD PTR [ecx+12]
	mov	edx, DWORD PTR _this$[ebp]
	fld	DWORD PTR [edx+16]
	mov	eax, DWORD PTR _Mat3$[ebp]
	fmul	DWORD PTR [eax+16]
	faddp	ST(1), ST(0)
	mov	ecx, DWORD PTR _this$[ebp]
	fld	DWORD PTR [ecx+28]
	mov	edx, DWORD PTR _Mat3$[ebp]
	fmul	DWORD PTR [edx+20]
	faddp	ST(1), ST(0)
	fstp	DWORD PTR _res$[ebp+16]

; 86   :   res.m_Mat[M3_12] = m_Mat[M3_02]*Mat3.m_Mat[M3_10] + m_Mat[M3_12]*Mat3.m_Mat[M3_11] + m_Mat[M3_22]*Mat3.m_Mat[M3_12];

	mov	eax, DWORD PTR _this$[ebp]
	fld	DWORD PTR [eax+8]
	mov	ecx, DWORD PTR _Mat3$[ebp]
	fmul	DWORD PTR [ecx+12]
	mov	edx, DWORD PTR _this$[ebp]
	fld	DWORD PTR [edx+20]
	mov	eax, DWORD PTR _Mat3$[ebp]
	fmul	DWORD PTR [eax+16]
	faddp	ST(1), ST(0)
	mov	ecx, DWORD PTR _this$[ebp]
	fld	DWORD PTR [ecx+32]
	mov	edx, DWORD PTR _Mat3$[ebp]
	fmul	DWORD PTR [edx+20]
	faddp	ST(1), ST(0)
	fstp	DWORD PTR _res$[ebp+20]

; 87   : 
; 88   :   // col3
; 89   :   res.m_Mat[M3_20] = m_Mat[M3_00]*Mat3.m_Mat[M3_20] + m_Mat[M3_10]*Mat3.m_Mat[M3_21] + m_Mat[M3_20]*Mat3.m_Mat[M3_22];

	mov	eax, DWORD PTR _this$[ebp]
	fld	DWORD PTR [eax]
	mov	ecx, DWORD PTR _Mat3$[ebp]
	fmul	DWORD PTR [ecx+24]
	mov	edx, DWORD PTR _this$[ebp]
	fld	DWORD PTR [edx+12]
	mov	eax, DWORD PTR _Mat3$[ebp]
	fmul	DWORD PTR [eax+28]
	faddp	ST(1), ST(0)
	mov	ecx, DWORD PTR _this$[ebp]
	fld	DWORD PTR [ecx+24]
	mov	edx, DWORD PTR _Mat3$[ebp]
	fmul	DWORD PTR [edx+32]
	faddp	ST(1), ST(0)
	fstp	DWORD PTR _res$[ebp+24]

; 90   :   res.m_Mat[M3_21] = m_Mat[M3_01]*Mat3.m_Mat[M3_20] + m_Mat[M3_11]*Mat3.m_Mat[M3_21] + m_Mat[M3_21]*Mat3.m_Mat[M3_22];

	mov	eax, DWORD PTR _this$[ebp]
	fld	DWORD PTR [eax+4]
	mov	ecx, DWORD PTR _Mat3$[ebp]
	fmul	DWORD PTR [ecx+24]
	mov	edx, DWORD PTR _this$[ebp]
	fld	DWORD PTR [edx+16]
	mov	eax, DWORD PTR _Mat3$[ebp]
	fmul	DWORD PTR [eax+28]
	faddp	ST(1), ST(0)
	mov	ecx, DWORD PTR _this$[ebp]
	fld	DWORD PTR [ecx+28]
	mov	edx, DWORD PTR _Mat3$[ebp]
	fmul	DWORD PTR [edx+32]
	faddp	ST(1), ST(0)
	fstp	DWORD PTR _res$[ebp+28]

; 91   :   res.m_Mat[M3_22] = m_Mat[M3_02]*Mat3.m_Mat[M3_20] + m_Mat[M3_12]*Mat3.m_Mat[M3_21] + m_Mat[M3_22]*Mat3.m_Mat[M3_22];

	mov	eax, DWORD PTR _this$[ebp]
	fld	DWORD PTR [eax+8]
	mov	ecx, DWORD PTR _Mat3$[ebp]
	fmul	DWORD PTR [ecx+24]
	mov	edx, DWORD PTR _this$[ebp]
	fld	DWORD PTR [edx+20]
	mov	eax, DWORD PTR _Mat3$[ebp]
	fmul	DWORD PTR [eax+28]
	faddp	ST(1), ST(0)
	mov	ecx, DWORD PTR _this$[ebp]
	fld	DWORD PTR [ecx+32]
	mov	edx, DWORD PTR _Mat3$[ebp]
	fmul	DWORD PTR [edx+32]
	faddp	ST(1), ST(0)
	fstp	DWORD PTR _res$[ebp+32]

; 92   : 
; 93   :   return res;

	lea	eax, DWORD PTR _res$[ebp]
	push	eax
	mov	ecx, DWORD PTR ___$ReturnUdt$[ebp]
	call	??0pecker_matrix3@pecker_sdk@@QAE@ABU01@@Z ; pecker_sdk::pecker_matrix3::pecker_matrix3
	mov	eax, DWORD PTR ___$ReturnUdt$[ebp]

; 94   : }

	push	edx
	mov	ecx, ebp
	push	eax
	lea	edx, DWORD PTR $LN5@operator
	call	@_RTC_CheckStackVars@8
	pop	eax
	pop	edx
	pop	edi
	pop	esi
	pop	ebx
	mov	ecx, DWORD PTR __$ArrayPad$[ebp]
	xor	ecx, ebp
	call	@__security_check_cookie@4
	add	esp, 252				; 000000fcH
	cmp	ebp, esp
	call	__RTC_CheckEsp
	mov	esp, ebp
	pop	ebp
	ret	8
	npad	2
$LN5@operator:
	DD	1
	DD	$LN4@operator
$LN4@operator:
	DD	-56					; ffffffc8H
	DD	36					; 00000024H
	DD	$LN3@operator
$LN3@operator:
	DB	114					; 00000072H
	DB	101					; 00000065H
	DB	115					; 00000073H
	DB	0
??Dpecker_matrix3@pecker_sdk@@QBE?AU01@ABU01@@Z ENDP	; pecker_sdk::pecker_matrix3::operator*
_TEXT	ENDS
PUBLIC	__$ArrayPad$
PUBLIC	??Dpecker_matrix3@pecker_sdk@@QBE?AU01@M@Z	; pecker_sdk::pecker_matrix3::operator*
; Function compile flags: /Odtp /RTCsu /ZI
;	COMDAT ??Dpecker_matrix3@pecker_sdk@@QBE?AU01@M@Z
_TEXT	SEGMENT
_i$67899 = -68						; size = 4
_res$ = -56						; size = 36
_this$ = -12						; size = 4
__$ArrayPad$ = -4					; size = 4
___$ReturnUdt$ = 8					; size = 4
_fVal$ = 12						; size = 4
??Dpecker_matrix3@pecker_sdk@@QBE?AU01@M@Z PROC		; pecker_sdk::pecker_matrix3::operator*, COMDAT
; _this$ = ecx

; 97   : {

	push	ebp
	mov	ebp, esp
	sub	esp, 264				; 00000108H
	push	ebx
	push	esi
	push	edi
	push	ecx
	lea	edi, DWORD PTR [ebp-264]
	mov	ecx, 66					; 00000042H
	mov	eax, -858993460				; ccccccccH
	rep stosd
	pop	ecx
	mov	eax, DWORD PTR ___security_cookie
	xor	eax, ebp
	mov	DWORD PTR __$ArrayPad$[ebp], eax
	mov	DWORD PTR _this$[ebp], ecx

; 98   :   pecker_matrix3 res;

	lea	ecx, DWORD PTR _res$[ebp]
	call	??0pecker_matrix3@pecker_sdk@@QAE@XZ	; pecker_sdk::pecker_matrix3::pecker_matrix3

; 99   :   for (nINDEX i=0;i<M3_INDEX_COUNT;++i)

	mov	DWORD PTR _i$67899[ebp], 0
	jmp	SHORT $LN3@operator@2
$LN2@operator@2:
	mov	eax, DWORD PTR _i$67899[ebp]
	add	eax, 1
	mov	DWORD PTR _i$67899[ebp], eax
$LN3@operator@2:
	cmp	DWORD PTR _i$67899[ebp], 9
	jge	SHORT $LN1@operator@2

; 100  :   {
; 101  :     res.m_Mat[i] = m_Mat[i] * fVal;

	mov	eax, DWORD PTR _i$67899[ebp]
	mov	ecx, DWORD PTR _this$[ebp]
	fld	DWORD PTR [ecx+eax*4]
	fmul	DWORD PTR _fVal$[ebp]
	mov	edx, DWORD PTR _i$67899[ebp]
	fstp	DWORD PTR _res$[ebp+edx*4]

; 102  :   }

	jmp	SHORT $LN2@operator@2
$LN1@operator@2:

; 103  :   return res;

	lea	eax, DWORD PTR _res$[ebp]
	push	eax
	mov	ecx, DWORD PTR ___$ReturnUdt$[ebp]
	call	??0pecker_matrix3@pecker_sdk@@QAE@ABU01@@Z ; pecker_sdk::pecker_matrix3::pecker_matrix3
	mov	eax, DWORD PTR ___$ReturnUdt$[ebp]

; 104  : }

	push	edx
	mov	ecx, ebp
	push	eax
	lea	edx, DWORD PTR $LN8@operator@2
	call	@_RTC_CheckStackVars@8
	pop	eax
	pop	edx
	pop	edi
	pop	esi
	pop	ebx
	mov	ecx, DWORD PTR __$ArrayPad$[ebp]
	xor	ecx, ebp
	call	@__security_check_cookie@4
	add	esp, 264				; 00000108H
	cmp	ebp, esp
	call	__RTC_CheckEsp
	mov	esp, ebp
	pop	ebp
	ret	8
	npad	2
$LN8@operator@2:
	DD	1
	DD	$LN7@operator@2
$LN7@operator@2:
	DD	-56					; ffffffc8H
	DD	36					; 00000024H
	DD	$LN6@operator@2
$LN6@operator@2:
	DB	114					; 00000072H
	DB	101					; 00000065H
	DB	115					; 00000073H
	DB	0
??Dpecker_matrix3@pecker_sdk@@QBE?AU01@M@Z ENDP		; pecker_sdk::pecker_matrix3::operator*
_TEXT	ENDS
PUBLIC	__$ArrayPad$
PUBLIC	??Hpecker_matrix3@pecker_sdk@@QBE?AU01@ABU01@@Z	; pecker_sdk::pecker_matrix3::operator+
; Function compile flags: /Odtp /RTCsu /ZI
;	COMDAT ??Hpecker_matrix3@pecker_sdk@@QBE?AU01@ABU01@@Z
_TEXT	SEGMENT
_i$67909 = -68						; size = 4
_res$ = -56						; size = 36
_this$ = -12						; size = 4
__$ArrayPad$ = -4					; size = 4
___$ReturnUdt$ = 8					; size = 4
_Mat3$ = 12						; size = 4
??Hpecker_matrix3@pecker_sdk@@QBE?AU01@ABU01@@Z PROC	; pecker_sdk::pecker_matrix3::operator+, COMDAT
; _this$ = ecx

; 107  : {

	push	ebp
	mov	ebp, esp
	sub	esp, 264				; 00000108H
	push	ebx
	push	esi
	push	edi
	push	ecx
	lea	edi, DWORD PTR [ebp-264]
	mov	ecx, 66					; 00000042H
	mov	eax, -858993460				; ccccccccH
	rep stosd
	pop	ecx
	mov	eax, DWORD PTR ___security_cookie
	xor	eax, ebp
	mov	DWORD PTR __$ArrayPad$[ebp], eax
	mov	DWORD PTR _this$[ebp], ecx

; 108  :   pecker_matrix3 res;

	lea	ecx, DWORD PTR _res$[ebp]
	call	??0pecker_matrix3@pecker_sdk@@QAE@XZ	; pecker_sdk::pecker_matrix3::pecker_matrix3

; 109  :   for (nINDEX i=0;i<M3_INDEX_COUNT;++i)

	mov	DWORD PTR _i$67909[ebp], 0
	jmp	SHORT $LN3@operator@3
$LN2@operator@3:
	mov	eax, DWORD PTR _i$67909[ebp]
	add	eax, 1
	mov	DWORD PTR _i$67909[ebp], eax
$LN3@operator@3:
	cmp	DWORD PTR _i$67909[ebp], 9
	jge	SHORT $LN1@operator@3

; 110  :   {
; 111  :     res.m_Mat[i] = m_Mat[i] + Mat3.m_Mat[i];

	mov	eax, DWORD PTR _i$67909[ebp]
	mov	ecx, DWORD PTR _this$[ebp]
	fld	DWORD PTR [ecx+eax*4]
	mov	edx, DWORD PTR _i$67909[ebp]
	mov	eax, DWORD PTR _Mat3$[ebp]
	fadd	DWORD PTR [eax+edx*4]
	mov	ecx, DWORD PTR _i$67909[ebp]
	fstp	DWORD PTR _res$[ebp+ecx*4]

; 112  :   }

	jmp	SHORT $LN2@operator@3
$LN1@operator@3:

; 113  :   return res;

	lea	eax, DWORD PTR _res$[ebp]
	push	eax
	mov	ecx, DWORD PTR ___$ReturnUdt$[ebp]
	call	??0pecker_matrix3@pecker_sdk@@QAE@ABU01@@Z ; pecker_sdk::pecker_matrix3::pecker_matrix3
	mov	eax, DWORD PTR ___$ReturnUdt$[ebp]

; 114  : }

	push	edx
	mov	ecx, ebp
	push	eax
	lea	edx, DWORD PTR $LN8@operator@3
	call	@_RTC_CheckStackVars@8
	pop	eax
	pop	edx
	pop	edi
	pop	esi
	pop	ebx
	mov	ecx, DWORD PTR __$ArrayPad$[ebp]
	xor	ecx, ebp
	call	@__security_check_cookie@4
	add	esp, 264				; 00000108H
	cmp	ebp, esp
	call	__RTC_CheckEsp
	mov	esp, ebp
	pop	ebp
	ret	8
$LN8@operator@3:
	DD	1
	DD	$LN7@operator@3
$LN7@operator@3:
	DD	-56					; ffffffc8H
	DD	36					; 00000024H
	DD	$LN6@operator@3
$LN6@operator@3:
	DB	114					; 00000072H
	DB	101					; 00000065H
	DB	115					; 00000073H
	DB	0
??Hpecker_matrix3@pecker_sdk@@QBE?AU01@ABU01@@Z ENDP	; pecker_sdk::pecker_matrix3::operator+
_TEXT	ENDS
PUBLIC	__$ArrayPad$
PUBLIC	??Gpecker_matrix3@pecker_sdk@@QBE?AU01@ABU01@@Z	; pecker_sdk::pecker_matrix3::operator-
; Function compile flags: /Odtp /RTCsu /ZI
;	COMDAT ??Gpecker_matrix3@pecker_sdk@@QBE?AU01@ABU01@@Z
_TEXT	SEGMENT
_i$67919 = -68						; size = 4
_res$ = -56						; size = 36
_this$ = -12						; size = 4
__$ArrayPad$ = -4					; size = 4
___$ReturnUdt$ = 8					; size = 4
_Mat3$ = 12						; size = 4
??Gpecker_matrix3@pecker_sdk@@QBE?AU01@ABU01@@Z PROC	; pecker_sdk::pecker_matrix3::operator-, COMDAT
; _this$ = ecx

; 117  : {

	push	ebp
	mov	ebp, esp
	sub	esp, 264				; 00000108H
	push	ebx
	push	esi
	push	edi
	push	ecx
	lea	edi, DWORD PTR [ebp-264]
	mov	ecx, 66					; 00000042H
	mov	eax, -858993460				; ccccccccH
	rep stosd
	pop	ecx
	mov	eax, DWORD PTR ___security_cookie
	xor	eax, ebp
	mov	DWORD PTR __$ArrayPad$[ebp], eax
	mov	DWORD PTR _this$[ebp], ecx

; 118  :   pecker_matrix3 res;

	lea	ecx, DWORD PTR _res$[ebp]
	call	??0pecker_matrix3@pecker_sdk@@QAE@XZ	; pecker_sdk::pecker_matrix3::pecker_matrix3

; 119  :   for (nINDEX i=0;i<M3_INDEX_COUNT;++i)

	mov	DWORD PTR _i$67919[ebp], 0
	jmp	SHORT $LN3@operator@4
$LN2@operator@4:
	mov	eax, DWORD PTR _i$67919[ebp]
	add	eax, 1
	mov	DWORD PTR _i$67919[ebp], eax
$LN3@operator@4:
	cmp	DWORD PTR _i$67919[ebp], 9
	jge	SHORT $LN1@operator@4

; 120  :   {
; 121  :     res.m_Mat[i] = m_Mat[i] - Mat3.m_Mat[i];

	mov	eax, DWORD PTR _i$67919[ebp]
	mov	ecx, DWORD PTR _this$[ebp]
	fld	DWORD PTR [ecx+eax*4]
	mov	edx, DWORD PTR _i$67919[ebp]
	mov	eax, DWORD PTR _Mat3$[ebp]
	fsub	DWORD PTR [eax+edx*4]
	mov	ecx, DWORD PTR _i$67919[ebp]
	fstp	DWORD PTR _res$[ebp+ecx*4]

; 122  :   }

	jmp	SHORT $LN2@operator@4
$LN1@operator@4:

; 123  :   return res;

	lea	eax, DWORD PTR _res$[ebp]
	push	eax
	mov	ecx, DWORD PTR ___$ReturnUdt$[ebp]
	call	??0pecker_matrix3@pecker_sdk@@QAE@ABU01@@Z ; pecker_sdk::pecker_matrix3::pecker_matrix3
	mov	eax, DWORD PTR ___$ReturnUdt$[ebp]

; 124  : }

	push	edx
	mov	ecx, ebp
	push	eax
	lea	edx, DWORD PTR $LN8@operator@4
	call	@_RTC_CheckStackVars@8
	pop	eax
	pop	edx
	pop	edi
	pop	esi
	pop	ebx
	mov	ecx, DWORD PTR __$ArrayPad$[ebp]
	xor	ecx, ebp
	call	@__security_check_cookie@4
	add	esp, 264				; 00000108H
	cmp	ebp, esp
	call	__RTC_CheckEsp
	mov	esp, ebp
	pop	ebp
	ret	8
$LN8@operator@4:
	DD	1
	DD	$LN7@operator@4
$LN7@operator@4:
	DD	-56					; ffffffc8H
	DD	36					; 00000024H
	DD	$LN6@operator@4
$LN6@operator@4:
	DB	114					; 00000072H
	DB	101					; 00000065H
	DB	115					; 00000073H
	DB	0
??Gpecker_matrix3@pecker_sdk@@QBE?AU01@ABU01@@Z ENDP	; pecker_sdk::pecker_matrix3::operator-
_TEXT	ENDS
PUBLIC	__$ArrayPad$
PUBLIC	??Xpecker_matrix3@pecker_sdk@@QAEAAU01@ABU01@@Z	; pecker_sdk::pecker_matrix3::operator*=
; Function compile flags: /Odtp /RTCsu /ZI
;	COMDAT ??Xpecker_matrix3@pecker_sdk@@QAEAAU01@ABU01@@Z
_TEXT	SEGMENT
$T67928 = -292						; size = 36
_tmpMat$ = -56						; size = 36
_this$ = -12						; size = 4
__$ArrayPad$ = -4					; size = 4
_Mat3$ = 8						; size = 4
??Xpecker_matrix3@pecker_sdk@@QAEAAU01@ABU01@@Z PROC	; pecker_sdk::pecker_matrix3::operator*=, COMDAT
; _this$ = ecx

; 127  : {

	push	ebp
	mov	ebp, esp
	sub	esp, 296				; 00000128H
	push	ebx
	push	esi
	push	edi
	push	ecx
	lea	edi, DWORD PTR [ebp-296]
	mov	ecx, 74					; 0000004aH
	mov	eax, -858993460				; ccccccccH
	rep stosd
	pop	ecx
	mov	eax, DWORD PTR ___security_cookie
	xor	eax, ebp
	mov	DWORD PTR __$ArrayPad$[ebp], eax
	mov	DWORD PTR _this$[ebp], ecx

; 128  :   pecker_matrix3 tmpMat(*this);

	mov	eax, DWORD PTR _this$[ebp]
	push	eax
	lea	ecx, DWORD PTR _tmpMat$[ebp]
	call	??0pecker_matrix3@pecker_sdk@@QAE@ABU01@@Z ; pecker_sdk::pecker_matrix3::pecker_matrix3

; 129  :   *this = tmpMat * Mat3;

	mov	eax, DWORD PTR _Mat3$[ebp]
	push	eax
	lea	ecx, DWORD PTR $T67928[ebp]
	push	ecx
	lea	ecx, DWORD PTR _tmpMat$[ebp]
	call	??Dpecker_matrix3@pecker_sdk@@QBE?AU01@ABU01@@Z ; pecker_sdk::pecker_matrix3::operator*
	mov	ecx, 9
	mov	esi, eax
	mov	edi, DWORD PTR _this$[ebp]
	rep movsd

; 130  :   return *this;

	mov	eax, DWORD PTR _this$[ebp]

; 131  : }

	push	edx
	mov	ecx, ebp
	push	eax
	lea	edx, DWORD PTR $LN5@operator@5
	call	@_RTC_CheckStackVars@8
	pop	eax
	pop	edx
	pop	edi
	pop	esi
	pop	ebx
	mov	ecx, DWORD PTR __$ArrayPad$[ebp]
	xor	ecx, ebp
	call	@__security_check_cookie@4
	add	esp, 296				; 00000128H
	cmp	ebp, esp
	call	__RTC_CheckEsp
	mov	esp, ebp
	pop	ebp
	ret	4
$LN5@operator@5:
	DD	1
	DD	$LN4@operator@5
$LN4@operator@5:
	DD	-56					; ffffffc8H
	DD	36					; 00000024H
	DD	$LN3@operator@5
$LN3@operator@5:
	DB	116					; 00000074H
	DB	109					; 0000006dH
	DB	112					; 00000070H
	DB	77					; 0000004dH
	DB	97					; 00000061H
	DB	116					; 00000074H
	DB	0
??Xpecker_matrix3@pecker_sdk@@QAEAAU01@ABU01@@Z ENDP	; pecker_sdk::pecker_matrix3::operator*=
_TEXT	ENDS
PUBLIC	??Xpecker_matrix3@pecker_sdk@@QAEAAU01@M@Z	; pecker_sdk::pecker_matrix3::operator*=
; Function compile flags: /Odtp /RTCsu /ZI
;	COMDAT ??Xpecker_matrix3@pecker_sdk@@QAEAAU01@M@Z
_TEXT	SEGMENT
_i$67933 = -20						; size = 4
_this$ = -8						; size = 4
_fVal$ = 8						; size = 4
??Xpecker_matrix3@pecker_sdk@@QAEAAU01@M@Z PROC		; pecker_sdk::pecker_matrix3::operator*=, COMDAT
; _this$ = ecx

; 135  : {

	push	ebp
	mov	ebp, esp
	sub	esp, 216				; 000000d8H
	push	ebx
	push	esi
	push	edi
	push	ecx
	lea	edi, DWORD PTR [ebp-216]
	mov	ecx, 54					; 00000036H
	mov	eax, -858993460				; ccccccccH
	rep stosd
	pop	ecx
	mov	DWORD PTR _this$[ebp], ecx

; 136  :   for (nINDEX i=0;i<M3_INDEX_COUNT;++i)

	mov	DWORD PTR _i$67933[ebp], 0
	jmp	SHORT $LN3@operator@6
$LN2@operator@6:
	mov	eax, DWORD PTR _i$67933[ebp]
	add	eax, 1
	mov	DWORD PTR _i$67933[ebp], eax
$LN3@operator@6:
	cmp	DWORD PTR _i$67933[ebp], 9
	jge	SHORT $LN1@operator@6

; 137  :   {
; 138  :     m_Mat[i] *= fVal;

	mov	eax, DWORD PTR _i$67933[ebp]
	mov	ecx, DWORD PTR _this$[ebp]
	fld	DWORD PTR [ecx+eax*4]
	fmul	DWORD PTR _fVal$[ebp]
	mov	edx, DWORD PTR _i$67933[ebp]
	mov	eax, DWORD PTR _this$[ebp]
	fstp	DWORD PTR [eax+edx*4]

; 139  :   }

	jmp	SHORT $LN2@operator@6
$LN1@operator@6:

; 140  :   return *this;

	mov	eax, DWORD PTR _this$[ebp]

; 141  : }

	pop	edi
	pop	esi
	pop	ebx
	mov	esp, ebp
	pop	ebp
	ret	4
??Xpecker_matrix3@pecker_sdk@@QAEAAU01@M@Z ENDP		; pecker_sdk::pecker_matrix3::operator*=
_TEXT	ENDS
PUBLIC	??Ypecker_matrix3@pecker_sdk@@QAEAAU01@ABU01@@Z	; pecker_sdk::pecker_matrix3::operator+=
; Function compile flags: /Odtp /RTCsu /ZI
;	COMDAT ??Ypecker_matrix3@pecker_sdk@@QAEAAU01@ABU01@@Z
_TEXT	SEGMENT
_i$67941 = -20						; size = 4
_this$ = -8						; size = 4
_Mat3$ = 8						; size = 4
??Ypecker_matrix3@pecker_sdk@@QAEAAU01@ABU01@@Z PROC	; pecker_sdk::pecker_matrix3::operator+=, COMDAT
; _this$ = ecx

; 144  : {

	push	ebp
	mov	ebp, esp
	sub	esp, 216				; 000000d8H
	push	ebx
	push	esi
	push	edi
	push	ecx
	lea	edi, DWORD PTR [ebp-216]
	mov	ecx, 54					; 00000036H
	mov	eax, -858993460				; ccccccccH
	rep stosd
	pop	ecx
	mov	DWORD PTR _this$[ebp], ecx

; 145  :   for (nINDEX i=0;i<M3_INDEX_COUNT;++i)

	mov	DWORD PTR _i$67941[ebp], 0
	jmp	SHORT $LN3@operator@7
$LN2@operator@7:
	mov	eax, DWORD PTR _i$67941[ebp]
	add	eax, 1
	mov	DWORD PTR _i$67941[ebp], eax
$LN3@operator@7:
	cmp	DWORD PTR _i$67941[ebp], 9
	jge	SHORT $LN1@operator@7

; 146  :   {
; 147  :     m_Mat[i] += Mat3.m_Mat[i];

	mov	eax, DWORD PTR _i$67941[ebp]
	mov	ecx, DWORD PTR _this$[ebp]
	fld	DWORD PTR [ecx+eax*4]
	mov	edx, DWORD PTR _i$67941[ebp]
	mov	eax, DWORD PTR _Mat3$[ebp]
	fadd	DWORD PTR [eax+edx*4]
	mov	ecx, DWORD PTR _i$67941[ebp]
	mov	edx, DWORD PTR _this$[ebp]
	fstp	DWORD PTR [edx+ecx*4]

; 148  :   }

	jmp	SHORT $LN2@operator@7
$LN1@operator@7:

; 149  :   return *this;

	mov	eax, DWORD PTR _this$[ebp]

; 150  : }

	pop	edi
	pop	esi
	pop	ebx
	mov	esp, ebp
	pop	ebp
	ret	4
??Ypecker_matrix3@pecker_sdk@@QAEAAU01@ABU01@@Z ENDP	; pecker_sdk::pecker_matrix3::operator+=
_TEXT	ENDS
PUBLIC	??Zpecker_matrix3@pecker_sdk@@QAEAAU01@ABU01@@Z	; pecker_sdk::pecker_matrix3::operator-=
; Function compile flags: /Odtp /RTCsu /ZI
;	COMDAT ??Zpecker_matrix3@pecker_sdk@@QAEAAU01@ABU01@@Z
_TEXT	SEGMENT
_i$67949 = -20						; size = 4
_this$ = -8						; size = 4
_Mat3$ = 8						; size = 4
??Zpecker_matrix3@pecker_sdk@@QAEAAU01@ABU01@@Z PROC	; pecker_sdk::pecker_matrix3::operator-=, COMDAT
; _this$ = ecx

; 153  : {

	push	ebp
	mov	ebp, esp
	sub	esp, 216				; 000000d8H
	push	ebx
	push	esi
	push	edi
	push	ecx
	lea	edi, DWORD PTR [ebp-216]
	mov	ecx, 54					; 00000036H
	mov	eax, -858993460				; ccccccccH
	rep stosd
	pop	ecx
	mov	DWORD PTR _this$[ebp], ecx

; 154  :   for (nINDEX i=0;i<M3_INDEX_COUNT;++i)

	mov	DWORD PTR _i$67949[ebp], 0
	jmp	SHORT $LN3@operator@8
$LN2@operator@8:
	mov	eax, DWORD PTR _i$67949[ebp]
	add	eax, 1
	mov	DWORD PTR _i$67949[ebp], eax
$LN3@operator@8:
	cmp	DWORD PTR _i$67949[ebp], 9
	jge	SHORT $LN1@operator@8

; 155  :   {
; 156  :     m_Mat[i] -= Mat3.m_Mat[i];

	mov	eax, DWORD PTR _i$67949[ebp]
	mov	ecx, DWORD PTR _this$[ebp]
	fld	DWORD PTR [ecx+eax*4]
	mov	edx, DWORD PTR _i$67949[ebp]
	mov	eax, DWORD PTR _Mat3$[ebp]
	fsub	DWORD PTR [eax+edx*4]
	mov	ecx, DWORD PTR _i$67949[ebp]
	mov	edx, DWORD PTR _this$[ebp]
	fstp	DWORD PTR [edx+ecx*4]

; 157  :   }

	jmp	SHORT $LN2@operator@8
$LN1@operator@8:

; 158  :   return *this;

	mov	eax, DWORD PTR _this$[ebp]

; 159  : }

	pop	edi
	pop	esi
	pop	ebx
	mov	esp, ebp
	pop	ebp
	ret	4
??Zpecker_matrix3@pecker_sdk@@QAEAAU01@ABU01@@Z ENDP	; pecker_sdk::pecker_matrix3::operator-=
_TEXT	ENDS
PUBLIC	__real@beb0c6f7a0000000
PUBLIC	__real@3eb0c6f7a0000000
PUBLIC	??8pecker_matrix3@pecker_sdk@@QBE_NABU01@@Z	; pecker_sdk::pecker_matrix3::operator==
;	COMDAT __real@beb0c6f7a0000000
CONST	SEGMENT
__real@beb0c6f7a0000000 DQ 0beb0c6f7a0000000r	; -1e-006
CONST	ENDS
;	COMDAT __real@3eb0c6f7a0000000
CONST	SEGMENT
__real@3eb0c6f7a0000000 DQ 03eb0c6f7a0000000r	; 1e-006
; Function compile flags: /Odtp /RTCsu /ZI
CONST	ENDS
;	COMDAT ??8pecker_matrix3@pecker_sdk@@QBE_NABU01@@Z
_TEXT	SEGMENT
tv88 = -237						; size = 1
tv139 = -236						; size = 4
tv129 = -232						; size = 4
_i$67958 = -32						; size = 4
_res$ = -17						; size = 1
_this$ = -8						; size = 4
_Val$ = 8						; size = 4
??8pecker_matrix3@pecker_sdk@@QBE_NABU01@@Z PROC	; pecker_sdk::pecker_matrix3::operator==, COMDAT
; _this$ = ecx

; 163  : {

	push	ebp
	mov	ebp, esp
	sub	esp, 240				; 000000f0H
	push	ebx
	push	esi
	push	edi
	push	ecx
	lea	edi, DWORD PTR [ebp-240]
	mov	ecx, 60					; 0000003cH
	mov	eax, -858993460				; ccccccccH
	rep stosd
	pop	ecx
	mov	DWORD PTR _this$[ebp], ecx

; 164  :   Bool res = true;

	mov	BYTE PTR _res$[ebp], 1

; 165  :   for (nINDEX i=0;i<M3_INDEX_COUNT;++i)

	mov	DWORD PTR _i$67958[ebp], 0
	jmp	SHORT $LN4@operator@9
$LN3@operator@9:
	mov	eax, DWORD PTR _i$67958[ebp]
	add	eax, 1
	mov	DWORD PTR _i$67958[ebp], eax
$LN4@operator@9:
	cmp	DWORD PTR _i$67958[ebp], 9
	jge	SHORT $LN2@operator@9

; 166  :   {
; 167  :     if(!EQFLOATZERO(m_Mat[i]-Val.m_Mat[i]))

	mov	eax, DWORD PTR _i$67958[ebp]
	mov	ecx, DWORD PTR _this$[ebp]
	fld	DWORD PTR [ecx+eax*4]
	mov	edx, DWORD PTR _i$67958[ebp]
	mov	eax, DWORD PTR _Val$[ebp]
	fsub	DWORD PTR [eax+edx*4]
	fstp	DWORD PTR tv129[ebp]
	fld	DWORD PTR tv129[ebp]
	fcomp	QWORD PTR __real@3eb0c6f7a0000000
	fnstsw	ax
	test	ah, 65					; 00000041H
	jp	SHORT $LN7@operator@9
	mov	ecx, DWORD PTR _i$67958[ebp]
	mov	edx, DWORD PTR _this$[ebp]
	fld	DWORD PTR [edx+ecx*4]
	mov	eax, DWORD PTR _i$67958[ebp]
	mov	ecx, DWORD PTR _Val$[ebp]
	fsub	DWORD PTR [ecx+eax*4]
	fstp	DWORD PTR tv139[ebp]
	fld	DWORD PTR tv139[ebp]
	fcomp	QWORD PTR __real@beb0c6f7a0000000
	fnstsw	ax
	test	ah, 1
	jne	SHORT $LN7@operator@9
	mov	BYTE PTR tv88[ebp], 1
	jmp	SHORT $LN8@operator@9
$LN7@operator@9:
	mov	BYTE PTR tv88[ebp], 0
$LN8@operator@9:
	movzx	edx, BYTE PTR tv88[ebp]
	test	edx, edx
	jne	SHORT $LN1@operator@9

; 168  :     {
; 169  :       res = false;

	mov	BYTE PTR _res$[ebp], 0

; 170  :       break;

	jmp	SHORT $LN2@operator@9
$LN1@operator@9:

; 171  :     }
; 172  :   }

	jmp	$LN3@operator@9
$LN2@operator@9:

; 173  :   return res;

	mov	al, BYTE PTR _res$[ebp]

; 174  : }

	pop	edi
	pop	esi
	pop	ebx
	mov	esp, ebp
	pop	ebp
	ret	4
??8pecker_matrix3@pecker_sdk@@QBE_NABU01@@Z ENDP	; pecker_sdk::pecker_matrix3::operator==
_TEXT	ENDS
PUBLIC	??9pecker_matrix3@pecker_sdk@@QBE_NABU01@@Z	; pecker_sdk::pecker_matrix3::operator!=
; Function compile flags: /Odtp /RTCsu /ZI
;	COMDAT ??9pecker_matrix3@pecker_sdk@@QBE_NABU01@@Z
_TEXT	SEGMENT
_this$ = -8						; size = 4
_Val$ = 8						; size = 4
??9pecker_matrix3@pecker_sdk@@QBE_NABU01@@Z PROC	; pecker_sdk::pecker_matrix3::operator!=, COMDAT
; _this$ = ecx

; 177  : {

	push	ebp
	mov	ebp, esp
	sub	esp, 204				; 000000ccH
	push	ebx
	push	esi
	push	edi
	push	ecx
	lea	edi, DWORD PTR [ebp-204]
	mov	ecx, 51					; 00000033H
	mov	eax, -858993460				; ccccccccH
	rep stosd
	pop	ecx
	mov	DWORD PTR _this$[ebp], ecx

; 178  :   return !(*this == Val);

	mov	eax, DWORD PTR _Val$[ebp]
	push	eax
	mov	ecx, DWORD PTR _this$[ebp]
	call	??8pecker_matrix3@pecker_sdk@@QBE_NABU01@@Z ; pecker_sdk::pecker_matrix3::operator==
	movzx	eax, al
	neg	eax
	sbb	eax, eax
	add	eax, 1

; 179  : }

	pop	edi
	pop	esi
	pop	ebx
	add	esp, 204				; 000000ccH
	cmp	ebp, esp
	call	__RTC_CheckEsp
	mov	esp, ebp
	pop	ebp
	ret	4
??9pecker_matrix3@pecker_sdk@@QBE_NABU01@@Z ENDP	; pecker_sdk::pecker_matrix3::operator!=
_TEXT	ENDS
PUBLIC	?get_data@pecker_matrix3@pecker_sdk@@QAEPAMXZ	; pecker_sdk::pecker_matrix3::get_data
; Function compile flags: /Odtp /RTCsu /ZI
;	COMDAT ?get_data@pecker_matrix3@pecker_sdk@@QAEPAMXZ
_TEXT	SEGMENT
_this$ = -8						; size = 4
?get_data@pecker_matrix3@pecker_sdk@@QAEPAMXZ PROC	; pecker_sdk::pecker_matrix3::get_data, COMDAT
; _this$ = ecx

; 182  : {

	push	ebp
	mov	ebp, esp
	sub	esp, 204				; 000000ccH
	push	ebx
	push	esi
	push	edi
	push	ecx
	lea	edi, DWORD PTR [ebp-204]
	mov	ecx, 51					; 00000033H
	mov	eax, -858993460				; ccccccccH
	rep stosd
	pop	ecx
	mov	DWORD PTR _this$[ebp], ecx

; 183  :   return (Float*)this;

	mov	eax, DWORD PTR _this$[ebp]

; 184  : }

	pop	edi
	pop	esi
	pop	ebx
	mov	esp, ebp
	pop	ebp
	ret	0
?get_data@pecker_matrix3@pecker_sdk@@QAEPAMXZ ENDP	; pecker_sdk::pecker_matrix3::get_data
_TEXT	ENDS
PUBLIC	?determinant@pecker_matrix3@pecker_sdk@@QBEMXZ	; pecker_sdk::pecker_matrix3::determinant
; Function compile flags: /Odtp /RTCsu /ZI
;	COMDAT ?determinant@pecker_matrix3@pecker_sdk@@QBEMXZ
_TEXT	SEGMENT
tv163 = -208						; size = 4
_this$ = -8						; size = 4
?determinant@pecker_matrix3@pecker_sdk@@QBEMXZ PROC	; pecker_sdk::pecker_matrix3::determinant, COMDAT
; _this$ = ecx

; 187  : {

	push	ebp
	mov	ebp, esp
	sub	esp, 208				; 000000d0H
	push	ebx
	push	esi
	push	edi
	push	ecx
	lea	edi, DWORD PTR [ebp-208]
	mov	ecx, 52					; 00000034H
	mov	eax, -858993460				; ccccccccH
	rep stosd
	pop	ecx
	mov	DWORD PTR _this$[ebp], ecx

; 188  : 
; 189  :   return ( m_Mat[M3_00]*(m_Mat[M3_11]*m_Mat[M3_22]-m_Mat[M3_21]*m_Mat[M3_12])
; 190  :       - m_Mat[M3_10]*(m_Mat[M3_01]*m_Mat[M3_22]-m_Mat[M3_21]*m_Mat[M3_02])
; 191  :       + m_Mat[M3_20]*(m_Mat[M3_01]*m_Mat[M3_12]-m_Mat[M3_11]*m_Mat[M3_02]) );

	mov	eax, DWORD PTR _this$[ebp]
	fld	DWORD PTR [eax+16]
	mov	ecx, DWORD PTR _this$[ebp]
	fmul	DWORD PTR [ecx+32]
	mov	edx, DWORD PTR _this$[ebp]
	fld	DWORD PTR [edx+28]
	mov	eax, DWORD PTR _this$[ebp]
	fmul	DWORD PTR [eax+20]
	fsubp	ST(1), ST(0)
	mov	ecx, DWORD PTR _this$[ebp]
	fmul	DWORD PTR [ecx]
	mov	edx, DWORD PTR _this$[ebp]
	fld	DWORD PTR [edx+4]
	mov	eax, DWORD PTR _this$[ebp]
	fmul	DWORD PTR [eax+32]
	mov	ecx, DWORD PTR _this$[ebp]
	fld	DWORD PTR [ecx+28]
	mov	edx, DWORD PTR _this$[ebp]
	fmul	DWORD PTR [edx+8]
	fsubp	ST(1), ST(0)
	mov	eax, DWORD PTR _this$[ebp]
	fmul	DWORD PTR [eax+12]
	fsubp	ST(1), ST(0)
	mov	ecx, DWORD PTR _this$[ebp]
	fld	DWORD PTR [ecx+4]
	mov	edx, DWORD PTR _this$[ebp]
	fmul	DWORD PTR [edx+20]
	mov	eax, DWORD PTR _this$[ebp]
	fld	DWORD PTR [eax+16]
	mov	ecx, DWORD PTR _this$[ebp]
	fmul	DWORD PTR [ecx+8]
	fsubp	ST(1), ST(0)
	mov	edx, DWORD PTR _this$[ebp]
	fmul	DWORD PTR [edx+24]
	faddp	ST(1), ST(0)
	fstp	DWORD PTR tv163[ebp]
	fld	DWORD PTR tv163[ebp]

; 192  : }

	pop	edi
	pop	esi
	pop	ebx
	mov	esp, ebp
	pop	ebp
	ret	0
?determinant@pecker_matrix3@pecker_sdk@@QBEMXZ ENDP	; pecker_sdk::pecker_matrix3::determinant
_TEXT	ENDS
PUBLIC	__real@3ff0000000000000
PUBLIC	??_C@_0BE@FLPAGDEE@determinant?5?$DN?$DN?50?40f?$AA@ ; `string'
PUBLIC	??_C@_01EEMJAFIK@?6?$AA@			; `string'
PUBLIC	??_C@_0BC@FOPGGGEO@CMatrix3?3?3inverse?$AA@	; `string'
PUBLIC	??_C@_0M@ONMFDOOB@ERROR_INFO?5?$AA@		; `string'
PUBLIC	__real@00000000
PUBLIC	__$ArrayPad$
PUBLIC	?inverse@pecker_matrix3@pecker_sdk@@QBE?AU12@XZ	; pecker_sdk::pecker_matrix3::inverse
EXTRN	__imp__printf:PROC
;	COMDAT __real@3ff0000000000000
CONST	SEGMENT
__real@3ff0000000000000 DQ 03ff0000000000000r	; 1
CONST	ENDS
;	COMDAT ??_C@_0BE@FLPAGDEE@determinant?5?$DN?$DN?50?40f?$AA@
CONST	SEGMENT
??_C@_0BE@FLPAGDEE@determinant?5?$DN?$DN?50?40f?$AA@ DB 'determinant == 0'
	DB	'.0f', 00H					; `string'
CONST	ENDS
;	COMDAT ??_C@_01EEMJAFIK@?6?$AA@
CONST	SEGMENT
??_C@_01EEMJAFIK@?6?$AA@ DB 0aH, 00H			; `string'
CONST	ENDS
;	COMDAT ??_C@_0BC@FOPGGGEO@CMatrix3?3?3inverse?$AA@
CONST	SEGMENT
??_C@_0BC@FOPGGGEO@CMatrix3?3?3inverse?$AA@ DB 'CMatrix3::inverse', 00H ; `string'
CONST	ENDS
;	COMDAT ??_C@_0M@ONMFDOOB@ERROR_INFO?5?$AA@
CONST	SEGMENT
??_C@_0M@ONMFDOOB@ERROR_INFO?5?$AA@ DB 'ERROR_INFO ', 00H ; `string'
CONST	ENDS
;	COMDAT __real@00000000
CONST	SEGMENT
__real@00000000 DD 000000000r			; 0
; Function compile flags: /Odtp /RTCsu /ZI
CONST	ENDS
;	COMDAT ?inverse@pecker_matrix3@pecker_sdk@@QBE?AU12@XZ
_TEXT	SEGMENT
tv71 = -277						; size = 1
_i$67983 = -80						; size = 4
_fDet$ = -68						; size = 4
_res$ = -56						; size = 36
_this$ = -12						; size = 4
__$ArrayPad$ = -4					; size = 4
___$ReturnUdt$ = 8					; size = 4
?inverse@pecker_matrix3@pecker_sdk@@QBE?AU12@XZ PROC	; pecker_sdk::pecker_matrix3::inverse, COMDAT
; _this$ = ecx

; 195  : {

	push	ebp
	mov	ebp, esp
	sub	esp, 280				; 00000118H
	push	ebx
	push	esi
	push	edi
	push	ecx
	lea	edi, DWORD PTR [ebp-280]
	mov	ecx, 70					; 00000046H
	mov	eax, -858993460				; ccccccccH
	rep stosd
	pop	ecx
	mov	eax, DWORD PTR ___security_cookie
	xor	eax, ebp
	mov	DWORD PTR __$ArrayPad$[ebp], eax
	mov	DWORD PTR _this$[ebp], ecx

; 196  :   pecker_matrix3 res;

	lea	ecx, DWORD PTR _res$[ebp]
	call	??0pecker_matrix3@pecker_sdk@@QAE@XZ	; pecker_sdk::pecker_matrix3::pecker_matrix3

; 197  :   Float fDet = determinant();

	mov	ecx, DWORD PTR _this$[ebp]
	call	?determinant@pecker_matrix3@pecker_sdk@@QBEMXZ ; pecker_sdk::pecker_matrix3::determinant
	fstp	DWORD PTR _fDet$[ebp]

; 198  :   // 0 == fDet
; 199  :   if (EQFLOATZERO(fDet))

	fld	DWORD PTR _fDet$[ebp]
	fcomp	QWORD PTR __real@3eb0c6f7a0000000
	fnstsw	ax
	test	ah, 65					; 00000041H
	jp	SHORT $LN7@inverse
	fld	DWORD PTR _fDet$[ebp]
	fcomp	QWORD PTR __real@beb0c6f7a0000000
	fnstsw	ax
	test	ah, 1
	jne	SHORT $LN7@inverse
	mov	BYTE PTR tv71[ebp], 1
	jmp	SHORT $LN8@inverse
$LN7@inverse:
	mov	BYTE PTR tv71[ebp], 0
$LN8@inverse:
	movzx	eax, BYTE PTR tv71[ebp]
	test	eax, eax
	je	$LN4@inverse

; 200  :   {
; 201  :     for (nINDEX i=0;i<M3_INDEX_COUNT;++i)

	mov	DWORD PTR _i$67983[ebp], 0
	jmp	SHORT $LN3@inverse
$LN2@inverse:
	mov	eax, DWORD PTR _i$67983[ebp]
	add	eax, 1
	mov	DWORD PTR _i$67983[ebp], eax
$LN3@inverse:
	cmp	DWORD PTR _i$67983[ebp], 9
	jge	SHORT $LN1@inverse

; 202  :     {
; 203  :       res.m_Mat[i] = 0.0f;

	mov	eax, DWORD PTR _i$67983[ebp]
	fldz
	fstp	DWORD PTR _res$[ebp+eax*4]

; 204  :     }

	jmp	SHORT $LN2@inverse
$LN1@inverse:

; 205  : 
; 206  :     //CPeckerLogger::GetSignleton()->LogOut(LOGINFO_ERROR,"CMatrix3::inverse","determinant == 0.0f");
; 207  : 	PECKER_LOG_ERR("CMatrix3::inverse","determinant == 0.0f",0);

	mov	esi, esp
	push	OFFSET ??_C@_0M@ONMFDOOB@ERROR_INFO?5?$AA@
	call	DWORD PTR __imp__printf
	add	esp, 4
	cmp	esi, esp
	call	__RTC_CheckEsp
	mov	esi, esp
	push	OFFSET ??_C@_0BC@FOPGGGEO@CMatrix3?3?3inverse?$AA@
	call	DWORD PTR __imp__printf
	add	esp, 4
	cmp	esi, esp
	call	__RTC_CheckEsp
	mov	esi, esp
	push	OFFSET ??_C@_01EEMJAFIK@?6?$AA@
	call	DWORD PTR __imp__printf
	add	esp, 4
	cmp	esi, esp
	call	__RTC_CheckEsp
	mov	esi, esp
	push	0
	push	OFFSET ??_C@_0BE@FLPAGDEE@determinant?5?$DN?$DN?50?40f?$AA@
	call	DWORD PTR __imp__printf
	add	esp, 8
	cmp	esi, esp
	call	__RTC_CheckEsp
	mov	esi, esp
	push	OFFSET ??_C@_01EEMJAFIK@?6?$AA@
	call	DWORD PTR __imp__printf
	add	esp, 4
	cmp	esi, esp
	call	__RTC_CheckEsp

; 208  :     return res;

	lea	eax, DWORD PTR _res$[ebp]
	push	eax
	mov	ecx, DWORD PTR ___$ReturnUdt$[ebp]
	call	??0pecker_matrix3@pecker_sdk@@QAE@ABU01@@Z ; pecker_sdk::pecker_matrix3::pecker_matrix3
	mov	eax, DWORD PTR ___$ReturnUdt$[ebp]
	jmp	$LN5@inverse
$LN4@inverse:

; 209  :   }
; 210  : 
; 211  :   fDet = 1.0f/fDet;

	fld	DWORD PTR _fDet$[ebp]
	fld1
	fdivrp	ST(1), ST(0)
	fstp	DWORD PTR _fDet$[ebp]

; 212  : 
; 213  :   res.m_Mat[M3_00] = m_Mat[M3_11]*m_Mat[M3_22] - m_Mat[M3_12]*m_Mat[M3_21];

	mov	eax, DWORD PTR _this$[ebp]
	fld	DWORD PTR [eax+16]
	mov	ecx, DWORD PTR _this$[ebp]
	fmul	DWORD PTR [ecx+32]
	mov	edx, DWORD PTR _this$[ebp]
	fld	DWORD PTR [edx+20]
	mov	eax, DWORD PTR _this$[ebp]
	fmul	DWORD PTR [eax+28]
	fsubp	ST(1), ST(0)
	fstp	DWORD PTR _res$[ebp]

; 214  :   res.m_Mat[M3_01] = m_Mat[M3_02]*m_Mat[M3_21] - m_Mat[M3_01]*m_Mat[M3_22];

	mov	eax, DWORD PTR _this$[ebp]
	fld	DWORD PTR [eax+8]
	mov	ecx, DWORD PTR _this$[ebp]
	fmul	DWORD PTR [ecx+28]
	mov	edx, DWORD PTR _this$[ebp]
	fld	DWORD PTR [edx+4]
	mov	eax, DWORD PTR _this$[ebp]
	fmul	DWORD PTR [eax+32]
	fsubp	ST(1), ST(0)
	fstp	DWORD PTR _res$[ebp+4]

; 215  :   res.m_Mat[M3_02] = m_Mat[M3_01]*m_Mat[M3_12] - m_Mat[M3_02]*m_Mat[M3_11];

	mov	eax, DWORD PTR _this$[ebp]
	fld	DWORD PTR [eax+4]
	mov	ecx, DWORD PTR _this$[ebp]
	fmul	DWORD PTR [ecx+20]
	mov	edx, DWORD PTR _this$[ebp]
	fld	DWORD PTR [edx+8]
	mov	eax, DWORD PTR _this$[ebp]
	fmul	DWORD PTR [eax+16]
	fsubp	ST(1), ST(0)
	fstp	DWORD PTR _res$[ebp+8]

; 216  : 
; 217  :   res.m_Mat[M3_10] = m_Mat[M3_12]*m_Mat[M3_20] - m_Mat[M3_10]*m_Mat[M3_22];

	mov	eax, DWORD PTR _this$[ebp]
	fld	DWORD PTR [eax+20]
	mov	ecx, DWORD PTR _this$[ebp]
	fmul	DWORD PTR [ecx+24]
	mov	edx, DWORD PTR _this$[ebp]
	fld	DWORD PTR [edx+12]
	mov	eax, DWORD PTR _this$[ebp]
	fmul	DWORD PTR [eax+32]
	fsubp	ST(1), ST(0)
	fstp	DWORD PTR _res$[ebp+12]

; 218  :   res.m_Mat[M3_11] = m_Mat[M3_00]*m_Mat[M3_22] - m_Mat[M3_02]*m_Mat[M3_20];

	mov	eax, DWORD PTR _this$[ebp]
	fld	DWORD PTR [eax]
	mov	ecx, DWORD PTR _this$[ebp]
	fmul	DWORD PTR [ecx+32]
	mov	edx, DWORD PTR _this$[ebp]
	fld	DWORD PTR [edx+8]
	mov	eax, DWORD PTR _this$[ebp]
	fmul	DWORD PTR [eax+24]
	fsubp	ST(1), ST(0)
	fstp	DWORD PTR _res$[ebp+16]

; 219  :   res.m_Mat[M3_12] = m_Mat[M3_02]*m_Mat[M3_10] - m_Mat[M3_00]*m_Mat[M3_12];

	mov	eax, DWORD PTR _this$[ebp]
	fld	DWORD PTR [eax+8]
	mov	ecx, DWORD PTR _this$[ebp]
	fmul	DWORD PTR [ecx+12]
	mov	edx, DWORD PTR _this$[ebp]
	fld	DWORD PTR [edx]
	mov	eax, DWORD PTR _this$[ebp]
	fmul	DWORD PTR [eax+20]
	fsubp	ST(1), ST(0)
	fstp	DWORD PTR _res$[ebp+20]

; 220  : 
; 221  :   res.m_Mat[M3_20] = m_Mat[M3_10]*m_Mat[M3_21] - m_Mat[M3_11]*m_Mat[M3_20];

	mov	eax, DWORD PTR _this$[ebp]
	fld	DWORD PTR [eax+12]
	mov	ecx, DWORD PTR _this$[ebp]
	fmul	DWORD PTR [ecx+28]
	mov	edx, DWORD PTR _this$[ebp]
	fld	DWORD PTR [edx+16]
	mov	eax, DWORD PTR _this$[ebp]
	fmul	DWORD PTR [eax+24]
	fsubp	ST(1), ST(0)
	fstp	DWORD PTR _res$[ebp+24]

; 222  :   res.m_Mat[M3_21] = m_Mat[M3_01]*m_Mat[M3_20] - m_Mat[M3_00]*m_Mat[M3_21];

	mov	eax, DWORD PTR _this$[ebp]
	fld	DWORD PTR [eax+4]
	mov	ecx, DWORD PTR _this$[ebp]
	fmul	DWORD PTR [ecx+24]
	mov	edx, DWORD PTR _this$[ebp]
	fld	DWORD PTR [edx]
	mov	eax, DWORD PTR _this$[ebp]
	fmul	DWORD PTR [eax+28]
	fsubp	ST(1), ST(0)
	fstp	DWORD PTR _res$[ebp+28]

; 223  :   res.m_Mat[M3_22] = m_Mat[M3_00]*m_Mat[M3_11] - m_Mat[M3_01]*m_Mat[M3_10];

	mov	eax, DWORD PTR _this$[ebp]
	fld	DWORD PTR [eax]
	mov	ecx, DWORD PTR _this$[ebp]
	fmul	DWORD PTR [ecx+16]
	mov	edx, DWORD PTR _this$[ebp]
	fld	DWORD PTR [edx+4]
	mov	eax, DWORD PTR _this$[ebp]
	fmul	DWORD PTR [eax+12]
	fsubp	ST(1), ST(0)
	fstp	DWORD PTR _res$[ebp+32]

; 224  : 
; 225  :   return (res *= fDet);

	push	ecx
	fld	DWORD PTR _fDet$[ebp]
	fstp	DWORD PTR [esp]
	lea	ecx, DWORD PTR _res$[ebp]
	call	??Xpecker_matrix3@pecker_sdk@@QAEAAU01@M@Z ; pecker_sdk::pecker_matrix3::operator*=
	push	eax
	mov	ecx, DWORD PTR ___$ReturnUdt$[ebp]
	call	??0pecker_matrix3@pecker_sdk@@QAE@ABU01@@Z ; pecker_sdk::pecker_matrix3::pecker_matrix3
	mov	eax, DWORD PTR ___$ReturnUdt$[ebp]
$LN5@inverse:

; 226  : }

	push	edx
	mov	ecx, ebp
	push	eax
	lea	edx, DWORD PTR $LN11@inverse
	call	@_RTC_CheckStackVars@8
	pop	eax
	pop	edx
	pop	edi
	pop	esi
	pop	ebx
	mov	ecx, DWORD PTR __$ArrayPad$[ebp]
	xor	ecx, ebp
	call	@__security_check_cookie@4
	add	esp, 280				; 00000118H
	cmp	ebp, esp
	call	__RTC_CheckEsp
	mov	esp, ebp
	pop	ebp
	ret	4
	npad	2
$LN11@inverse:
	DD	1
	DD	$LN10@inverse
$LN10@inverse:
	DD	-56					; ffffffc8H
	DD	36					; 00000024H
	DD	$LN9@inverse
$LN9@inverse:
	DB	114					; 00000072H
	DB	101					; 00000065H
	DB	115					; 00000073H
	DB	0
?inverse@pecker_matrix3@pecker_sdk@@QBE?AU12@XZ ENDP	; pecker_sdk::pecker_matrix3::inverse
_TEXT	ENDS
PUBLIC	__$ArrayPad$
PUBLIC	?transpose@pecker_matrix3@pecker_sdk@@QBE?AU12@XZ ; pecker_sdk::pecker_matrix3::transpose
; Function compile flags: /Odtp /RTCsu /ZI
;	COMDAT ?transpose@pecker_matrix3@pecker_sdk@@QBE?AU12@XZ
_TEXT	SEGMENT
_res$ = -56						; size = 36
_this$ = -12						; size = 4
__$ArrayPad$ = -4					; size = 4
___$ReturnUdt$ = 8					; size = 4
?transpose@pecker_matrix3@pecker_sdk@@QBE?AU12@XZ PROC	; pecker_sdk::pecker_matrix3::transpose, COMDAT
; _this$ = ecx

; 229  : {

	push	ebp
	mov	ebp, esp
	sub	esp, 252				; 000000fcH
	push	ebx
	push	esi
	push	edi
	push	ecx
	lea	edi, DWORD PTR [ebp-252]
	mov	ecx, 63					; 0000003fH
	mov	eax, -858993460				; ccccccccH
	rep stosd
	pop	ecx
	mov	eax, DWORD PTR ___security_cookie
	xor	eax, ebp
	mov	DWORD PTR __$ArrayPad$[ebp], eax
	mov	DWORD PTR _this$[ebp], ecx

; 230  :   pecker_matrix3 res;

	lea	ecx, DWORD PTR _res$[ebp]
	call	??0pecker_matrix3@pecker_sdk@@QAE@XZ	; pecker_sdk::pecker_matrix3::pecker_matrix3

; 231  :   res.m_Mat[M3_00] = m_Mat[M3_00]; res.m_Mat[M3_10] = m_Mat[M3_01]; res.m_Mat[M3_20] = m_Mat[M3_02];

	mov	eax, DWORD PTR _this$[ebp]
	fld	DWORD PTR [eax]
	fstp	DWORD PTR _res$[ebp]
	mov	eax, DWORD PTR _this$[ebp]
	fld	DWORD PTR [eax+4]
	fstp	DWORD PTR _res$[ebp+12]
	mov	eax, DWORD PTR _this$[ebp]
	fld	DWORD PTR [eax+8]
	fstp	DWORD PTR _res$[ebp+24]

; 232  :   res.m_Mat[M3_01] = m_Mat[M3_10]; res.m_Mat[M3_11] = m_Mat[M3_11]; res.m_Mat[M3_21] = m_Mat[M3_12];

	mov	eax, DWORD PTR _this$[ebp]
	fld	DWORD PTR [eax+12]
	fstp	DWORD PTR _res$[ebp+4]
	mov	eax, DWORD PTR _this$[ebp]
	fld	DWORD PTR [eax+16]
	fstp	DWORD PTR _res$[ebp+16]
	mov	eax, DWORD PTR _this$[ebp]
	fld	DWORD PTR [eax+20]
	fstp	DWORD PTR _res$[ebp+28]

; 233  :   res.m_Mat[M3_02] = m_Mat[M3_20]; res.m_Mat[M3_12] = m_Mat[M3_21]; res.m_Mat[M3_22] = m_Mat[M3_22];

	mov	eax, DWORD PTR _this$[ebp]
	fld	DWORD PTR [eax+24]
	fstp	DWORD PTR _res$[ebp+8]
	mov	eax, DWORD PTR _this$[ebp]
	fld	DWORD PTR [eax+28]
	fstp	DWORD PTR _res$[ebp+20]
	mov	eax, DWORD PTR _this$[ebp]
	fld	DWORD PTR [eax+32]
	fstp	DWORD PTR _res$[ebp+32]

; 234  :   return res;

	lea	eax, DWORD PTR _res$[ebp]
	push	eax
	mov	ecx, DWORD PTR ___$ReturnUdt$[ebp]
	call	??0pecker_matrix3@pecker_sdk@@QAE@ABU01@@Z ; pecker_sdk::pecker_matrix3::pecker_matrix3
	mov	eax, DWORD PTR ___$ReturnUdt$[ebp]

; 235  : }

	push	edx
	mov	ecx, ebp
	push	eax
	lea	edx, DWORD PTR $LN5@transpose
	call	@_RTC_CheckStackVars@8
	pop	eax
	pop	edx
	pop	edi
	pop	esi
	pop	ebx
	mov	ecx, DWORD PTR __$ArrayPad$[ebp]
	xor	ecx, ebp
	call	@__security_check_cookie@4
	add	esp, 252				; 000000fcH
	cmp	ebp, esp
	call	__RTC_CheckEsp
	mov	esp, ebp
	pop	ebp
	ret	4
	npad	3
$LN5@transpose:
	DD	1
	DD	$LN4@transpose
$LN4@transpose:
	DD	-56					; ffffffc8H
	DD	36					; 00000024H
	DD	$LN3@transpose
$LN3@transpose:
	DB	114					; 00000072H
	DB	101					; 00000065H
	DB	115					; 00000073H
	DB	0
?transpose@pecker_matrix3@pecker_sdk@@QBE?AU12@XZ ENDP	; pecker_sdk::pecker_matrix3::transpose
_TEXT	ENDS
PUBLIC	__real@3f800000
PUBLIC	__$ArrayPad$
PUBLIC	?identity_matrix3@pecker_matrix3@pecker_sdk@@SA?AU12@XZ ; pecker_sdk::pecker_matrix3::identity_matrix3
;	COMDAT __real@3f800000
CONST	SEGMENT
__real@3f800000 DD 03f800000r			; 1
; Function compile flags: /Odtp /RTCsu /ZI
CONST	ENDS
;	COMDAT ?identity_matrix3@pecker_matrix3@pecker_sdk@@SA?AU12@XZ
_TEXT	SEGMENT
_res$ = -44						; size = 36
__$ArrayPad$ = -4					; size = 4
___$ReturnUdt$ = 8					; size = 4
?identity_matrix3@pecker_matrix3@pecker_sdk@@SA?AU12@XZ PROC ; pecker_sdk::pecker_matrix3::identity_matrix3, COMDAT

; 238  : {

	push	ebp
	mov	ebp, esp
	sub	esp, 240				; 000000f0H
	push	ebx
	push	esi
	push	edi
	lea	edi, DWORD PTR [ebp-240]
	mov	ecx, 60					; 0000003cH
	mov	eax, -858993460				; ccccccccH
	rep stosd
	mov	eax, DWORD PTR ___security_cookie
	xor	eax, ebp
	mov	DWORD PTR __$ArrayPad$[ebp], eax

; 239  :   pecker_matrix3 res;

	lea	ecx, DWORD PTR _res$[ebp]
	call	??0pecker_matrix3@pecker_sdk@@QAE@XZ	; pecker_sdk::pecker_matrix3::pecker_matrix3

; 240  :   res.m_Mat[M3_00] = 1.0f; res.m_Mat[M3_10] = 0.0f; res.m_Mat[M3_20] = 0.0f;

	fld1
	fstp	DWORD PTR _res$[ebp]
	fldz
	fstp	DWORD PTR _res$[ebp+12]
	fldz
	fstp	DWORD PTR _res$[ebp+24]

; 241  :   res.m_Mat[M3_01] = 0.0f; res.m_Mat[M3_11] = 1.0f; res.m_Mat[M3_21] = 0.0f;

	fldz
	fstp	DWORD PTR _res$[ebp+4]
	fld1
	fstp	DWORD PTR _res$[ebp+16]
	fldz
	fstp	DWORD PTR _res$[ebp+28]

; 242  :   res.m_Mat[M3_02] = 0.0f; res.m_Mat[M3_12] = 0.0f; res.m_Mat[M3_22] = 1.0f;

	fldz
	fstp	DWORD PTR _res$[ebp+8]
	fldz
	fstp	DWORD PTR _res$[ebp+20]
	fld1
	fstp	DWORD PTR _res$[ebp+32]

; 243  :   return res;

	lea	eax, DWORD PTR _res$[ebp]
	push	eax
	mov	ecx, DWORD PTR ___$ReturnUdt$[ebp]
	call	??0pecker_matrix3@pecker_sdk@@QAE@ABU01@@Z ; pecker_sdk::pecker_matrix3::pecker_matrix3
	mov	eax, DWORD PTR ___$ReturnUdt$[ebp]

; 244  : }

	push	edx
	mov	ecx, ebp
	push	eax
	lea	edx, DWORD PTR $LN5@identity_m
	call	@_RTC_CheckStackVars@8
	pop	eax
	pop	edx
	pop	edi
	pop	esi
	pop	ebx
	mov	ecx, DWORD PTR __$ArrayPad$[ebp]
	xor	ecx, ebp
	call	@__security_check_cookie@4
	add	esp, 240				; 000000f0H
	cmp	ebp, esp
	call	__RTC_CheckEsp
	mov	esp, ebp
	pop	ebp
	ret	0
	npad	1
$LN5@identity_m:
	DD	1
	DD	$LN4@identity_m
$LN4@identity_m:
	DD	-44					; ffffffd4H
	DD	36					; 00000024H
	DD	$LN3@identity_m
$LN3@identity_m:
	DB	114					; 00000072H
	DB	101					; 00000065H
	DB	115					; 00000073H
	DB	0
?identity_matrix3@pecker_matrix3@pecker_sdk@@SA?AU12@XZ ENDP ; pecker_sdk::pecker_matrix3::identity_matrix3
_TEXT	ENDS
PUBLIC	__$ArrayPad$
PUBLIC	?rotationX@pecker_matrix3@pecker_sdk@@SA?AU12@M@Z ; pecker_sdk::pecker_matrix3::rotationX
EXTRN	_sin:PROC
EXTRN	_cos:PROC
; Function compile flags: /Odtp /RTCsu /ZI
;	COMDAT ?rotationX@pecker_matrix3@pecker_sdk@@SA?AU12@M@Z
_TEXT	SEGMENT
_fSine$ = -68						; size = 4
_fCosine$ = -56						; size = 4
_res$ = -44						; size = 36
__$ArrayPad$ = -4					; size = 4
___$ReturnUdt$ = 8					; size = 4
_fAngle$ = 12						; size = 4
?rotationX@pecker_matrix3@pecker_sdk@@SA?AU12@M@Z PROC	; pecker_sdk::pecker_matrix3::rotationX, COMDAT

; 247  : {

	push	ebp
	mov	ebp, esp
	sub	esp, 264				; 00000108H
	push	ebx
	push	esi
	push	edi
	lea	edi, DWORD PTR [ebp-264]
	mov	ecx, 66					; 00000042H
	mov	eax, -858993460				; ccccccccH
	rep stosd
	mov	eax, DWORD PTR ___security_cookie
	xor	eax, ebp
	mov	DWORD PTR __$ArrayPad$[ebp], eax

; 248  :   pecker_matrix3 res;

	lea	ecx, DWORD PTR _res$[ebp]
	call	??0pecker_matrix3@pecker_sdk@@QAE@XZ	; pecker_sdk::pecker_matrix3::pecker_matrix3

; 249  :   Float fCosine, fSine;
; 250  : 
; 251  :   /* Precompute cos and sin */
; 252  : #if defined(GRAPHIC_DEVICE_DX9) || defined(GRAPHIC_DEVICE_DX10) || defined(GRAPHIC_DEVICE_DX11) || defined(GRAPHIC_DEVICE_DX12)
; 253  :   fCosine = (Float)cos((Double)(-fAngle));
; 254  :   fSine = (Float)sin((Double)(-fAngle));
; 255  : #else
; 256  :   fCosine = (Float)cos((Double)(fAngle));

	fld	DWORD PTR _fAngle$[ebp]
	sub	esp, 8
	fstp	QWORD PTR [esp]
	call	_cos
	add	esp, 8
	fstp	DWORD PTR _fCosine$[ebp]

; 257  :   fSine = (Float)sin((Double)(fAngle));

	fld	DWORD PTR _fAngle$[ebp]
	sub	esp, 8
	fstp	QWORD PTR [esp]
	call	_sin
	add	esp, 8
	fstp	DWORD PTR _fSine$[ebp]

; 258  : #endif
; 259  : 
; 260  :   /* Create the trigonometric matrix corresponding to X rotation */
; 261  :   res.m_Mat[M3_00]=1.0f; res.m_Mat[M3_10]=0.0f;    res.m_Mat[M3_20]=0.0f;

	fld1
	fstp	DWORD PTR _res$[ebp]
	fldz
	fstp	DWORD PTR _res$[ebp+12]
	fldz
	fstp	DWORD PTR _res$[ebp+24]

; 262  :   res.m_Mat[M3_01]=0.0f; res.m_Mat[M3_11]=fCosine; res.m_Mat[M3_21]=fSine;

	fldz
	fstp	DWORD PTR _res$[ebp+4]
	fld	DWORD PTR _fCosine$[ebp]
	fstp	DWORD PTR _res$[ebp+16]
	fld	DWORD PTR _fSine$[ebp]
	fstp	DWORD PTR _res$[ebp+28]

; 263  :   res.m_Mat[M3_02]=0.0f; res.m_Mat[M3_12]=-fSine;  res.m_Mat[M3_22]=fCosine;

	fldz
	fstp	DWORD PTR _res$[ebp+8]
	fld	DWORD PTR _fSine$[ebp]
	fchs
	fstp	DWORD PTR _res$[ebp+20]
	fld	DWORD PTR _fCosine$[ebp]
	fstp	DWORD PTR _res$[ebp+32]

; 264  : 
; 265  :   return res;

	lea	eax, DWORD PTR _res$[ebp]
	push	eax
	mov	ecx, DWORD PTR ___$ReturnUdt$[ebp]
	call	??0pecker_matrix3@pecker_sdk@@QAE@ABU01@@Z ; pecker_sdk::pecker_matrix3::pecker_matrix3
	mov	eax, DWORD PTR ___$ReturnUdt$[ebp]

; 266  : }

	push	edx
	mov	ecx, ebp
	push	eax
	lea	edx, DWORD PTR $LN5@rotationX
	call	@_RTC_CheckStackVars@8
	pop	eax
	pop	edx
	pop	edi
	pop	esi
	pop	ebx
	mov	ecx, DWORD PTR __$ArrayPad$[ebp]
	xor	ecx, ebp
	call	@__security_check_cookie@4
	add	esp, 264				; 00000108H
	cmp	ebp, esp
	call	__RTC_CheckEsp
	mov	esp, ebp
	pop	ebp
	ret	0
	npad	3
$LN5@rotationX:
	DD	1
	DD	$LN4@rotationX
$LN4@rotationX:
	DD	-44					; ffffffd4H
	DD	36					; 00000024H
	DD	$LN3@rotationX
$LN3@rotationX:
	DB	114					; 00000072H
	DB	101					; 00000065H
	DB	115					; 00000073H
	DB	0
?rotationX@pecker_matrix3@pecker_sdk@@SA?AU12@M@Z ENDP	; pecker_sdk::pecker_matrix3::rotationX
_TEXT	ENDS
PUBLIC	__$ArrayPad$
PUBLIC	?rotationY@pecker_matrix3@pecker_sdk@@SA?AU12@M@Z ; pecker_sdk::pecker_matrix3::rotationY
; Function compile flags: /Odtp /RTCsu /ZI
;	COMDAT ?rotationY@pecker_matrix3@pecker_sdk@@SA?AU12@M@Z
_TEXT	SEGMENT
_fSine$ = -68						; size = 4
_fCosine$ = -56						; size = 4
_res$ = -44						; size = 36
__$ArrayPad$ = -4					; size = 4
___$ReturnUdt$ = 8					; size = 4
_fAngle$ = 12						; size = 4
?rotationY@pecker_matrix3@pecker_sdk@@SA?AU12@M@Z PROC	; pecker_sdk::pecker_matrix3::rotationY, COMDAT

; 269  : {

	push	ebp
	mov	ebp, esp
	sub	esp, 264				; 00000108H
	push	ebx
	push	esi
	push	edi
	lea	edi, DWORD PTR [ebp-264]
	mov	ecx, 66					; 00000042H
	mov	eax, -858993460				; ccccccccH
	rep stosd
	mov	eax, DWORD PTR ___security_cookie
	xor	eax, ebp
	mov	DWORD PTR __$ArrayPad$[ebp], eax

; 270  :   pecker_matrix3 res;

	lea	ecx, DWORD PTR _res$[ebp]
	call	??0pecker_matrix3@pecker_sdk@@QAE@XZ	; pecker_sdk::pecker_matrix3::pecker_matrix3

; 271  :   Float fCosine, fSine;
; 272  : 
; 273  :   /* Precompute cos and sin */
; 274  : #if defined(GRAPHIC_DEVICE_DX9) || defined(GRAPHIC_DEVICE_DX10) || defined(GRAPHIC_DEVICE_DX11) || defined(GRAPHIC_DEVICE_DX12)
; 275  :   fCosine = (Float)cos((Double)(-fAngle));
; 276  :   fSine = (Float)sin((Double)(-fAngle));
; 277  : #else
; 278  :   fCosine = (Float)cos((Double)(fAngle));

	fld	DWORD PTR _fAngle$[ebp]
	sub	esp, 8
	fstp	QWORD PTR [esp]
	call	_cos
	add	esp, 8
	fstp	DWORD PTR _fCosine$[ebp]

; 279  :   fSine = (Float)sin((Double)(fAngle));

	fld	DWORD PTR _fAngle$[ebp]
	sub	esp, 8
	fstp	QWORD PTR [esp]
	call	_sin
	add	esp, 8
	fstp	DWORD PTR _fSine$[ebp]

; 280  : #endif
; 281  : 
; 282  :   /* Create the trigonometric matrix corresponding to Y rotation */
; 283  :   res.m_Mat[M3_00]=fCosine; res.m_Mat[M3_10]=0.0f; res.m_Mat[M3_20]=-fSine;

	fld	DWORD PTR _fCosine$[ebp]
	fstp	DWORD PTR _res$[ebp]
	fldz
	fstp	DWORD PTR _res$[ebp+12]
	fld	DWORD PTR _fSine$[ebp]
	fchs
	fstp	DWORD PTR _res$[ebp+24]

; 284  :   res.m_Mat[M3_01]=0.0f;    res.m_Mat[M3_11]=1.0f; res.m_Mat[M3_21]=0.0f;

	fldz
	fstp	DWORD PTR _res$[ebp+4]
	fld1
	fstp	DWORD PTR _res$[ebp+16]
	fldz
	fstp	DWORD PTR _res$[ebp+28]

; 285  :   res.m_Mat[M3_02]=fSine;   res.m_Mat[M3_12]=0.0f; res.m_Mat[M3_22]=fCosine;

	fld	DWORD PTR _fSine$[ebp]
	fstp	DWORD PTR _res$[ebp+8]
	fldz
	fstp	DWORD PTR _res$[ebp+20]
	fld	DWORD PTR _fCosine$[ebp]
	fstp	DWORD PTR _res$[ebp+32]

; 286  : 
; 287  :   return res;

	lea	eax, DWORD PTR _res$[ebp]
	push	eax
	mov	ecx, DWORD PTR ___$ReturnUdt$[ebp]
	call	??0pecker_matrix3@pecker_sdk@@QAE@ABU01@@Z ; pecker_sdk::pecker_matrix3::pecker_matrix3
	mov	eax, DWORD PTR ___$ReturnUdt$[ebp]

; 288  : }

	push	edx
	mov	ecx, ebp
	push	eax
	lea	edx, DWORD PTR $LN5@rotationY
	call	@_RTC_CheckStackVars@8
	pop	eax
	pop	edx
	pop	edi
	pop	esi
	pop	ebx
	mov	ecx, DWORD PTR __$ArrayPad$[ebp]
	xor	ecx, ebp
	call	@__security_check_cookie@4
	add	esp, 264				; 00000108H
	cmp	ebp, esp
	call	__RTC_CheckEsp
	mov	esp, ebp
	pop	ebp
	ret	0
	npad	3
$LN5@rotationY:
	DD	1
	DD	$LN4@rotationY
$LN4@rotationY:
	DD	-44					; ffffffd4H
	DD	36					; 00000024H
	DD	$LN3@rotationY
$LN3@rotationY:
	DB	114					; 00000072H
	DB	101					; 00000065H
	DB	115					; 00000073H
	DB	0
?rotationY@pecker_matrix3@pecker_sdk@@SA?AU12@M@Z ENDP	; pecker_sdk::pecker_matrix3::rotationY
_TEXT	ENDS
PUBLIC	__$ArrayPad$
PUBLIC	?rotationZ@pecker_matrix3@pecker_sdk@@SA?AU12@M@Z ; pecker_sdk::pecker_matrix3::rotationZ
; Function compile flags: /Odtp /RTCsu /ZI
;	COMDAT ?rotationZ@pecker_matrix3@pecker_sdk@@SA?AU12@M@Z
_TEXT	SEGMENT
_fSine$ = -68						; size = 4
_fCosine$ = -56						; size = 4
_res$ = -44						; size = 36
__$ArrayPad$ = -4					; size = 4
___$ReturnUdt$ = 8					; size = 4
_fAngle$ = 12						; size = 4
?rotationZ@pecker_matrix3@pecker_sdk@@SA?AU12@M@Z PROC	; pecker_sdk::pecker_matrix3::rotationZ, COMDAT

; 291  : {

	push	ebp
	mov	ebp, esp
	sub	esp, 264				; 00000108H
	push	ebx
	push	esi
	push	edi
	lea	edi, DWORD PTR [ebp-264]
	mov	ecx, 66					; 00000042H
	mov	eax, -858993460				; ccccccccH
	rep stosd
	mov	eax, DWORD PTR ___security_cookie
	xor	eax, ebp
	mov	DWORD PTR __$ArrayPad$[ebp], eax

; 292  :   pecker_matrix3 res;

	lea	ecx, DWORD PTR _res$[ebp]
	call	??0pecker_matrix3@pecker_sdk@@QAE@XZ	; pecker_sdk::pecker_matrix3::pecker_matrix3

; 293  :   Float fCosine, fSine;
; 294  : 
; 295  :   /* Precompute cos and sin */
; 296  : #if defined(GRAPHIC_DEVICE_DX9) || defined(GRAPHIC_DEVICE_DX10) || defined(GRAPHIC_DEVICE_DX11) || defined(GRAPHIC_DEVICE_DX12)
; 297  :   fCosine = (Float)cos((Double)(-fAngle));
; 298  :   fSine = (Float)sin((Double)(-fAngle));
; 299  : #else
; 300  :   fCosine = (Float)cos((Double)(fAngle));

	fld	DWORD PTR _fAngle$[ebp]
	sub	esp, 8
	fstp	QWORD PTR [esp]
	call	_cos
	add	esp, 8
	fstp	DWORD PTR _fCosine$[ebp]

; 301  :   fSine = (Float)sin((Double)(fAngle));

	fld	DWORD PTR _fAngle$[ebp]
	sub	esp, 8
	fstp	QWORD PTR [esp]
	call	_sin
	add	esp, 8
	fstp	DWORD PTR _fSine$[ebp]

; 302  : #endif
; 303  :   /* Create the trigonometric matrix corresponding to Z rotation */
; 304  :   res.m_Mat[M3_00]=fCosine; res.m_Mat[M3_10]=fSine;   res.m_Mat[M3_20]=0.0f;

	fld	DWORD PTR _fCosine$[ebp]
	fstp	DWORD PTR _res$[ebp]
	fld	DWORD PTR _fSine$[ebp]
	fstp	DWORD PTR _res$[ebp+12]
	fldz
	fstp	DWORD PTR _res$[ebp+24]

; 305  :   res.m_Mat[M3_01]=-fSine;  res.m_Mat[M3_11]=fCosine; res.m_Mat[M3_21]=0.0f;

	fld	DWORD PTR _fSine$[ebp]
	fchs
	fstp	DWORD PTR _res$[ebp+4]
	fld	DWORD PTR _fCosine$[ebp]
	fstp	DWORD PTR _res$[ebp+16]
	fldz
	fstp	DWORD PTR _res$[ebp+28]

; 306  :   res.m_Mat[M3_02]=0.0f;    res.m_Mat[M3_12]=0.0f;    res.m_Mat[M3_22]=1.0f;

	fldz
	fstp	DWORD PTR _res$[ebp+8]
	fldz
	fstp	DWORD PTR _res$[ebp+20]
	fld1
	fstp	DWORD PTR _res$[ebp+32]

; 307  : 
; 308  :   return res;

	lea	eax, DWORD PTR _res$[ebp]
	push	eax
	mov	ecx, DWORD PTR ___$ReturnUdt$[ebp]
	call	??0pecker_matrix3@pecker_sdk@@QAE@ABU01@@Z ; pecker_sdk::pecker_matrix3::pecker_matrix3
	mov	eax, DWORD PTR ___$ReturnUdt$[ebp]

; 309  : }

	push	edx
	mov	ecx, ebp
	push	eax
	lea	edx, DWORD PTR $LN5@rotationZ
	call	@_RTC_CheckStackVars@8
	pop	eax
	pop	edx
	pop	edi
	pop	esi
	pop	ebx
	mov	ecx, DWORD PTR __$ArrayPad$[ebp]
	xor	ecx, ebp
	call	@__security_check_cookie@4
	add	esp, 264				; 00000108H
	cmp	ebp, esp
	call	__RTC_CheckEsp
	mov	esp, ebp
	pop	ebp
	ret	0
	npad	3
$LN5@rotationZ:
	DD	1
	DD	$LN4@rotationZ
$LN4@rotationZ:
	DD	-44					; ffffffd4H
	DD	36					; 00000024H
	DD	$LN3@rotationZ
$LN3@rotationZ:
	DB	114					; 00000072H
	DB	101					; 00000065H
	DB	115					; 00000073H
	DB	0
?rotationZ@pecker_matrix3@pecker_sdk@@SA?AU12@M@Z ENDP	; pecker_sdk::pecker_matrix3::rotationZ
_TEXT	ENDS
PUBLIC	__$ArrayPad$
PUBLIC	?rotation2D@pecker_matrix3@pecker_sdk@@SA?AU12@M@Z ; pecker_sdk::pecker_matrix3::rotation2D
; Function compile flags: /Odtp /RTCsu /ZI
;	COMDAT ?rotation2D@pecker_matrix3@pecker_sdk@@SA?AU12@M@Z
_TEXT	SEGMENT
_fSine$ = -68						; size = 4
_fCosine$ = -56						; size = 4
_res$ = -44						; size = 36
__$ArrayPad$ = -4					; size = 4
___$ReturnUdt$ = 8					; size = 4
_fAngle$ = 12						; size = 4
?rotation2D@pecker_matrix3@pecker_sdk@@SA?AU12@M@Z PROC	; pecker_sdk::pecker_matrix3::rotation2D, COMDAT

; 312  : {

	push	ebp
	mov	ebp, esp
	sub	esp, 264				; 00000108H
	push	ebx
	push	esi
	push	edi
	lea	edi, DWORD PTR [ebp-264]
	mov	ecx, 66					; 00000042H
	mov	eax, -858993460				; ccccccccH
	rep stosd
	mov	eax, DWORD PTR ___security_cookie
	xor	eax, ebp
	mov	DWORD PTR __$ArrayPad$[ebp], eax

; 313  :   pecker_matrix3 res;

	lea	ecx, DWORD PTR _res$[ebp]
	call	??0pecker_matrix3@pecker_sdk@@QAE@XZ	; pecker_sdk::pecker_matrix3::pecker_matrix3

; 314  :   Float fCosine, fSine;
; 315  : 
; 316  :   /* Precompute cos and sin */
; 317  : #if defined(GRAPHIC_DEVICE_DX9) || defined(GRAPHIC_DEVICE_DX10) || defined(GRAPHIC_DEVICE_DX11) || defined(GRAPHIC_DEVICE_DX12)
; 318  :   fCosine = (Float)cos((Double)(-fAngle));
; 319  :   fSine = (Float)sin((Double)(-fAngle));
; 320  : #else
; 321  :   fCosine = (Float)cos((Double)(fAngle));

	fld	DWORD PTR _fAngle$[ebp]
	sub	esp, 8
	fstp	QWORD PTR [esp]
	call	_cos
	add	esp, 8
	fstp	DWORD PTR _fCosine$[ebp]

; 322  :   fSine = (Float)sin((Double)(fAngle));

	fld	DWORD PTR _fAngle$[ebp]
	sub	esp, 8
	fstp	QWORD PTR [esp]
	call	_sin
	add	esp, 8
	fstp	DWORD PTR _fSine$[ebp]

; 323  : #endif
; 324  :   /* Create the trigonometric matrix corresponding to Z rotation */
; 325  :   res.m_Mat[M3_00]=fCosine; res.m_Mat[M3_10]=fSine;   res.m_Mat[M3_20]=0.0f;

	fld	DWORD PTR _fCosine$[ebp]
	fstp	DWORD PTR _res$[ebp]
	fld	DWORD PTR _fSine$[ebp]
	fstp	DWORD PTR _res$[ebp+12]
	fldz
	fstp	DWORD PTR _res$[ebp+24]

; 326  :   res.m_Mat[M3_01]=-fSine;  res.m_Mat[M3_11]=fCosine; res.m_Mat[M3_21]=0.0f;

	fld	DWORD PTR _fSine$[ebp]
	fchs
	fstp	DWORD PTR _res$[ebp+4]
	fld	DWORD PTR _fCosine$[ebp]
	fstp	DWORD PTR _res$[ebp+16]
	fldz
	fstp	DWORD PTR _res$[ebp+28]

; 327  :   res.m_Mat[M3_02]=0.0f;    res.m_Mat[M3_12]=0.0f;    res.m_Mat[M3_22]=1.0f;

	fldz
	fstp	DWORD PTR _res$[ebp+8]
	fldz
	fstp	DWORD PTR _res$[ebp+20]
	fld1
	fstp	DWORD PTR _res$[ebp+32]

; 328  : 
; 329  :   return res;

	lea	eax, DWORD PTR _res$[ebp]
	push	eax
	mov	ecx, DWORD PTR ___$ReturnUdt$[ebp]
	call	??0pecker_matrix3@pecker_sdk@@QAE@ABU01@@Z ; pecker_sdk::pecker_matrix3::pecker_matrix3
	mov	eax, DWORD PTR ___$ReturnUdt$[ebp]

; 330  : }

	push	edx
	mov	ecx, ebp
	push	eax
	lea	edx, DWORD PTR $LN5@rotation2D
	call	@_RTC_CheckStackVars@8
	pop	eax
	pop	edx
	pop	edi
	pop	esi
	pop	ebx
	mov	ecx, DWORD PTR __$ArrayPad$[ebp]
	xor	ecx, ebp
	call	@__security_check_cookie@4
	add	esp, 264				; 00000108H
	cmp	ebp, esp
	call	__RTC_CheckEsp
	mov	esp, ebp
	pop	ebp
	ret	0
	npad	3
$LN5@rotation2D:
	DD	1
	DD	$LN4@rotation2D
$LN4@rotation2D:
	DD	-44					; ffffffd4H
	DD	36					; 00000024H
	DD	$LN3@rotation2D
$LN3@rotation2D:
	DB	114					; 00000072H
	DB	101					; 00000065H
	DB	115					; 00000073H
	DB	0
?rotation2D@pecker_matrix3@pecker_sdk@@SA?AU12@M@Z ENDP	; pecker_sdk::pecker_matrix3::rotation2D
_TEXT	ENDS
PUBLIC	?scale@pecker_matrix3@pecker_sdk@@SA?AU12@MMM@Z	; pecker_sdk::pecker_matrix3::scale
; Function compile flags: /Odtp /RTCsu /ZI
;	COMDAT ?scale@pecker_matrix3@pecker_sdk@@SA?AU12@MMM@Z
_TEXT	SEGMENT
___$ReturnUdt$ = 8					; size = 4
_fx$ = 12						; size = 4
_fy$ = 16						; size = 4
_fz$ = 20						; size = 4
?scale@pecker_matrix3@pecker_sdk@@SA?AU12@MMM@Z PROC	; pecker_sdk::pecker_matrix3::scale, COMDAT

; 333  : {

	push	ebp
	mov	ebp, esp
	sub	esp, 192				; 000000c0H
	push	ebx
	push	esi
	push	edi
	lea	edi, DWORD PTR [ebp-192]
	mov	ecx, 48					; 00000030H
	mov	eax, -858993460				; ccccccccH
	rep stosd

; 334  :   return pecker_matrix3( fx ,0.0f,0.0f,
; 335  :                   0.0f, fy ,0.0f,
; 336  :                   0.0f,0.0f, fz );

	push	ecx
	fld	DWORD PTR _fz$[ebp]
	fstp	DWORD PTR [esp]
	push	ecx
	fldz
	fstp	DWORD PTR [esp]
	push	ecx
	fldz
	fstp	DWORD PTR [esp]
	push	ecx
	fldz
	fstp	DWORD PTR [esp]
	push	ecx
	fld	DWORD PTR _fy$[ebp]
	fstp	DWORD PTR [esp]
	push	ecx
	fldz
	fstp	DWORD PTR [esp]
	push	ecx
	fldz
	fstp	DWORD PTR [esp]
	push	ecx
	fldz
	fstp	DWORD PTR [esp]
	push	ecx
	fld	DWORD PTR _fx$[ebp]
	fstp	DWORD PTR [esp]
	mov	ecx, DWORD PTR ___$ReturnUdt$[ebp]
	call	??0pecker_matrix3@pecker_sdk@@QAE@MMMMMMMMM@Z ; pecker_sdk::pecker_matrix3::pecker_matrix3
	mov	eax, DWORD PTR ___$ReturnUdt$[ebp]

; 337  : }

	pop	edi
	pop	esi
	pop	ebx
	add	esp, 192				; 000000c0H
	cmp	ebp, esp
	call	__RTC_CheckEsp
	mov	esp, ebp
	pop	ebp
	ret	0
?scale@pecker_matrix3@pecker_sdk@@SA?AU12@MMM@Z ENDP	; pecker_sdk::pecker_matrix3::scale
_TEXT	ENDS
PUBLIC	?scale2D@pecker_matrix3@pecker_sdk@@SA?AU12@MM@Z ; pecker_sdk::pecker_matrix3::scale2D
; Function compile flags: /Odtp /RTCsu /ZI
;	COMDAT ?scale2D@pecker_matrix3@pecker_sdk@@SA?AU12@MM@Z
_TEXT	SEGMENT
___$ReturnUdt$ = 8					; size = 4
_fx$ = 12						; size = 4
_fy$ = 16						; size = 4
?scale2D@pecker_matrix3@pecker_sdk@@SA?AU12@MM@Z PROC	; pecker_sdk::pecker_matrix3::scale2D, COMDAT

; 339  : {

	push	ebp
	mov	ebp, esp
	sub	esp, 192				; 000000c0H
	push	ebx
	push	esi
	push	edi
	lea	edi, DWORD PTR [ebp-192]
	mov	ecx, 48					; 00000030H
	mov	eax, -858993460				; ccccccccH
	rep stosd

; 340  :   return pecker_matrix3( fx ,0.0f,0.0f,
; 341  :                   0.0f, fy ,0.0f,
; 342  :                   0.0f,0.0f,1.0f );

	push	ecx
	fld1
	fstp	DWORD PTR [esp]
	push	ecx
	fldz
	fstp	DWORD PTR [esp]
	push	ecx
	fldz
	fstp	DWORD PTR [esp]
	push	ecx
	fldz
	fstp	DWORD PTR [esp]
	push	ecx
	fld	DWORD PTR _fy$[ebp]
	fstp	DWORD PTR [esp]
	push	ecx
	fldz
	fstp	DWORD PTR [esp]
	push	ecx
	fldz
	fstp	DWORD PTR [esp]
	push	ecx
	fldz
	fstp	DWORD PTR [esp]
	push	ecx
	fld	DWORD PTR _fx$[ebp]
	fstp	DWORD PTR [esp]
	mov	ecx, DWORD PTR ___$ReturnUdt$[ebp]
	call	??0pecker_matrix3@pecker_sdk@@QAE@MMMMMMMMM@Z ; pecker_sdk::pecker_matrix3::pecker_matrix3
	mov	eax, DWORD PTR ___$ReturnUdt$[ebp]

; 343  : }

	pop	edi
	pop	esi
	pop	ebx
	add	esp, 192				; 000000c0H
	cmp	ebp, esp
	call	__RTC_CheckEsp
	mov	esp, ebp
	pop	ebp
	ret	0
?scale2D@pecker_matrix3@pecker_sdk@@SA?AU12@MM@Z ENDP	; pecker_sdk::pecker_matrix3::scale2D
_TEXT	ENDS
PUBLIC	?translation2D@pecker_matrix3@pecker_sdk@@SA?AU12@MM@Z ; pecker_sdk::pecker_matrix3::translation2D
; Function compile flags: /Odtp /RTCsu /ZI
;	COMDAT ?translation2D@pecker_matrix3@pecker_sdk@@SA?AU12@MM@Z
_TEXT	SEGMENT
___$ReturnUdt$ = 8					; size = 4
_fx$ = 12						; size = 4
_fy$ = 16						; size = 4
?translation2D@pecker_matrix3@pecker_sdk@@SA?AU12@MM@Z PROC ; pecker_sdk::pecker_matrix3::translation2D, COMDAT

; 346  : {

	push	ebp
	mov	ebp, esp
	sub	esp, 192				; 000000c0H
	push	ebx
	push	esi
	push	edi
	lea	edi, DWORD PTR [ebp-192]
	mov	ecx, 48					; 00000030H
	mov	eax, -858993460				; ccccccccH
	rep stosd

; 347  :   return pecker_matrix3( 1.0f, 0.0f, 0.0f,
; 348  :                    0.0f, 1.0f, 0.0f,
; 349  :                     fx , fy , 1.0f);

	push	ecx
	fld1
	fstp	DWORD PTR [esp]
	push	ecx
	fld	DWORD PTR _fy$[ebp]
	fstp	DWORD PTR [esp]
	push	ecx
	fld	DWORD PTR _fx$[ebp]
	fstp	DWORD PTR [esp]
	push	ecx
	fldz
	fstp	DWORD PTR [esp]
	push	ecx
	fld1
	fstp	DWORD PTR [esp]
	push	ecx
	fldz
	fstp	DWORD PTR [esp]
	push	ecx
	fldz
	fstp	DWORD PTR [esp]
	push	ecx
	fldz
	fstp	DWORD PTR [esp]
	push	ecx
	fld1
	fstp	DWORD PTR [esp]
	mov	ecx, DWORD PTR ___$ReturnUdt$[ebp]
	call	??0pecker_matrix3@pecker_sdk@@QAE@MMMMMMMMM@Z ; pecker_sdk::pecker_matrix3::pecker_matrix3
	mov	eax, DWORD PTR ___$ReturnUdt$[ebp]

; 350  : //    return CMatrix3( 1.0f, 0.0f, fx,
; 351  : //                     0.0f, 1.0f, fy,
; 352  : //                     0.0f, 0.0f, 1.0f);
; 353  : }

	pop	edi
	pop	esi
	pop	ebx
	add	esp, 192				; 000000c0H
	cmp	ebp, esp
	call	__RTC_CheckEsp
	mov	esp, ebp
	pop	ebp
	ret	0
?translation2D@pecker_matrix3@pecker_sdk@@SA?AU12@MM@Z ENDP ; pecker_sdk::pecker_matrix3::translation2D
_TEXT	ENDS
PUBLIC	??0pecker_matrix4@pecker_sdk@@QAE@XZ		; pecker_sdk::pecker_matrix4::pecker_matrix4
; Function compile flags: /Odtp /RTCsu /ZI
;	COMDAT ??0pecker_matrix4@pecker_sdk@@QAE@XZ
_TEXT	SEGMENT
_this$ = -8						; size = 4
??0pecker_matrix4@pecker_sdk@@QAE@XZ PROC		; pecker_sdk::pecker_matrix4::pecker_matrix4, COMDAT
; _this$ = ecx

; 357  : { ;}

	push	ebp
	mov	ebp, esp
	sub	esp, 204				; 000000ccH
	push	ebx
	push	esi
	push	edi
	push	ecx
	lea	edi, DWORD PTR [ebp-204]
	mov	ecx, 51					; 00000033H
	mov	eax, -858993460				; ccccccccH
	rep stosd
	pop	ecx
	mov	DWORD PTR _this$[ebp], ecx
	mov	eax, DWORD PTR _this$[ebp]
	pop	edi
	pop	esi
	pop	ebx
	mov	esp, ebp
	pop	ebp
	ret	0
??0pecker_matrix4@pecker_sdk@@QAE@XZ ENDP		; pecker_sdk::pecker_matrix4::pecker_matrix4
_TEXT	ENDS
PUBLIC	??0pecker_matrix4@pecker_sdk@@QAE@M@Z		; pecker_sdk::pecker_matrix4::pecker_matrix4
; Function compile flags: /Odtp /RTCsu /ZI
;	COMDAT ??0pecker_matrix4@pecker_sdk@@QAE@M@Z
_TEXT	SEGMENT
_this$ = -8						; size = 4
_fVal$ = 8						; size = 4
??0pecker_matrix4@pecker_sdk@@QAE@M@Z PROC		; pecker_sdk::pecker_matrix4::pecker_matrix4, COMDAT
; _this$ = ecx

; 359  : { ;}

	push	ebp
	mov	ebp, esp
	sub	esp, 204				; 000000ccH
	push	ebx
	push	esi
	push	edi
	push	ecx
	lea	edi, DWORD PTR [ebp-204]
	mov	ecx, 51					; 00000033H
	mov	eax, -858993460				; ccccccccH
	rep stosd
	pop	ecx
	mov	DWORD PTR _this$[ebp], ecx
	mov	eax, DWORD PTR _this$[ebp]
	pop	edi
	pop	esi
	pop	ebx
	mov	esp, ebp
	pop	ebp
	ret	4
??0pecker_matrix4@pecker_sdk@@QAE@M@Z ENDP		; pecker_sdk::pecker_matrix4::pecker_matrix4
_TEXT	ENDS
PUBLIC	??0pecker_matrix4@pecker_sdk@@QAE@PBM@Z		; pecker_sdk::pecker_matrix4::pecker_matrix4
; Function compile flags: /Odtp /RTCsu /ZI
;	COMDAT ??0pecker_matrix4@pecker_sdk@@QAE@PBM@Z
_TEXT	SEGMENT
_i$68074 = -20						; size = 4
_this$ = -8						; size = 4
_fMat4$ = 8						; size = 4
??0pecker_matrix4@pecker_sdk@@QAE@PBM@Z PROC		; pecker_sdk::pecker_matrix4::pecker_matrix4, COMDAT
; _this$ = ecx

; 361  : {

	push	ebp
	mov	ebp, esp
	sub	esp, 216				; 000000d8H
	push	ebx
	push	esi
	push	edi
	push	ecx
	lea	edi, DWORD PTR [ebp-216]
	mov	ecx, 54					; 00000036H
	mov	eax, -858993460				; ccccccccH
	rep stosd
	pop	ecx
	mov	DWORD PTR _this$[ebp], ecx

; 362  :   for (nINDEX i=0;i<M4_INDEX_COUNT;++i)

	mov	DWORD PTR _i$68074[ebp], 0
	jmp	SHORT $LN3@pecker_mat@5
$LN2@pecker_mat@5:
	mov	eax, DWORD PTR _i$68074[ebp]
	add	eax, 1
	mov	DWORD PTR _i$68074[ebp], eax
$LN3@pecker_mat@5:
	cmp	DWORD PTR _i$68074[ebp], 16		; 00000010H
	jge	SHORT $LN1@pecker_mat@5

; 363  :   {
; 364  :     m_Mat[i] = fMat4[i];

	mov	eax, DWORD PTR _i$68074[ebp]
	mov	ecx, DWORD PTR _this$[ebp]
	mov	edx, DWORD PTR _i$68074[ebp]
	mov	esi, DWORD PTR _fMat4$[ebp]
	fld	DWORD PTR [esi+edx*4]
	fstp	DWORD PTR [ecx+eax*4]

; 365  :   }

	jmp	SHORT $LN2@pecker_mat@5
$LN1@pecker_mat@5:

; 366  : }

	mov	eax, DWORD PTR _this$[ebp]
	pop	edi
	pop	esi
	pop	ebx
	mov	esp, ebp
	pop	ebp
	ret	4
??0pecker_matrix4@pecker_sdk@@QAE@PBM@Z ENDP		; pecker_sdk::pecker_matrix4::pecker_matrix4
_TEXT	ENDS
PUBLIC	??0pecker_matrix4@pecker_sdk@@QAE@MMMMMMMMMMMMMMMM@Z ; pecker_sdk::pecker_matrix4::pecker_matrix4
; Function compile flags: /Odtp /RTCsu /ZI
;	COMDAT ??0pecker_matrix4@pecker_sdk@@QAE@MMMMMMMMMMMMMMMM@Z
_TEXT	SEGMENT
_this$ = -8						; size = 4
_fM00$ = 8						; size = 4
_fM01$ = 12						; size = 4
_fM02$ = 16						; size = 4
_fM03$ = 20						; size = 4
_fM10$ = 24						; size = 4
_fM11$ = 28						; size = 4
_fM12$ = 32						; size = 4
_fM13$ = 36						; size = 4
_fM20$ = 40						; size = 4
_fM21$ = 44						; size = 4
_fM22$ = 48						; size = 4
_fM23$ = 52						; size = 4
_fM30$ = 56						; size = 4
_fM31$ = 60						; size = 4
_fM32$ = 64						; size = 4
_fM33$ = 68						; size = 4
??0pecker_matrix4@pecker_sdk@@QAE@MMMMMMMMMMMMMMMM@Z PROC ; pecker_sdk::pecker_matrix4::pecker_matrix4, COMDAT
; _this$ = ecx

; 371  : {

	push	ebp
	mov	ebp, esp
	sub	esp, 204				; 000000ccH
	push	ebx
	push	esi
	push	edi
	push	ecx
	lea	edi, DWORD PTR [ebp-204]
	mov	ecx, 51					; 00000033H
	mov	eax, -858993460				; ccccccccH
	rep stosd
	pop	ecx
	mov	DWORD PTR _this$[ebp], ecx

; 372  :   m_Mat[M4_00] = fM00; m_Mat[M4_01] = fM01; m_Mat[M4_02] = fM02; m_Mat[M4_03] = fM03;

	mov	eax, DWORD PTR _this$[ebp]
	fld	DWORD PTR _fM00$[ebp]
	fstp	DWORD PTR [eax]
	mov	eax, DWORD PTR _this$[ebp]
	fld	DWORD PTR _fM01$[ebp]
	fstp	DWORD PTR [eax+4]
	mov	eax, DWORD PTR _this$[ebp]
	fld	DWORD PTR _fM02$[ebp]
	fstp	DWORD PTR [eax+8]
	mov	eax, DWORD PTR _this$[ebp]
	fld	DWORD PTR _fM03$[ebp]
	fstp	DWORD PTR [eax+12]

; 373  :   m_Mat[M4_10] = fM10; m_Mat[M4_11] = fM11; m_Mat[M4_12] = fM12; m_Mat[M4_13] = fM13;

	mov	eax, DWORD PTR _this$[ebp]
	fld	DWORD PTR _fM10$[ebp]
	fstp	DWORD PTR [eax+16]
	mov	eax, DWORD PTR _this$[ebp]
	fld	DWORD PTR _fM11$[ebp]
	fstp	DWORD PTR [eax+20]
	mov	eax, DWORD PTR _this$[ebp]
	fld	DWORD PTR _fM12$[ebp]
	fstp	DWORD PTR [eax+24]
	mov	eax, DWORD PTR _this$[ebp]
	fld	DWORD PTR _fM13$[ebp]
	fstp	DWORD PTR [eax+28]

; 374  :   m_Mat[M4_20] = fM20; m_Mat[M4_21] = fM21; m_Mat[M4_22] = fM22; m_Mat[M4_23] = fM23;

	mov	eax, DWORD PTR _this$[ebp]
	fld	DWORD PTR _fM20$[ebp]
	fstp	DWORD PTR [eax+32]
	mov	eax, DWORD PTR _this$[ebp]
	fld	DWORD PTR _fM21$[ebp]
	fstp	DWORD PTR [eax+36]
	mov	eax, DWORD PTR _this$[ebp]
	fld	DWORD PTR _fM22$[ebp]
	fstp	DWORD PTR [eax+40]
	mov	eax, DWORD PTR _this$[ebp]
	fld	DWORD PTR _fM23$[ebp]
	fstp	DWORD PTR [eax+44]

; 375  :   m_Mat[M4_30] = fM30; m_Mat[M4_31] = fM31; m_Mat[M4_32] = fM32; m_Mat[M4_33] = fM33;

	mov	eax, DWORD PTR _this$[ebp]
	fld	DWORD PTR _fM30$[ebp]
	fstp	DWORD PTR [eax+48]
	mov	eax, DWORD PTR _this$[ebp]
	fld	DWORD PTR _fM31$[ebp]
	fstp	DWORD PTR [eax+52]
	mov	eax, DWORD PTR _this$[ebp]
	fld	DWORD PTR _fM32$[ebp]
	fstp	DWORD PTR [eax+56]
	mov	eax, DWORD PTR _this$[ebp]
	fld	DWORD PTR _fM33$[ebp]
	fstp	DWORD PTR [eax+60]

; 376  : }

	mov	eax, DWORD PTR _this$[ebp]
	pop	edi
	pop	esi
	pop	ebx
	mov	esp, ebp
	pop	ebp
	ret	64					; 00000040H
??0pecker_matrix4@pecker_sdk@@QAE@MMMMMMMMMMMMMMMM@Z ENDP ; pecker_sdk::pecker_matrix4::pecker_matrix4
_TEXT	ENDS
PUBLIC	??0pecker_matrix4@pecker_sdk@@QAE@ABUpecker_matrix3@1@@Z ; pecker_sdk::pecker_matrix4::pecker_matrix4
; Function compile flags: /Odtp /RTCsu /ZI
;	COMDAT ??0pecker_matrix4@pecker_sdk@@QAE@ABUpecker_matrix3@1@@Z
_TEXT	SEGMENT
_i$68101 = -20						; size = 4
_this$ = -8						; size = 4
_Mat3$ = 8						; size = 4
??0pecker_matrix4@pecker_sdk@@QAE@ABUpecker_matrix3@1@@Z PROC ; pecker_sdk::pecker_matrix4::pecker_matrix4, COMDAT
; _this$ = ecx

; 379  : {

	push	ebp
	mov	ebp, esp
	sub	esp, 216				; 000000d8H
	push	ebx
	push	esi
	push	edi
	push	ecx
	lea	edi, DWORD PTR [ebp-216]
	mov	ecx, 54					; 00000036H
	mov	eax, -858993460				; ccccccccH
	rep stosd
	pop	ecx
	mov	DWORD PTR _this$[ebp], ecx

; 380  :   for (nINDEX i=0;i<3;++i)

	mov	DWORD PTR _i$68101[ebp], 0
	jmp	SHORT $LN3@pecker_mat@6
$LN2@pecker_mat@6:
	mov	eax, DWORD PTR _i$68101[ebp]
	add	eax, 1
	mov	DWORD PTR _i$68101[ebp], eax
$LN3@pecker_mat@6:
	cmp	DWORD PTR _i$68101[ebp], 3
	jge	SHORT $LN1@pecker_mat@6

; 381  :   {
; 382  :     m_Mat[i]   = Mat3.m_Mat[i];

	mov	eax, DWORD PTR _i$68101[ebp]
	mov	ecx, DWORD PTR _this$[ebp]
	mov	edx, DWORD PTR _i$68101[ebp]
	mov	esi, DWORD PTR _Mat3$[ebp]
	fld	DWORD PTR [esi+edx*4]
	fstp	DWORD PTR [ecx+eax*4]

; 383  :     m_Mat[i+4] = Mat3.m_Mat[i+3];

	mov	eax, DWORD PTR _i$68101[ebp]
	mov	ecx, DWORD PTR _this$[ebp]
	mov	edx, DWORD PTR _i$68101[ebp]
	mov	esi, DWORD PTR _Mat3$[ebp]
	fld	DWORD PTR [esi+edx*4+12]
	fstp	DWORD PTR [ecx+eax*4+16]

; 384  :     m_Mat[i+8] = Mat3.m_Mat[i+6];

	mov	eax, DWORD PTR _i$68101[ebp]
	mov	ecx, DWORD PTR _this$[ebp]
	mov	edx, DWORD PTR _i$68101[ebp]
	mov	esi, DWORD PTR _Mat3$[ebp]
	fld	DWORD PTR [esi+edx*4+24]
	fstp	DWORD PTR [ecx+eax*4+32]

; 385  :   }

	jmp	SHORT $LN2@pecker_mat@6
$LN1@pecker_mat@6:

; 386  : 
; 387  :   m_Mat[M4_03] = 0.0f;

	mov	eax, DWORD PTR _this$[ebp]
	fldz
	fstp	DWORD PTR [eax+12]

; 388  :   m_Mat[M4_13] = 0.0f;

	mov	eax, DWORD PTR _this$[ebp]
	fldz
	fstp	DWORD PTR [eax+28]

; 389  :   m_Mat[M4_23] = 0.0f;

	mov	eax, DWORD PTR _this$[ebp]
	fldz
	fstp	DWORD PTR [eax+44]

; 390  : 
; 391  :   m_Mat[M4_30] = 0.0f;

	mov	eax, DWORD PTR _this$[ebp]
	fldz
	fstp	DWORD PTR [eax+48]

; 392  :   m_Mat[M4_31] = 0.0f;

	mov	eax, DWORD PTR _this$[ebp]
	fldz
	fstp	DWORD PTR [eax+52]

; 393  :   m_Mat[M4_32] = 0.0f;

	mov	eax, DWORD PTR _this$[ebp]
	fldz
	fstp	DWORD PTR [eax+56]

; 394  : 
; 395  :   m_Mat[M4_33] = 1.0f;

	mov	eax, DWORD PTR _this$[ebp]
	fld1
	fstp	DWORD PTR [eax+60]

; 396  : }

	mov	eax, DWORD PTR _this$[ebp]
	pop	edi
	pop	esi
	pop	ebx
	mov	esp, ebp
	pop	ebp
	ret	4
??0pecker_matrix4@pecker_sdk@@QAE@ABUpecker_matrix3@1@@Z ENDP ; pecker_sdk::pecker_matrix4::pecker_matrix4
_TEXT	ENDS
PUBLIC	??0pecker_matrix4@pecker_sdk@@QAE@ABU01@@Z	; pecker_sdk::pecker_matrix4::pecker_matrix4
; Function compile flags: /Odtp /RTCsu /ZI
;	COMDAT ??0pecker_matrix4@pecker_sdk@@QAE@ABU01@@Z
_TEXT	SEGMENT
_i$68110 = -20						; size = 4
_this$ = -8						; size = 4
_Mat4$ = 8						; size = 4
??0pecker_matrix4@pecker_sdk@@QAE@ABU01@@Z PROC		; pecker_sdk::pecker_matrix4::pecker_matrix4, COMDAT
; _this$ = ecx

; 400  : {

	push	ebp
	mov	ebp, esp
	sub	esp, 216				; 000000d8H
	push	ebx
	push	esi
	push	edi
	push	ecx
	lea	edi, DWORD PTR [ebp-216]
	mov	ecx, 54					; 00000036H
	mov	eax, -858993460				; ccccccccH
	rep stosd
	pop	ecx
	mov	DWORD PTR _this$[ebp], ecx

; 401  :   if (&Mat4 != this)

	mov	eax, DWORD PTR _Mat4$[ebp]
	cmp	eax, DWORD PTR _this$[ebp]
	je	SHORT $LN1@pecker_mat@7

; 402  :   for (nINDEX i=0;i<M4_INDEX_COUNT;++i)

	mov	DWORD PTR _i$68110[ebp], 0
	jmp	SHORT $LN3@pecker_mat@7
$LN2@pecker_mat@7:
	mov	eax, DWORD PTR _i$68110[ebp]
	add	eax, 1
	mov	DWORD PTR _i$68110[ebp], eax
$LN3@pecker_mat@7:
	cmp	DWORD PTR _i$68110[ebp], 16		; 00000010H
	jge	SHORT $LN1@pecker_mat@7

; 403  :   {
; 404  :     m_Mat[i] = Mat4.m_Mat[i];

	mov	eax, DWORD PTR _i$68110[ebp]
	mov	ecx, DWORD PTR _this$[ebp]
	mov	edx, DWORD PTR _i$68110[ebp]
	mov	esi, DWORD PTR _Mat4$[ebp]
	fld	DWORD PTR [esi+edx*4]
	fstp	DWORD PTR [ecx+eax*4]

; 405  :   }

	jmp	SHORT $LN2@pecker_mat@7
$LN1@pecker_mat@7:

; 406  : }

	mov	eax, DWORD PTR _this$[ebp]
	pop	edi
	pop	esi
	pop	ebx
	mov	esp, ebp
	pop	ebp
	ret	4
??0pecker_matrix4@pecker_sdk@@QAE@ABU01@@Z ENDP		; pecker_sdk::pecker_matrix4::pecker_matrix4
_TEXT	ENDS
PUBLIC	??Rpecker_matrix4@pecker_sdk@@QAEAAMHH@Z	; pecker_sdk::pecker_matrix4::operator()
; Function compile flags: /Odtp /RTCsu /ZI
;	COMDAT ??Rpecker_matrix4@pecker_sdk@@QAEAAMHH@Z
_TEXT	SEGMENT
_this$ = -8						; size = 4
_row$ = 8						; size = 4
_column$ = 12						; size = 4
??Rpecker_matrix4@pecker_sdk@@QAEAAMHH@Z PROC		; pecker_sdk::pecker_matrix4::operator(), COMDAT
; _this$ = ecx

; 409  : {

	push	ebp
	mov	ebp, esp
	sub	esp, 204				; 000000ccH
	push	ebx
	push	esi
	push	edi
	push	ecx
	lea	edi, DWORD PTR [ebp-204]
	mov	ecx, 51					; 00000033H
	mov	eax, -858993460				; ccccccccH
	rep stosd
	pop	ecx
	mov	DWORD PTR _this$[ebp], ecx

; 410  :   return (m_Mat[row + column*4]);

	mov	eax, DWORD PTR _column$[ebp]
	mov	ecx, DWORD PTR _row$[ebp]
	lea	edx, DWORD PTR [ecx+eax*4]
	mov	eax, DWORD PTR _this$[ebp]
	lea	eax, DWORD PTR [eax+edx*4]

; 411  : }

	pop	edi
	pop	esi
	pop	ebx
	mov	esp, ebp
	pop	ebp
	ret	8
??Rpecker_matrix4@pecker_sdk@@QAEAAMHH@Z ENDP		; pecker_sdk::pecker_matrix4::operator()
_TEXT	ENDS
PUBLIC	??Rpecker_matrix4@pecker_sdk@@QBEMHH@Z		; pecker_sdk::pecker_matrix4::operator()
; Function compile flags: /Odtp /RTCsu /ZI
;	COMDAT ??Rpecker_matrix4@pecker_sdk@@QBEMHH@Z
_TEXT	SEGMENT
_this$ = -8						; size = 4
_row$ = 8						; size = 4
_column$ = 12						; size = 4
??Rpecker_matrix4@pecker_sdk@@QBEMHH@Z PROC		; pecker_sdk::pecker_matrix4::operator(), COMDAT
; _this$ = ecx

; 413  : {

	push	ebp
	mov	ebp, esp
	sub	esp, 204				; 000000ccH
	push	ebx
	push	esi
	push	edi
	push	ecx
	lea	edi, DWORD PTR [ebp-204]
	mov	ecx, 51					; 00000033H
	mov	eax, -858993460				; ccccccccH
	rep stosd
	pop	ecx
	mov	DWORD PTR _this$[ebp], ecx

; 414  :   return (m_Mat[row + column*4]);

	mov	eax, DWORD PTR _column$[ebp]
	mov	ecx, DWORD PTR _row$[ebp]
	lea	edx, DWORD PTR [ecx+eax*4]
	mov	eax, DWORD PTR _this$[ebp]
	fld	DWORD PTR [eax+edx*4]

; 415  : }

	pop	edi
	pop	esi
	pop	ebx
	mov	esp, ebp
	pop	ebp
	ret	8
??Rpecker_matrix4@pecker_sdk@@QBEMHH@Z ENDP		; pecker_sdk::pecker_matrix4::operator()
_TEXT	ENDS
PUBLIC	__$ArrayPad$
PUBLIC	??Dpecker_matrix4@pecker_sdk@@QBE?AU01@ABU01@@Z	; pecker_sdk::pecker_matrix4::operator*
; Function compile flags: /Odtp /RTCsu /ZI
;	COMDAT ??Dpecker_matrix4@pecker_sdk@@QBE?AU01@ABU01@@Z
_TEXT	SEGMENT
_res$ = -84						; size = 64
_this$ = -12						; size = 4
__$ArrayPad$ = -4					; size = 4
___$ReturnUdt$ = 8					; size = 4
_Mat4$ = 12						; size = 4
??Dpecker_matrix4@pecker_sdk@@QBE?AU01@ABU01@@Z PROC	; pecker_sdk::pecker_matrix4::operator*, COMDAT
; _this$ = ecx

; 418  : {

	push	ebp
	mov	ebp, esp
	sub	esp, 280				; 00000118H
	push	ebx
	push	esi
	push	edi
	push	ecx
	lea	edi, DWORD PTR [ebp-280]
	mov	ecx, 70					; 00000046H
	mov	eax, -858993460				; ccccccccH
	rep stosd
	pop	ecx
	mov	eax, DWORD PTR ___security_cookie
	xor	eax, ebp
	mov	DWORD PTR __$ArrayPad$[ebp], eax
	mov	DWORD PTR _this$[ebp], ecx

; 419  :   pecker_matrix4 res;

	lea	ecx, DWORD PTR _res$[ebp]
	call	??0pecker_matrix4@pecker_sdk@@QAE@XZ	; pecker_sdk::pecker_matrix4::pecker_matrix4

; 420  : 
; 421  :   // col 0
; 422  :   res.m_Mat[M4_00] =  m_Mat[M4_00]*Mat4.m_Mat[M4_00] +  m_Mat[M4_10]*Mat4.m_Mat[M4_01] + m_Mat[M4_20]*Mat4.m_Mat[M4_02] + m_Mat[M4_30]*Mat4.m_Mat[M4_03];

	mov	eax, DWORD PTR _this$[ebp]
	fld	DWORD PTR [eax]
	mov	ecx, DWORD PTR _Mat4$[ebp]
	fmul	DWORD PTR [ecx]
	mov	edx, DWORD PTR _this$[ebp]
	fld	DWORD PTR [edx+16]
	mov	eax, DWORD PTR _Mat4$[ebp]
	fmul	DWORD PTR [eax+4]
	faddp	ST(1), ST(0)
	mov	ecx, DWORD PTR _this$[ebp]
	fld	DWORD PTR [ecx+32]
	mov	edx, DWORD PTR _Mat4$[ebp]
	fmul	DWORD PTR [edx+8]
	faddp	ST(1), ST(0)
	mov	eax, DWORD PTR _this$[ebp]
	fld	DWORD PTR [eax+48]
	mov	ecx, DWORD PTR _Mat4$[ebp]
	fmul	DWORD PTR [ecx+12]
	faddp	ST(1), ST(0)
	fstp	DWORD PTR _res$[ebp]

; 423  :   res.m_Mat[M4_01] =  m_Mat[M4_01]*Mat4.m_Mat[M4_00] +  m_Mat[M4_11]*Mat4.m_Mat[M4_01] + m_Mat[M4_21]*Mat4.m_Mat[M4_02] + m_Mat[M4_31]*Mat4.m_Mat[M4_03];

	mov	eax, DWORD PTR _this$[ebp]
	fld	DWORD PTR [eax+4]
	mov	ecx, DWORD PTR _Mat4$[ebp]
	fmul	DWORD PTR [ecx]
	mov	edx, DWORD PTR _this$[ebp]
	fld	DWORD PTR [edx+20]
	mov	eax, DWORD PTR _Mat4$[ebp]
	fmul	DWORD PTR [eax+4]
	faddp	ST(1), ST(0)
	mov	ecx, DWORD PTR _this$[ebp]
	fld	DWORD PTR [ecx+36]
	mov	edx, DWORD PTR _Mat4$[ebp]
	fmul	DWORD PTR [edx+8]
	faddp	ST(1), ST(0)
	mov	eax, DWORD PTR _this$[ebp]
	fld	DWORD PTR [eax+52]
	mov	ecx, DWORD PTR _Mat4$[ebp]
	fmul	DWORD PTR [ecx+12]
	faddp	ST(1), ST(0)
	fstp	DWORD PTR _res$[ebp+4]

; 424  :   res.m_Mat[M4_02] =  m_Mat[M4_02]*Mat4.m_Mat[M4_00] +  m_Mat[M4_12]*Mat4.m_Mat[M4_01] + m_Mat[M4_22]*Mat4.m_Mat[M4_02] + m_Mat[M4_32]*Mat4.m_Mat[M4_03];

	mov	eax, DWORD PTR _this$[ebp]
	fld	DWORD PTR [eax+8]
	mov	ecx, DWORD PTR _Mat4$[ebp]
	fmul	DWORD PTR [ecx]
	mov	edx, DWORD PTR _this$[ebp]
	fld	DWORD PTR [edx+24]
	mov	eax, DWORD PTR _Mat4$[ebp]
	fmul	DWORD PTR [eax+4]
	faddp	ST(1), ST(0)
	mov	ecx, DWORD PTR _this$[ebp]
	fld	DWORD PTR [ecx+40]
	mov	edx, DWORD PTR _Mat4$[ebp]
	fmul	DWORD PTR [edx+8]
	faddp	ST(1), ST(0)
	mov	eax, DWORD PTR _this$[ebp]
	fld	DWORD PTR [eax+56]
	mov	ecx, DWORD PTR _Mat4$[ebp]
	fmul	DWORD PTR [ecx+12]
	faddp	ST(1), ST(0)
	fstp	DWORD PTR _res$[ebp+8]

; 425  :   res.m_Mat[M4_03] =  m_Mat[M4_03]*Mat4.m_Mat[M4_00] +  m_Mat[M4_13]*Mat4.m_Mat[M4_01] + m_Mat[M4_23]*Mat4.m_Mat[M4_02] + m_Mat[M4_33]*Mat4.m_Mat[M4_03];

	mov	eax, DWORD PTR _this$[ebp]
	fld	DWORD PTR [eax+12]
	mov	ecx, DWORD PTR _Mat4$[ebp]
	fmul	DWORD PTR [ecx]
	mov	edx, DWORD PTR _this$[ebp]
	fld	DWORD PTR [edx+28]
	mov	eax, DWORD PTR _Mat4$[ebp]
	fmul	DWORD PTR [eax+4]
	faddp	ST(1), ST(0)
	mov	ecx, DWORD PTR _this$[ebp]
	fld	DWORD PTR [ecx+44]
	mov	edx, DWORD PTR _Mat4$[ebp]
	fmul	DWORD PTR [edx+8]
	faddp	ST(1), ST(0)
	mov	eax, DWORD PTR _this$[ebp]
	fld	DWORD PTR [eax+60]
	mov	ecx, DWORD PTR _Mat4$[ebp]
	fmul	DWORD PTR [ecx+12]
	faddp	ST(1), ST(0)
	fstp	DWORD PTR _res$[ebp+12]

; 426  :   // col 1
; 427  :   res.m_Mat[M4_10] =  m_Mat[M4_00]*Mat4.m_Mat[M4_10] +  m_Mat[M4_10]*Mat4.m_Mat[M4_11] + m_Mat[M4_20]*Mat4.m_Mat[M4_12] + m_Mat[M4_30]*Mat4.m_Mat[M4_13];

	mov	eax, DWORD PTR _this$[ebp]
	fld	DWORD PTR [eax]
	mov	ecx, DWORD PTR _Mat4$[ebp]
	fmul	DWORD PTR [ecx+16]
	mov	edx, DWORD PTR _this$[ebp]
	fld	DWORD PTR [edx+16]
	mov	eax, DWORD PTR _Mat4$[ebp]
	fmul	DWORD PTR [eax+20]
	faddp	ST(1), ST(0)
	mov	ecx, DWORD PTR _this$[ebp]
	fld	DWORD PTR [ecx+32]
	mov	edx, DWORD PTR _Mat4$[ebp]
	fmul	DWORD PTR [edx+24]
	faddp	ST(1), ST(0)
	mov	eax, DWORD PTR _this$[ebp]
	fld	DWORD PTR [eax+48]
	mov	ecx, DWORD PTR _Mat4$[ebp]
	fmul	DWORD PTR [ecx+28]
	faddp	ST(1), ST(0)
	fstp	DWORD PTR _res$[ebp+16]

; 428  :   res.m_Mat[M4_11] =  m_Mat[M4_01]*Mat4.m_Mat[M4_10] +  m_Mat[M4_11]*Mat4.m_Mat[M4_11] + m_Mat[M4_21]*Mat4.m_Mat[M4_12] + m_Mat[M4_31]*Mat4.m_Mat[M4_13];

	mov	eax, DWORD PTR _this$[ebp]
	fld	DWORD PTR [eax+4]
	mov	ecx, DWORD PTR _Mat4$[ebp]
	fmul	DWORD PTR [ecx+16]
	mov	edx, DWORD PTR _this$[ebp]
	fld	DWORD PTR [edx+20]
	mov	eax, DWORD PTR _Mat4$[ebp]
	fmul	DWORD PTR [eax+20]
	faddp	ST(1), ST(0)
	mov	ecx, DWORD PTR _this$[ebp]
	fld	DWORD PTR [ecx+36]
	mov	edx, DWORD PTR _Mat4$[ebp]
	fmul	DWORD PTR [edx+24]
	faddp	ST(1), ST(0)
	mov	eax, DWORD PTR _this$[ebp]
	fld	DWORD PTR [eax+52]
	mov	ecx, DWORD PTR _Mat4$[ebp]
	fmul	DWORD PTR [ecx+28]
	faddp	ST(1), ST(0)
	fstp	DWORD PTR _res$[ebp+20]

; 429  :   res.m_Mat[M4_12] =  m_Mat[M4_02]*Mat4.m_Mat[M4_10] +  m_Mat[M4_12]*Mat4.m_Mat[M4_11] + m_Mat[M4_22]*Mat4.m_Mat[M4_12] + m_Mat[M4_32]*Mat4.m_Mat[M4_13];

	mov	eax, DWORD PTR _this$[ebp]
	fld	DWORD PTR [eax+8]
	mov	ecx, DWORD PTR _Mat4$[ebp]
	fmul	DWORD PTR [ecx+16]
	mov	edx, DWORD PTR _this$[ebp]
	fld	DWORD PTR [edx+24]
	mov	eax, DWORD PTR _Mat4$[ebp]
	fmul	DWORD PTR [eax+20]
	faddp	ST(1), ST(0)
	mov	ecx, DWORD PTR _this$[ebp]
	fld	DWORD PTR [ecx+40]
	mov	edx, DWORD PTR _Mat4$[ebp]
	fmul	DWORD PTR [edx+24]
	faddp	ST(1), ST(0)
	mov	eax, DWORD PTR _this$[ebp]
	fld	DWORD PTR [eax+56]
	mov	ecx, DWORD PTR _Mat4$[ebp]
	fmul	DWORD PTR [ecx+28]
	faddp	ST(1), ST(0)
	fstp	DWORD PTR _res$[ebp+24]

; 430  :   res.m_Mat[M4_13] =  m_Mat[M4_03]*Mat4.m_Mat[M4_10] +  m_Mat[M4_13]*Mat4.m_Mat[M4_10] + m_Mat[M4_23]*Mat4.m_Mat[M4_12] + m_Mat[M4_33]*Mat4.m_Mat[M4_13];

	mov	eax, DWORD PTR _this$[ebp]
	fld	DWORD PTR [eax+12]
	mov	ecx, DWORD PTR _Mat4$[ebp]
	fmul	DWORD PTR [ecx+16]
	mov	edx, DWORD PTR _this$[ebp]
	fld	DWORD PTR [edx+28]
	mov	eax, DWORD PTR _Mat4$[ebp]
	fmul	DWORD PTR [eax+16]
	faddp	ST(1), ST(0)
	mov	ecx, DWORD PTR _this$[ebp]
	fld	DWORD PTR [ecx+44]
	mov	edx, DWORD PTR _Mat4$[ebp]
	fmul	DWORD PTR [edx+24]
	faddp	ST(1), ST(0)
	mov	eax, DWORD PTR _this$[ebp]
	fld	DWORD PTR [eax+60]
	mov	ecx, DWORD PTR _Mat4$[ebp]
	fmul	DWORD PTR [ecx+28]
	faddp	ST(1), ST(0)
	fstp	DWORD PTR _res$[ebp+28]

; 431  : 
; 432  :   // col 2
; 433  :   res.m_Mat[M4_20] =  m_Mat[M4_00]*Mat4.m_Mat[M4_20] +  m_Mat[M4_10]*Mat4.m_Mat[M4_21] + m_Mat[M4_20]*Mat4.m_Mat[M4_22] + m_Mat[M4_30]*Mat4.m_Mat[M4_23];

	mov	eax, DWORD PTR _this$[ebp]
	fld	DWORD PTR [eax]
	mov	ecx, DWORD PTR _Mat4$[ebp]
	fmul	DWORD PTR [ecx+32]
	mov	edx, DWORD PTR _this$[ebp]
	fld	DWORD PTR [edx+16]
	mov	eax, DWORD PTR _Mat4$[ebp]
	fmul	DWORD PTR [eax+36]
	faddp	ST(1), ST(0)
	mov	ecx, DWORD PTR _this$[ebp]
	fld	DWORD PTR [ecx+32]
	mov	edx, DWORD PTR _Mat4$[ebp]
	fmul	DWORD PTR [edx+40]
	faddp	ST(1), ST(0)
	mov	eax, DWORD PTR _this$[ebp]
	fld	DWORD PTR [eax+48]
	mov	ecx, DWORD PTR _Mat4$[ebp]
	fmul	DWORD PTR [ecx+44]
	faddp	ST(1), ST(0)
	fstp	DWORD PTR _res$[ebp+32]

; 434  :   res.m_Mat[M4_21] =  m_Mat[M4_01]*Mat4.m_Mat[M4_20] +  m_Mat[M4_11]*Mat4.m_Mat[M4_21] + m_Mat[M4_21]*Mat4.m_Mat[M4_22] + m_Mat[M4_31]*Mat4.m_Mat[M4_23];

	mov	eax, DWORD PTR _this$[ebp]
	fld	DWORD PTR [eax+4]
	mov	ecx, DWORD PTR _Mat4$[ebp]
	fmul	DWORD PTR [ecx+32]
	mov	edx, DWORD PTR _this$[ebp]
	fld	DWORD PTR [edx+20]
	mov	eax, DWORD PTR _Mat4$[ebp]
	fmul	DWORD PTR [eax+36]
	faddp	ST(1), ST(0)
	mov	ecx, DWORD PTR _this$[ebp]
	fld	DWORD PTR [ecx+36]
	mov	edx, DWORD PTR _Mat4$[ebp]
	fmul	DWORD PTR [edx+40]
	faddp	ST(1), ST(0)
	mov	eax, DWORD PTR _this$[ebp]
	fld	DWORD PTR [eax+52]
	mov	ecx, DWORD PTR _Mat4$[ebp]
	fmul	DWORD PTR [ecx+44]
	faddp	ST(1), ST(0)
	fstp	DWORD PTR _res$[ebp+36]

; 435  :   res.m_Mat[M4_22] = m_Mat[M4_02]*Mat4.m_Mat[M4_20] +  m_Mat[M4_12]*Mat4.m_Mat[M4_21] + m_Mat[M4_22]*Mat4.m_Mat[M4_22] + m_Mat[M4_32]*Mat4.m_Mat[M4_23];

	mov	eax, DWORD PTR _this$[ebp]
	fld	DWORD PTR [eax+8]
	mov	ecx, DWORD PTR _Mat4$[ebp]
	fmul	DWORD PTR [ecx+32]
	mov	edx, DWORD PTR _this$[ebp]
	fld	DWORD PTR [edx+24]
	mov	eax, DWORD PTR _Mat4$[ebp]
	fmul	DWORD PTR [eax+36]
	faddp	ST(1), ST(0)
	mov	ecx, DWORD PTR _this$[ebp]
	fld	DWORD PTR [ecx+40]
	mov	edx, DWORD PTR _Mat4$[ebp]
	fmul	DWORD PTR [edx+40]
	faddp	ST(1), ST(0)
	mov	eax, DWORD PTR _this$[ebp]
	fld	DWORD PTR [eax+56]
	mov	ecx, DWORD PTR _Mat4$[ebp]
	fmul	DWORD PTR [ecx+44]
	faddp	ST(1), ST(0)
	fstp	DWORD PTR _res$[ebp+40]

; 436  :   res.m_Mat[M4_23] = m_Mat[M4_03]*Mat4.m_Mat[M4_20] +  m_Mat[M4_13]*Mat4.m_Mat[M4_21] + m_Mat[M4_23]*Mat4.m_Mat[M4_22] + m_Mat[M4_33]*Mat4.m_Mat[M4_23];

	mov	eax, DWORD PTR _this$[ebp]
	fld	DWORD PTR [eax+12]
	mov	ecx, DWORD PTR _Mat4$[ebp]
	fmul	DWORD PTR [ecx+32]
	mov	edx, DWORD PTR _this$[ebp]
	fld	DWORD PTR [edx+28]
	mov	eax, DWORD PTR _Mat4$[ebp]
	fmul	DWORD PTR [eax+36]
	faddp	ST(1), ST(0)
	mov	ecx, DWORD PTR _this$[ebp]
	fld	DWORD PTR [ecx+44]
	mov	edx, DWORD PTR _Mat4$[ebp]
	fmul	DWORD PTR [edx+40]
	faddp	ST(1), ST(0)
	mov	eax, DWORD PTR _this$[ebp]
	fld	DWORD PTR [eax+60]
	mov	ecx, DWORD PTR _Mat4$[ebp]
	fmul	DWORD PTR [ecx+44]
	faddp	ST(1), ST(0)
	fstp	DWORD PTR _res$[ebp+44]

; 437  : 
; 438  :   // col 3
; 439  :   res.m_Mat[M4_30] =  m_Mat[M4_00]*Mat4.m_Mat[M4_30] +  m_Mat[M4_10]*Mat4.m_Mat[M4_31] + m_Mat[M4_20]*Mat4.m_Mat[M4_32] + m_Mat[M4_30]*Mat4.m_Mat[M4_33];

	mov	eax, DWORD PTR _this$[ebp]
	fld	DWORD PTR [eax]
	mov	ecx, DWORD PTR _Mat4$[ebp]
	fmul	DWORD PTR [ecx+48]
	mov	edx, DWORD PTR _this$[ebp]
	fld	DWORD PTR [edx+16]
	mov	eax, DWORD PTR _Mat4$[ebp]
	fmul	DWORD PTR [eax+52]
	faddp	ST(1), ST(0)
	mov	ecx, DWORD PTR _this$[ebp]
	fld	DWORD PTR [ecx+32]
	mov	edx, DWORD PTR _Mat4$[ebp]
	fmul	DWORD PTR [edx+56]
	faddp	ST(1), ST(0)
	mov	eax, DWORD PTR _this$[ebp]
	fld	DWORD PTR [eax+48]
	mov	ecx, DWORD PTR _Mat4$[ebp]
	fmul	DWORD PTR [ecx+60]
	faddp	ST(1), ST(0)
	fstp	DWORD PTR _res$[ebp+48]

; 440  :   res.m_Mat[M4_31] =  m_Mat[M4_01]*Mat4.m_Mat[M4_30] +  m_Mat[M4_11]*Mat4.m_Mat[M4_31] + m_Mat[M4_21]*Mat4.m_Mat[M4_32] + m_Mat[M4_31]*Mat4.m_Mat[M4_33];

	mov	eax, DWORD PTR _this$[ebp]
	fld	DWORD PTR [eax+4]
	mov	ecx, DWORD PTR _Mat4$[ebp]
	fmul	DWORD PTR [ecx+48]
	mov	edx, DWORD PTR _this$[ebp]
	fld	DWORD PTR [edx+20]
	mov	eax, DWORD PTR _Mat4$[ebp]
	fmul	DWORD PTR [eax+52]
	faddp	ST(1), ST(0)
	mov	ecx, DWORD PTR _this$[ebp]
	fld	DWORD PTR [ecx+36]
	mov	edx, DWORD PTR _Mat4$[ebp]
	fmul	DWORD PTR [edx+56]
	faddp	ST(1), ST(0)
	mov	eax, DWORD PTR _this$[ebp]
	fld	DWORD PTR [eax+52]
	mov	ecx, DWORD PTR _Mat4$[ebp]
	fmul	DWORD PTR [ecx+60]
	faddp	ST(1), ST(0)
	fstp	DWORD PTR _res$[ebp+52]

; 441  :   res.m_Mat[M4_32] =  m_Mat[M4_02]*Mat4.m_Mat[M4_30] +  m_Mat[M4_12]*Mat4.m_Mat[M4_31] + m_Mat[M4_22]*Mat4.m_Mat[M4_32] + m_Mat[M4_32]*Mat4.m_Mat[M4_33];

	mov	eax, DWORD PTR _this$[ebp]
	fld	DWORD PTR [eax+8]
	mov	ecx, DWORD PTR _Mat4$[ebp]
	fmul	DWORD PTR [ecx+48]
	mov	edx, DWORD PTR _this$[ebp]
	fld	DWORD PTR [edx+24]
	mov	eax, DWORD PTR _Mat4$[ebp]
	fmul	DWORD PTR [eax+52]
	faddp	ST(1), ST(0)
	mov	ecx, DWORD PTR _this$[ebp]
	fld	DWORD PTR [ecx+40]
	mov	edx, DWORD PTR _Mat4$[ebp]
	fmul	DWORD PTR [edx+56]
	faddp	ST(1), ST(0)
	mov	eax, DWORD PTR _this$[ebp]
	fld	DWORD PTR [eax+56]
	mov	ecx, DWORD PTR _Mat4$[ebp]
	fmul	DWORD PTR [ecx+60]
	faddp	ST(1), ST(0)
	fstp	DWORD PTR _res$[ebp+56]

; 442  :   res.m_Mat[M4_33] =  m_Mat[M4_03]*Mat4.m_Mat[M4_30] +  m_Mat[M4_13]*Mat4.m_Mat[M4_31] + m_Mat[M4_23]*Mat4.m_Mat[M4_32] + m_Mat[M4_33]*Mat4.m_Mat[M4_33];

	mov	eax, DWORD PTR _this$[ebp]
	fld	DWORD PTR [eax+12]
	mov	ecx, DWORD PTR _Mat4$[ebp]
	fmul	DWORD PTR [ecx+48]
	mov	edx, DWORD PTR _this$[ebp]
	fld	DWORD PTR [edx+28]
	mov	eax, DWORD PTR _Mat4$[ebp]
	fmul	DWORD PTR [eax+52]
	faddp	ST(1), ST(0)
	mov	ecx, DWORD PTR _this$[ebp]
	fld	DWORD PTR [ecx+44]
	mov	edx, DWORD PTR _Mat4$[ebp]
	fmul	DWORD PTR [edx+56]
	faddp	ST(1), ST(0)
	mov	eax, DWORD PTR _this$[ebp]
	fld	DWORD PTR [eax+60]
	mov	ecx, DWORD PTR _Mat4$[ebp]
	fmul	DWORD PTR [ecx+60]
	faddp	ST(1), ST(0)
	fstp	DWORD PTR _res$[ebp+60]

; 443  : 
; 444  : 
; 445  :   return res;

	lea	eax, DWORD PTR _res$[ebp]
	push	eax
	mov	ecx, DWORD PTR ___$ReturnUdt$[ebp]
	call	??0pecker_matrix4@pecker_sdk@@QAE@ABU01@@Z ; pecker_sdk::pecker_matrix4::pecker_matrix4
	mov	eax, DWORD PTR ___$ReturnUdt$[ebp]

; 446  : }

	push	edx
	mov	ecx, ebp
	push	eax
	lea	edx, DWORD PTR $LN5@operator@10
	call	@_RTC_CheckStackVars@8
	pop	eax
	pop	edx
	pop	edi
	pop	esi
	pop	ebx
	mov	ecx, DWORD PTR __$ArrayPad$[ebp]
	xor	ecx, ebp
	call	@__security_check_cookie@4
	add	esp, 280				; 00000118H
	cmp	ebp, esp
	call	__RTC_CheckEsp
	mov	esp, ebp
	pop	ebp
	ret	8
	npad	3
$LN5@operator@10:
	DD	1
	DD	$LN4@operator@10
$LN4@operator@10:
	DD	-84					; ffffffacH
	DD	64					; 00000040H
	DD	$LN3@operator@10
$LN3@operator@10:
	DB	114					; 00000072H
	DB	101					; 00000065H
	DB	115					; 00000073H
	DB	0
??Dpecker_matrix4@pecker_sdk@@QBE?AU01@ABU01@@Z ENDP	; pecker_sdk::pecker_matrix4::operator*
_TEXT	ENDS
PUBLIC	??Dpecker_matrix4@pecker_sdk@@QBE?AUpecker_vector4@1@ABU21@@Z ; pecker_sdk::pecker_matrix4::operator*
EXTRN	??0pecker_vector4@pecker_sdk@@QAE@MMMM@Z:PROC	; pecker_sdk::pecker_vector4::pecker_vector4
; Function compile flags: /Odtp /RTCsu /ZI
;	COMDAT ??Dpecker_matrix4@pecker_sdk@@QBE?AUpecker_vector4@1@ABU21@@Z
_TEXT	SEGMENT
tv227 = -220						; size = 4
tv218 = -216						; size = 4
tv209 = -212						; size = 4
tv200 = -208						; size = 4
_this$ = -8						; size = 4
___$ReturnUdt$ = 8					; size = 4
_vec4$ = 12						; size = 4
??Dpecker_matrix4@pecker_sdk@@QBE?AUpecker_vector4@1@ABU21@@Z PROC ; pecker_sdk::pecker_matrix4::operator*, COMDAT
; _this$ = ecx

; 449  : {

	push	ebp
	mov	ebp, esp
	sub	esp, 220				; 000000dcH
	push	ebx
	push	esi
	push	edi
	push	ecx
	lea	edi, DWORD PTR [ebp-220]
	mov	ecx, 55					; 00000037H
	mov	eax, -858993460				; ccccccccH
	rep stosd
	pop	ecx
	mov	DWORD PTR _this$[ebp], ecx

; 450  :   return pecker_vector4(vec4.x*m_Mat[M4_00] + vec4.y*m_Mat[M4_10] + vec4.z*m_Mat[M4_20] + vec4.w*m_Mat[M4_30],
; 451  :                   vec4.x*m_Mat[M4_01] + vec4.y*m_Mat[M4_11] + vec4.z*m_Mat[M4_21] + vec4.w*m_Mat[M4_31],
; 452  :                   vec4.x*m_Mat[M4_02] + vec4.y*m_Mat[M4_12] + vec4.z*m_Mat[M4_22] + vec4.w*m_Mat[M4_32],
; 453  :                   vec4.x*m_Mat[M4_03] + vec4.y*m_Mat[M4_13] + vec4.z*m_Mat[M4_23] + vec4.w*m_Mat[M4_33]);

	mov	eax, DWORD PTR _vec4$[ebp]
	fld	DWORD PTR [eax]
	mov	ecx, DWORD PTR _this$[ebp]
	fmul	DWORD PTR [ecx+12]
	mov	edx, DWORD PTR _vec4$[ebp]
	fld	DWORD PTR [edx+4]
	mov	eax, DWORD PTR _this$[ebp]
	fmul	DWORD PTR [eax+28]
	faddp	ST(1), ST(0)
	mov	ecx, DWORD PTR _vec4$[ebp]
	fld	DWORD PTR [ecx+8]
	mov	edx, DWORD PTR _this$[ebp]
	fmul	DWORD PTR [edx+44]
	faddp	ST(1), ST(0)
	mov	eax, DWORD PTR _vec4$[ebp]
	fld	DWORD PTR [eax+12]
	mov	ecx, DWORD PTR _this$[ebp]
	fmul	DWORD PTR [ecx+60]
	faddp	ST(1), ST(0)
	fstp	DWORD PTR tv200[ebp]
	fld	DWORD PTR tv200[ebp]
	push	ecx
	fstp	DWORD PTR [esp]
	mov	edx, DWORD PTR _vec4$[ebp]
	fld	DWORD PTR [edx]
	mov	eax, DWORD PTR _this$[ebp]
	fmul	DWORD PTR [eax+8]
	mov	ecx, DWORD PTR _vec4$[ebp]
	fld	DWORD PTR [ecx+4]
	mov	edx, DWORD PTR _this$[ebp]
	fmul	DWORD PTR [edx+24]
	faddp	ST(1), ST(0)
	mov	eax, DWORD PTR _vec4$[ebp]
	fld	DWORD PTR [eax+8]
	mov	ecx, DWORD PTR _this$[ebp]
	fmul	DWORD PTR [ecx+40]
	faddp	ST(1), ST(0)
	mov	edx, DWORD PTR _vec4$[ebp]
	fld	DWORD PTR [edx+12]
	mov	eax, DWORD PTR _this$[ebp]
	fmul	DWORD PTR [eax+56]
	faddp	ST(1), ST(0)
	fstp	DWORD PTR tv209[ebp]
	fld	DWORD PTR tv209[ebp]
	push	ecx
	fstp	DWORD PTR [esp]
	mov	ecx, DWORD PTR _vec4$[ebp]
	fld	DWORD PTR [ecx]
	mov	edx, DWORD PTR _this$[ebp]
	fmul	DWORD PTR [edx+4]
	mov	eax, DWORD PTR _vec4$[ebp]
	fld	DWORD PTR [eax+4]
	mov	ecx, DWORD PTR _this$[ebp]
	fmul	DWORD PTR [ecx+20]
	faddp	ST(1), ST(0)
	mov	edx, DWORD PTR _vec4$[ebp]
	fld	DWORD PTR [edx+8]
	mov	eax, DWORD PTR _this$[ebp]
	fmul	DWORD PTR [eax+36]
	faddp	ST(1), ST(0)
	mov	ecx, DWORD PTR _vec4$[ebp]
	fld	DWORD PTR [ecx+12]
	mov	edx, DWORD PTR _this$[ebp]
	fmul	DWORD PTR [edx+52]
	faddp	ST(1), ST(0)
	fstp	DWORD PTR tv218[ebp]
	fld	DWORD PTR tv218[ebp]
	push	ecx
	fstp	DWORD PTR [esp]
	mov	eax, DWORD PTR _vec4$[ebp]
	fld	DWORD PTR [eax]
	mov	ecx, DWORD PTR _this$[ebp]
	fmul	DWORD PTR [ecx]
	mov	edx, DWORD PTR _vec4$[ebp]
	fld	DWORD PTR [edx+4]
	mov	eax, DWORD PTR _this$[ebp]
	fmul	DWORD PTR [eax+16]
	faddp	ST(1), ST(0)
	mov	ecx, DWORD PTR _vec4$[ebp]
	fld	DWORD PTR [ecx+8]
	mov	edx, DWORD PTR _this$[ebp]
	fmul	DWORD PTR [edx+32]
	faddp	ST(1), ST(0)
	mov	eax, DWORD PTR _vec4$[ebp]
	fld	DWORD PTR [eax+12]
	mov	ecx, DWORD PTR _this$[ebp]
	fmul	DWORD PTR [ecx+48]
	faddp	ST(1), ST(0)
	fstp	DWORD PTR tv227[ebp]
	fld	DWORD PTR tv227[ebp]
	push	ecx
	fstp	DWORD PTR [esp]
	mov	ecx, DWORD PTR ___$ReturnUdt$[ebp]
	call	??0pecker_vector4@pecker_sdk@@QAE@MMMM@Z ; pecker_sdk::pecker_vector4::pecker_vector4
	mov	eax, DWORD PTR ___$ReturnUdt$[ebp]

; 454  : }

	pop	edi
	pop	esi
	pop	ebx
	add	esp, 220				; 000000dcH
	cmp	ebp, esp
	call	__RTC_CheckEsp
	mov	esp, ebp
	pop	ebp
	ret	8
??Dpecker_matrix4@pecker_sdk@@QBE?AUpecker_vector4@1@ABU21@@Z ENDP ; pecker_sdk::pecker_matrix4::operator*
_TEXT	ENDS
PUBLIC	__$ArrayPad$
PUBLIC	??Dpecker_matrix4@pecker_sdk@@QBE?AU01@M@Z	; pecker_sdk::pecker_matrix4::operator*
; Function compile flags: /Odtp /RTCsu /ZI
;	COMDAT ??Dpecker_matrix4@pecker_sdk@@QBE?AU01@M@Z
_TEXT	SEGMENT
_i$68142 = -96						; size = 4
_res$ = -84						; size = 64
_this$ = -12						; size = 4
__$ArrayPad$ = -4					; size = 4
___$ReturnUdt$ = 8					; size = 4
_fVal$ = 12						; size = 4
??Dpecker_matrix4@pecker_sdk@@QBE?AU01@M@Z PROC		; pecker_sdk::pecker_matrix4::operator*, COMDAT
; _this$ = ecx

; 457  : {

	push	ebp
	mov	ebp, esp
	sub	esp, 292				; 00000124H
	push	ebx
	push	esi
	push	edi
	push	ecx
	lea	edi, DWORD PTR [ebp-292]
	mov	ecx, 73					; 00000049H
	mov	eax, -858993460				; ccccccccH
	rep stosd
	pop	ecx
	mov	eax, DWORD PTR ___security_cookie
	xor	eax, ebp
	mov	DWORD PTR __$ArrayPad$[ebp], eax
	mov	DWORD PTR _this$[ebp], ecx

; 458  :   pecker_matrix4 res;

	lea	ecx, DWORD PTR _res$[ebp]
	call	??0pecker_matrix4@pecker_sdk@@QAE@XZ	; pecker_sdk::pecker_matrix4::pecker_matrix4

; 459  : 
; 460  :   for (nINDEX i=0;i<M4_INDEX_COUNT;++i)

	mov	DWORD PTR _i$68142[ebp], 0
	jmp	SHORT $LN3@operator@11
$LN2@operator@11:
	mov	eax, DWORD PTR _i$68142[ebp]
	add	eax, 1
	mov	DWORD PTR _i$68142[ebp], eax
$LN3@operator@11:
	cmp	DWORD PTR _i$68142[ebp], 16		; 00000010H
	jge	SHORT $LN1@operator@11

; 461  :   {
; 462  :     res.m_Mat[i] = m_Mat[i] * fVal;

	mov	eax, DWORD PTR _i$68142[ebp]
	mov	ecx, DWORD PTR _this$[ebp]
	fld	DWORD PTR [ecx+eax*4]
	fmul	DWORD PTR _fVal$[ebp]
	mov	edx, DWORD PTR _i$68142[ebp]
	fstp	DWORD PTR _res$[ebp+edx*4]

; 463  :   }

	jmp	SHORT $LN2@operator@11
$LN1@operator@11:

; 464  : 
; 465  :   return res;

	lea	eax, DWORD PTR _res$[ebp]
	push	eax
	mov	ecx, DWORD PTR ___$ReturnUdt$[ebp]
	call	??0pecker_matrix4@pecker_sdk@@QAE@ABU01@@Z ; pecker_sdk::pecker_matrix4::pecker_matrix4
	mov	eax, DWORD PTR ___$ReturnUdt$[ebp]

; 466  : }

	push	edx
	mov	ecx, ebp
	push	eax
	lea	edx, DWORD PTR $LN8@operator@11
	call	@_RTC_CheckStackVars@8
	pop	eax
	pop	edx
	pop	edi
	pop	esi
	pop	ebx
	mov	ecx, DWORD PTR __$ArrayPad$[ebp]
	xor	ecx, ebp
	call	@__security_check_cookie@4
	add	esp, 292				; 00000124H
	cmp	ebp, esp
	call	__RTC_CheckEsp
	mov	esp, ebp
	pop	ebp
	ret	8
	npad	2
$LN8@operator@11:
	DD	1
	DD	$LN7@operator@11
$LN7@operator@11:
	DD	-84					; ffffffacH
	DD	64					; 00000040H
	DD	$LN6@operator@11
$LN6@operator@11:
	DB	114					; 00000072H
	DB	101					; 00000065H
	DB	115					; 00000073H
	DB	0
??Dpecker_matrix4@pecker_sdk@@QBE?AU01@M@Z ENDP		; pecker_sdk::pecker_matrix4::operator*
_TEXT	ENDS
PUBLIC	__$ArrayPad$
PUBLIC	??Hpecker_matrix4@pecker_sdk@@QBE?AU01@ABU01@@Z	; pecker_sdk::pecker_matrix4::operator+
; Function compile flags: /Odtp /RTCsu /ZI
;	COMDAT ??Hpecker_matrix4@pecker_sdk@@QBE?AU01@ABU01@@Z
_TEXT	SEGMENT
_i$68152 = -96						; size = 4
_res$ = -84						; size = 64
_this$ = -12						; size = 4
__$ArrayPad$ = -4					; size = 4
___$ReturnUdt$ = 8					; size = 4
_Mat4$ = 12						; size = 4
??Hpecker_matrix4@pecker_sdk@@QBE?AU01@ABU01@@Z PROC	; pecker_sdk::pecker_matrix4::operator+, COMDAT
; _this$ = ecx

; 469  : {

	push	ebp
	mov	ebp, esp
	sub	esp, 292				; 00000124H
	push	ebx
	push	esi
	push	edi
	push	ecx
	lea	edi, DWORD PTR [ebp-292]
	mov	ecx, 73					; 00000049H
	mov	eax, -858993460				; ccccccccH
	rep stosd
	pop	ecx
	mov	eax, DWORD PTR ___security_cookie
	xor	eax, ebp
	mov	DWORD PTR __$ArrayPad$[ebp], eax
	mov	DWORD PTR _this$[ebp], ecx

; 470  :   pecker_matrix4 res;

	lea	ecx, DWORD PTR _res$[ebp]
	call	??0pecker_matrix4@pecker_sdk@@QAE@XZ	; pecker_sdk::pecker_matrix4::pecker_matrix4

; 471  : 
; 472  :   for (nINDEX i=0;i<M4_INDEX_COUNT;++i)

	mov	DWORD PTR _i$68152[ebp], 0
	jmp	SHORT $LN3@operator@12
$LN2@operator@12:
	mov	eax, DWORD PTR _i$68152[ebp]
	add	eax, 1
	mov	DWORD PTR _i$68152[ebp], eax
$LN3@operator@12:
	cmp	DWORD PTR _i$68152[ebp], 16		; 00000010H
	jge	SHORT $LN1@operator@12

; 473  :   {
; 474  :     res.m_Mat[i] = m_Mat[i] + Mat4.m_Mat[i];

	mov	eax, DWORD PTR _i$68152[ebp]
	mov	ecx, DWORD PTR _this$[ebp]
	fld	DWORD PTR [ecx+eax*4]
	mov	edx, DWORD PTR _i$68152[ebp]
	mov	eax, DWORD PTR _Mat4$[ebp]
	fadd	DWORD PTR [eax+edx*4]
	mov	ecx, DWORD PTR _i$68152[ebp]
	fstp	DWORD PTR _res$[ebp+ecx*4]

; 475  :   }

	jmp	SHORT $LN2@operator@12
$LN1@operator@12:

; 476  : 
; 477  :   return res;

	lea	eax, DWORD PTR _res$[ebp]
	push	eax
	mov	ecx, DWORD PTR ___$ReturnUdt$[ebp]
	call	??0pecker_matrix4@pecker_sdk@@QAE@ABU01@@Z ; pecker_sdk::pecker_matrix4::pecker_matrix4
	mov	eax, DWORD PTR ___$ReturnUdt$[ebp]

; 478  : }

	push	edx
	mov	ecx, ebp
	push	eax
	lea	edx, DWORD PTR $LN8@operator@12
	call	@_RTC_CheckStackVars@8
	pop	eax
	pop	edx
	pop	edi
	pop	esi
	pop	ebx
	mov	ecx, DWORD PTR __$ArrayPad$[ebp]
	xor	ecx, ebp
	call	@__security_check_cookie@4
	add	esp, 292				; 00000124H
	cmp	ebp, esp
	call	__RTC_CheckEsp
	mov	esp, ebp
	pop	ebp
	ret	8
$LN8@operator@12:
	DD	1
	DD	$LN7@operator@12
$LN7@operator@12:
	DD	-84					; ffffffacH
	DD	64					; 00000040H
	DD	$LN6@operator@12
$LN6@operator@12:
	DB	114					; 00000072H
	DB	101					; 00000065H
	DB	115					; 00000073H
	DB	0
??Hpecker_matrix4@pecker_sdk@@QBE?AU01@ABU01@@Z ENDP	; pecker_sdk::pecker_matrix4::operator+
_TEXT	ENDS
PUBLIC	__$ArrayPad$
PUBLIC	??Gpecker_matrix4@pecker_sdk@@QBE?AU01@ABU01@@Z	; pecker_sdk::pecker_matrix4::operator-
; Function compile flags: /Odtp /RTCsu /ZI
;	COMDAT ??Gpecker_matrix4@pecker_sdk@@QBE?AU01@ABU01@@Z
_TEXT	SEGMENT
_i$68162 = -96						; size = 4
_res$ = -84						; size = 64
_this$ = -12						; size = 4
__$ArrayPad$ = -4					; size = 4
___$ReturnUdt$ = 8					; size = 4
_Mat4$ = 12						; size = 4
??Gpecker_matrix4@pecker_sdk@@QBE?AU01@ABU01@@Z PROC	; pecker_sdk::pecker_matrix4::operator-, COMDAT
; _this$ = ecx

; 481  : {

	push	ebp
	mov	ebp, esp
	sub	esp, 292				; 00000124H
	push	ebx
	push	esi
	push	edi
	push	ecx
	lea	edi, DWORD PTR [ebp-292]
	mov	ecx, 73					; 00000049H
	mov	eax, -858993460				; ccccccccH
	rep stosd
	pop	ecx
	mov	eax, DWORD PTR ___security_cookie
	xor	eax, ebp
	mov	DWORD PTR __$ArrayPad$[ebp], eax
	mov	DWORD PTR _this$[ebp], ecx

; 482  :   pecker_matrix4 res;

	lea	ecx, DWORD PTR _res$[ebp]
	call	??0pecker_matrix4@pecker_sdk@@QAE@XZ	; pecker_sdk::pecker_matrix4::pecker_matrix4

; 483  : 
; 484  :   for (nINDEX i=0;i<M4_INDEX_COUNT;++i)

	mov	DWORD PTR _i$68162[ebp], 0
	jmp	SHORT $LN3@operator@13
$LN2@operator@13:
	mov	eax, DWORD PTR _i$68162[ebp]
	add	eax, 1
	mov	DWORD PTR _i$68162[ebp], eax
$LN3@operator@13:
	cmp	DWORD PTR _i$68162[ebp], 16		; 00000010H
	jge	SHORT $LN1@operator@13

; 485  :   {
; 486  :     res.m_Mat[i] = m_Mat[i] - Mat4.m_Mat[i];

	mov	eax, DWORD PTR _i$68162[ebp]
	mov	ecx, DWORD PTR _this$[ebp]
	fld	DWORD PTR [ecx+eax*4]
	mov	edx, DWORD PTR _i$68162[ebp]
	mov	eax, DWORD PTR _Mat4$[ebp]
	fsub	DWORD PTR [eax+edx*4]
	mov	ecx, DWORD PTR _i$68162[ebp]
	fstp	DWORD PTR _res$[ebp+ecx*4]

; 487  :   }

	jmp	SHORT $LN2@operator@13
$LN1@operator@13:

; 488  : 
; 489  :   return res;

	lea	eax, DWORD PTR _res$[ebp]
	push	eax
	mov	ecx, DWORD PTR ___$ReturnUdt$[ebp]
	call	??0pecker_matrix4@pecker_sdk@@QAE@ABU01@@Z ; pecker_sdk::pecker_matrix4::pecker_matrix4
	mov	eax, DWORD PTR ___$ReturnUdt$[ebp]

; 490  : }

	push	edx
	mov	ecx, ebp
	push	eax
	lea	edx, DWORD PTR $LN8@operator@13
	call	@_RTC_CheckStackVars@8
	pop	eax
	pop	edx
	pop	edi
	pop	esi
	pop	ebx
	mov	ecx, DWORD PTR __$ArrayPad$[ebp]
	xor	ecx, ebp
	call	@__security_check_cookie@4
	add	esp, 292				; 00000124H
	cmp	ebp, esp
	call	__RTC_CheckEsp
	mov	esp, ebp
	pop	ebp
	ret	8
$LN8@operator@13:
	DD	1
	DD	$LN7@operator@13
$LN7@operator@13:
	DD	-84					; ffffffacH
	DD	64					; 00000040H
	DD	$LN6@operator@13
$LN6@operator@13:
	DB	114					; 00000072H
	DB	101					; 00000065H
	DB	115					; 00000073H
	DB	0
??Gpecker_matrix4@pecker_sdk@@QBE?AU01@ABU01@@Z ENDP	; pecker_sdk::pecker_matrix4::operator-
_TEXT	ENDS
PUBLIC	__$ArrayPad$
PUBLIC	??Xpecker_matrix4@pecker_sdk@@QAEAAU01@ABU01@@Z	; pecker_sdk::pecker_matrix4::operator*=
; Function compile flags: /Odtp /RTCsu /ZI
;	COMDAT ??Xpecker_matrix4@pecker_sdk@@QAEAAU01@ABU01@@Z
_TEXT	SEGMENT
$T68171 = -348						; size = 64
_tmpMat4$ = -84						; size = 64
_this$ = -12						; size = 4
__$ArrayPad$ = -4					; size = 4
_Mat4$ = 8						; size = 4
??Xpecker_matrix4@pecker_sdk@@QAEAAU01@ABU01@@Z PROC	; pecker_sdk::pecker_matrix4::operator*=, COMDAT
; _this$ = ecx

; 494  : {

	push	ebp
	mov	ebp, esp
	sub	esp, 352				; 00000160H
	push	ebx
	push	esi
	push	edi
	push	ecx
	lea	edi, DWORD PTR [ebp-352]
	mov	ecx, 88					; 00000058H
	mov	eax, -858993460				; ccccccccH
	rep stosd
	pop	ecx
	mov	eax, DWORD PTR ___security_cookie
	xor	eax, ebp
	mov	DWORD PTR __$ArrayPad$[ebp], eax
	mov	DWORD PTR _this$[ebp], ecx

; 495  :   pecker_matrix4 tmpMat4(*this);

	mov	eax, DWORD PTR _this$[ebp]
	push	eax
	lea	ecx, DWORD PTR _tmpMat4$[ebp]
	call	??0pecker_matrix4@pecker_sdk@@QAE@ABU01@@Z ; pecker_sdk::pecker_matrix4::pecker_matrix4

; 496  :   *this = tmpMat4 * Mat4;

	mov	eax, DWORD PTR _Mat4$[ebp]
	push	eax
	lea	ecx, DWORD PTR $T68171[ebp]
	push	ecx
	lea	ecx, DWORD PTR _tmpMat4$[ebp]
	call	??Dpecker_matrix4@pecker_sdk@@QBE?AU01@ABU01@@Z ; pecker_sdk::pecker_matrix4::operator*
	mov	ecx, 16					; 00000010H
	mov	esi, eax
	mov	edi, DWORD PTR _this$[ebp]
	rep movsd

; 497  :   return *this;

	mov	eax, DWORD PTR _this$[ebp]

; 498  : }

	push	edx
	mov	ecx, ebp
	push	eax
	lea	edx, DWORD PTR $LN5@operator@14
	call	@_RTC_CheckStackVars@8
	pop	eax
	pop	edx
	pop	edi
	pop	esi
	pop	ebx
	mov	ecx, DWORD PTR __$ArrayPad$[ebp]
	xor	ecx, ebp
	call	@__security_check_cookie@4
	add	esp, 352				; 00000160H
	cmp	ebp, esp
	call	__RTC_CheckEsp
	mov	esp, ebp
	pop	ebp
	ret	4
$LN5@operator@14:
	DD	1
	DD	$LN4@operator@14
$LN4@operator@14:
	DD	-84					; ffffffacH
	DD	64					; 00000040H
	DD	$LN3@operator@14
$LN3@operator@14:
	DB	116					; 00000074H
	DB	109					; 0000006dH
	DB	112					; 00000070H
	DB	77					; 0000004dH
	DB	97					; 00000061H
	DB	116					; 00000074H
	DB	52					; 00000034H
	DB	0
??Xpecker_matrix4@pecker_sdk@@QAEAAU01@ABU01@@Z ENDP	; pecker_sdk::pecker_matrix4::operator*=
_TEXT	ENDS
PUBLIC	??Xpecker_matrix4@pecker_sdk@@QAEAAU01@M@Z	; pecker_sdk::pecker_matrix4::operator*=
; Function compile flags: /Odtp /RTCsu /ZI
;	COMDAT ??Xpecker_matrix4@pecker_sdk@@QAEAAU01@M@Z
_TEXT	SEGMENT
_i$68176 = -20						; size = 4
_this$ = -8						; size = 4
_fVal$ = 8						; size = 4
??Xpecker_matrix4@pecker_sdk@@QAEAAU01@M@Z PROC		; pecker_sdk::pecker_matrix4::operator*=, COMDAT
; _this$ = ecx

; 502  : {

	push	ebp
	mov	ebp, esp
	sub	esp, 216				; 000000d8H
	push	ebx
	push	esi
	push	edi
	push	ecx
	lea	edi, DWORD PTR [ebp-216]
	mov	ecx, 54					; 00000036H
	mov	eax, -858993460				; ccccccccH
	rep stosd
	pop	ecx
	mov	DWORD PTR _this$[ebp], ecx

; 503  :   for (nINDEX i=0;i<M4_INDEX_COUNT;++i)

	mov	DWORD PTR _i$68176[ebp], 0
	jmp	SHORT $LN3@operator@15
$LN2@operator@15:
	mov	eax, DWORD PTR _i$68176[ebp]
	add	eax, 1
	mov	DWORD PTR _i$68176[ebp], eax
$LN3@operator@15:
	cmp	DWORD PTR _i$68176[ebp], 16		; 00000010H
	jge	SHORT $LN1@operator@15

; 504  :   {
; 505  :     m_Mat[i] *= fVal;

	mov	eax, DWORD PTR _i$68176[ebp]
	mov	ecx, DWORD PTR _this$[ebp]
	fld	DWORD PTR [ecx+eax*4]
	fmul	DWORD PTR _fVal$[ebp]
	mov	edx, DWORD PTR _i$68176[ebp]
	mov	eax, DWORD PTR _this$[ebp]
	fstp	DWORD PTR [eax+edx*4]

; 506  :   }

	jmp	SHORT $LN2@operator@15
$LN1@operator@15:

; 507  :   return *this;

	mov	eax, DWORD PTR _this$[ebp]

; 508  : }

	pop	edi
	pop	esi
	pop	ebx
	mov	esp, ebp
	pop	ebp
	ret	4
??Xpecker_matrix4@pecker_sdk@@QAEAAU01@M@Z ENDP		; pecker_sdk::pecker_matrix4::operator*=
_TEXT	ENDS
PUBLIC	??Ypecker_matrix4@pecker_sdk@@QAEAAU01@ABU01@@Z	; pecker_sdk::pecker_matrix4::operator+=
; Function compile flags: /Odtp /RTCsu /ZI
;	COMDAT ??Ypecker_matrix4@pecker_sdk@@QAEAAU01@ABU01@@Z
_TEXT	SEGMENT
_i$68184 = -20						; size = 4
_this$ = -8						; size = 4
_Mat4$ = 8						; size = 4
??Ypecker_matrix4@pecker_sdk@@QAEAAU01@ABU01@@Z PROC	; pecker_sdk::pecker_matrix4::operator+=, COMDAT
; _this$ = ecx

; 511  : {

	push	ebp
	mov	ebp, esp
	sub	esp, 216				; 000000d8H
	push	ebx
	push	esi
	push	edi
	push	ecx
	lea	edi, DWORD PTR [ebp-216]
	mov	ecx, 54					; 00000036H
	mov	eax, -858993460				; ccccccccH
	rep stosd
	pop	ecx
	mov	DWORD PTR _this$[ebp], ecx

; 512  :   for (nINDEX i=0;i<M4_INDEX_COUNT;++i)

	mov	DWORD PTR _i$68184[ebp], 0
	jmp	SHORT $LN3@operator@16
$LN2@operator@16:
	mov	eax, DWORD PTR _i$68184[ebp]
	add	eax, 1
	mov	DWORD PTR _i$68184[ebp], eax
$LN3@operator@16:
	cmp	DWORD PTR _i$68184[ebp], 16		; 00000010H
	jge	SHORT $LN1@operator@16

; 513  :   {
; 514  :     m_Mat[i] += Mat4.m_Mat[i];

	mov	eax, DWORD PTR _i$68184[ebp]
	mov	ecx, DWORD PTR _this$[ebp]
	fld	DWORD PTR [ecx+eax*4]
	mov	edx, DWORD PTR _i$68184[ebp]
	mov	eax, DWORD PTR _Mat4$[ebp]
	fadd	DWORD PTR [eax+edx*4]
	mov	ecx, DWORD PTR _i$68184[ebp]
	mov	edx, DWORD PTR _this$[ebp]
	fstp	DWORD PTR [edx+ecx*4]

; 515  :   }

	jmp	SHORT $LN2@operator@16
$LN1@operator@16:

; 516  :   return *this;

	mov	eax, DWORD PTR _this$[ebp]

; 517  : }

	pop	edi
	pop	esi
	pop	ebx
	mov	esp, ebp
	pop	ebp
	ret	4
??Ypecker_matrix4@pecker_sdk@@QAEAAU01@ABU01@@Z ENDP	; pecker_sdk::pecker_matrix4::operator+=
_TEXT	ENDS
PUBLIC	??Zpecker_matrix4@pecker_sdk@@QAEAAU01@ABU01@@Z	; pecker_sdk::pecker_matrix4::operator-=
; Function compile flags: /Odtp /RTCsu /ZI
;	COMDAT ??Zpecker_matrix4@pecker_sdk@@QAEAAU01@ABU01@@Z
_TEXT	SEGMENT
_i$68192 = -20						; size = 4
_this$ = -8						; size = 4
_Mat4$ = 8						; size = 4
??Zpecker_matrix4@pecker_sdk@@QAEAAU01@ABU01@@Z PROC	; pecker_sdk::pecker_matrix4::operator-=, COMDAT
; _this$ = ecx

; 520  : {

	push	ebp
	mov	ebp, esp
	sub	esp, 216				; 000000d8H
	push	ebx
	push	esi
	push	edi
	push	ecx
	lea	edi, DWORD PTR [ebp-216]
	mov	ecx, 54					; 00000036H
	mov	eax, -858993460				; ccccccccH
	rep stosd
	pop	ecx
	mov	DWORD PTR _this$[ebp], ecx

; 521  :   for (nINDEX i=0;i<M4_INDEX_COUNT;++i)

	mov	DWORD PTR _i$68192[ebp], 0
	jmp	SHORT $LN3@operator@17
$LN2@operator@17:
	mov	eax, DWORD PTR _i$68192[ebp]
	add	eax, 1
	mov	DWORD PTR _i$68192[ebp], eax
$LN3@operator@17:
	cmp	DWORD PTR _i$68192[ebp], 16		; 00000010H
	jge	SHORT $LN1@operator@17

; 522  :   {
; 523  :     m_Mat[i] -= Mat4.m_Mat[i];

	mov	eax, DWORD PTR _i$68192[ebp]
	mov	ecx, DWORD PTR _this$[ebp]
	fld	DWORD PTR [ecx+eax*4]
	mov	edx, DWORD PTR _i$68192[ebp]
	mov	eax, DWORD PTR _Mat4$[ebp]
	fsub	DWORD PTR [eax+edx*4]
	mov	ecx, DWORD PTR _i$68192[ebp]
	mov	edx, DWORD PTR _this$[ebp]
	fstp	DWORD PTR [edx+ecx*4]

; 524  :   }

	jmp	SHORT $LN2@operator@17
$LN1@operator@17:

; 525  :   return *this;

	mov	eax, DWORD PTR _this$[ebp]

; 526  : }

	pop	edi
	pop	esi
	pop	ebx
	mov	esp, ebp
	pop	ebp
	ret	4
??Zpecker_matrix4@pecker_sdk@@QAEAAU01@ABU01@@Z ENDP	; pecker_sdk::pecker_matrix4::operator-=
_TEXT	ENDS
PUBLIC	??8pecker_matrix4@pecker_sdk@@QBE_NABU01@@Z	; pecker_sdk::pecker_matrix4::operator==
; Function compile flags: /Odtp /RTCsu /ZI
;	COMDAT ??8pecker_matrix4@pecker_sdk@@QBE_NABU01@@Z
_TEXT	SEGMENT
tv88 = -237						; size = 1
tv139 = -236						; size = 4
tv129 = -232						; size = 4
_i$68201 = -32						; size = 4
_res$ = -17						; size = 1
_this$ = -8						; size = 4
_Val$ = 8						; size = 4
??8pecker_matrix4@pecker_sdk@@QBE_NABU01@@Z PROC	; pecker_sdk::pecker_matrix4::operator==, COMDAT
; _this$ = ecx

; 530  : {

	push	ebp
	mov	ebp, esp
	sub	esp, 240				; 000000f0H
	push	ebx
	push	esi
	push	edi
	push	ecx
	lea	edi, DWORD PTR [ebp-240]
	mov	ecx, 60					; 0000003cH
	mov	eax, -858993460				; ccccccccH
	rep stosd
	pop	ecx
	mov	DWORD PTR _this$[ebp], ecx

; 531  :   Bool res = true;

	mov	BYTE PTR _res$[ebp], 1

; 532  :   for (nINDEX i=0;i<M4_INDEX_COUNT;++i)

	mov	DWORD PTR _i$68201[ebp], 0
	jmp	SHORT $LN4@operator@18
$LN3@operator@18:
	mov	eax, DWORD PTR _i$68201[ebp]
	add	eax, 1
	mov	DWORD PTR _i$68201[ebp], eax
$LN4@operator@18:
	cmp	DWORD PTR _i$68201[ebp], 16		; 00000010H
	jge	SHORT $LN2@operator@18

; 533  :   {
; 534  :     if(!EQFLOATZERO(m_Mat[i]-Val.m_Mat[i]))

	mov	eax, DWORD PTR _i$68201[ebp]
	mov	ecx, DWORD PTR _this$[ebp]
	fld	DWORD PTR [ecx+eax*4]
	mov	edx, DWORD PTR _i$68201[ebp]
	mov	eax, DWORD PTR _Val$[ebp]
	fsub	DWORD PTR [eax+edx*4]
	fstp	DWORD PTR tv129[ebp]
	fld	DWORD PTR tv129[ebp]
	fcomp	QWORD PTR __real@3eb0c6f7a0000000
	fnstsw	ax
	test	ah, 65					; 00000041H
	jp	SHORT $LN7@operator@18
	mov	ecx, DWORD PTR _i$68201[ebp]
	mov	edx, DWORD PTR _this$[ebp]
	fld	DWORD PTR [edx+ecx*4]
	mov	eax, DWORD PTR _i$68201[ebp]
	mov	ecx, DWORD PTR _Val$[ebp]
	fsub	DWORD PTR [ecx+eax*4]
	fstp	DWORD PTR tv139[ebp]
	fld	DWORD PTR tv139[ebp]
	fcomp	QWORD PTR __real@beb0c6f7a0000000
	fnstsw	ax
	test	ah, 1
	jne	SHORT $LN7@operator@18
	mov	BYTE PTR tv88[ebp], 1
	jmp	SHORT $LN8@operator@18
$LN7@operator@18:
	mov	BYTE PTR tv88[ebp], 0
$LN8@operator@18:
	movzx	edx, BYTE PTR tv88[ebp]
	test	edx, edx
	jne	SHORT $LN1@operator@18

; 535  :     {
; 536  :       res = false;

	mov	BYTE PTR _res$[ebp], 0

; 537  :       break;

	jmp	SHORT $LN2@operator@18
$LN1@operator@18:

; 538  :     }
; 539  :   }

	jmp	$LN3@operator@18
$LN2@operator@18:

; 540  :   return res;

	mov	al, BYTE PTR _res$[ebp]

; 541  : }

	pop	edi
	pop	esi
	pop	ebx
	mov	esp, ebp
	pop	ebp
	ret	4
??8pecker_matrix4@pecker_sdk@@QBE_NABU01@@Z ENDP	; pecker_sdk::pecker_matrix4::operator==
_TEXT	ENDS
PUBLIC	??9pecker_matrix4@pecker_sdk@@QBE_NABU01@@Z	; pecker_sdk::pecker_matrix4::operator!=
; Function compile flags: /Odtp /RTCsu /ZI
;	COMDAT ??9pecker_matrix4@pecker_sdk@@QBE_NABU01@@Z
_TEXT	SEGMENT
_this$ = -8						; size = 4
_Val$ = 8						; size = 4
??9pecker_matrix4@pecker_sdk@@QBE_NABU01@@Z PROC	; pecker_sdk::pecker_matrix4::operator!=, COMDAT
; _this$ = ecx

; 544  : {

	push	ebp
	mov	ebp, esp
	sub	esp, 204				; 000000ccH
	push	ebx
	push	esi
	push	edi
	push	ecx
	lea	edi, DWORD PTR [ebp-204]
	mov	ecx, 51					; 00000033H
	mov	eax, -858993460				; ccccccccH
	rep stosd
	pop	ecx
	mov	DWORD PTR _this$[ebp], ecx

; 545  :   return !(*this == Val);

	mov	eax, DWORD PTR _Val$[ebp]
	push	eax
	mov	ecx, DWORD PTR _this$[ebp]
	call	??8pecker_matrix4@pecker_sdk@@QBE_NABU01@@Z ; pecker_sdk::pecker_matrix4::operator==
	movzx	eax, al
	neg	eax
	sbb	eax, eax
	add	eax, 1

; 546  : }

	pop	edi
	pop	esi
	pop	ebx
	add	esp, 204				; 000000ccH
	cmp	ebp, esp
	call	__RTC_CheckEsp
	mov	esp, ebp
	pop	ebp
	ret	4
??9pecker_matrix4@pecker_sdk@@QBE_NABU01@@Z ENDP	; pecker_sdk::pecker_matrix4::operator!=
_TEXT	ENDS
PUBLIC	?get_data@pecker_matrix4@pecker_sdk@@QAEPAMXZ	; pecker_sdk::pecker_matrix4::get_data
; Function compile flags: /Odtp /RTCsu /ZI
;	COMDAT ?get_data@pecker_matrix4@pecker_sdk@@QAEPAMXZ
_TEXT	SEGMENT
_this$ = -8						; size = 4
?get_data@pecker_matrix4@pecker_sdk@@QAEPAMXZ PROC	; pecker_sdk::pecker_matrix4::get_data, COMDAT
; _this$ = ecx

; 550  : {

	push	ebp
	mov	ebp, esp
	sub	esp, 204				; 000000ccH
	push	ebx
	push	esi
	push	edi
	push	ecx
	lea	edi, DWORD PTR [ebp-204]
	mov	ecx, 51					; 00000033H
	mov	eax, -858993460				; ccccccccH
	rep stosd
	pop	ecx
	mov	DWORD PTR _this$[ebp], ecx

; 551  :   return (Float*)this;

	mov	eax, DWORD PTR _this$[ebp]

; 552  : }

	pop	edi
	pop	esi
	pop	ebx
	mov	esp, ebp
	pop	ebp
	ret	0
?get_data@pecker_matrix4@pecker_sdk@@QAEPAMXZ ENDP	; pecker_sdk::pecker_matrix4::get_data
_TEXT	ENDS
PUBLIC	??_C@_0BN@FFCMHNGE@matrix?5A?5determinant?5?$DN?$DN?50?40f?$AA@ ; `string'
PUBLIC	??_C@_0BC@HHMNHDMN@CMatrix4?3?3inverse?$AA@	; `string'
PUBLIC	__$ArrayPad$
PUBLIC	?inverse@pecker_matrix4@pecker_sdk@@QBE?AU12@XZ	; pecker_sdk::pecker_matrix4::inverse
;	COMDAT ??_C@_0BN@FFCMHNGE@matrix?5A?5determinant?5?$DN?$DN?50?40f?$AA@
CONST	SEGMENT
??_C@_0BN@FFCMHNGE@matrix?5A?5determinant?5?$DN?$DN?50?40f?$AA@ DB 'matri'
	DB	'x A determinant == 0.0f', 00H		; `string'
CONST	ENDS
;	COMDAT ??_C@_0BC@HHMNHDMN@CMatrix4?3?3inverse?$AA@
CONST	SEGMENT
??_C@_0BC@HHMNHDMN@CMatrix4?3?3inverse?$AA@ DB 'CMatrix4::inverse', 00H ; `string'
; Function compile flags: /Odtp /RTCsu /ZI
CONST	ENDS
;	COMDAT ?inverse@pecker_matrix4@pecker_sdk@@QBE?AU12@XZ
_TEXT	SEGMENT
tv149 = -305						; size = 1
_i$68223 = -108						; size = 4
_res$ = -96						; size = 64
_fMatADet$ = -24					; size = 4
_this$ = -12						; size = 4
__$ArrayPad$ = -4					; size = 4
___$ReturnUdt$ = 8					; size = 4
?inverse@pecker_matrix4@pecker_sdk@@QBE?AU12@XZ PROC	; pecker_sdk::pecker_matrix4::inverse, COMDAT
; _this$ = ecx

; 555  : {

	push	ebp
	mov	ebp, esp
	sub	esp, 308				; 00000134H
	push	ebx
	push	esi
	push	edi
	push	ecx
	lea	edi, DWORD PTR [ebp-308]
	mov	ecx, 77					; 0000004dH
	mov	eax, -858993460				; ccccccccH
	rep stosd
	pop	ecx
	mov	eax, DWORD PTR ___security_cookie
	xor	eax, ebp
	mov	DWORD PTR __$ArrayPad$[ebp], eax
	mov	DWORD PTR _this$[ebp], ecx

; 556  : //    matrix A 0 3X3
; 557  : //    matrix C 1 3X1
; 558  : //
; 559  : //         (matrix A)                         
; 560  : //       M00     M01     M02          M03     
; 561  : //       M10     M12     M13          M14     
; 562  : //       M20     M21     M22          M23     
; 563  : //                 
; 564  : //       M30     M31     M32          M33     
; 565  : //     (matrix C)                             
; 566  :   Float fMatADet = ( m_Mat[M4_00]*(m_Mat[M4_11]*m_Mat[M4_22]-m_Mat[M4_21]*m_Mat[M4_12])
; 567  :         - m_Mat[M4_10]*(m_Mat[M4_01]*m_Mat[M4_22]-m_Mat[M4_21]*m_Mat[M4_02])
; 568  :         + m_Mat[M4_20]*(m_Mat[M4_01]*m_Mat[M4_12]-m_Mat[M4_11]*m_Mat[M4_02]) );

	mov	eax, DWORD PTR _this$[ebp]
	fld	DWORD PTR [eax+20]
	mov	ecx, DWORD PTR _this$[ebp]
	fmul	DWORD PTR [ecx+40]
	mov	edx, DWORD PTR _this$[ebp]
	fld	DWORD PTR [edx+36]
	mov	eax, DWORD PTR _this$[ebp]
	fmul	DWORD PTR [eax+24]
	fsubp	ST(1), ST(0)
	mov	ecx, DWORD PTR _this$[ebp]
	fmul	DWORD PTR [ecx]
	mov	edx, DWORD PTR _this$[ebp]
	fld	DWORD PTR [edx+4]
	mov	eax, DWORD PTR _this$[ebp]
	fmul	DWORD PTR [eax+40]
	mov	ecx, DWORD PTR _this$[ebp]
	fld	DWORD PTR [ecx+36]
	mov	edx, DWORD PTR _this$[ebp]
	fmul	DWORD PTR [edx+8]
	fsubp	ST(1), ST(0)
	mov	eax, DWORD PTR _this$[ebp]
	fmul	DWORD PTR [eax+16]
	fsubp	ST(1), ST(0)
	mov	ecx, DWORD PTR _this$[ebp]
	fld	DWORD PTR [ecx+4]
	mov	edx, DWORD PTR _this$[ebp]
	fmul	DWORD PTR [edx+24]
	mov	eax, DWORD PTR _this$[ebp]
	fld	DWORD PTR [eax+20]
	mov	ecx, DWORD PTR _this$[ebp]
	fmul	DWORD PTR [ecx+8]
	fsubp	ST(1), ST(0)
	mov	edx, DWORD PTR _this$[ebp]
	fmul	DWORD PTR [edx+32]
	faddp	ST(1), ST(0)
	fstp	DWORD PTR _fMatADet$[ebp]

; 569  : 
; 570  :   pecker_matrix4 res;

	lea	ecx, DWORD PTR _res$[ebp]
	call	??0pecker_matrix4@pecker_sdk@@QAE@XZ	; pecker_sdk::pecker_matrix4::pecker_matrix4

; 571  :   // matrix A 0,
; 572  :   if (EQFLOATZERO(fMatADet))

	fld	DWORD PTR _fMatADet$[ebp]
	fcomp	QWORD PTR __real@3eb0c6f7a0000000
	fnstsw	ax
	test	ah, 65					; 00000041H
	jp	SHORT $LN7@inverse@2
	fld	DWORD PTR _fMatADet$[ebp]
	fcomp	QWORD PTR __real@beb0c6f7a0000000
	fnstsw	ax
	test	ah, 1
	jne	SHORT $LN7@inverse@2
	mov	BYTE PTR tv149[ebp], 1
	jmp	SHORT $LN8@inverse@2
$LN7@inverse@2:
	mov	BYTE PTR tv149[ebp], 0
$LN8@inverse@2:
	movzx	eax, BYTE PTR tv149[ebp]
	test	eax, eax
	je	$LN4@inverse@2

; 573  :    {
; 574  :      for (nINDEX i=0;i<M4_INDEX_COUNT;++i)

	mov	DWORD PTR _i$68223[ebp], 0
	jmp	SHORT $LN3@inverse@2
$LN2@inverse@2:
	mov	eax, DWORD PTR _i$68223[ebp]
	add	eax, 1
	mov	DWORD PTR _i$68223[ebp], eax
$LN3@inverse@2:
	cmp	DWORD PTR _i$68223[ebp], 16		; 00000010H
	jge	SHORT $LN1@inverse@2

; 575  :      {
; 576  :        res.m_Mat[i] = 0.0f;

	mov	eax, DWORD PTR _i$68223[ebp]
	fldz
	fstp	DWORD PTR _res$[ebp+eax*4]

; 577  :      }

	jmp	SHORT $LN2@inverse@2
$LN1@inverse@2:

; 578  : 
; 579  :      //CPeckerLogger::GetSignleton()->LogOut(LOGINFO_ERROR,"CMatrix4::inverse","matrix A determinant == 0.0f");
; 580  : 	 PECKER_LOG_ERR("CMatrix4::inverse","matrix A determinant == 0.0f",0);

	mov	esi, esp
	push	OFFSET ??_C@_0M@ONMFDOOB@ERROR_INFO?5?$AA@
	call	DWORD PTR __imp__printf
	add	esp, 4
	cmp	esi, esp
	call	__RTC_CheckEsp
	mov	esi, esp
	push	OFFSET ??_C@_0BC@HHMNHDMN@CMatrix4?3?3inverse?$AA@
	call	DWORD PTR __imp__printf
	add	esp, 4
	cmp	esi, esp
	call	__RTC_CheckEsp
	mov	esi, esp
	push	OFFSET ??_C@_01EEMJAFIK@?6?$AA@
	call	DWORD PTR __imp__printf
	add	esp, 4
	cmp	esi, esp
	call	__RTC_CheckEsp
	mov	esi, esp
	push	0
	push	OFFSET ??_C@_0BN@FFCMHNGE@matrix?5A?5determinant?5?$DN?$DN?50?40f?$AA@
	call	DWORD PTR __imp__printf
	add	esp, 8
	cmp	esi, esp
	call	__RTC_CheckEsp
	mov	esi, esp
	push	OFFSET ??_C@_01EEMJAFIK@?6?$AA@
	call	DWORD PTR __imp__printf
	add	esp, 4
	cmp	esi, esp
	call	__RTC_CheckEsp

; 581  : 
; 582  :      return res;

	lea	eax, DWORD PTR _res$[ebp]
	push	eax
	mov	ecx, DWORD PTR ___$ReturnUdt$[ebp]
	call	??0pecker_matrix4@pecker_sdk@@QAE@ABU01@@Z ; pecker_sdk::pecker_matrix4::pecker_matrix4
	mov	eax, DWORD PTR ___$ReturnUdt$[ebp]
	jmp	$LN5@inverse@2
$LN4@inverse@2:

; 583  :    }
; 584  : 
; 585  :   fMatADet = 1.0f/fMatADet;

	fld	DWORD PTR _fMatADet$[ebp]
	fld1
	fdivrp	ST(1), ST(0)
	fstp	DWORD PTR _fMatADet$[ebp]

; 586  :   //inverse(matrix A)
; 587  :   res.m_Mat[M4_00] = (m_Mat[M4_11]*m_Mat[M4_22] - m_Mat[M4_12]*m_Mat[M4_21]) * fMatADet;

	mov	eax, DWORD PTR _this$[ebp]
	fld	DWORD PTR [eax+20]
	mov	ecx, DWORD PTR _this$[ebp]
	fmul	DWORD PTR [ecx+40]
	mov	edx, DWORD PTR _this$[ebp]
	fld	DWORD PTR [edx+24]
	mov	eax, DWORD PTR _this$[ebp]
	fmul	DWORD PTR [eax+36]
	fsubp	ST(1), ST(0)
	fmul	DWORD PTR _fMatADet$[ebp]
	fstp	DWORD PTR _res$[ebp]

; 588  :   res.m_Mat[M4_01] = (m_Mat[M4_02]*m_Mat[M4_21] - m_Mat[M4_01]*m_Mat[M4_22]) * fMatADet;

	mov	eax, DWORD PTR _this$[ebp]
	fld	DWORD PTR [eax+8]
	mov	ecx, DWORD PTR _this$[ebp]
	fmul	DWORD PTR [ecx+36]
	mov	edx, DWORD PTR _this$[ebp]
	fld	DWORD PTR [edx+4]
	mov	eax, DWORD PTR _this$[ebp]
	fmul	DWORD PTR [eax+40]
	fsubp	ST(1), ST(0)
	fmul	DWORD PTR _fMatADet$[ebp]
	fstp	DWORD PTR _res$[ebp+4]

; 589  :   res.m_Mat[M4_02] = (m_Mat[M4_01]*m_Mat[M4_12] - m_Mat[M4_02]*m_Mat[M4_11]) * fMatADet;

	mov	eax, DWORD PTR _this$[ebp]
	fld	DWORD PTR [eax+4]
	mov	ecx, DWORD PTR _this$[ebp]
	fmul	DWORD PTR [ecx+24]
	mov	edx, DWORD PTR _this$[ebp]
	fld	DWORD PTR [edx+8]
	mov	eax, DWORD PTR _this$[ebp]
	fmul	DWORD PTR [eax+20]
	fsubp	ST(1), ST(0)
	fmul	DWORD PTR _fMatADet$[ebp]
	fstp	DWORD PTR _res$[ebp+8]

; 590  : 
; 591  :   res.m_Mat[M4_10] = (m_Mat[M4_12]*m_Mat[M4_20] - m_Mat[M4_10]*m_Mat[M4_22]) * fMatADet;

	mov	eax, DWORD PTR _this$[ebp]
	fld	DWORD PTR [eax+24]
	mov	ecx, DWORD PTR _this$[ebp]
	fmul	DWORD PTR [ecx+32]
	mov	edx, DWORD PTR _this$[ebp]
	fld	DWORD PTR [edx+16]
	mov	eax, DWORD PTR _this$[ebp]
	fmul	DWORD PTR [eax+40]
	fsubp	ST(1), ST(0)
	fmul	DWORD PTR _fMatADet$[ebp]
	fstp	DWORD PTR _res$[ebp+16]

; 592  :   res.m_Mat[M4_11] = (m_Mat[M4_00]*m_Mat[M4_22] - m_Mat[M4_02]*m_Mat[M4_20]) * fMatADet;

	mov	eax, DWORD PTR _this$[ebp]
	fld	DWORD PTR [eax]
	mov	ecx, DWORD PTR _this$[ebp]
	fmul	DWORD PTR [ecx+40]
	mov	edx, DWORD PTR _this$[ebp]
	fld	DWORD PTR [edx+8]
	mov	eax, DWORD PTR _this$[ebp]
	fmul	DWORD PTR [eax+32]
	fsubp	ST(1), ST(0)
	fmul	DWORD PTR _fMatADet$[ebp]
	fstp	DWORD PTR _res$[ebp+20]

; 593  :   res.m_Mat[M4_12] = (m_Mat[M4_02]*m_Mat[M4_10] - m_Mat[M4_00]*m_Mat[M4_12]) * fMatADet;

	mov	eax, DWORD PTR _this$[ebp]
	fld	DWORD PTR [eax+8]
	mov	ecx, DWORD PTR _this$[ebp]
	fmul	DWORD PTR [ecx+16]
	mov	edx, DWORD PTR _this$[ebp]
	fld	DWORD PTR [edx]
	mov	eax, DWORD PTR _this$[ebp]
	fmul	DWORD PTR [eax+24]
	fsubp	ST(1), ST(0)
	fmul	DWORD PTR _fMatADet$[ebp]
	fstp	DWORD PTR _res$[ebp+24]

; 594  : 
; 595  :   res.m_Mat[M4_20] = (m_Mat[M4_10]*m_Mat[M4_21] - m_Mat[M4_11]*m_Mat[M4_20]) * fMatADet;

	mov	eax, DWORD PTR _this$[ebp]
	fld	DWORD PTR [eax+16]
	mov	ecx, DWORD PTR _this$[ebp]
	fmul	DWORD PTR [ecx+36]
	mov	edx, DWORD PTR _this$[ebp]
	fld	DWORD PTR [edx+20]
	mov	eax, DWORD PTR _this$[ebp]
	fmul	DWORD PTR [eax+32]
	fsubp	ST(1), ST(0)
	fmul	DWORD PTR _fMatADet$[ebp]
	fstp	DWORD PTR _res$[ebp+32]

; 596  :   res.m_Mat[M4_21] = (m_Mat[M4_01]*m_Mat[M4_20] - m_Mat[M4_00]*m_Mat[M4_21]) * fMatADet;

	mov	eax, DWORD PTR _this$[ebp]
	fld	DWORD PTR [eax+4]
	mov	ecx, DWORD PTR _this$[ebp]
	fmul	DWORD PTR [ecx+32]
	mov	edx, DWORD PTR _this$[ebp]
	fld	DWORD PTR [edx]
	mov	eax, DWORD PTR _this$[ebp]
	fmul	DWORD PTR [eax+36]
	fsubp	ST(1), ST(0)
	fmul	DWORD PTR _fMatADet$[ebp]
	fstp	DWORD PTR _res$[ebp+36]

; 597  :   res.m_Mat[M4_22] = (m_Mat[M4_00]*m_Mat[M4_11] - m_Mat[M4_01]*m_Mat[M4_10]) * fMatADet;

	mov	eax, DWORD PTR _this$[ebp]
	fld	DWORD PTR [eax]
	mov	ecx, DWORD PTR _this$[ebp]
	fmul	DWORD PTR [ecx+20]
	mov	edx, DWORD PTR _this$[ebp]
	fld	DWORD PTR [edx+4]
	mov	eax, DWORD PTR _this$[ebp]
	fmul	DWORD PTR [eax+16]
	fsubp	ST(1), ST(0)
	fmul	DWORD PTR _fMatADet$[ebp]
	fstp	DWORD PTR _res$[ebp+40]

; 598  : 
; 599  :   // - matrix C * inverse(matrix A)
; 600  :   res.m_Mat[M4_30] = - ( m_Mat[M4_30]*res.m_Mat[M4_00] + m_Mat[M4_31]*res.m_Mat[M4_10] + m_Mat[M4_32]*res.m_Mat[M4_20] );

	mov	eax, DWORD PTR _this$[ebp]
	fld	DWORD PTR [eax+48]
	fmul	DWORD PTR _res$[ebp]
	mov	ecx, DWORD PTR _this$[ebp]
	fld	DWORD PTR [ecx+52]
	fmul	DWORD PTR _res$[ebp+16]
	faddp	ST(1), ST(0)
	mov	edx, DWORD PTR _this$[ebp]
	fld	DWORD PTR [edx+56]
	fmul	DWORD PTR _res$[ebp+32]
	faddp	ST(1), ST(0)
	fchs
	fstp	DWORD PTR _res$[ebp+48]

; 601  :   res.m_Mat[M4_31] = - ( m_Mat[M4_30]*res.m_Mat[M4_01] + m_Mat[M4_31]*res.m_Mat[M4_11] + m_Mat[M4_32]*res.m_Mat[M4_21] );

	mov	eax, DWORD PTR _this$[ebp]
	fld	DWORD PTR [eax+48]
	fmul	DWORD PTR _res$[ebp+4]
	mov	ecx, DWORD PTR _this$[ebp]
	fld	DWORD PTR [ecx+52]
	fmul	DWORD PTR _res$[ebp+20]
	faddp	ST(1), ST(0)
	mov	edx, DWORD PTR _this$[ebp]
	fld	DWORD PTR [edx+56]
	fmul	DWORD PTR _res$[ebp+36]
	faddp	ST(1), ST(0)
	fchs
	fstp	DWORD PTR _res$[ebp+52]

; 602  :   res.m_Mat[M4_32] = - ( m_Mat[M4_30]*res.m_Mat[M4_02] + m_Mat[M4_31]*res.m_Mat[M4_12] + m_Mat[M4_32]*res.m_Mat[M4_22] );

	mov	eax, DWORD PTR _this$[ebp]
	fld	DWORD PTR [eax+48]
	fmul	DWORD PTR _res$[ebp+8]
	mov	ecx, DWORD PTR _this$[ebp]
	fld	DWORD PTR [ecx+52]
	fmul	DWORD PTR _res$[ebp+24]
	faddp	ST(1), ST(0)
	mov	edx, DWORD PTR _this$[ebp]
	fld	DWORD PTR [edx+56]
	fmul	DWORD PTR _res$[ebp+40]
	faddp	ST(1), ST(0)
	fchs
	fstp	DWORD PTR _res$[ebp+56]

; 603  : 
; 604  :   //
; 605  :   res.m_Mat[M4_03] = 0.0f;

	fldz
	fstp	DWORD PTR _res$[ebp+12]

; 606  :   res.m_Mat[M4_13] = 0.0f;

	fldz
	fstp	DWORD PTR _res$[ebp+28]

; 607  :   res.m_Mat[M4_23] = 0.0f;

	fldz
	fstp	DWORD PTR _res$[ebp+44]

; 608  :   res.m_Mat[M4_33] = 1.0f;

	fld1
	fstp	DWORD PTR _res$[ebp+60]

; 609  : 
; 610  :   return res;

	lea	eax, DWORD PTR _res$[ebp]
	push	eax
	mov	ecx, DWORD PTR ___$ReturnUdt$[ebp]
	call	??0pecker_matrix4@pecker_sdk@@QAE@ABU01@@Z ; pecker_sdk::pecker_matrix4::pecker_matrix4
	mov	eax, DWORD PTR ___$ReturnUdt$[ebp]
$LN5@inverse@2:

; 611  : }

	push	edx
	mov	ecx, ebp
	push	eax
	lea	edx, DWORD PTR $LN11@inverse@2
	call	@_RTC_CheckStackVars@8
	pop	eax
	pop	edx
	pop	edi
	pop	esi
	pop	ebx
	mov	ecx, DWORD PTR __$ArrayPad$[ebp]
	xor	ecx, ebp
	call	@__security_check_cookie@4
	add	esp, 308				; 00000134H
	cmp	ebp, esp
	call	__RTC_CheckEsp
	mov	esp, ebp
	pop	ebp
	ret	4
$LN11@inverse@2:
	DD	1
	DD	$LN10@inverse@2
$LN10@inverse@2:
	DD	-96					; ffffffa0H
	DD	64					; 00000040H
	DD	$LN9@inverse@2
$LN9@inverse@2:
	DB	114					; 00000072H
	DB	101					; 00000065H
	DB	115					; 00000073H
	DB	0
?inverse@pecker_matrix4@pecker_sdk@@QBE?AU12@XZ ENDP	; pecker_sdk::pecker_matrix4::inverse
_TEXT	ENDS
PUBLIC	__real@0000000000000000
PUBLIC	?LinearEqSolve@pecker_sdk@@YAJPAMPAPAMH@Z	; pecker_sdk::LinearEqSolve
;	COMDAT __real@0000000000000000
CONST	SEGMENT
__real@0000000000000000 DQ 00000000000000000r	; 0
; Function compile flags: /Odtp /RTCsu /ZI
CONST	ENDS
;	COMDAT ?LinearEqSolve@pecker_sdk@@YAJPAMPAPAMH@Z
_TEXT	SEGMENT
tv242 = -289						; size = 1
tv163 = -289						; size = 1
tv93 = -289						; size = 1
_k$68262 = -92						; size = 4
_res$68260 = -80					; size = 4
_k$68256 = -68						; size = 4
_j$68252 = -56						; size = 4
_ntmpCnt$68249 = -44					; size = 4
_j$68245 = -32						; size = 4
_i$68239 = -20						; size = 4
_ftempVal$ = -8						; size = 4
_pRes$ = 8						; size = 4
_pSrc$ = 12						; size = 4
_nCnt$ = 16						; size = 4
?LinearEqSolve@pecker_sdk@@YAJPAMPAPAMH@Z PROC		; pecker_sdk::LinearEqSolve, COMDAT

; 616  : {

	push	ebp
	mov	ebp, esp
	sub	esp, 292				; 00000124H
	push	ebx
	push	esi
	push	edi
	lea	edi, DWORD PTR [ebp-292]
	mov	ecx, 73					; 00000049H
	mov	eax, -858993460				; ccccccccH
	rep stosd

; 617  :   if (null == pRes || null == pSrc)

	cmp	DWORD PTR _pRes$[ebp], 0
	je	SHORT $LN22@LinearEqSo
	cmp	DWORD PTR _pSrc$[ebp], 0
	jne	SHORT $LN23@LinearEqSo
$LN22@LinearEqSo:

; 618  :   {
; 619  :     return P_FAIL;

	mov	eax, 1
	jmp	$LN24@LinearEqSo
$LN23@LinearEqSo:

; 620  :   }
; 621  : 
; 622  :   if (1 == nCnt)

	cmp	DWORD PTR _nCnt$[ebp], 1
	jne	SHORT $LN21@LinearEqSo

; 623  :   {
; 624  :     if (0 == pSrc[ 0 ][ 1 ])

	mov	eax, DWORD PTR _pSrc$[ebp]
	mov	ecx, DWORD PTR [eax]
	fld	DWORD PTR [ecx+4]
	fldz
	fucompp
	fnstsw	ax
	test	ah, 68					; 00000044H
	jp	SHORT $LN20@LinearEqSo

; 625  :     {
; 626  :       return P_FAIL;

	mov	eax, 1
	jmp	$LN24@LinearEqSo
$LN20@LinearEqSo:

; 627  :     }
; 628  :     pRes[ 0 ] = pSrc[ 0 ][ 0 ]/pSrc[ 0 ][ 1 ];

	mov	eax, DWORD PTR _pSrc$[ebp]
	mov	ecx, DWORD PTR [eax]
	mov	edx, DWORD PTR _pSrc$[ebp]
	mov	eax, DWORD PTR [edx]
	fld	DWORD PTR [ecx]
	fdiv	DWORD PTR [eax+4]
	mov	ecx, DWORD PTR _pRes$[ebp]
	fstp	DWORD PTR [ecx]

; 629  :     return P_OK;

	xor	eax, eax
	jmp	$LN24@LinearEqSo
$LN21@LinearEqSo:

; 630  :   }
; 631  : 
; 632  :   Float ftempVal;
; 633  :   // Loop backwards in an attempt avoid the need to swap rows
; 634  :   for (nINDEX i=nCnt-1;i>=0;--i)

	mov	eax, DWORD PTR _nCnt$[ebp]
	sub	eax, 1
	mov	DWORD PTR _i$68239[ebp], eax
	jmp	SHORT $LN19@LinearEqSo
$LN18@LinearEqSo:
	mov	eax, DWORD PTR _i$68239[ebp]
	sub	eax, 1
	mov	DWORD PTR _i$68239[ebp], eax
$LN19@LinearEqSo:
	cmp	DWORD PTR _i$68239[ebp], 0
	jl	$LN17@LinearEqSo

; 635  :   {
; 636  :     if (EQFLOATZERO( pSrc[i][nCnt]) )

	mov	eax, DWORD PTR _i$68239[ebp]
	mov	ecx, DWORD PTR _pSrc$[ebp]
	mov	edx, DWORD PTR [ecx+eax*4]
	mov	eax, DWORD PTR _nCnt$[ebp]
	fld	DWORD PTR [edx+eax*4]
	fcomp	QWORD PTR __real@3eb0c6f7a0000000
	fnstsw	ax
	test	ah, 65					; 00000041H
	jp	SHORT $LN26@LinearEqSo
	mov	ecx, DWORD PTR _i$68239[ebp]
	mov	edx, DWORD PTR _pSrc$[ebp]
	mov	eax, DWORD PTR [edx+ecx*4]
	mov	ecx, DWORD PTR _nCnt$[ebp]
	fld	DWORD PTR [eax+ecx*4]
	fcomp	QWORD PTR __real@beb0c6f7a0000000
	fnstsw	ax
	test	ah, 1
	jne	SHORT $LN26@LinearEqSo
	mov	BYTE PTR tv93[ebp], 1
	jmp	SHORT $LN27@LinearEqSo
$LN26@LinearEqSo:
	mov	BYTE PTR tv93[ebp], 0
$LN27@LinearEqSo:
	movzx	edx, BYTE PTR tv93[ebp]
	test	edx, edx
	je	$LN16@LinearEqSo

; 637  :     {
; 638  :       for (nINDEX j=0;j<=nCnt;++j)

	mov	DWORD PTR _j$68245[ebp], 0
	jmp	SHORT $LN15@LinearEqSo
$LN14@LinearEqSo:
	mov	eax, DWORD PTR _j$68245[ebp]
	add	eax, 1
	mov	DWORD PTR _j$68245[ebp], eax
$LN15@LinearEqSo:
	mov	eax, DWORD PTR _j$68245[ebp]
	cmp	eax, DWORD PTR _nCnt$[ebp]
	jg	SHORT $LN13@LinearEqSo

; 639  :       {
; 640  :         // Swap the two values
; 641  :         ftempVal = pSrc[nCnt-1][j];

	mov	eax, DWORD PTR _nCnt$[ebp]
	mov	ecx, DWORD PTR _pSrc$[ebp]
	mov	edx, DWORD PTR [ecx+eax*4-4]
	mov	eax, DWORD PTR _j$68245[ebp]
	fld	DWORD PTR [edx+eax*4]
	fstp	DWORD PTR _ftempVal$[ebp]

; 642  :         pSrc[nCnt-1][j] = pSrc[i][j];

	mov	eax, DWORD PTR _i$68239[ebp]
	mov	ecx, DWORD PTR _pSrc$[ebp]
	mov	edx, DWORD PTR [ecx+eax*4]
	mov	eax, DWORD PTR _nCnt$[ebp]
	mov	ecx, DWORD PTR _pSrc$[ebp]
	mov	eax, DWORD PTR [ecx+eax*4-4]
	mov	ecx, DWORD PTR _j$68245[ebp]
	mov	esi, DWORD PTR _j$68245[ebp]
	fld	DWORD PTR [edx+esi*4]
	fstp	DWORD PTR [eax+ecx*4]

; 643  :         pSrc[i][j] = ftempVal;

	mov	eax, DWORD PTR _i$68239[ebp]
	mov	ecx, DWORD PTR _pSrc$[ebp]
	mov	edx, DWORD PTR [ecx+eax*4]
	mov	eax, DWORD PTR _j$68245[ebp]
	fld	DWORD PTR _ftempVal$[ebp]
	fstp	DWORD PTR [edx+eax*4]

; 644  :       }

	jmp	SHORT $LN14@LinearEqSo
$LN13@LinearEqSo:

; 645  : 
; 646  :       // Now zero the last columns of the top rows
; 647  :       nSize ntmpCnt = nCnt-1;

	mov	eax, DWORD PTR _nCnt$[ebp]
	sub	eax, 1
	mov	DWORD PTR _ntmpCnt$68249[ebp], eax

; 648  : 
; 649  :       if (EQFLOATZERO(pSrc[ntmpCnt][nCnt]))

	mov	eax, DWORD PTR _ntmpCnt$68249[ebp]
	mov	ecx, DWORD PTR _pSrc$[ebp]
	mov	edx, DWORD PTR [ecx+eax*4]
	mov	eax, DWORD PTR _nCnt$[ebp]
	fld	DWORD PTR [edx+eax*4]
	fcomp	QWORD PTR __real@3eb0c6f7a0000000
	fnstsw	ax
	test	ah, 65					; 00000041H
	jp	SHORT $LN28@LinearEqSo
	mov	ecx, DWORD PTR _ntmpCnt$68249[ebp]
	mov	edx, DWORD PTR _pSrc$[ebp]
	mov	eax, DWORD PTR [edx+ecx*4]
	mov	ecx, DWORD PTR _nCnt$[ebp]
	fld	DWORD PTR [eax+ecx*4]
	fcomp	QWORD PTR __real@beb0c6f7a0000000
	fnstsw	ax
	test	ah, 1
	jne	SHORT $LN28@LinearEqSo
	mov	BYTE PTR tv163[ebp], 1
	jmp	SHORT $LN29@LinearEqSo
$LN28@LinearEqSo:
	mov	BYTE PTR tv163[ebp], 0
$LN29@LinearEqSo:
	movzx	edx, BYTE PTR tv163[ebp]
	test	edx, edx
	je	SHORT $LN12@LinearEqSo

; 650  :       {
; 651  :         return P_FAIL;

	mov	eax, 1
	jmp	$LN24@LinearEqSo
$LN12@LinearEqSo:

; 652  :       }
; 653  :       for (nINDEX j=0;j<ntmpCnt;++j)

	mov	DWORD PTR _j$68252[ebp], 0
	jmp	SHORT $LN11@LinearEqSo
$LN10@LinearEqSo:
	mov	eax, DWORD PTR _j$68252[ebp]
	add	eax, 1
	mov	DWORD PTR _j$68252[ebp], eax
$LN11@LinearEqSo:
	mov	eax, DWORD PTR _j$68252[ebp]
	cmp	eax, DWORD PTR _ntmpCnt$68249[ebp]
	jge	SHORT $LN9@LinearEqSo

; 654  :       {
; 655  :         ftempVal = pSrc[j][nCnt] / pSrc[ntmpCnt][nCnt];

	mov	eax, DWORD PTR _j$68252[ebp]
	mov	ecx, DWORD PTR _pSrc$[ebp]
	mov	edx, DWORD PTR [ecx+eax*4]
	mov	eax, DWORD PTR _ntmpCnt$68249[ebp]
	mov	ecx, DWORD PTR _pSrc$[ebp]
	mov	eax, DWORD PTR [ecx+eax*4]
	mov	ecx, DWORD PTR _nCnt$[ebp]
	fld	DWORD PTR [edx+ecx*4]
	mov	edx, DWORD PTR _nCnt$[ebp]
	fdiv	DWORD PTR [eax+edx*4]
	fstp	DWORD PTR _ftempVal$[ebp]

; 656  :         for (nINDEX k=0;k<nCnt;++k)

	mov	DWORD PTR _k$68256[ebp], 0
	jmp	SHORT $LN8@LinearEqSo
$LN7@LinearEqSo:
	mov	eax, DWORD PTR _k$68256[ebp]
	add	eax, 1
	mov	DWORD PTR _k$68256[ebp], eax
$LN8@LinearEqSo:
	mov	eax, DWORD PTR _k$68256[ebp]
	cmp	eax, DWORD PTR _nCnt$[ebp]
	jge	SHORT $LN6@LinearEqSo

; 657  :         {
; 658  :           pSrc[j][k] -= ftempVal*pSrc[ntmpCnt][k];

	mov	eax, DWORD PTR _j$68252[ebp]
	mov	ecx, DWORD PTR _pSrc$[ebp]
	mov	edx, DWORD PTR [ecx+eax*4]
	mov	eax, DWORD PTR _ntmpCnt$68249[ebp]
	mov	ecx, DWORD PTR _pSrc$[ebp]
	mov	eax, DWORD PTR [ecx+eax*4]
	fld	DWORD PTR _ftempVal$[ebp]
	mov	ecx, DWORD PTR _k$68256[ebp]
	fmul	DWORD PTR [eax+ecx*4]
	mov	eax, DWORD PTR _k$68256[ebp]
	fsubr	DWORD PTR [edx+eax*4]
	mov	ecx, DWORD PTR _j$68252[ebp]
	mov	edx, DWORD PTR _pSrc$[ebp]
	mov	eax, DWORD PTR [edx+ecx*4]
	mov	ecx, DWORD PTR _k$68256[ebp]
	fstp	DWORD PTR [eax+ecx*4]

; 659  :         }

	jmp	SHORT $LN7@LinearEqSo
$LN6@LinearEqSo:

; 660  :       }

	jmp	SHORT $LN10@LinearEqSo
$LN9@LinearEqSo:

; 661  : 
; 662  :       break;

	jmp	SHORT $LN17@LinearEqSo
$LN16@LinearEqSo:

; 663  :     }
; 664  : 
; 665  :     HResult res = LinearEqSolve(pRes, pSrc, nCnt-1);

	mov	eax, DWORD PTR _nCnt$[ebp]
	sub	eax, 1
	push	eax
	mov	ecx, DWORD PTR _pSrc$[ebp]
	push	ecx
	mov	edx, DWORD PTR _pRes$[ebp]
	push	edx
	call	?LinearEqSolve@pecker_sdk@@YAJPAMPAPAMH@Z ; pecker_sdk::LinearEqSolve
	add	esp, 12					; 0000000cH
	mov	DWORD PTR _res$68260[ebp], eax

; 666  :     if (P_OK != res)

	cmp	DWORD PTR _res$68260[ebp], 0
	je	SHORT $LN5@LinearEqSo

; 667  :     {
; 668  :       return res;

	mov	eax, DWORD PTR _res$68260[ebp]
	jmp	$LN24@LinearEqSo
$LN5@LinearEqSo:

; 669  :     }
; 670  :   }

	jmp	$LN18@LinearEqSo
$LN17@LinearEqSo:

; 671  : 
; 672  :   // Now calc the solution for the bottom row
; 673  :   ftempVal = pSrc[nCnt-1][M4_00];

	mov	eax, DWORD PTR _nCnt$[ebp]
	mov	ecx, DWORD PTR _pSrc$[ebp]
	mov	edx, DWORD PTR [ecx+eax*4-4]
	fld	DWORD PTR [edx]
	fstp	DWORD PTR _ftempVal$[ebp]

; 674  :   for (nINDEX k = 1; k < nCnt; ++k)

	mov	DWORD PTR _k$68262[ebp], 1
	jmp	SHORT $LN4@LinearEqSo
$LN3@LinearEqSo:
	mov	eax, DWORD PTR _k$68262[ebp]
	add	eax, 1
	mov	DWORD PTR _k$68262[ebp], eax
$LN4@LinearEqSo:
	mov	eax, DWORD PTR _k$68262[ebp]
	cmp	eax, DWORD PTR _nCnt$[ebp]
	jge	SHORT $LN2@LinearEqSo

; 675  :   {
; 676  :     ftempVal -= pSrc[nCnt-1][k]*pRes[k-1];

	mov	eax, DWORD PTR _nCnt$[ebp]
	mov	ecx, DWORD PTR _pSrc$[ebp]
	mov	edx, DWORD PTR [ecx+eax*4-4]
	mov	eax, DWORD PTR _k$68262[ebp]
	fld	DWORD PTR [edx+eax*4]
	mov	ecx, DWORD PTR _k$68262[ebp]
	mov	edx, DWORD PTR _pRes$[ebp]
	fmul	DWORD PTR [edx+ecx*4-4]
	fsubr	DWORD PTR _ftempVal$[ebp]
	fstp	DWORD PTR _ftempVal$[ebp]

; 677  :   }

	jmp	SHORT $LN3@LinearEqSo
$LN2@LinearEqSo:

; 678  : 
; 679  :   if (EQFLOATZERO(pSrc[nCnt-1][nCnt]))

	mov	eax, DWORD PTR _nCnt$[ebp]
	mov	ecx, DWORD PTR _pSrc$[ebp]
	mov	edx, DWORD PTR [ecx+eax*4-4]
	mov	eax, DWORD PTR _nCnt$[ebp]
	fld	DWORD PTR [edx+eax*4]
	fcomp	QWORD PTR __real@3eb0c6f7a0000000
	fnstsw	ax
	test	ah, 65					; 00000041H
	jp	SHORT $LN30@LinearEqSo
	mov	ecx, DWORD PTR _nCnt$[ebp]
	mov	edx, DWORD PTR _pSrc$[ebp]
	mov	eax, DWORD PTR [edx+ecx*4-4]
	mov	ecx, DWORD PTR _nCnt$[ebp]
	fld	DWORD PTR [eax+ecx*4]
	fcomp	QWORD PTR __real@beb0c6f7a0000000
	fnstsw	ax
	test	ah, 1
	jne	SHORT $LN30@LinearEqSo
	mov	BYTE PTR tv242[ebp], 1
	jmp	SHORT $LN31@LinearEqSo
$LN30@LinearEqSo:
	mov	BYTE PTR tv242[ebp], 0
$LN31@LinearEqSo:
	movzx	edx, BYTE PTR tv242[ebp]
	test	edx, edx
	je	SHORT $LN1@LinearEqSo

; 680  :   {
; 681  :     return P_FAIL;

	mov	eax, 1
	jmp	SHORT $LN24@LinearEqSo
$LN1@LinearEqSo:

; 682  :   }
; 683  : 
; 684  :   ftempVal = ftempVal / pSrc[nCnt-1][nCnt];

	mov	eax, DWORD PTR _nCnt$[ebp]
	mov	ecx, DWORD PTR _pSrc$[ebp]
	mov	edx, DWORD PTR [ecx+eax*4-4]
	fld	DWORD PTR _ftempVal$[ebp]
	mov	eax, DWORD PTR _nCnt$[ebp]
	fdiv	DWORD PTR [edx+eax*4]
	fstp	DWORD PTR _ftempVal$[ebp]

; 685  :   pRes[nCnt-1] = ftempVal;

	mov	eax, DWORD PTR _nCnt$[ebp]
	mov	ecx, DWORD PTR _pRes$[ebp]
	fld	DWORD PTR _ftempVal$[ebp]
	fstp	DWORD PTR [ecx+eax*4-4]

; 686  : 
; 687  :   return P_OK;

	xor	eax, eax
$LN24@LinearEqSo:

; 688  : }

	pop	edi
	pop	esi
	pop	ebx
	add	esp, 292				; 00000124H
	cmp	ebp, esp
	call	__RTC_CheckEsp
	mov	esp, ebp
	pop	ebp
	ret	0
?LinearEqSolve@pecker_sdk@@YAJPAMPAPAMH@Z ENDP		; pecker_sdk::LinearEqSolve
_TEXT	ENDS
PUBLIC	??_C@_0BG@MIGDABLN@LinearEqSolve?5errors?$CB?$AA@ ; `string'
PUBLIC	??_C@_0BE@CGOPECJN@CMatrix4?3?3inverseEx?$AA@	; `string'
PUBLIC	?identity_matrix4@pecker_matrix4@pecker_sdk@@SA?AU12@XZ ; pecker_sdk::pecker_matrix4::identity_matrix4
PUBLIC	__$ArrayPad$
PUBLIC	?inverseEx@pecker_matrix4@pecker_sdk@@QBE?AU12@XZ ; pecker_sdk::pecker_matrix4::inverseEx
EXTRN	_memcpy:PROC
;	COMDAT ??_C@_0BG@MIGDABLN@LinearEqSolve?5errors?$CB?$AA@
CONST	SEGMENT
??_C@_0BG@MIGDABLN@LinearEqSolve?5errors?$CB?$AA@ DB 'LinearEqSolve error'
	DB	's!', 00H					; `string'
CONST	ENDS
;	COMDAT ??_C@_0BE@CGOPECJN@CMatrix4?3?3inverseEx?$AA@
CONST	SEGMENT
??_C@_0BE@CGOPECJN@CMatrix4?3?3inverseEx?$AA@ DB 'CMatrix4::inverseEx', 00H ; `string'
; Function compile flags: /Odtp /RTCsu /ZI
CONST	ENDS
;	COMDAT ?inverseEx@pecker_matrix4@pecker_sdk@@QBE?AU12@XZ
_TEXT	SEGMENT
_j$68292 = -340						; size = 4
_j$68283 = -328						; size = 4
_i$68279 = -316						; size = 4
_res$ = -304						; size = 4
_idMat4$ = -292						; size = 64
_arrpArrMat$ = -220					; size = 16
_arrRes$ = -196						; size = 16
_arrMat$ = -172						; size = 80
_resMat$ = -84						; size = 64
_this$ = -12						; size = 4
__$ArrayPad$ = -4					; size = 4
___$ReturnUdt$ = 8					; size = 4
?inverseEx@pecker_matrix4@pecker_sdk@@QBE?AU12@XZ PROC	; pecker_sdk::pecker_matrix4::inverseEx, COMDAT
; _this$ = ecx

; 692  : {

	push	ebp
	mov	ebp, esp
	sub	esp, 536				; 00000218H
	push	ebx
	push	esi
	push	edi
	push	ecx
	lea	edi, DWORD PTR [ebp-536]
	mov	ecx, 134				; 00000086H
	mov	eax, -858993460				; ccccccccH
	rep stosd
	pop	ecx
	mov	eax, DWORD PTR ___security_cookie
	xor	eax, ebp
	mov	DWORD PTR __$ArrayPad$[ebp], eax
	mov	DWORD PTR _this$[ebp], ecx

; 693  :   pecker_matrix4 resMat;

	lea	ecx, DWORD PTR _resMat$[ebp]
	call	??0pecker_matrix4@pecker_sdk@@QAE@XZ	; pecker_sdk::pecker_matrix4::pecker_matrix4

; 694  :   Float arrMat[20];
; 695  :   Float arrRes[M4_10];
; 696  :   Float* arrpArrMat[M4_10];
; 697  :   const pecker_matrix4 idMat4 = pecker_matrix4::identity_matrix4();

	lea	eax, DWORD PTR _idMat4$[ebp]
	push	eax
	call	?identity_matrix4@pecker_matrix4@pecker_sdk@@SA?AU12@XZ ; pecker_sdk::pecker_matrix4::identity_matrix4
	add	esp, 4

; 698  : 
; 699  :   arrpArrMat[M4_00] = &arrMat[M4_00];

	lea	eax, DWORD PTR _arrMat$[ebp]
	mov	DWORD PTR _arrpArrMat$[ebp], eax

; 700  :   arrpArrMat[M4_01] = &arrMat[M4_11];

	lea	eax, DWORD PTR _arrMat$[ebp+20]
	mov	DWORD PTR _arrpArrMat$[ebp+4], eax

; 701  :   arrpArrMat[M4_02] = &arrMat[M4_22];

	lea	eax, DWORD PTR _arrMat$[ebp+40]
	mov	DWORD PTR _arrpArrMat$[ebp+8], eax

; 702  :   arrpArrMat[M4_03] = &arrMat[M4_33];

	lea	eax, DWORD PTR _arrMat$[ebp+60]
	mov	DWORD PTR _arrpArrMat$[ebp+12], eax

; 703  : 
; 704  :   HResult res =  P_OK;

	mov	DWORD PTR _res$[ebp], 0

; 705  : 
; 706  :   for (nINDEX i=0; i<4; ++i)

	mov	DWORD PTR _i$68279[ebp], 0
	jmp	SHORT $LN10@inverseEx
$LN9@inverseEx:
	mov	eax, DWORD PTR _i$68279[ebp]
	add	eax, 1
	mov	DWORD PTR _i$68279[ebp], eax
$LN10@inverseEx:
	cmp	DWORD PTR _i$68279[ebp], 4
	jge	$LN8@inverseEx

; 707  :   {
; 708  :     for (nINDEX j=0;j<4;++j)

	mov	DWORD PTR _j$68283[ebp], 0
	jmp	SHORT $LN7@inverseEx
$LN6@inverseEx:
	mov	eax, DWORD PTR _j$68283[ebp]
	add	eax, 1
	mov	DWORD PTR _j$68283[ebp], eax
$LN7@inverseEx:
	cmp	DWORD PTR _j$68283[ebp], 4
	jge	SHORT $LN5@inverseEx

; 709  :     {
; 710  :       arrpArrMat[j][M4_00] = idMat4.m_Mat[i + 4*j];

	mov	eax, DWORD PTR _j$68283[ebp]
	mov	ecx, DWORD PTR _i$68279[ebp]
	lea	edx, DWORD PTR [ecx+eax*4]
	mov	eax, DWORD PTR _j$68283[ebp]
	mov	ecx, DWORD PTR _arrpArrMat$[ebp+eax*4]
	fld	DWORD PTR _idMat4$[ebp+edx*4]
	fstp	DWORD PTR [ecx]

; 711  :       memcpy(&arrpArrMat[j][M4_01],&m_Mat[4*j],4*sizeof(Float));

	push	16					; 00000010H
	mov	eax, DWORD PTR _j$68283[ebp]
	shl	eax, 2
	mov	ecx, DWORD PTR _this$[ebp]
	lea	edx, DWORD PTR [ecx+eax*4]
	push	edx
	mov	eax, DWORD PTR _j$68283[ebp]
	mov	ecx, DWORD PTR _arrpArrMat$[ebp+eax*4]
	add	ecx, 4
	push	ecx
	call	_memcpy
	add	esp, 12					; 0000000cH

; 712  :     }

	jmp	SHORT $LN6@inverseEx
$LN5@inverseEx:

; 713  :     res = LinearEqSolve(arrRes, (Float**)arrpArrMat, 4);

	push	4
	lea	eax, DWORD PTR _arrpArrMat$[ebp]
	push	eax
	lea	ecx, DWORD PTR _arrRes$[ebp]
	push	ecx
	call	?LinearEqSolve@pecker_sdk@@YAJPAMPAPAMH@Z ; pecker_sdk::LinearEqSolve
	add	esp, 12					; 0000000cH
	mov	DWORD PTR _res$[ebp], eax

; 714  :     if (P_OK != res)

	cmp	DWORD PTR _res$[ebp], 0
	je	SHORT $LN4@inverseEx

; 715  :     {
; 716  :       //CPeckerLogger::GetSignleton()->LogOut(LOGINFO_ERROR,"CMatrix4::inverseEx","LinearEqSolve errors!");
; 717  : 		PECKER_LOG_ERR("CMatrix4::inverseEx","LinearEqSolve errors!",0);

	mov	esi, esp
	push	OFFSET ??_C@_0M@ONMFDOOB@ERROR_INFO?5?$AA@
	call	DWORD PTR __imp__printf
	add	esp, 4
	cmp	esi, esp
	call	__RTC_CheckEsp
	mov	esi, esp
	push	OFFSET ??_C@_0BE@CGOPECJN@CMatrix4?3?3inverseEx?$AA@
	call	DWORD PTR __imp__printf
	add	esp, 4
	cmp	esi, esp
	call	__RTC_CheckEsp
	mov	esi, esp
	push	OFFSET ??_C@_01EEMJAFIK@?6?$AA@
	call	DWORD PTR __imp__printf
	add	esp, 4
	cmp	esi, esp
	call	__RTC_CheckEsp
	mov	esi, esp
	push	0
	push	OFFSET ??_C@_0BG@MIGDABLN@LinearEqSolve?5errors?$CB?$AA@
	call	DWORD PTR __imp__printf
	add	esp, 8
	cmp	esi, esp
	call	__RTC_CheckEsp
	mov	esi, esp
	push	OFFSET ??_C@_01EEMJAFIK@?6?$AA@
	call	DWORD PTR __imp__printf
	add	esp, 4
	cmp	esi, esp
	call	__RTC_CheckEsp

; 718  :       break;

	jmp	SHORT $LN8@inverseEx
$LN4@inverseEx:

; 719  :     }
; 720  :     for (nINDEX j=0; j<4; ++j)

	mov	DWORD PTR _j$68292[ebp], 0
	jmp	SHORT $LN3@inverseEx
$LN2@inverseEx:
	mov	eax, DWORD PTR _j$68292[ebp]
	add	eax, 1
	mov	DWORD PTR _j$68292[ebp], eax
$LN3@inverseEx:
	cmp	DWORD PTR _j$68292[ebp], 4
	jge	SHORT $LN1@inverseEx

; 721  :     {
; 722  :       resMat.m_Mat[i + 4 * j] = arrRes[j];

	mov	eax, DWORD PTR _j$68292[ebp]
	mov	ecx, DWORD PTR _i$68279[ebp]
	lea	edx, DWORD PTR [ecx+eax*4]
	mov	eax, DWORD PTR _j$68292[ebp]
	fld	DWORD PTR _arrRes$[ebp+eax*4]
	fstp	DWORD PTR _resMat$[ebp+edx*4]

; 723  :     }

	jmp	SHORT $LN2@inverseEx
$LN1@inverseEx:

; 724  : 
; 725  :   }

	jmp	$LN9@inverseEx
$LN8@inverseEx:

; 726  : 
; 727  :   return resMat;

	lea	eax, DWORD PTR _resMat$[ebp]
	push	eax
	mov	ecx, DWORD PTR ___$ReturnUdt$[ebp]
	call	??0pecker_matrix4@pecker_sdk@@QAE@ABU01@@Z ; pecker_sdk::pecker_matrix4::pecker_matrix4
	mov	eax, DWORD PTR ___$ReturnUdt$[ebp]

; 728  : }

	push	edx
	mov	ecx, ebp
	push	eax
	lea	edx, DWORD PTR $LN19@inverseEx
	call	@_RTC_CheckStackVars@8
	pop	eax
	pop	edx
	pop	edi
	pop	esi
	pop	ebx
	mov	ecx, DWORD PTR __$ArrayPad$[ebp]
	xor	ecx, ebp
	call	@__security_check_cookie@4
	add	esp, 536				; 00000218H
	cmp	ebp, esp
	call	__RTC_CheckEsp
	mov	esp, ebp
	pop	ebp
	ret	4
	npad	2
$LN19@inverseEx:
	DD	5
	DD	$LN18@inverseEx
$LN18@inverseEx:
	DD	-84					; ffffffacH
	DD	64					; 00000040H
	DD	$LN13@inverseEx
	DD	-172					; ffffff54H
	DD	80					; 00000050H
	DD	$LN14@inverseEx
	DD	-196					; ffffff3cH
	DD	16					; 00000010H
	DD	$LN15@inverseEx
	DD	-220					; ffffff24H
	DD	16					; 00000010H
	DD	$LN16@inverseEx
	DD	-292					; fffffedcH
	DD	64					; 00000040H
	DD	$LN17@inverseEx
$LN17@inverseEx:
	DB	105					; 00000069H
	DB	100					; 00000064H
	DB	77					; 0000004dH
	DB	97					; 00000061H
	DB	116					; 00000074H
	DB	52					; 00000034H
	DB	0
$LN16@inverseEx:
	DB	97					; 00000061H
	DB	114					; 00000072H
	DB	114					; 00000072H
	DB	112					; 00000070H
	DB	65					; 00000041H
	DB	114					; 00000072H
	DB	114					; 00000072H
	DB	77					; 0000004dH
	DB	97					; 00000061H
	DB	116					; 00000074H
	DB	0
$LN15@inverseEx:
	DB	97					; 00000061H
	DB	114					; 00000072H
	DB	114					; 00000072H
	DB	82					; 00000052H
	DB	101					; 00000065H
	DB	115					; 00000073H
	DB	0
$LN14@inverseEx:
	DB	97					; 00000061H
	DB	114					; 00000072H
	DB	114					; 00000072H
	DB	77					; 0000004dH
	DB	97					; 00000061H
	DB	116					; 00000074H
	DB	0
$LN13@inverseEx:
	DB	114					; 00000072H
	DB	101					; 00000065H
	DB	115					; 00000073H
	DB	77					; 0000004dH
	DB	97					; 00000061H
	DB	116					; 00000074H
	DB	0
?inverseEx@pecker_matrix4@pecker_sdk@@QBE?AU12@XZ ENDP	; pecker_sdk::pecker_matrix4::inverseEx
_TEXT	ENDS
PUBLIC	__$ArrayPad$
PUBLIC	?transpose@pecker_matrix4@pecker_sdk@@QBE?AU12@XZ ; pecker_sdk::pecker_matrix4::transpose
; Function compile flags: /Odtp /RTCsu /ZI
;	COMDAT ?transpose@pecker_matrix4@pecker_sdk@@QBE?AU12@XZ
_TEXT	SEGMENT
_res$ = -84						; size = 64
_this$ = -12						; size = 4
__$ArrayPad$ = -4					; size = 4
___$ReturnUdt$ = 8					; size = 4
?transpose@pecker_matrix4@pecker_sdk@@QBE?AU12@XZ PROC	; pecker_sdk::pecker_matrix4::transpose, COMDAT
; _this$ = ecx

; 730  : {

	push	ebp
	mov	ebp, esp
	sub	esp, 280				; 00000118H
	push	ebx
	push	esi
	push	edi
	push	ecx
	lea	edi, DWORD PTR [ebp-280]
	mov	ecx, 70					; 00000046H
	mov	eax, -858993460				; ccccccccH
	rep stosd
	pop	ecx
	mov	eax, DWORD PTR ___security_cookie
	xor	eax, ebp
	mov	DWORD PTR __$ArrayPad$[ebp], eax
	mov	DWORD PTR _this$[ebp], ecx

; 731  :   pecker_matrix4 res;

	lea	ecx, DWORD PTR _res$[ebp]
	call	??0pecker_matrix4@pecker_sdk@@QAE@XZ	; pecker_sdk::pecker_matrix4::pecker_matrix4

; 732  :   res.m_Mat[M4_00] = m_Mat[M4_00];                res.m_Mat[M4_01] = m_Mat[M4_10];                res.m_Mat[M4_02] = m_Mat[M4_20];                res.m_Mat[M4_03] = m_Mat[ M4_30];

	mov	eax, DWORD PTR _this$[ebp]
	fld	DWORD PTR [eax]
	fstp	DWORD PTR _res$[ebp]
	mov	eax, DWORD PTR _this$[ebp]
	fld	DWORD PTR [eax+16]
	fstp	DWORD PTR _res$[ebp+4]
	mov	eax, DWORD PTR _this$[ebp]
	fld	DWORD PTR [eax+32]
	fstp	DWORD PTR _res$[ebp+8]
	mov	eax, DWORD PTR _this$[ebp]
	fld	DWORD PTR [eax+48]
	fstp	DWORD PTR _res$[ebp+12]

; 733  :   res.m_Mat[M4_10] = m_Mat[M4_01];                res.m_Mat[M4_11] = m_Mat[M4_11];                res.m_Mat[M4_12] = m_Mat[M4_21];                res.m_Mat[M4_13] = m_Mat[M4_31];

	mov	eax, DWORD PTR _this$[ebp]
	fld	DWORD PTR [eax+4]
	fstp	DWORD PTR _res$[ebp+16]
	mov	eax, DWORD PTR _this$[ebp]
	fld	DWORD PTR [eax+20]
	fstp	DWORD PTR _res$[ebp+20]
	mov	eax, DWORD PTR _this$[ebp]
	fld	DWORD PTR [eax+36]
	fstp	DWORD PTR _res$[ebp+24]
	mov	eax, DWORD PTR _this$[ebp]
	fld	DWORD PTR [eax+52]
	fstp	DWORD PTR _res$[ebp+28]

; 734  :   res.m_Mat[M4_20] = m_Mat[M4_02];                res.m_Mat[M4_21] = m_Mat[M4_12];                res.m_Mat[M4_22] = m_Mat[M4_22];              res.m_Mat[M4_23] = m_Mat[M4_32];

	mov	eax, DWORD PTR _this$[ebp]
	fld	DWORD PTR [eax+8]
	fstp	DWORD PTR _res$[ebp+32]
	mov	eax, DWORD PTR _this$[ebp]
	fld	DWORD PTR [eax+24]
	fstp	DWORD PTR _res$[ebp+36]
	mov	eax, DWORD PTR _this$[ebp]
	fld	DWORD PTR [eax+40]
	fstp	DWORD PTR _res$[ebp+40]
	mov	eax, DWORD PTR _this$[ebp]
	fld	DWORD PTR [eax+56]
	fstp	DWORD PTR _res$[ebp+44]

; 735  :   res.m_Mat[ M4_30] = m_Mat[M4_03];               res.m_Mat[M4_31] = m_Mat[M4_13];               res.m_Mat[M4_32] = m_Mat[M4_23];              res.m_Mat[M4_33] = m_Mat[M4_33];

	mov	eax, DWORD PTR _this$[ebp]
	fld	DWORD PTR [eax+12]
	fstp	DWORD PTR _res$[ebp+48]
	mov	eax, DWORD PTR _this$[ebp]
	fld	DWORD PTR [eax+28]
	fstp	DWORD PTR _res$[ebp+52]
	mov	eax, DWORD PTR _this$[ebp]
	fld	DWORD PTR [eax+44]
	fstp	DWORD PTR _res$[ebp+56]
	mov	eax, DWORD PTR _this$[ebp]
	fld	DWORD PTR [eax+60]
	fstp	DWORD PTR _res$[ebp+60]

; 736  :   return res;

	lea	eax, DWORD PTR _res$[ebp]
	push	eax
	mov	ecx, DWORD PTR ___$ReturnUdt$[ebp]
	call	??0pecker_matrix4@pecker_sdk@@QAE@ABU01@@Z ; pecker_sdk::pecker_matrix4::pecker_matrix4
	mov	eax, DWORD PTR ___$ReturnUdt$[ebp]

; 737  : }

	push	edx
	mov	ecx, ebp
	push	eax
	lea	edx, DWORD PTR $LN5@transpose@2
	call	@_RTC_CheckStackVars@8
	pop	eax
	pop	edx
	pop	edi
	pop	esi
	pop	ebx
	mov	ecx, DWORD PTR __$ArrayPad$[ebp]
	xor	ecx, ebp
	call	@__security_check_cookie@4
	add	esp, 280				; 00000118H
	cmp	ebp, esp
	call	__RTC_CheckEsp
	mov	esp, ebp
	pop	ebp
	ret	4
$LN5@transpose@2:
	DD	1
	DD	$LN4@transpose@2
$LN4@transpose@2:
	DD	-84					; ffffffacH
	DD	64					; 00000040H
	DD	$LN3@transpose@2
$LN3@transpose@2:
	DB	114					; 00000072H
	DB	101					; 00000065H
	DB	115					; 00000073H
	DB	0
?transpose@pecker_matrix4@pecker_sdk@@QBE?AU12@XZ ENDP	; pecker_sdk::pecker_matrix4::transpose
_TEXT	ENDS
PUBLIC	?post_translate@pecker_matrix4@pecker_sdk@@QAEAAU12@MMM@Z ; pecker_sdk::pecker_matrix4::post_translate
; Function compile flags: /Odtp /RTCsu /ZI
;	COMDAT ?post_translate@pecker_matrix4@pecker_sdk@@QAEAAU12@MMM@Z
_TEXT	SEGMENT
_this$ = -8						; size = 4
_fx$ = 8						; size = 4
_fy$ = 12						; size = 4
_fz$ = 16						; size = 4
?post_translate@pecker_matrix4@pecker_sdk@@QAEAAU12@MMM@Z PROC ; pecker_sdk::pecker_matrix4::post_translate, COMDAT
; _this$ = ecx

; 740  : {

	push	ebp
	mov	ebp, esp
	sub	esp, 204				; 000000ccH
	push	ebx
	push	esi
	push	edi
	push	ecx
	lea	edi, DWORD PTR [ebp-204]
	mov	ecx, 51					; 00000033H
	mov	eax, -858993460				; ccccccccH
	rep stosd
	pop	ecx
	mov	DWORD PTR _this$[ebp], ecx

; 741  :   // col(3) += fx * col(0) + fy * col(1) + fz * col(2);
; 742  :   m_Mat[ M4_30] += (fx*m_Mat[M4_00] + fy*m_Mat[M4_10] + fz*m_Mat[M4_20]);

	fld	DWORD PTR _fx$[ebp]
	mov	eax, DWORD PTR _this$[ebp]
	fmul	DWORD PTR [eax]
	fld	DWORD PTR _fy$[ebp]
	mov	ecx, DWORD PTR _this$[ebp]
	fmul	DWORD PTR [ecx+16]
	faddp	ST(1), ST(0)
	fld	DWORD PTR _fz$[ebp]
	mov	edx, DWORD PTR _this$[ebp]
	fmul	DWORD PTR [edx+32]
	faddp	ST(1), ST(0)
	mov	eax, DWORD PTR _this$[ebp]
	fadd	DWORD PTR [eax+48]
	mov	ecx, DWORD PTR _this$[ebp]
	fstp	DWORD PTR [ecx+48]

; 743  :   m_Mat[M4_31] += (fx*m_Mat[M4_01] + fy*m_Mat[M4_11] + fz*m_Mat[M4_21]);

	fld	DWORD PTR _fx$[ebp]
	mov	eax, DWORD PTR _this$[ebp]
	fmul	DWORD PTR [eax+4]
	fld	DWORD PTR _fy$[ebp]
	mov	ecx, DWORD PTR _this$[ebp]
	fmul	DWORD PTR [ecx+20]
	faddp	ST(1), ST(0)
	fld	DWORD PTR _fz$[ebp]
	mov	edx, DWORD PTR _this$[ebp]
	fmul	DWORD PTR [edx+36]
	faddp	ST(1), ST(0)
	mov	eax, DWORD PTR _this$[ebp]
	fadd	DWORD PTR [eax+52]
	mov	ecx, DWORD PTR _this$[ebp]
	fstp	DWORD PTR [ecx+52]

; 744  :   m_Mat[M4_32] += (fx*m_Mat[M4_02] + fy*m_Mat[M4_12] + fz*m_Mat[M4_22]);

	fld	DWORD PTR _fx$[ebp]
	mov	eax, DWORD PTR _this$[ebp]
	fmul	DWORD PTR [eax+8]
	fld	DWORD PTR _fy$[ebp]
	mov	ecx, DWORD PTR _this$[ebp]
	fmul	DWORD PTR [ecx+24]
	faddp	ST(1), ST(0)
	fld	DWORD PTR _fz$[ebp]
	mov	edx, DWORD PTR _this$[ebp]
	fmul	DWORD PTR [edx+40]
	faddp	ST(1), ST(0)
	mov	eax, DWORD PTR _this$[ebp]
	fadd	DWORD PTR [eax+56]
	mov	ecx, DWORD PTR _this$[ebp]
	fstp	DWORD PTR [ecx+56]

; 745  :   m_Mat[M4_33] += (fx*m_Mat[M4_03] + fy*m_Mat[M4_13] + fz*m_Mat[M4_23]);

	fld	DWORD PTR _fx$[ebp]
	mov	eax, DWORD PTR _this$[ebp]
	fmul	DWORD PTR [eax+12]
	fld	DWORD PTR _fy$[ebp]
	mov	ecx, DWORD PTR _this$[ebp]
	fmul	DWORD PTR [ecx+28]
	faddp	ST(1), ST(0)
	fld	DWORD PTR _fz$[ebp]
	mov	edx, DWORD PTR _this$[ebp]
	fmul	DWORD PTR [edx+44]
	faddp	ST(1), ST(0)
	mov	eax, DWORD PTR _this$[ebp]
	fadd	DWORD PTR [eax+60]
	mov	ecx, DWORD PTR _this$[ebp]
	fstp	DWORD PTR [ecx+60]

; 746  : 
; 747  :   return *this;

	mov	eax, DWORD PTR _this$[ebp]

; 748  : }

	pop	edi
	pop	esi
	pop	ebx
	mov	esp, ebp
	pop	ebp
	ret	12					; 0000000cH
?post_translate@pecker_matrix4@pecker_sdk@@QAEAAU12@MMM@Z ENDP ; pecker_sdk::pecker_matrix4::post_translate
_TEXT	ENDS
PUBLIC	?post_translate@pecker_matrix4@pecker_sdk@@QAEAAU12@ABUpecker_vector3@2@@Z ; pecker_sdk::pecker_matrix4::post_translate
; Function compile flags: /Odtp /RTCsu /ZI
;	COMDAT ?post_translate@pecker_matrix4@pecker_sdk@@QAEAAU12@ABUpecker_vector3@2@@Z
_TEXT	SEGMENT
_this$ = -8						; size = 4
_vec$ = 8						; size = 4
?post_translate@pecker_matrix4@pecker_sdk@@QAEAAU12@ABUpecker_vector3@2@@Z PROC ; pecker_sdk::pecker_matrix4::post_translate, COMDAT
; _this$ = ecx

; 751  : {

	push	ebp
	mov	ebp, esp
	sub	esp, 204				; 000000ccH
	push	ebx
	push	esi
	push	edi
	push	ecx
	lea	edi, DWORD PTR [ebp-204]
	mov	ecx, 51					; 00000033H
	mov	eax, -858993460				; ccccccccH
	rep stosd
	pop	ecx
	mov	DWORD PTR _this$[ebp], ecx

; 752  :   return post_translate(vec.x,vec.y,vec.z);

	mov	eax, DWORD PTR _vec$[ebp]
	push	ecx
	fld	DWORD PTR [eax+8]
	fstp	DWORD PTR [esp]
	mov	ecx, DWORD PTR _vec$[ebp]
	push	ecx
	fld	DWORD PTR [ecx+4]
	fstp	DWORD PTR [esp]
	mov	edx, DWORD PTR _vec$[ebp]
	push	ecx
	fld	DWORD PTR [edx]
	fstp	DWORD PTR [esp]
	mov	ecx, DWORD PTR _this$[ebp]
	call	?post_translate@pecker_matrix4@pecker_sdk@@QAEAAU12@MMM@Z ; pecker_sdk::pecker_matrix4::post_translate

; 753  : }

	pop	edi
	pop	esi
	pop	ebx
	add	esp, 204				; 000000ccH
	cmp	ebp, esp
	call	__RTC_CheckEsp
	mov	esp, ebp
	pop	ebp
	ret	4
?post_translate@pecker_matrix4@pecker_sdk@@QAEAAU12@ABUpecker_vector3@2@@Z ENDP ; pecker_sdk::pecker_matrix4::post_translate
_TEXT	ENDS
PUBLIC	?pre_translate@pecker_matrix4@pecker_sdk@@QAEAAU12@MMM@Z ; pecker_sdk::pecker_matrix4::pre_translate
; Function compile flags: /Odtp /RTCsu /ZI
;	COMDAT ?pre_translate@pecker_matrix4@pecker_sdk@@QAEAAU12@MMM@Z
_TEXT	SEGMENT
_this$ = -8						; size = 4
_fx$ = 8						; size = 4
_fy$ = 12						; size = 4
_fz$ = 16						; size = 4
?pre_translate@pecker_matrix4@pecker_sdk@@QAEAAU12@MMM@Z PROC ; pecker_sdk::pecker_matrix4::pre_translate, COMDAT
; _this$ = ecx

; 757  : {

	push	ebp
	mov	ebp, esp
	sub	esp, 204				; 000000ccH
	push	ebx
	push	esi
	push	edi
	push	ecx
	lea	edi, DWORD PTR [ebp-204]
	mov	ecx, 51					; 00000033H
	mov	eax, -858993460				; ccccccccH
	rep stosd
	pop	ecx
	mov	DWORD PTR _this$[ebp], ecx

; 758  :   //  row(0) += fx * row(3);
; 759  :   //  row(1) += fy * row(3);
; 760  :   //  row(2) += fz * row(3);
; 761  :   m_Mat[M4_00] += m_Mat[M4_03] * fx;    m_Mat[M4_10] += m_Mat[M4_13]*fx;        m_Mat[M4_20] += m_Mat[M4_23]*fx;       m_Mat[ M4_30] += m_Mat[M4_33]*fx;

	mov	eax, DWORD PTR _this$[ebp]
	fld	DWORD PTR [eax+12]
	fmul	DWORD PTR _fx$[ebp]
	mov	ecx, DWORD PTR _this$[ebp]
	fadd	DWORD PTR [ecx]
	mov	edx, DWORD PTR _this$[ebp]
	fstp	DWORD PTR [edx]
	mov	eax, DWORD PTR _this$[ebp]
	fld	DWORD PTR [eax+28]
	fmul	DWORD PTR _fx$[ebp]
	mov	ecx, DWORD PTR _this$[ebp]
	fadd	DWORD PTR [ecx+16]
	mov	edx, DWORD PTR _this$[ebp]
	fstp	DWORD PTR [edx+16]
	mov	eax, DWORD PTR _this$[ebp]
	fld	DWORD PTR [eax+44]
	fmul	DWORD PTR _fx$[ebp]
	mov	ecx, DWORD PTR _this$[ebp]
	fadd	DWORD PTR [ecx+32]
	mov	edx, DWORD PTR _this$[ebp]
	fstp	DWORD PTR [edx+32]
	mov	eax, DWORD PTR _this$[ebp]
	fld	DWORD PTR [eax+60]
	fmul	DWORD PTR _fx$[ebp]
	mov	ecx, DWORD PTR _this$[ebp]
	fadd	DWORD PTR [ecx+48]
	mov	edx, DWORD PTR _this$[ebp]
	fstp	DWORD PTR [edx+48]

; 762  :   m_Mat[M4_01] += m_Mat[M4_03] * fy;    m_Mat[M4_10] += m_Mat[M4_13]*fy;        m_Mat[M4_20] += m_Mat[M4_23]*fy;       m_Mat[ M4_30] += m_Mat[M4_33]*fy;

	mov	eax, DWORD PTR _this$[ebp]
	fld	DWORD PTR [eax+12]
	fmul	DWORD PTR _fy$[ebp]
	mov	ecx, DWORD PTR _this$[ebp]
	fadd	DWORD PTR [ecx+4]
	mov	edx, DWORD PTR _this$[ebp]
	fstp	DWORD PTR [edx+4]
	mov	eax, DWORD PTR _this$[ebp]
	fld	DWORD PTR [eax+28]
	fmul	DWORD PTR _fy$[ebp]
	mov	ecx, DWORD PTR _this$[ebp]
	fadd	DWORD PTR [ecx+16]
	mov	edx, DWORD PTR _this$[ebp]
	fstp	DWORD PTR [edx+16]
	mov	eax, DWORD PTR _this$[ebp]
	fld	DWORD PTR [eax+44]
	fmul	DWORD PTR _fy$[ebp]
	mov	ecx, DWORD PTR _this$[ebp]
	fadd	DWORD PTR [ecx+32]
	mov	edx, DWORD PTR _this$[ebp]
	fstp	DWORD PTR [edx+32]
	mov	eax, DWORD PTR _this$[ebp]
	fld	DWORD PTR [eax+60]
	fmul	DWORD PTR _fy$[ebp]
	mov	ecx, DWORD PTR _this$[ebp]
	fadd	DWORD PTR [ecx+48]
	mov	edx, DWORD PTR _this$[ebp]
	fstp	DWORD PTR [edx+48]

; 763  :   m_Mat[M4_02] += m_Mat[M4_03] * fz;    m_Mat[M4_10] += m_Mat[M4_13]*fz;        m_Mat[M4_20] += m_Mat[M4_23]*fz;       m_Mat[ M4_30] += m_Mat[M4_33]*fz;

	mov	eax, DWORD PTR _this$[ebp]
	fld	DWORD PTR [eax+12]
	fmul	DWORD PTR _fz$[ebp]
	mov	ecx, DWORD PTR _this$[ebp]
	fadd	DWORD PTR [ecx+8]
	mov	edx, DWORD PTR _this$[ebp]
	fstp	DWORD PTR [edx+8]
	mov	eax, DWORD PTR _this$[ebp]
	fld	DWORD PTR [eax+28]
	fmul	DWORD PTR _fz$[ebp]
	mov	ecx, DWORD PTR _this$[ebp]
	fadd	DWORD PTR [ecx+16]
	mov	edx, DWORD PTR _this$[ebp]
	fstp	DWORD PTR [edx+16]
	mov	eax, DWORD PTR _this$[ebp]
	fld	DWORD PTR [eax+44]
	fmul	DWORD PTR _fz$[ebp]
	mov	ecx, DWORD PTR _this$[ebp]
	fadd	DWORD PTR [ecx+32]
	mov	edx, DWORD PTR _this$[ebp]
	fstp	DWORD PTR [edx+32]
	mov	eax, DWORD PTR _this$[ebp]
	fld	DWORD PTR [eax+60]
	fmul	DWORD PTR _fz$[ebp]
	mov	ecx, DWORD PTR _this$[ebp]
	fadd	DWORD PTR [ecx+48]
	mov	edx, DWORD PTR _this$[ebp]
	fstp	DWORD PTR [edx+48]

; 764  : 
; 765  :   return *this;

	mov	eax, DWORD PTR _this$[ebp]

; 766  : }

	pop	edi
	pop	esi
	pop	ebx
	mov	esp, ebp
	pop	ebp
	ret	12					; 0000000cH
?pre_translate@pecker_matrix4@pecker_sdk@@QAEAAU12@MMM@Z ENDP ; pecker_sdk::pecker_matrix4::pre_translate
_TEXT	ENDS
PUBLIC	?pre_translate@pecker_matrix4@pecker_sdk@@QAEAAU12@ABUpecker_vector3@2@@Z ; pecker_sdk::pecker_matrix4::pre_translate
; Function compile flags: /Odtp /RTCsu /ZI
;	COMDAT ?pre_translate@pecker_matrix4@pecker_sdk@@QAEAAU12@ABUpecker_vector3@2@@Z
_TEXT	SEGMENT
_this$ = -8						; size = 4
_vec$ = 8						; size = 4
?pre_translate@pecker_matrix4@pecker_sdk@@QAEAAU12@ABUpecker_vector3@2@@Z PROC ; pecker_sdk::pecker_matrix4::pre_translate, COMDAT
; _this$ = ecx

; 769  : {

	push	ebp
	mov	ebp, esp
	sub	esp, 204				; 000000ccH
	push	ebx
	push	esi
	push	edi
	push	ecx
	lea	edi, DWORD PTR [ebp-204]
	mov	ecx, 51					; 00000033H
	mov	eax, -858993460				; ccccccccH
	rep stosd
	pop	ecx
	mov	DWORD PTR _this$[ebp], ecx

; 770  :   return pre_translate(vec.x,vec.y,vec.z);

	mov	eax, DWORD PTR _vec$[ebp]
	push	ecx
	fld	DWORD PTR [eax+8]
	fstp	DWORD PTR [esp]
	mov	ecx, DWORD PTR _vec$[ebp]
	push	ecx
	fld	DWORD PTR [ecx+4]
	fstp	DWORD PTR [esp]
	mov	edx, DWORD PTR _vec$[ebp]
	push	ecx
	fld	DWORD PTR [edx]
	fstp	DWORD PTR [esp]
	mov	ecx, DWORD PTR _this$[ebp]
	call	?pre_translate@pecker_matrix4@pecker_sdk@@QAEAAU12@MMM@Z ; pecker_sdk::pecker_matrix4::pre_translate

; 771  : }

	pop	edi
	pop	esi
	pop	ebx
	add	esp, 204				; 000000ccH
	cmp	ebp, esp
	call	__RTC_CheckEsp
	mov	esp, ebp
	pop	ebp
	ret	4
?pre_translate@pecker_matrix4@pecker_sdk@@QAEAAU12@ABUpecker_vector3@2@@Z ENDP ; pecker_sdk::pecker_matrix4::pre_translate
; Function compile flags: /Odtp /RTCsu /ZI
_TEXT	ENDS
;	COMDAT ?identity_matrix4@pecker_matrix4@pecker_sdk@@SA?AU12@XZ
_TEXT	SEGMENT
___$ReturnUdt$ = 8					; size = 4
?identity_matrix4@pecker_matrix4@pecker_sdk@@SA?AU12@XZ PROC ; pecker_sdk::pecker_matrix4::identity_matrix4, COMDAT

; 775  : {

	push	ebp
	mov	ebp, esp
	sub	esp, 192				; 000000c0H
	push	ebx
	push	esi
	push	edi
	lea	edi, DWORD PTR [ebp-192]
	mov	ecx, 48					; 00000030H
	mov	eax, -858993460				; ccccccccH
	rep stosd

; 776  :   return pecker_matrix4(1.0f,0.0f,0.0f,0.0f,
; 777  :                   0.0f,1.0f,0.0f,0.0f,
; 778  :                   0.0f,0.0f,1.0f,0.0f,
; 779  :                   0.0f,0.0f,0.0f,1.0f);

	push	ecx
	fld1
	fstp	DWORD PTR [esp]
	push	ecx
	fldz
	fstp	DWORD PTR [esp]
	push	ecx
	fldz
	fstp	DWORD PTR [esp]
	push	ecx
	fldz
	fstp	DWORD PTR [esp]
	push	ecx
	fldz
	fstp	DWORD PTR [esp]
	push	ecx
	fld1
	fstp	DWORD PTR [esp]
	push	ecx
	fldz
	fstp	DWORD PTR [esp]
	push	ecx
	fldz
	fstp	DWORD PTR [esp]
	push	ecx
	fldz
	fstp	DWORD PTR [esp]
	push	ecx
	fldz
	fstp	DWORD PTR [esp]
	push	ecx
	fld1
	fstp	DWORD PTR [esp]
	push	ecx
	fldz
	fstp	DWORD PTR [esp]
	push	ecx
	fldz
	fstp	DWORD PTR [esp]
	push	ecx
	fldz
	fstp	DWORD PTR [esp]
	push	ecx
	fldz
	fstp	DWORD PTR [esp]
	push	ecx
	fld1
	fstp	DWORD PTR [esp]
	mov	ecx, DWORD PTR ___$ReturnUdt$[ebp]
	call	??0pecker_matrix4@pecker_sdk@@QAE@MMMMMMMMMMMMMMMM@Z ; pecker_sdk::pecker_matrix4::pecker_matrix4
	mov	eax, DWORD PTR ___$ReturnUdt$[ebp]

; 780  : }

	pop	edi
	pop	esi
	pop	ebx
	add	esp, 192				; 000000c0H
	cmp	ebp, esp
	call	__RTC_CheckEsp
	mov	esp, ebp
	pop	ebp
	ret	0
?identity_matrix4@pecker_matrix4@pecker_sdk@@SA?AU12@XZ ENDP ; pecker_sdk::pecker_matrix4::identity_matrix4
_TEXT	ENDS
PUBLIC	__$ArrayPad$
PUBLIC	?rotationX@pecker_matrix4@pecker_sdk@@SA?AU12@M@Z ; pecker_sdk::pecker_matrix4::rotationX
; Function compile flags: /Odtp /RTCsu /ZI
;	COMDAT ?rotationX@pecker_matrix4@pecker_sdk@@SA?AU12@M@Z
_TEXT	SEGMENT
_fSine$ = -96						; size = 4
_fCosine$ = -84						; size = 4
_res$ = -72						; size = 64
__$ArrayPad$ = -4					; size = 4
___$ReturnUdt$ = 8					; size = 4
_fAngle$ = 12						; size = 4
?rotationX@pecker_matrix4@pecker_sdk@@SA?AU12@M@Z PROC	; pecker_sdk::pecker_matrix4::rotationX, COMDAT

; 783  : {

	push	ebp
	mov	ebp, esp
	sub	esp, 292				; 00000124H
	push	ebx
	push	esi
	push	edi
	lea	edi, DWORD PTR [ebp-292]
	mov	ecx, 73					; 00000049H
	mov	eax, -858993460				; ccccccccH
	rep stosd
	mov	eax, DWORD PTR ___security_cookie
	xor	eax, ebp
	mov	DWORD PTR __$ArrayPad$[ebp], eax

; 784  :   pecker_matrix4 res;

	lea	ecx, DWORD PTR _res$[ebp]
	call	??0pecker_matrix4@pecker_sdk@@QAE@XZ	; pecker_sdk::pecker_matrix4::pecker_matrix4

; 785  :   Float fCosine, fSine;
; 786  : 
; 787  :   /* Precompute cos and sin */
; 788  : #if defined(GRAPHIC_DEVICE_DX9) || defined(GRAPHIC_DEVICE_DX10) || defined(GRAPHIC_DEVICE_DX11) || defined(GRAPHIC_DEVICE_DX12)
; 789  :   fCosine = (Float)cos((Double)(-fAngle));
; 790  :   fSine = (Float)sin((Double)(-fAngle));
; 791  : #else
; 792  :   fCosine = (Float)cos((Double)(fAngle));

	fld	DWORD PTR _fAngle$[ebp]
	sub	esp, 8
	fstp	QWORD PTR [esp]
	call	_cos
	add	esp, 8
	fstp	DWORD PTR _fCosine$[ebp]

; 793  :   fSine = (Float)sin((Double)(fAngle));

	fld	DWORD PTR _fAngle$[ebp]
	sub	esp, 8
	fstp	QWORD PTR [esp]
	call	_sin
	add	esp, 8
	fstp	DWORD PTR _fSine$[ebp]

; 794  : #endif
; 795  : 
; 796  :   /* Create the trigonometric matrix corresponding to X rotation */
; 797  :   res.m_Mat[M4_00]=1.0f; res.m_Mat[M4_10]=0.0f;    res.m_Mat[M4_20]=0.0f;     res.m_Mat[M4_30]=0.0f;

	fld1
	fstp	DWORD PTR _res$[ebp]
	fldz
	fstp	DWORD PTR _res$[ebp+16]
	fldz
	fstp	DWORD PTR _res$[ebp+32]
	fldz
	fstp	DWORD PTR _res$[ebp+48]

; 798  :   res.m_Mat[M4_01]=0.0f; res.m_Mat[M4_11]=fCosine; res.m_Mat[M4_21]=fSine;    res.m_Mat[M4_31]=0.0f;

	fldz
	fstp	DWORD PTR _res$[ebp+4]
	fld	DWORD PTR _fCosine$[ebp]
	fstp	DWORD PTR _res$[ebp+20]
	fld	DWORD PTR _fSine$[ebp]
	fstp	DWORD PTR _res$[ebp+36]
	fldz
	fstp	DWORD PTR _res$[ebp+52]

; 799  :   res.m_Mat[M4_02]=0.0f; res.m_Mat[M4_12]=-fSine;  res.m_Mat[M4_22]=fCosine;  res.m_Mat[M4_32]=0.0f;

	fldz
	fstp	DWORD PTR _res$[ebp+8]
	fld	DWORD PTR _fSine$[ebp]
	fchs
	fstp	DWORD PTR _res$[ebp+24]
	fld	DWORD PTR _fCosine$[ebp]
	fstp	DWORD PTR _res$[ebp+40]
	fldz
	fstp	DWORD PTR _res$[ebp+56]

; 800  :   res.m_Mat[M4_03]=0.0f; res.m_Mat[M4_13]=0.0f;    res.m_Mat[M4_23]=0.0f;     res.m_Mat[M4_33]=1.0f;

	fldz
	fstp	DWORD PTR _res$[ebp+12]
	fldz
	fstp	DWORD PTR _res$[ebp+28]
	fldz
	fstp	DWORD PTR _res$[ebp+44]
	fld1
	fstp	DWORD PTR _res$[ebp+60]

; 801  :   return res;

	lea	eax, DWORD PTR _res$[ebp]
	push	eax
	mov	ecx, DWORD PTR ___$ReturnUdt$[ebp]
	call	??0pecker_matrix4@pecker_sdk@@QAE@ABU01@@Z ; pecker_sdk::pecker_matrix4::pecker_matrix4
	mov	eax, DWORD PTR ___$ReturnUdt$[ebp]

; 802  : }

	push	edx
	mov	ecx, ebp
	push	eax
	lea	edx, DWORD PTR $LN5@rotationX@2
	call	@_RTC_CheckStackVars@8
	pop	eax
	pop	edx
	pop	edi
	pop	esi
	pop	ebx
	mov	ecx, DWORD PTR __$ArrayPad$[ebp]
	xor	ecx, ebp
	call	@__security_check_cookie@4
	add	esp, 292				; 00000124H
	cmp	ebp, esp
	call	__RTC_CheckEsp
	mov	esp, ebp
	pop	ebp
	ret	0
$LN5@rotationX@2:
	DD	1
	DD	$LN4@rotationX@2
$LN4@rotationX@2:
	DD	-72					; ffffffb8H
	DD	64					; 00000040H
	DD	$LN3@rotationX@2
$LN3@rotationX@2:
	DB	114					; 00000072H
	DB	101					; 00000065H
	DB	115					; 00000073H
	DB	0
?rotationX@pecker_matrix4@pecker_sdk@@SA?AU12@M@Z ENDP	; pecker_sdk::pecker_matrix4::rotationX
_TEXT	ENDS
PUBLIC	__$ArrayPad$
PUBLIC	?rotationY@pecker_matrix4@pecker_sdk@@SA?AU12@M@Z ; pecker_sdk::pecker_matrix4::rotationY
; Function compile flags: /Odtp /RTCsu /ZI
;	COMDAT ?rotationY@pecker_matrix4@pecker_sdk@@SA?AU12@M@Z
_TEXT	SEGMENT
_fSine$ = -96						; size = 4
_fCosine$ = -84						; size = 4
_res$ = -72						; size = 64
__$ArrayPad$ = -4					; size = 4
___$ReturnUdt$ = 8					; size = 4
_fAngle$ = 12						; size = 4
?rotationY@pecker_matrix4@pecker_sdk@@SA?AU12@M@Z PROC	; pecker_sdk::pecker_matrix4::rotationY, COMDAT

; 804  : {

	push	ebp
	mov	ebp, esp
	sub	esp, 292				; 00000124H
	push	ebx
	push	esi
	push	edi
	lea	edi, DWORD PTR [ebp-292]
	mov	ecx, 73					; 00000049H
	mov	eax, -858993460				; ccccccccH
	rep stosd
	mov	eax, DWORD PTR ___security_cookie
	xor	eax, ebp
	mov	DWORD PTR __$ArrayPad$[ebp], eax

; 805  :   pecker_matrix4 res;

	lea	ecx, DWORD PTR _res$[ebp]
	call	??0pecker_matrix4@pecker_sdk@@QAE@XZ	; pecker_sdk::pecker_matrix4::pecker_matrix4

; 806  :   Float fCosine, fSine;
; 807  : 
; 808  :   /* Precompute cos and sin */
; 809  : #if defined(GRAPHIC_DEVICE_DX9) || defined(GRAPHIC_DEVICE_DX10) || defined(GRAPHIC_DEVICE_DX11) || defined(GRAPHIC_DEVICE_DX12)
; 810  :   fCosine = (Float)cos((Double)(-fAngle));
; 811  :   fSine = (Float)sin((Double)(-fAngle));
; 812  : #else
; 813  :   fCosine = (Float)cos((Double)(fAngle));

	fld	DWORD PTR _fAngle$[ebp]
	sub	esp, 8
	fstp	QWORD PTR [esp]
	call	_cos
	add	esp, 8
	fstp	DWORD PTR _fCosine$[ebp]

; 814  :   fSine = (Float)sin((Double)(fAngle));

	fld	DWORD PTR _fAngle$[ebp]
	sub	esp, 8
	fstp	QWORD PTR [esp]
	call	_sin
	add	esp, 8
	fstp	DWORD PTR _fSine$[ebp]

; 815  : #endif
; 816  : 
; 817  :   /* Create the trigonometric matrix corresponding to Y rotation */
; 818  :   res.m_Mat[M4_00]=fCosine; res.m_Mat[M4_10]=0.0f; res.m_Mat[M4_20]=-fSine;     res.m_Mat[M4_30]=0.0f;

	fld	DWORD PTR _fCosine$[ebp]
	fstp	DWORD PTR _res$[ebp]
	fldz
	fstp	DWORD PTR _res$[ebp+16]
	fld	DWORD PTR _fSine$[ebp]
	fchs
	fstp	DWORD PTR _res$[ebp+32]
	fldz
	fstp	DWORD PTR _res$[ebp+48]

; 819  :   res.m_Mat[M4_01]=0.0f;    res.m_Mat[M4_11]=1.0f; res.m_Mat[M4_21]=0.0f;       res.m_Mat[M4_31]=0.0f;

	fldz
	fstp	DWORD PTR _res$[ebp+4]
	fld1
	fstp	DWORD PTR _res$[ebp+20]
	fldz
	fstp	DWORD PTR _res$[ebp+36]
	fldz
	fstp	DWORD PTR _res$[ebp+52]

; 820  :   res.m_Mat[M4_02]=fSine;   res.m_Mat[M4_12]=0.0f; res.m_Mat[M4_22]=fCosine;    res.m_Mat[M4_32]=0.0f;

	fld	DWORD PTR _fSine$[ebp]
	fstp	DWORD PTR _res$[ebp+8]
	fldz
	fstp	DWORD PTR _res$[ebp+24]
	fld	DWORD PTR _fCosine$[ebp]
	fstp	DWORD PTR _res$[ebp+40]
	fldz
	fstp	DWORD PTR _res$[ebp+56]

; 821  :   res.m_Mat[M4_03]=0.0f;    res.m_Mat[M4_13]=0.0f; res.m_Mat[M4_23]=0.0f;       res.m_Mat[M4_33]=1.0f;

	fldz
	fstp	DWORD PTR _res$[ebp+12]
	fldz
	fstp	DWORD PTR _res$[ebp+28]
	fldz
	fstp	DWORD PTR _res$[ebp+44]
	fld1
	fstp	DWORD PTR _res$[ebp+60]

; 822  :   return res;

	lea	eax, DWORD PTR _res$[ebp]
	push	eax
	mov	ecx, DWORD PTR ___$ReturnUdt$[ebp]
	call	??0pecker_matrix4@pecker_sdk@@QAE@ABU01@@Z ; pecker_sdk::pecker_matrix4::pecker_matrix4
	mov	eax, DWORD PTR ___$ReturnUdt$[ebp]

; 823  : }

	push	edx
	mov	ecx, ebp
	push	eax
	lea	edx, DWORD PTR $LN5@rotationY@2
	call	@_RTC_CheckStackVars@8
	pop	eax
	pop	edx
	pop	edi
	pop	esi
	pop	ebx
	mov	ecx, DWORD PTR __$ArrayPad$[ebp]
	xor	ecx, ebp
	call	@__security_check_cookie@4
	add	esp, 292				; 00000124H
	cmp	ebp, esp
	call	__RTC_CheckEsp
	mov	esp, ebp
	pop	ebp
	ret	0
$LN5@rotationY@2:
	DD	1
	DD	$LN4@rotationY@2
$LN4@rotationY@2:
	DD	-72					; ffffffb8H
	DD	64					; 00000040H
	DD	$LN3@rotationY@2
$LN3@rotationY@2:
	DB	114					; 00000072H
	DB	101					; 00000065H
	DB	115					; 00000073H
	DB	0
?rotationY@pecker_matrix4@pecker_sdk@@SA?AU12@M@Z ENDP	; pecker_sdk::pecker_matrix4::rotationY
_TEXT	ENDS
PUBLIC	__$ArrayPad$
PUBLIC	?rotationZ@pecker_matrix4@pecker_sdk@@SA?AU12@M@Z ; pecker_sdk::pecker_matrix4::rotationZ
; Function compile flags: /Odtp /RTCsu /ZI
;	COMDAT ?rotationZ@pecker_matrix4@pecker_sdk@@SA?AU12@M@Z
_TEXT	SEGMENT
_fSine$ = -96						; size = 4
_fCosine$ = -84						; size = 4
_res$ = -72						; size = 64
__$ArrayPad$ = -4					; size = 4
___$ReturnUdt$ = 8					; size = 4
_fAngle$ = 12						; size = 4
?rotationZ@pecker_matrix4@pecker_sdk@@SA?AU12@M@Z PROC	; pecker_sdk::pecker_matrix4::rotationZ, COMDAT

; 825  : {

	push	ebp
	mov	ebp, esp
	sub	esp, 292				; 00000124H
	push	ebx
	push	esi
	push	edi
	lea	edi, DWORD PTR [ebp-292]
	mov	ecx, 73					; 00000049H
	mov	eax, -858993460				; ccccccccH
	rep stosd
	mov	eax, DWORD PTR ___security_cookie
	xor	eax, ebp
	mov	DWORD PTR __$ArrayPad$[ebp], eax

; 826  :   pecker_matrix4 res;

	lea	ecx, DWORD PTR _res$[ebp]
	call	??0pecker_matrix4@pecker_sdk@@QAE@XZ	; pecker_sdk::pecker_matrix4::pecker_matrix4

; 827  :   Float fCosine, fSine;
; 828  : 
; 829  :   /* Precompute cos and sin */
; 830  : #if defined(GRAPHIC_DEVICE_DX9) || defined(GRAPHIC_DEVICE_DX10) || defined(GRAPHIC_DEVICE_DX11) || defined(GRAPHIC_DEVICE_DX12)
; 831  :   fCosine = (Float)cos((Double)(-fAngle));
; 832  :   fSine = (Float)sin((Double)(-fAngle));
; 833  : #else
; 834  :   fCosine = (Float)cos((Double)(fAngle));

	fld	DWORD PTR _fAngle$[ebp]
	sub	esp, 8
	fstp	QWORD PTR [esp]
	call	_cos
	add	esp, 8
	fstp	DWORD PTR _fCosine$[ebp]

; 835  :   fSine = (Float)sin((Double)(fAngle));

	fld	DWORD PTR _fAngle$[ebp]
	sub	esp, 8
	fstp	QWORD PTR [esp]
	call	_sin
	add	esp, 8
	fstp	DWORD PTR _fSine$[ebp]

; 836  : #endif
; 837  :   /* Create the trigonometric matrix corresponding to Z rotation */
; 838  :   res.m_Mat[M4_00]=fCosine; res.m_Mat[M4_10]=fSine;   res.m_Mat[M4_20]=0.0f; res.m_Mat[M4_30]=0.0f;

	fld	DWORD PTR _fCosine$[ebp]
	fstp	DWORD PTR _res$[ebp]
	fld	DWORD PTR _fSine$[ebp]
	fstp	DWORD PTR _res$[ebp+16]
	fldz
	fstp	DWORD PTR _res$[ebp+32]
	fldz
	fstp	DWORD PTR _res$[ebp+48]

; 839  :   res.m_Mat[M4_01]=-fSine;  res.m_Mat[M4_11]=fCosine; res.m_Mat[M4_21]=0.0f; res.m_Mat[M4_31]=0.0f;

	fld	DWORD PTR _fSine$[ebp]
	fchs
	fstp	DWORD PTR _res$[ebp+4]
	fld	DWORD PTR _fCosine$[ebp]
	fstp	DWORD PTR _res$[ebp+20]
	fldz
	fstp	DWORD PTR _res$[ebp+36]
	fldz
	fstp	DWORD PTR _res$[ebp+52]

; 840  :   res.m_Mat[M4_02]=0.0f;    res.m_Mat[M4_12]=0.0f;    res.m_Mat[M4_22]=1.0f; res.m_Mat[M4_31]=0.0f;

	fldz
	fstp	DWORD PTR _res$[ebp+8]
	fldz
	fstp	DWORD PTR _res$[ebp+24]
	fld1
	fstp	DWORD PTR _res$[ebp+40]
	fldz
	fstp	DWORD PTR _res$[ebp+52]

; 841  :   res.m_Mat[M4_03]=0.0f;    res.m_Mat[M4_13]=0.0f;    res.m_Mat[M4_23]=0.0f; res.m_Mat[M4_33]=1.0f;

	fldz
	fstp	DWORD PTR _res$[ebp+12]
	fldz
	fstp	DWORD PTR _res$[ebp+28]
	fldz
	fstp	DWORD PTR _res$[ebp+44]
	fld1
	fstp	DWORD PTR _res$[ebp+60]

; 842  : 
; 843  :   return res;

	lea	eax, DWORD PTR _res$[ebp]
	push	eax
	mov	ecx, DWORD PTR ___$ReturnUdt$[ebp]
	call	??0pecker_matrix4@pecker_sdk@@QAE@ABU01@@Z ; pecker_sdk::pecker_matrix4::pecker_matrix4
	mov	eax, DWORD PTR ___$ReturnUdt$[ebp]

; 844  : }

	push	edx
	mov	ecx, ebp
	push	eax
	lea	edx, DWORD PTR $LN5@rotationZ@2
	call	@_RTC_CheckStackVars@8
	pop	eax
	pop	edx
	pop	edi
	pop	esi
	pop	ebx
	mov	ecx, DWORD PTR __$ArrayPad$[ebp]
	xor	ecx, ebp
	call	@__security_check_cookie@4
	add	esp, 292				; 00000124H
	cmp	ebp, esp
	call	__RTC_CheckEsp
	mov	esp, ebp
	pop	ebp
	ret	0
$LN5@rotationZ@2:
	DD	1
	DD	$LN4@rotationZ@2
$LN4@rotationZ@2:
	DD	-72					; ffffffb8H
	DD	64					; 00000040H
	DD	$LN3@rotationZ@2
$LN3@rotationZ@2:
	DB	114					; 00000072H
	DB	101					; 00000065H
	DB	115					; 00000073H
	DB	0
?rotationZ@pecker_matrix4@pecker_sdk@@SA?AU12@M@Z ENDP	; pecker_sdk::pecker_matrix4::rotationZ
_TEXT	ENDS
PUBLIC	?scale@pecker_matrix4@pecker_sdk@@SA?AU12@MMM@Z	; pecker_sdk::pecker_matrix4::scale
; Function compile flags: /Odtp /RTCsu /ZI
;	COMDAT ?scale@pecker_matrix4@pecker_sdk@@SA?AU12@MMM@Z
_TEXT	SEGMENT
___$ReturnUdt$ = 8					; size = 4
_fx$ = 12						; size = 4
_fy$ = 16						; size = 4
_fz$ = 20						; size = 4
?scale@pecker_matrix4@pecker_sdk@@SA?AU12@MMM@Z PROC	; pecker_sdk::pecker_matrix4::scale, COMDAT

; 847  : {

	push	ebp
	mov	ebp, esp
	sub	esp, 192				; 000000c0H
	push	ebx
	push	esi
	push	edi
	lea	edi, DWORD PTR [ebp-192]
	mov	ecx, 48					; 00000030H
	mov	eax, -858993460				; ccccccccH
	rep stosd

; 848  :   return pecker_matrix4( fx ,0.0f,0.0f,0.0f,
; 849  :                   0.0f, fy ,0.0f,0.0f,
; 850  :                   0.0f,0.0f, fz ,0.0f,
; 851  :                   0.0f,0.0f,0.0f,1.0f);

	push	ecx
	fld1
	fstp	DWORD PTR [esp]
	push	ecx
	fldz
	fstp	DWORD PTR [esp]
	push	ecx
	fldz
	fstp	DWORD PTR [esp]
	push	ecx
	fldz
	fstp	DWORD PTR [esp]
	push	ecx
	fldz
	fstp	DWORD PTR [esp]
	push	ecx
	fld	DWORD PTR _fz$[ebp]
	fstp	DWORD PTR [esp]
	push	ecx
	fldz
	fstp	DWORD PTR [esp]
	push	ecx
	fldz
	fstp	DWORD PTR [esp]
	push	ecx
	fldz
	fstp	DWORD PTR [esp]
	push	ecx
	fldz
	fstp	DWORD PTR [esp]
	push	ecx
	fld	DWORD PTR _fy$[ebp]
	fstp	DWORD PTR [esp]
	push	ecx
	fldz
	fstp	DWORD PTR [esp]
	push	ecx
	fldz
	fstp	DWORD PTR [esp]
	push	ecx
	fldz
	fstp	DWORD PTR [esp]
	push	ecx
	fldz
	fstp	DWORD PTR [esp]
	push	ecx
	fld	DWORD PTR _fx$[ebp]
	fstp	DWORD PTR [esp]
	mov	ecx, DWORD PTR ___$ReturnUdt$[ebp]
	call	??0pecker_matrix4@pecker_sdk@@QAE@MMMMMMMMMMMMMMMM@Z ; pecker_sdk::pecker_matrix4::pecker_matrix4
	mov	eax, DWORD PTR ___$ReturnUdt$[ebp]

; 852  : }

	pop	edi
	pop	esi
	pop	ebx
	add	esp, 192				; 000000c0H
	cmp	ebp, esp
	call	__RTC_CheckEsp
	mov	esp, ebp
	pop	ebp
	ret	0
?scale@pecker_matrix4@pecker_sdk@@SA?AU12@MMM@Z ENDP	; pecker_sdk::pecker_matrix4::scale
_TEXT	ENDS
PUBLIC	?translation@pecker_matrix4@pecker_sdk@@SA?AU12@MMM@Z ; pecker_sdk::pecker_matrix4::translation
; Function compile flags: /Odtp /RTCsu /ZI
;	COMDAT ?translation@pecker_matrix4@pecker_sdk@@SA?AU12@MMM@Z
_TEXT	SEGMENT
___$ReturnUdt$ = 8					; size = 4
_fx$ = 12						; size = 4
_fy$ = 16						; size = 4
_fz$ = 20						; size = 4
?translation@pecker_matrix4@pecker_sdk@@SA?AU12@MMM@Z PROC ; pecker_sdk::pecker_matrix4::translation, COMDAT

; 854  : {

	push	ebp
	mov	ebp, esp
	sub	esp, 192				; 000000c0H
	push	ebx
	push	esi
	push	edi
	lea	edi, DWORD PTR [ebp-192]
	mov	ecx, 48					; 00000030H
	mov	eax, -858993460				; ccccccccH
	rep stosd

; 855  : //  return CMatrix4(1.0f,0.0f,0.0f, fx ,
; 856  : //                  0.0f,1.0f,0.0f, fy ,
; 857  : //                  0.0f,0.0f,1.0f, fz ,
; 858  : //                  0.0f,0.0f,0.0f,1.0f);
; 859  :     return pecker_matrix4(1.0f,0.0f,0.0f,0.0f,
; 860  :                     0.0f,1.0f,0.0f,0.0f,
; 861  :                     0.0f,0.0f,1.0f,0.0f ,
; 862  :                      fx , fy , fz ,1.0f);

	push	ecx
	fld1
	fstp	DWORD PTR [esp]
	push	ecx
	fld	DWORD PTR _fz$[ebp]
	fstp	DWORD PTR [esp]
	push	ecx
	fld	DWORD PTR _fy$[ebp]
	fstp	DWORD PTR [esp]
	push	ecx
	fld	DWORD PTR _fx$[ebp]
	fstp	DWORD PTR [esp]
	push	ecx
	fldz
	fstp	DWORD PTR [esp]
	push	ecx
	fld1
	fstp	DWORD PTR [esp]
	push	ecx
	fldz
	fstp	DWORD PTR [esp]
	push	ecx
	fldz
	fstp	DWORD PTR [esp]
	push	ecx
	fldz
	fstp	DWORD PTR [esp]
	push	ecx
	fldz
	fstp	DWORD PTR [esp]
	push	ecx
	fld1
	fstp	DWORD PTR [esp]
	push	ecx
	fldz
	fstp	DWORD PTR [esp]
	push	ecx
	fldz
	fstp	DWORD PTR [esp]
	push	ecx
	fldz
	fstp	DWORD PTR [esp]
	push	ecx
	fldz
	fstp	DWORD PTR [esp]
	push	ecx
	fld1
	fstp	DWORD PTR [esp]
	mov	ecx, DWORD PTR ___$ReturnUdt$[ebp]
	call	??0pecker_matrix4@pecker_sdk@@QAE@MMMMMMMMMMMMMMMM@Z ; pecker_sdk::pecker_matrix4::pecker_matrix4
	mov	eax, DWORD PTR ___$ReturnUdt$[ebp]

; 863  : }

	pop	edi
	pop	esi
	pop	ebx
	add	esp, 192				; 000000c0H
	cmp	ebp, esp
	call	__RTC_CheckEsp
	mov	esp, ebp
	pop	ebp
	ret	0
?translation@pecker_matrix4@pecker_sdk@@SA?AU12@MMM@Z ENDP ; pecker_sdk::pecker_matrix4::translation
_TEXT	ENDS
PUBLIC	??Gpecker_sdk@@YA?AUpecker_vector3@0@ABU10@@Z	; pecker_sdk::operator-
PUBLIC	__$ArrayPad$
PUBLIC	?look_at@pecker_matrix4@pecker_sdk@@SA?AU12@ABUpecker_vector3@2@00_N@Z ; pecker_sdk::pecker_matrix4::look_at
EXTRN	?cross@pecker_vector3@pecker_sdk@@QBE?AU12@ABU12@@Z:PROC ; pecker_sdk::pecker_vector3::cross
EXTRN	?normalized@pecker_vector3@pecker_sdk@@QBE?AU12@XZ:PROC ; pecker_sdk::pecker_vector3::normalized
EXTRN	?normalize@pecker_vector3@pecker_sdk@@QAE?AU12@XZ:PROC ; pecker_sdk::pecker_vector3::normalize
EXTRN	??0pecker_vector3@pecker_sdk@@QAE@ABU01@@Z:PROC	; pecker_sdk::pecker_vector3::pecker_vector3
EXTRN	??Gpecker_vector3@pecker_sdk@@QBE?AU01@ABU01@@Z:PROC ; pecker_sdk::pecker_vector3::operator-
; Function compile flags: /Odtp /RTCsu /ZI
;	COMDAT ?look_at@pecker_matrix4@pecker_sdk@@SA?AU12@ABUpecker_vector3@2@00_N@Z
_TEXT	SEGMENT
tv77 = -444						; size = 4
$T69022 = -436						; size = 4
$T69023 = -424						; size = 12
$T69024 = -404						; size = 12
$T69027 = -384						; size = 12
$T69028 = -364						; size = 12
$T69029 = -344						; size = 12
_vSide$ = -132						; size = 12
_vUpNorm$ = -112					; size = 12
_vForward$ = -92					; size = 12
_result$ = -72						; size = 64
__$ArrayPad$ = -4					; size = 4
___$ReturnUdt$ = 8					; size = 4
_vEye$ = 12						; size = 4
_vAt$ = 16						; size = 4
_vUp$ = 20						; size = 4
_bRightHanded$ = 24					; size = 1
?look_at@pecker_matrix4@pecker_sdk@@SA?AU12@ABUpecker_vector3@2@00_N@Z PROC ; pecker_sdk::pecker_matrix4::look_at, COMDAT

; 866  : {

	push	ebp
	mov	ebp, esp
	sub	esp, 444				; 000001bcH
	push	ebx
	push	esi
	push	edi
	lea	edi, DWORD PTR [ebp-444]
	mov	ecx, 111				; 0000006fH
	mov	eax, -858993460				; ccccccccH
	rep stosd
	mov	eax, DWORD PTR ___security_cookie
	xor	eax, ebp
	mov	DWORD PTR __$ArrayPad$[ebp], eax

; 867  :   pecker_matrix4 result;

	lea	ecx, DWORD PTR _result$[ebp]
	call	??0pecker_matrix4@pecker_sdk@@QAE@XZ	; pecker_sdk::pecker_matrix4::pecker_matrix4

; 868  : 
; 869  :   pecker_vector3 vForward = ( (bRightHanded) ? (vEye - vAt) : (vAt - vEye) );

	movzx	eax, BYTE PTR _bRightHanded$[ebp]
	test	eax, eax
	je	SHORT $LN3@look_at
	mov	ecx, DWORD PTR _vAt$[ebp]
	push	ecx
	lea	edx, DWORD PTR $T69023[ebp]
	push	edx
	mov	ecx, DWORD PTR _vEye$[ebp]
	call	??Gpecker_vector3@pecker_sdk@@QBE?AU01@ABU01@@Z ; pecker_sdk::pecker_vector3::operator-
	mov	DWORD PTR tv77[ebp], eax
	jmp	SHORT $LN4@look_at
$LN3@look_at:
	mov	eax, DWORD PTR _vEye$[ebp]
	push	eax
	lea	ecx, DWORD PTR $T69024[ebp]
	push	ecx
	mov	ecx, DWORD PTR _vAt$[ebp]
	call	??Gpecker_vector3@pecker_sdk@@QBE?AU01@ABU01@@Z ; pecker_sdk::pecker_vector3::operator-
	mov	DWORD PTR tv77[ebp], eax
$LN4@look_at:
	mov	edx, DWORD PTR tv77[ebp]
	mov	DWORD PTR $T69022[ebp], edx
	mov	eax, DWORD PTR $T69022[ebp]
	push	eax
	lea	ecx, DWORD PTR _vForward$[ebp]
	call	??0pecker_vector3@pecker_sdk@@QAE@ABU01@@Z ; pecker_sdk::pecker_vector3::pecker_vector3

; 870  :   vForward.normalize();

	lea	eax, DWORD PTR $T69027[ebp]
	push	eax
	lea	ecx, DWORD PTR _vForward$[ebp]
	call	?normalize@pecker_vector3@pecker_sdk@@QAE?AU12@XZ ; pecker_sdk::pecker_vector3::normalize

; 871  : 
; 872  :   pecker_vector3 vUpNorm = vUp.normalized();

	lea	eax, DWORD PTR _vUpNorm$[ebp]
	push	eax
	mov	ecx, DWORD PTR _vUp$[ebp]
	call	?normalized@pecker_vector3@pecker_sdk@@QBE?AU12@XZ ; pecker_sdk::pecker_vector3::normalized

; 873  :   pecker_vector3 vSide   = vUpNorm.cross(vForward);

	lea	eax, DWORD PTR _vForward$[ebp]
	push	eax
	lea	ecx, DWORD PTR _vSide$[ebp]
	push	ecx
	lea	ecx, DWORD PTR _vUpNorm$[ebp]
	call	?cross@pecker_vector3@pecker_sdk@@QBE?AU12@ABU12@@Z ; pecker_sdk::pecker_vector3::cross

; 874  :   vUpNorm = vForward.cross(vSide);

	lea	eax, DWORD PTR _vSide$[ebp]
	push	eax
	lea	ecx, DWORD PTR $T69028[ebp]
	push	ecx
	lea	ecx, DWORD PTR _vForward$[ebp]
	call	?cross@pecker_vector3@pecker_sdk@@QBE?AU12@ABU12@@Z ; pecker_sdk::pecker_vector3::cross
	mov	edx, DWORD PTR [eax]
	mov	DWORD PTR _vUpNorm$[ebp], edx
	mov	ecx, DWORD PTR [eax+4]
	mov	DWORD PTR _vUpNorm$[ebp+4], ecx
	mov	edx, DWORD PTR [eax+8]
	mov	DWORD PTR _vUpNorm$[ebp+8], edx

; 875  : 
; 876  :   result.m_Mat[M4_00]=vSide.x;    result.m_Mat[M4_10]=vSide.y;    result.m_Mat[M4_20]=vSide.z;            result.m_Mat[ M4_30]=0.0f;

	fld	DWORD PTR _vSide$[ebp]
	fstp	DWORD PTR _result$[ebp]
	fld	DWORD PTR _vSide$[ebp+4]
	fstp	DWORD PTR _result$[ebp+16]
	fld	DWORD PTR _vSide$[ebp+8]
	fstp	DWORD PTR _result$[ebp+32]
	fldz
	fstp	DWORD PTR _result$[ebp+48]

; 877  :   result.m_Mat[M4_01]=vUpNorm.x;  result.m_Mat[M4_11]=vUpNorm.y;  result.m_Mat[M4_21]=vUpNorm.z;          result.m_Mat[M4_31]=0.0f;

	fld	DWORD PTR _vUpNorm$[ebp]
	fstp	DWORD PTR _result$[ebp+4]
	fld	DWORD PTR _vUpNorm$[ebp+4]
	fstp	DWORD PTR _result$[ebp+20]
	fld	DWORD PTR _vUpNorm$[ebp+8]
	fstp	DWORD PTR _result$[ebp+36]
	fldz
	fstp	DWORD PTR _result$[ebp+52]

; 878  :   result.m_Mat[M4_02]=vForward.x; result.m_Mat[M4_12]=vForward.y; result.m_Mat[M4_22]=vForward.z;        result.m_Mat[M4_32]=0.0f;

	fld	DWORD PTR _vForward$[ebp]
	fstp	DWORD PTR _result$[ebp+8]
	fld	DWORD PTR _vForward$[ebp+4]
	fstp	DWORD PTR _result$[ebp+24]
	fld	DWORD PTR _vForward$[ebp+8]
	fstp	DWORD PTR _result$[ebp+40]
	fldz
	fstp	DWORD PTR _result$[ebp+56]

; 879  :   result.m_Mat[M4_03]=0.0f;       result.m_Mat[M4_13]=0.0f;       result.m_Mat[M4_23]=0.0f;              result.m_Mat[M4_33]=1.0f;

	fldz
	fstp	DWORD PTR _result$[ebp+12]
	fldz
	fstp	DWORD PTR _result$[ebp+28]
	fldz
	fstp	DWORD PTR _result$[ebp+44]
	fld1
	fstp	DWORD PTR _result$[ebp+60]

; 880  : 
; 881  :   result.post_translate(-vEye);

	mov	eax, DWORD PTR _vEye$[ebp]
	push	eax
	lea	ecx, DWORD PTR $T69029[ebp]
	push	ecx
	call	??Gpecker_sdk@@YA?AUpecker_vector3@0@ABU10@@Z ; pecker_sdk::operator-
	add	esp, 8
	push	eax
	lea	ecx, DWORD PTR _result$[ebp]
	call	?post_translate@pecker_matrix4@pecker_sdk@@QAEAAU12@ABUpecker_vector3@2@@Z ; pecker_sdk::pecker_matrix4::post_translate

; 882  :   return result;

	lea	eax, DWORD PTR _result$[ebp]
	push	eax
	mov	ecx, DWORD PTR ___$ReturnUdt$[ebp]
	call	??0pecker_matrix4@pecker_sdk@@QAE@ABU01@@Z ; pecker_sdk::pecker_matrix4::pecker_matrix4
	mov	eax, DWORD PTR ___$ReturnUdt$[ebp]

; 883  : }

	push	edx
	mov	ecx, ebp
	push	eax
	lea	edx, DWORD PTR $LN10@look_at
	call	@_RTC_CheckStackVars@8
	pop	eax
	pop	edx
	pop	edi
	pop	esi
	pop	ebx
	mov	ecx, DWORD PTR __$ArrayPad$[ebp]
	xor	ecx, ebp
	call	@__security_check_cookie@4
	add	esp, 444				; 000001bcH
	cmp	ebp, esp
	call	__RTC_CheckEsp
	mov	esp, ebp
	pop	ebp
	ret	0
	npad	2
$LN10@look_at:
	DD	4
	DD	$LN9@look_at
$LN9@look_at:
	DD	-72					; ffffffb8H
	DD	64					; 00000040H
	DD	$LN5@look_at
	DD	-92					; ffffffa4H
	DD	12					; 0000000cH
	DD	$LN6@look_at
	DD	-112					; ffffff90H
	DD	12					; 0000000cH
	DD	$LN7@look_at
	DD	-132					; ffffff7cH
	DD	12					; 0000000cH
	DD	$LN8@look_at
$LN8@look_at:
	DB	118					; 00000076H
	DB	83					; 00000053H
	DB	105					; 00000069H
	DB	100					; 00000064H
	DB	101					; 00000065H
	DB	0
$LN7@look_at:
	DB	118					; 00000076H
	DB	85					; 00000055H
	DB	112					; 00000070H
	DB	78					; 0000004eH
	DB	111					; 0000006fH
	DB	114					; 00000072H
	DB	109					; 0000006dH
	DB	0
$LN6@look_at:
	DB	118					; 00000076H
	DB	70					; 00000046H
	DB	111					; 0000006fH
	DB	114					; 00000072H
	DB	119					; 00000077H
	DB	97					; 00000061H
	DB	114					; 00000072H
	DB	100					; 00000064H
	DB	0
$LN5@look_at:
	DB	114					; 00000072H
	DB	101					; 00000065H
	DB	115					; 00000073H
	DB	117					; 00000075H
	DB	108					; 0000006cH
	DB	116					; 00000074H
	DB	0
?look_at@pecker_matrix4@pecker_sdk@@SA?AU12@ABUpecker_vector3@2@00_N@Z ENDP ; pecker_sdk::pecker_matrix4::look_at
_TEXT	ENDS
EXTRN	??0pecker_vector3@pecker_sdk@@QAE@MMM@Z:PROC	; pecker_sdk::pecker_vector3::pecker_vector3
; Function compile flags: /Odtp /RTCsu /ZI
; File f:\codes\pecker_framework_git\pecker_src\pecker_framework\data\pecker_vector.h
;	COMDAT ??Gpecker_sdk@@YA?AUpecker_vector3@0@ABU10@@Z
_TEXT	SEGMENT
___$ReturnUdt$ = 8					; size = 4
_rhs$ = 12						; size = 4
??Gpecker_sdk@@YA?AUpecker_vector3@0@ABU10@@Z PROC	; pecker_sdk::operator-, COMDAT

; 104  :   friend pecker_vector3 operator- (const pecker_vector3& rhs){ return pecker_vector3(-rhs.x, -rhs.y, -rhs.z);}

	push	ebp
	mov	ebp, esp
	sub	esp, 192				; 000000c0H
	push	ebx
	push	esi
	push	edi
	lea	edi, DWORD PTR [ebp-192]
	mov	ecx, 48					; 00000030H
	mov	eax, -858993460				; ccccccccH
	rep stosd
	mov	eax, DWORD PTR _rhs$[ebp]
	fld	DWORD PTR [eax+8]
	fchs
	push	ecx
	fstp	DWORD PTR [esp]
	mov	ecx, DWORD PTR _rhs$[ebp]
	fld	DWORD PTR [ecx+4]
	fchs
	push	ecx
	fstp	DWORD PTR [esp]
	mov	edx, DWORD PTR _rhs$[ebp]
	fld	DWORD PTR [edx]
	fchs
	push	ecx
	fstp	DWORD PTR [esp]
	mov	ecx, DWORD PTR ___$ReturnUdt$[ebp]
	call	??0pecker_vector3@pecker_sdk@@QAE@MMM@Z	; pecker_sdk::pecker_vector3::pecker_vector3
	mov	eax, DWORD PTR ___$ReturnUdt$[ebp]
	pop	edi
	pop	esi
	pop	ebx
	add	esp, 192				; 000000c0H
	cmp	ebp, esp
	call	__RTC_CheckEsp
	mov	esp, ebp
	pop	ebp
	ret	0
??Gpecker_sdk@@YA?AUpecker_vector3@0@ABU10@@Z ENDP	; pecker_sdk::operator-
_TEXT	ENDS
PUBLIC	?look_at_RH@pecker_matrix4@pecker_sdk@@SA?AU12@ABUpecker_vector3@2@00@Z ; pecker_sdk::pecker_matrix4::look_at_RH
; Function compile flags: /Odtp /RTCsu /ZI
; File f:\codes\pecker_framework_git\pecker_src\pecker_framework\data\pecker_matrix.cpp
;	COMDAT ?look_at_RH@pecker_matrix4@pecker_sdk@@SA?AU12@ABUpecker_vector3@2@00@Z
_TEXT	SEGMENT
___$ReturnUdt$ = 8					; size = 4
_vEye$ = 12						; size = 4
_vAt$ = 16						; size = 4
_vUp$ = 20						; size = 4
?look_at_RH@pecker_matrix4@pecker_sdk@@SA?AU12@ABUpecker_vector3@2@00@Z PROC ; pecker_sdk::pecker_matrix4::look_at_RH, COMDAT

; 888  : {

	push	ebp
	mov	ebp, esp
	sub	esp, 192				; 000000c0H
	push	ebx
	push	esi
	push	edi
	lea	edi, DWORD PTR [ebp-192]
	mov	ecx, 48					; 00000030H
	mov	eax, -858993460				; ccccccccH
	rep stosd

; 889  :   return  look_at(vEye,vAt,vUp,true);

	push	1
	mov	eax, DWORD PTR _vUp$[ebp]
	push	eax
	mov	ecx, DWORD PTR _vAt$[ebp]
	push	ecx
	mov	edx, DWORD PTR _vEye$[ebp]
	push	edx
	mov	eax, DWORD PTR ___$ReturnUdt$[ebp]
	push	eax
	call	?look_at@pecker_matrix4@pecker_sdk@@SA?AU12@ABUpecker_vector3@2@00_N@Z ; pecker_sdk::pecker_matrix4::look_at
	add	esp, 20					; 00000014H
	mov	eax, DWORD PTR ___$ReturnUdt$[ebp]

; 890  : }

	pop	edi
	pop	esi
	pop	ebx
	add	esp, 192				; 000000c0H
	cmp	ebp, esp
	call	__RTC_CheckEsp
	mov	esp, ebp
	pop	ebp
	ret	0
?look_at_RH@pecker_matrix4@pecker_sdk@@SA?AU12@ABUpecker_vector3@2@00@Z ENDP ; pecker_sdk::pecker_matrix4::look_at_RH
_TEXT	ENDS
PUBLIC	?look_at_LH@pecker_matrix4@pecker_sdk@@SA?AU12@ABUpecker_vector3@2@00@Z ; pecker_sdk::pecker_matrix4::look_at_LH
; Function compile flags: /Odtp /RTCsu /ZI
;	COMDAT ?look_at_LH@pecker_matrix4@pecker_sdk@@SA?AU12@ABUpecker_vector3@2@00@Z
_TEXT	SEGMENT
___$ReturnUdt$ = 8					; size = 4
_vEye$ = 12						; size = 4
_vAt$ = 16						; size = 4
_vUp$ = 20						; size = 4
?look_at_LH@pecker_matrix4@pecker_sdk@@SA?AU12@ABUpecker_vector3@2@00@Z PROC ; pecker_sdk::pecker_matrix4::look_at_LH, COMDAT

; 894  : {

	push	ebp
	mov	ebp, esp
	sub	esp, 192				; 000000c0H
	push	ebx
	push	esi
	push	edi
	lea	edi, DWORD PTR [ebp-192]
	mov	ecx, 48					; 00000030H
	mov	eax, -858993460				; ccccccccH
	rep stosd

; 895  :   return  look_at(vEye,vAt,vUp,false);

	push	0
	mov	eax, DWORD PTR _vUp$[ebp]
	push	eax
	mov	ecx, DWORD PTR _vAt$[ebp]
	push	ecx
	mov	edx, DWORD PTR _vEye$[ebp]
	push	edx
	mov	eax, DWORD PTR ___$ReturnUdt$[ebp]
	push	eax
	call	?look_at@pecker_matrix4@pecker_sdk@@SA?AU12@ABUpecker_vector3@2@00_N@Z ; pecker_sdk::pecker_matrix4::look_at
	add	esp, 20					; 00000014H
	mov	eax, DWORD PTR ___$ReturnUdt$[ebp]

; 896  : }

	pop	edi
	pop	esi
	pop	ebx
	add	esp, 192				; 000000c0H
	cmp	ebp, esp
	call	__RTC_CheckEsp
	mov	esp, ebp
	pop	ebp
	ret	0
?look_at_LH@pecker_matrix4@pecker_sdk@@SA?AU12@ABUpecker_vector3@2@00@Z ENDP ; pecker_sdk::pecker_matrix4::look_at_LH
_TEXT	ENDS
PUBLIC	__real@c000000000000000
PUBLIC	__real@4000000000000000
PUBLIC	??_C@_0EJ@KGPDPCOC@params?5invail?$CB?5left?5?9?5right?5or?5b@ ; `string'
PUBLIC	??_C@_0BF@JHDOKHIA@CMatrix4?3?3orthogonal?$AA@	; `string'
PUBLIC	__$ArrayPad$
PUBLIC	?orthogonal@pecker_matrix4@pecker_sdk@@SA?AU12@MMMMMM_N@Z ; pecker_sdk::pecker_matrix4::orthogonal
;	COMDAT __real@c000000000000000
CONST	SEGMENT
__real@c000000000000000 DQ 0c000000000000000r	; -2
CONST	ENDS
;	COMDAT __real@4000000000000000
CONST	SEGMENT
__real@4000000000000000 DQ 04000000000000000r	; 2
CONST	ENDS
;	COMDAT ??_C@_0EJ@KGPDPCOC@params?5invail?$CB?5left?5?9?5right?5or?5b@
CONST	SEGMENT
??_C@_0EJ@KGPDPCOC@params?5invail?$CB?5left?5?9?5right?5or?5b@ DB 'params'
	DB	' invail! left - right or bottom - top or nearPlane - farPlane'
	DB	' == 0', 00H					; `string'
CONST	ENDS
;	COMDAT ??_C@_0BF@JHDOKHIA@CMatrix4?3?3orthogonal?$AA@
CONST	SEGMENT
??_C@_0BF@JHDOKHIA@CMatrix4?3?3orthogonal?$AA@ DB 'CMatrix4::orthogonal', 00H ; `string'
; Function compile flags: /Odtp /RTCsu /ZI
CONST	ENDS
;	COMDAT ?orthogonal@pecker_matrix4@pecker_sdk@@SA?AU12@MMMMMM_N@Z
_TEXT	SEGMENT
tv94 = -305						; size = 1
tv87 = -305						; size = 1
tv80 = -305						; size = 1
_result$ = -108						; size = 64
_rcpnmf$ = -36						; size = 4
_rcpbmt$ = -24						; size = 4
_rcplmr$ = -12						; size = 4
__$ArrayPad$ = -4					; size = 4
___$ReturnUdt$ = 8					; size = 4
_left$ = 12						; size = 4
_top$ = 16						; size = 4
_right$ = 20						; size = 4
_bottom$ = 24						; size = 4
_nearPlane$ = 28					; size = 4
_farPlane$ = 32						; size = 4
_brotate$ = 36						; size = 1
?orthogonal@pecker_matrix4@pecker_sdk@@SA?AU12@MMMMMM_N@Z PROC ; pecker_sdk::pecker_matrix4::orthogonal, COMDAT

; 902  : {

	push	ebp
	mov	ebp, esp
	sub	esp, 308				; 00000134H
	push	ebx
	push	esi
	push	edi
	lea	edi, DWORD PTR [ebp-308]
	mov	ecx, 77					; 0000004dH
	mov	eax, -858993460				; ccccccccH
	rep stosd
	mov	eax, DWORD PTR ___security_cookie
	xor	eax, ebp
	mov	DWORD PTR __$ArrayPad$[ebp], eax

; 903  : 
; 904  :   Float rcplmr = left - right;

	fld	DWORD PTR _left$[ebp]
	fsub	DWORD PTR _right$[ebp]
	fstp	DWORD PTR _rcplmr$[ebp]

; 905  :   Float rcpbmt = bottom - top;

	fld	DWORD PTR _bottom$[ebp]
	fsub	DWORD PTR _top$[ebp]
	fstp	DWORD PTR _rcpbmt$[ebp]

; 906  :   Float rcpnmf = nearPlane - farPlane;

	fld	DWORD PTR _nearPlane$[ebp]
	fsub	DWORD PTR _farPlane$[ebp]
	fstp	DWORD PTR _rcpnmf$[ebp]

; 907  : 
; 908  :   if ( EQFLOATZERO(rcplmr) || EQFLOATZERO(rcpbmt) || EQFLOATZERO(rcpnmf))

	fld	DWORD PTR _rcplmr$[ebp]
	fcomp	QWORD PTR __real@3eb0c6f7a0000000
	fnstsw	ax
	test	ah, 65					; 00000041H
	jp	SHORT $LN7@orthogonal
	fld	DWORD PTR _rcplmr$[ebp]
	fcomp	QWORD PTR __real@beb0c6f7a0000000
	fnstsw	ax
	test	ah, 1
	jne	SHORT $LN7@orthogonal
	mov	BYTE PTR tv80[ebp], 1
	jmp	SHORT $LN8@orthogonal
$LN7@orthogonal:
	mov	BYTE PTR tv80[ebp], 0
$LN8@orthogonal:
	movzx	eax, BYTE PTR tv80[ebp]
	test	eax, eax
	jne	SHORT $LN3@orthogonal
	fld	DWORD PTR _rcpbmt$[ebp]
	fcomp	QWORD PTR __real@3eb0c6f7a0000000
	fnstsw	ax
	test	ah, 65					; 00000041H
	jp	SHORT $LN9@orthogonal
	fld	DWORD PTR _rcpbmt$[ebp]
	fcomp	QWORD PTR __real@beb0c6f7a0000000
	fnstsw	ax
	test	ah, 1
	jne	SHORT $LN9@orthogonal
	mov	BYTE PTR tv87[ebp], 1
	jmp	SHORT $LN10@orthogonal
$LN9@orthogonal:
	mov	BYTE PTR tv87[ebp], 0
$LN10@orthogonal:
	movzx	eax, BYTE PTR tv87[ebp]
	test	eax, eax
	jne	SHORT $LN3@orthogonal
	fld	DWORD PTR _rcpnmf$[ebp]
	fcomp	QWORD PTR __real@3eb0c6f7a0000000
	fnstsw	ax
	test	ah, 65					; 00000041H
	jp	SHORT $LN11@orthogonal
	fld	DWORD PTR _rcpnmf$[ebp]
	fcomp	QWORD PTR __real@beb0c6f7a0000000
	fnstsw	ax
	test	ah, 1
	jne	SHORT $LN11@orthogonal
	mov	BYTE PTR tv94[ebp], 1
	jmp	SHORT $LN12@orthogonal
$LN11@orthogonal:
	mov	BYTE PTR tv94[ebp], 0
$LN12@orthogonal:
	movzx	eax, BYTE PTR tv94[ebp]
	test	eax, eax
	je	$LN4@orthogonal
$LN3@orthogonal:

; 909  :   {
; 910  :     //CPeckerLogger::GetSignleton()->LogOut(LOGINFO_ERROR,"CMatrix4::orthogonal",
; 911  :     //    "params invail! left - right or bottom - top or nearPlane - farPlane == 0");
; 912  : 	  PECKER_LOG_ERR("CMatrix4::orthogonal",
; 913  : 		     "params invail! left - right or bottom - top or nearPlane - farPlane == 0",0);

	mov	esi, esp
	push	OFFSET ??_C@_0M@ONMFDOOB@ERROR_INFO?5?$AA@
	call	DWORD PTR __imp__printf
	add	esp, 4
	cmp	esi, esp
	call	__RTC_CheckEsp
	mov	esi, esp
	push	OFFSET ??_C@_0BF@JHDOKHIA@CMatrix4?3?3orthogonal?$AA@
	call	DWORD PTR __imp__printf
	add	esp, 4
	cmp	esi, esp
	call	__RTC_CheckEsp
	mov	esi, esp
	push	OFFSET ??_C@_01EEMJAFIK@?6?$AA@
	call	DWORD PTR __imp__printf
	add	esp, 4
	cmp	esi, esp
	call	__RTC_CheckEsp
	mov	esi, esp
	push	0
	push	OFFSET ??_C@_0EJ@KGPDPCOC@params?5invail?$CB?5left?5?9?5right?5or?5b@
	call	DWORD PTR __imp__printf
	add	esp, 8
	cmp	esi, esp
	call	__RTC_CheckEsp
	mov	esi, esp
	push	OFFSET ??_C@_01EEMJAFIK@?6?$AA@
	call	DWORD PTR __imp__printf
	add	esp, 4
	cmp	esi, esp
	call	__RTC_CheckEsp

; 914  :     return pecker_matrix4(0.0f);

	push	ecx
	fldz
	fstp	DWORD PTR [esp]
	mov	ecx, DWORD PTR ___$ReturnUdt$[ebp]
	call	??0pecker_matrix4@pecker_sdk@@QAE@M@Z	; pecker_sdk::pecker_matrix4::pecker_matrix4
	mov	eax, DWORD PTR ___$ReturnUdt$[ebp]
	jmp	$LN5@orthogonal
$LN4@orthogonal:

; 915  :   }
; 916  : 
; 917  :   rcplmr = 1.0f/rcplmr;

	fld	DWORD PTR _rcplmr$[ebp]
	fld1
	fdivrp	ST(1), ST(0)
	fstp	DWORD PTR _rcplmr$[ebp]

; 918  :   rcpbmt = 1.0f/rcpbmt;

	fld	DWORD PTR _rcpbmt$[ebp]
	fld1
	fdivrp	ST(1), ST(0)
	fstp	DWORD PTR _rcpbmt$[ebp]

; 919  :   rcpnmf = 1.0f/rcpnmf;

	fld	DWORD PTR _rcpnmf$[ebp]
	fld1
	fdivrp	ST(1), ST(0)
	fstp	DWORD PTR _rcpnmf$[ebp]

; 920  : 
; 921  :   pecker_matrix4 result;

	lea	ecx, DWORD PTR _result$[ebp]
	call	??0pecker_matrix4@pecker_sdk@@QAE@XZ	; pecker_sdk::pecker_matrix4::pecker_matrix4

; 922  : 
; 923  :     if (brotate)

	movzx	eax, BYTE PTR _brotate$[ebp]
	test	eax, eax
	je	SHORT $LN2@orthogonal

; 924  :     {
; 925  :         result.m_Mat[M4_00]= 0.0f;          result.m_Mat[M4_10]= 2.0f*rcplmr;   result.m_Mat[M4_20]=0.0f;  result.m_Mat[ M4_30]=-(right+left)*rcplmr;

	fldz
	fstp	DWORD PTR _result$[ebp]
	fld	DWORD PTR _rcplmr$[ebp]
	fmul	QWORD PTR __real@4000000000000000
	fstp	DWORD PTR _result$[ebp+16]
	fldz
	fstp	DWORD PTR _result$[ebp+32]
	fld	DWORD PTR _right$[ebp]
	fadd	DWORD PTR _left$[ebp]
	fchs
	fmul	DWORD PTR _rcplmr$[ebp]
	fstp	DWORD PTR _result$[ebp+48]

; 926  :         result.m_Mat[M4_01]= -2.0f*rcpbmt;  result.m_Mat[M4_11]= 0.0f;          result.m_Mat[M4_21]=0.0f;  result.m_Mat[M4_31]= (top+bottom)*rcpbmt;

	fld	DWORD PTR _rcpbmt$[ebp]
	fmul	QWORD PTR __real@c000000000000000
	fstp	DWORD PTR _result$[ebp+4]
	fldz
	fstp	DWORD PTR _result$[ebp+20]
	fldz
	fstp	DWORD PTR _result$[ebp+36]
	fld	DWORD PTR _top$[ebp]
	fadd	DWORD PTR _bottom$[ebp]
	fmul	DWORD PTR _rcpbmt$[ebp]
	fstp	DWORD PTR _result$[ebp+52]

; 927  :     }
; 928  :     else

	jmp	SHORT $LN1@orthogonal
$LN2@orthogonal:

; 929  :     {
; 930  :         result.m_Mat[M4_00]= -2.0f*rcplmr;  result.m_Mat[M4_10]= 0.0f;          result.m_Mat[M4_20]=0.0f;  result.m_Mat[ M4_30]= (right+left)*rcplmr;

	fld	DWORD PTR _rcplmr$[ebp]
	fmul	QWORD PTR __real@c000000000000000
	fstp	DWORD PTR _result$[ebp]
	fldz
	fstp	DWORD PTR _result$[ebp+16]
	fldz
	fstp	DWORD PTR _result$[ebp+32]
	fld	DWORD PTR _right$[ebp]
	fadd	DWORD PTR _left$[ebp]
	fmul	DWORD PTR _rcplmr$[ebp]
	fstp	DWORD PTR _result$[ebp+48]

; 931  :         result.m_Mat[M4_01]= 0.0f;          result.m_Mat[M4_11]= -2.0f*rcpbmt;  result.m_Mat[M4_21]=0.0f;  result.m_Mat[M4_31]= (top+bottom)*rcpbmt;

	fldz
	fstp	DWORD PTR _result$[ebp+4]
	fld	DWORD PTR _rcpbmt$[ebp]
	fmul	QWORD PTR __real@c000000000000000
	fstp	DWORD PTR _result$[ebp+20]
	fldz
	fstp	DWORD PTR _result$[ebp+36]
	fld	DWORD PTR _top$[ebp]
	fadd	DWORD PTR _bottom$[ebp]
	fmul	DWORD PTR _rcpbmt$[ebp]
	fstp	DWORD PTR _result$[ebp+52]
$LN1@orthogonal:

; 932  :     }
; 933  : 
; 934  : #if defined(GRAPHIC_DEVICE_DX9) || defined(GRAPHIC_DEVICE_DX10) || defined(GRAPHIC_DEVICE_DX11) || defined(GRAPHIC_DEVICE_DX12)
; 935  :        result.m_Mat[M4_02]= 0.0f;  result.m_Mat[M4_12]= 0.0f;  result.m_Mat[M4_22]= -rcpnmf;   result.m_Mat[M4_32]= nearPlane*rcpnmf;
; 936  : #else
; 937  :        result.m_Mat[M4_02]= 0.0f;  result.m_Mat[M4_12]= 0.0f;  result.m_Mat[M4_22]= -2*rcpnmf; result.m_Mat[M4_32]= (nearPlane+farPlane)*rcpnmf;

	fldz
	fstp	DWORD PTR _result$[ebp+8]
	fldz
	fstp	DWORD PTR _result$[ebp+24]
	fld	DWORD PTR _rcpnmf$[ebp]
	fmul	QWORD PTR __real@c000000000000000
	fstp	DWORD PTR _result$[ebp+40]
	fld	DWORD PTR _nearPlane$[ebp]
	fadd	DWORD PTR _farPlane$[ebp]
	fmul	DWORD PTR _rcpnmf$[ebp]
	fstp	DWORD PTR _result$[ebp+56]

; 938  : #endif
; 939  : 
; 940  :     result.m_Mat[M4_03]=0;  result.m_Mat[M4_13]=0;  result.m_Mat[M4_23]=0; result.m_Mat[M4_33]=1;

	fldz
	fstp	DWORD PTR _result$[ebp+12]
	fldz
	fstp	DWORD PTR _result$[ebp+28]
	fldz
	fstp	DWORD PTR _result$[ebp+44]
	fld1
	fstp	DWORD PTR _result$[ebp+60]

; 941  : 
; 942  :     return result;

	lea	eax, DWORD PTR _result$[ebp]
	push	eax
	mov	ecx, DWORD PTR ___$ReturnUdt$[ebp]
	call	??0pecker_matrix4@pecker_sdk@@QAE@ABU01@@Z ; pecker_sdk::pecker_matrix4::pecker_matrix4
	mov	eax, DWORD PTR ___$ReturnUdt$[ebp]
$LN5@orthogonal:

; 943  : }

	push	edx
	mov	ecx, ebp
	push	eax
	lea	edx, DWORD PTR $LN15@orthogonal
	call	@_RTC_CheckStackVars@8
	pop	eax
	pop	edx
	pop	edi
	pop	esi
	pop	ebx
	mov	ecx, DWORD PTR __$ArrayPad$[ebp]
	xor	ecx, ebp
	call	@__security_check_cookie@4
	add	esp, 308				; 00000134H
	cmp	ebp, esp
	call	__RTC_CheckEsp
	mov	esp, ebp
	pop	ebp
	ret	0
	npad	3
$LN15@orthogonal:
	DD	1
	DD	$LN14@orthogonal
$LN14@orthogonal:
	DD	-108					; ffffff94H
	DD	64					; 00000040H
	DD	$LN13@orthogonal
$LN13@orthogonal:
	DB	114					; 00000072H
	DB	101					; 00000065H
	DB	115					; 00000073H
	DB	117					; 00000075H
	DB	108					; 0000006cH
	DB	116					; 00000074H
	DB	0
?orthogonal@pecker_matrix4@pecker_sdk@@SA?AU12@MMMMMM_N@Z ENDP ; pecker_sdk::pecker_matrix4::orthogonal
_TEXT	ENDS
PUBLIC	__real@bff0000000000000
PUBLIC	__real@bf800000
PUBLIC	??_C@_0DL@CGGGCALP@params?5invail?$CB?5width?$DN?$CFf?5height?$DN?$CF@ ; `string'
PUBLIC	??_C@_0BG@JEPMFOPE@CMatrix4?3?3perspective?$AA@	; `string'
PUBLIC	__$ArrayPad$
PUBLIC	?perspective@pecker_matrix4@pecker_sdk@@SA?AU12@MMMM_N0@Z ; pecker_sdk::pecker_matrix4::perspective
;	COMDAT __real@bff0000000000000
CONST	SEGMENT
__real@bff0000000000000 DQ 0bff0000000000000r	; -1
CONST	ENDS
;	COMDAT __real@bf800000
CONST	SEGMENT
__real@bf800000 DD 0bf800000r			; -1
CONST	ENDS
;	COMDAT ??_C@_0DL@CGGGCALP@params?5invail?$CB?5width?$DN?$CFf?5height?$DN?$CF@
CONST	SEGMENT
??_C@_0DL@CGGGCALP@params?5invail?$CB?5width?$DN?$CFf?5height?$DN?$CF@ DB 'p'
	DB	'arams invail! width=%f height=%f  nearPlane - farPlane=%f', 00H ; `string'
CONST	ENDS
;	COMDAT ??_C@_0BG@JEPMFOPE@CMatrix4?3?3perspective?$AA@
CONST	SEGMENT
??_C@_0BG@JEPMFOPE@CMatrix4?3?3perspective?$AA@ DB 'CMatrix4::perspective'
	DB	00H						; `string'
; Function compile flags: /Odtp /RTCsu /ZI
CONST	ENDS
;	COMDAT ?perspective@pecker_matrix4@pecker_sdk@@SA?AU12@MMMM_N0@Z
_TEXT	SEGMENT
tv87 = -293						; size = 1
tv80 = -293						; size = 1
tv73 = -293						; size = 1
_result$ = -96						; size = 64
_n2$ = -24						; size = 4
_rcpnmf$ = -12						; size = 4
__$ArrayPad$ = -4					; size = 4
___$ReturnUdt$ = 8					; size = 4
_width$ = 12						; size = 4
_height$ = 16						; size = 4
_nearPlane$ = 20					; size = 4
_farPlane$ = 24						; size = 4
_bRightHanded$ = 28					; size = 1
_brotate$ = 32						; size = 1
?perspective@pecker_matrix4@pecker_sdk@@SA?AU12@MMMM_N0@Z PROC ; pecker_sdk::pecker_matrix4::perspective, COMDAT

; 950  : {

	push	ebp
	mov	ebp, esp
	sub	esp, 296				; 00000128H
	push	ebx
	push	esi
	push	edi
	lea	edi, DWORD PTR [ebp-296]
	mov	ecx, 74					; 0000004aH
	mov	eax, -858993460				; ccccccccH
	rep stosd
	mov	eax, DWORD PTR ___security_cookie
	xor	eax, ebp
	mov	DWORD PTR __$ArrayPad$[ebp], eax

; 951  :   Float rcpnmf = (nearPlane - farPlane);

	fld	DWORD PTR _nearPlane$[ebp]
	fsub	DWORD PTR _farPlane$[ebp]
	fstp	DWORD PTR _rcpnmf$[ebp]

; 952  :   if (EQFLOATZERO(width) || EQFLOATZERO(height) || EQFLOATZERO(rcpnmf))

	fld	DWORD PTR _width$[ebp]
	fcomp	QWORD PTR __real@3eb0c6f7a0000000
	fnstsw	ax
	test	ah, 65					; 00000041H
	jp	SHORT $LN8@perspectiv
	fld	DWORD PTR _width$[ebp]
	fcomp	QWORD PTR __real@beb0c6f7a0000000
	fnstsw	ax
	test	ah, 1
	jne	SHORT $LN8@perspectiv
	mov	BYTE PTR tv73[ebp], 1
	jmp	SHORT $LN9@perspectiv
$LN8@perspectiv:
	mov	BYTE PTR tv73[ebp], 0
$LN9@perspectiv:
	movzx	eax, BYTE PTR tv73[ebp]
	test	eax, eax
	jne	SHORT $LN4@perspectiv
	fld	DWORD PTR _height$[ebp]
	fcomp	QWORD PTR __real@3eb0c6f7a0000000
	fnstsw	ax
	test	ah, 65					; 00000041H
	jp	SHORT $LN10@perspectiv
	fld	DWORD PTR _height$[ebp]
	fcomp	QWORD PTR __real@beb0c6f7a0000000
	fnstsw	ax
	test	ah, 1
	jne	SHORT $LN10@perspectiv
	mov	BYTE PTR tv80[ebp], 1
	jmp	SHORT $LN11@perspectiv
$LN10@perspectiv:
	mov	BYTE PTR tv80[ebp], 0
$LN11@perspectiv:
	movzx	eax, BYTE PTR tv80[ebp]
	test	eax, eax
	jne	SHORT $LN4@perspectiv
	fld	DWORD PTR _rcpnmf$[ebp]
	fcomp	QWORD PTR __real@3eb0c6f7a0000000
	fnstsw	ax
	test	ah, 65					; 00000041H
	jp	SHORT $LN12@perspectiv
	fld	DWORD PTR _rcpnmf$[ebp]
	fcomp	QWORD PTR __real@beb0c6f7a0000000
	fnstsw	ax
	test	ah, 1
	jne	SHORT $LN12@perspectiv
	mov	BYTE PTR tv87[ebp], 1
	jmp	SHORT $LN13@perspectiv
$LN12@perspectiv:
	mov	BYTE PTR tv87[ebp], 0
$LN13@perspectiv:
	movzx	eax, BYTE PTR tv87[ebp]
	test	eax, eax
	je	$LN5@perspectiv
$LN4@perspectiv:

; 953  :   {
; 954  :     //char ErrInfo[256];
; 955  :     //sprintf(ErrInfo,"params invail! width=%f height=%f  nearPlane - farPlane=%f",width,height,rcpnmf);
; 956  :     //CPeckerLogger::GetSignleton()->LogOut(LOGINFO_ERROR,"CMatrix4::perspective",ErrInfo);
; 957  : 	PECKER_LOG_ERR("CMatrix4::perspective","params invail! width=%f height=%f  nearPlane - farPlane=%f",width,height,rcpnmf);

	mov	esi, esp
	push	OFFSET ??_C@_0M@ONMFDOOB@ERROR_INFO?5?$AA@
	call	DWORD PTR __imp__printf
	add	esp, 4
	cmp	esi, esp
	call	__RTC_CheckEsp
	mov	esi, esp
	push	OFFSET ??_C@_0BG@JEPMFOPE@CMatrix4?3?3perspective?$AA@
	call	DWORD PTR __imp__printf
	add	esp, 4
	cmp	esi, esp
	call	__RTC_CheckEsp
	mov	esi, esp
	push	OFFSET ??_C@_01EEMJAFIK@?6?$AA@
	call	DWORD PTR __imp__printf
	add	esp, 4
	cmp	esi, esp
	call	__RTC_CheckEsp
	fld	DWORD PTR _rcpnmf$[ebp]
	mov	esi, esp
	sub	esp, 8
	fstp	QWORD PTR [esp]
	fld	DWORD PTR _height$[ebp]
	sub	esp, 8
	fstp	QWORD PTR [esp]
	fld	DWORD PTR _width$[ebp]
	sub	esp, 8
	fstp	QWORD PTR [esp]
	push	OFFSET ??_C@_0DL@CGGGCALP@params?5invail?$CB?5width?$DN?$CFf?5height?$DN?$CF@
	call	DWORD PTR __imp__printf
	add	esp, 28					; 0000001cH
	cmp	esi, esp
	call	__RTC_CheckEsp
	mov	esi, esp
	push	OFFSET ??_C@_01EEMJAFIK@?6?$AA@
	call	DWORD PTR __imp__printf
	add	esp, 4
	cmp	esi, esp
	call	__RTC_CheckEsp

; 958  : //    CPeckerLogger::GetSignleton()->LogOut(LOGINFO_ERROR,"CMatrix4::perspective",
; 959  : //        "params invail! width or height or nearPlane - farPlane == 0");
; 960  :     return pecker_matrix4(0.0f);

	push	ecx
	fldz
	fstp	DWORD PTR [esp]
	mov	ecx, DWORD PTR ___$ReturnUdt$[ebp]
	call	??0pecker_matrix4@pecker_sdk@@QAE@M@Z	; pecker_sdk::pecker_matrix4::pecker_matrix4
	mov	eax, DWORD PTR ___$ReturnUdt$[ebp]
	jmp	$LN6@perspectiv
$LN5@perspectiv:

; 961  :   }
; 962  : 
; 963  :   Float n2 = 2.0f * nearPlane;

	fld	DWORD PTR _nearPlane$[ebp]
	fmul	QWORD PTR __real@4000000000000000
	fstp	DWORD PTR _n2$[ebp]

; 964  :   rcpnmf = 1.0f/rcpnmf;

	fld	DWORD PTR _rcpnmf$[ebp]
	fld1
	fdivrp	ST(1), ST(0)
	fstp	DWORD PTR _rcpnmf$[ebp]

; 965  :   pecker_matrix4 result;

	lea	ecx, DWORD PTR _result$[ebp]
	call	??0pecker_matrix4@pecker_sdk@@QAE@XZ	; pecker_sdk::pecker_matrix4::pecker_matrix4

; 966  :   if (brotate)

	movzx	eax, BYTE PTR _brotate$[ebp]
	test	eax, eax
	je	SHORT $LN3@perspectiv

; 967  :   {
; 968  :     result.m_Mat[M4_00] = 0.0f;        result.m_Mat[M4_10]= -n2/width;    result.m_Mat[M4_20]= 0.0f;   result.m_Mat[ M4_30]= 0.0f;

	fldz
	fstp	DWORD PTR _result$[ebp]
	fld	DWORD PTR _n2$[ebp]
	fchs
	fdiv	DWORD PTR _width$[ebp]
	fstp	DWORD PTR _result$[ebp+16]
	fldz
	fstp	DWORD PTR _result$[ebp+32]
	fldz
	fstp	DWORD PTR _result$[ebp+48]

; 969  :     result.m_Mat[M4_01] = n2/height;   result.m_Mat[M4_11]= 0.0f;         result.m_Mat[M4_21]= 0.0f;   result.m_Mat[M4_31]= 0.0f;

	fld	DWORD PTR _n2$[ebp]
	fdiv	DWORD PTR _height$[ebp]
	fstp	DWORD PTR _result$[ebp+4]
	fldz
	fstp	DWORD PTR _result$[ebp+20]
	fldz
	fstp	DWORD PTR _result$[ebp+36]
	fldz
	fstp	DWORD PTR _result$[ebp+52]

; 970  :   }
; 971  :   else

	jmp	SHORT $LN2@perspectiv
$LN3@perspectiv:

; 972  :   {
; 973  :     result.m_Mat[M4_00] = n2/width;    result.m_Mat[M4_10]= 0.0f;         result.m_Mat[M4_20]= 0.0f;   result.m_Mat[ M4_30]= 0.0f;

	fld	DWORD PTR _n2$[ebp]
	fdiv	DWORD PTR _width$[ebp]
	fstp	DWORD PTR _result$[ebp]
	fldz
	fstp	DWORD PTR _result$[ebp+16]
	fldz
	fstp	DWORD PTR _result$[ebp+32]
	fldz
	fstp	DWORD PTR _result$[ebp+48]

; 974  :     result.m_Mat[M4_01] = 0.0f;        result.m_Mat[M4_11]= n2/height;    result.m_Mat[M4_21]= 0.0f;   result.m_Mat[M4_31]= 0.0f;

	fldz
	fstp	DWORD PTR _result$[ebp+4]
	fld	DWORD PTR _n2$[ebp]
	fdiv	DWORD PTR _height$[ebp]
	fstp	DWORD PTR _result$[ebp+20]
	fldz
	fstp	DWORD PTR _result$[ebp+36]
	fldz
	fstp	DWORD PTR _result$[ebp+52]
$LN2@perspectiv:

; 975  :   }
; 976  : 
; 977  : #if defined(GRAPHIC_DEVICE_DX9) || defined(GRAPHIC_DEVICE_DX10) || defined(GRAPHIC_DEVICE_DX11) || defined(GRAPHIC_DEVICE_DX12)
; 978  :     result.m_Mat[M4_02] = 0.0f;   result.m_Mat[M4_12]= 0.0f;   result.m_Mat[M4_22]= farPlane*rcpnmf;    result.m_Mat[M4_32]= (farPlane*rcpnmf)*nearPlane;
; 979  : #else
; 980  :     result.m_Mat[M4_02] = 0.0f;   result.m_Mat[M4_12]= 0.0f;   result.m_Mat[M4_22]= farPlane+nearPlane*rcpnmf;    result.m_Mat[M4_32]= (farPlane*rcpnmf)*n2;

	fldz
	fstp	DWORD PTR _result$[ebp+8]
	fldz
	fstp	DWORD PTR _result$[ebp+24]
	fld	DWORD PTR _nearPlane$[ebp]
	fmul	DWORD PTR _rcpnmf$[ebp]
	fadd	DWORD PTR _farPlane$[ebp]
	fstp	DWORD PTR _result$[ebp+40]
	fld	DWORD PTR _farPlane$[ebp]
	fmul	DWORD PTR _rcpnmf$[ebp]
	fmul	DWORD PTR _n2$[ebp]
	fstp	DWORD PTR _result$[ebp+56]

; 981  : #endif
; 982  : 
; 983  :   result.m_Mat[M4_03] = 0.0f;        result.m_Mat[M4_13]= 0.0f;  result.m_Mat[M4_23]= -1.0f;  result.m_Mat[M4_33]= 0.0f;

	fldz
	fstp	DWORD PTR _result$[ebp+12]
	fldz
	fstp	DWORD PTR _result$[ebp+28]
	fld	DWORD PTR __real@bf800000
	fstp	DWORD PTR _result$[ebp+44]
	fldz
	fstp	DWORD PTR _result$[ebp+60]

; 984  : 
; 985  :   if (!bRightHanded)

	movzx	eax, BYTE PTR _bRightHanded$[ebp]
	test	eax, eax
	jne	SHORT $LN1@perspectiv

; 986  :   {
; 987  :           result.m_Mat[M4_22] = result.m_Mat[M4_22]*(-1.0f);

	fld	DWORD PTR _result$[ebp+40]
	fmul	QWORD PTR __real@bff0000000000000
	fstp	DWORD PTR _result$[ebp+40]

; 988  :           result.m_Mat[M4_23] = 1.0f;

	fld1
	fstp	DWORD PTR _result$[ebp+44]
$LN1@perspectiv:

; 989  :   }
; 990  : 
; 991  :   return result;

	lea	eax, DWORD PTR _result$[ebp]
	push	eax
	mov	ecx, DWORD PTR ___$ReturnUdt$[ebp]
	call	??0pecker_matrix4@pecker_sdk@@QAE@ABU01@@Z ; pecker_sdk::pecker_matrix4::pecker_matrix4
	mov	eax, DWORD PTR ___$ReturnUdt$[ebp]
$LN6@perspectiv:

; 992  : }

	push	edx
	mov	ecx, ebp
	push	eax
	lea	edx, DWORD PTR $LN16@perspectiv
	call	@_RTC_CheckStackVars@8
	pop	eax
	pop	edx
	pop	edi
	pop	esi
	pop	ebx
	mov	ecx, DWORD PTR __$ArrayPad$[ebp]
	xor	ecx, ebp
	call	@__security_check_cookie@4
	add	esp, 296				; 00000128H
	cmp	ebp, esp
	call	__RTC_CheckEsp
	mov	esp, ebp
	pop	ebp
	ret	0
	npad	3
$LN16@perspectiv:
	DD	1
	DD	$LN15@perspectiv
$LN15@perspectiv:
	DD	-96					; ffffffa0H
	DD	64					; 00000040H
	DD	$LN14@perspectiv
$LN14@perspectiv:
	DB	114					; 00000072H
	DB	101					; 00000065H
	DB	115					; 00000073H
	DB	117					; 00000075H
	DB	108					; 0000006cH
	DB	116					; 00000074H
	DB	0
?perspective@pecker_matrix4@pecker_sdk@@SA?AU12@MMMM_N0@Z ENDP ; pecker_sdk::pecker_matrix4::perspective
_TEXT	ENDS
PUBLIC	??_C@_0CF@FJGBFDEF@params?5invail?$CB?5width?5or?5height?5?5@ ; `string'
PUBLIC	??_C@_0CC@ICDGILNP@CMatrix4?3?3perspective_float_dept@ ; `string'
PUBLIC	__$ArrayPad$
PUBLIC	?perspective_float_depth@pecker_matrix4@pecker_sdk@@SA?AU12@MMM_N0@Z ; pecker_sdk::pecker_matrix4::perspective_float_depth
;	COMDAT ??_C@_0CF@FJGBFDEF@params?5invail?$CB?5width?5or?5height?5?5@
CONST	SEGMENT
??_C@_0CF@FJGBFDEF@params?5invail?$CB?5width?5or?5height?5?5@ DB 'params '
	DB	'invail! width or height  == 0', 00H		; `string'
CONST	ENDS
;	COMDAT ??_C@_0CC@ICDGILNP@CMatrix4?3?3perspective_float_dept@
CONST	SEGMENT
??_C@_0CC@ICDGILNP@CMatrix4?3?3perspective_float_dept@ DB 'CMatrix4::pers'
	DB	'pective_float_depth', 00H			; `string'
; Function compile flags: /Odtp /RTCsu /ZI
CONST	ENDS
;	COMDAT ?perspective_float_depth@pecker_matrix4@pecker_sdk@@SA?AU12@MMM_N0@Z
_TEXT	SEGMENT
tv167 = -284						; size = 4
tv160 = -284						; size = 4
tv75 = -281						; size = 1
tv68 = -281						; size = 1
_result$ = -84						; size = 64
_n2$ = -12						; size = 4
__$ArrayPad$ = -4					; size = 4
___$ReturnUdt$ = 8					; size = 4
_width$ = 12						; size = 4
_height$ = 16						; size = 4
_nearPlane$ = 20					; size = 4
_bRightHanded$ = 24					; size = 1
_brotate$ = 28						; size = 1
?perspective_float_depth@pecker_matrix4@pecker_sdk@@SA?AU12@MMM_N0@Z PROC ; pecker_sdk::pecker_matrix4::perspective_float_depth, COMDAT

; 999  : {

	push	ebp
	mov	ebp, esp
	sub	esp, 284				; 0000011cH
	push	ebx
	push	esi
	push	edi
	lea	edi, DWORD PTR [ebp-284]
	mov	ecx, 71					; 00000047H
	mov	eax, -858993460				; ccccccccH
	rep stosd
	mov	eax, DWORD PTR ___security_cookie
	xor	eax, ebp
	mov	DWORD PTR __$ArrayPad$[ebp], eax

; 1000 :   if (EQFLOATZERO(width) || EQFLOATZERO(height))

	fld	DWORD PTR _width$[ebp]
	fcomp	QWORD PTR __real@3eb0c6f7a0000000
	fnstsw	ax
	test	ah, 65					; 00000041H
	jp	SHORT $LN7@perspectiv@2
	fld	DWORD PTR _width$[ebp]
	fcomp	QWORD PTR __real@beb0c6f7a0000000
	fnstsw	ax
	test	ah, 1
	jne	SHORT $LN7@perspectiv@2
	mov	BYTE PTR tv68[ebp], 1
	jmp	SHORT $LN8@perspectiv@2
$LN7@perspectiv@2:
	mov	BYTE PTR tv68[ebp], 0
$LN8@perspectiv@2:
	movzx	eax, BYTE PTR tv68[ebp]
	test	eax, eax
	jne	SHORT $LN3@perspectiv@2
	fld	DWORD PTR _height$[ebp]
	fcomp	QWORD PTR __real@3eb0c6f7a0000000
	fnstsw	ax
	test	ah, 65					; 00000041H
	jp	SHORT $LN9@perspectiv@2
	fld	DWORD PTR _height$[ebp]
	fcomp	QWORD PTR __real@beb0c6f7a0000000
	fnstsw	ax
	test	ah, 1
	jne	SHORT $LN9@perspectiv@2
	mov	BYTE PTR tv75[ebp], 1
	jmp	SHORT $LN10@perspectiv@2
$LN9@perspectiv@2:
	mov	BYTE PTR tv75[ebp], 0
$LN10@perspectiv@2:
	movzx	eax, BYTE PTR tv75[ebp]
	test	eax, eax
	je	$LN4@perspectiv@2
$LN3@perspectiv@2:

; 1001 :    {
; 1002 :     //CPeckerLogger::GetSignleton()->LogOut(LOGINFO_ERROR,"CMatrix4::perspective_float_depth",
; 1003 :     //    "params invail! width or height  == 0");
; 1004 : 	   PECKER_LOG_ERR("CMatrix4::perspective_float_depth",
; 1005 : 		       "params invail! width or height  == 0",0);

	mov	esi, esp
	push	OFFSET ??_C@_0M@ONMFDOOB@ERROR_INFO?5?$AA@
	call	DWORD PTR __imp__printf
	add	esp, 4
	cmp	esi, esp
	call	__RTC_CheckEsp
	mov	esi, esp
	push	OFFSET ??_C@_0CC@ICDGILNP@CMatrix4?3?3perspective_float_dept@
	call	DWORD PTR __imp__printf
	add	esp, 4
	cmp	esi, esp
	call	__RTC_CheckEsp
	mov	esi, esp
	push	OFFSET ??_C@_01EEMJAFIK@?6?$AA@
	call	DWORD PTR __imp__printf
	add	esp, 4
	cmp	esi, esp
	call	__RTC_CheckEsp
	mov	esi, esp
	push	0
	push	OFFSET ??_C@_0CF@FJGBFDEF@params?5invail?$CB?5width?5or?5height?5?5@
	call	DWORD PTR __imp__printf
	add	esp, 8
	cmp	esi, esp
	call	__RTC_CheckEsp
	mov	esi, esp
	push	OFFSET ??_C@_01EEMJAFIK@?6?$AA@
	call	DWORD PTR __imp__printf
	add	esp, 4
	cmp	esi, esp
	call	__RTC_CheckEsp

; 1006 :      return pecker_matrix4(0.0f);

	push	ecx
	fldz
	fstp	DWORD PTR [esp]
	mov	ecx, DWORD PTR ___$ReturnUdt$[ebp]
	call	??0pecker_matrix4@pecker_sdk@@QAE@M@Z	; pecker_sdk::pecker_matrix4::pecker_matrix4
	mov	eax, DWORD PTR ___$ReturnUdt$[ebp]
	jmp	$LN5@perspectiv@2
$LN4@perspectiv@2:

; 1007 :    }
; 1008 : 
; 1009 :   Float n2 = 2.0f*nearPlane;

	fld	DWORD PTR _nearPlane$[ebp]
	fmul	QWORD PTR __real@4000000000000000
	fstp	DWORD PTR _n2$[ebp]

; 1010 : 
; 1011 :   pecker_matrix4 result;

	lea	ecx, DWORD PTR _result$[ebp]
	call	??0pecker_matrix4@pecker_sdk@@QAE@XZ	; pecker_sdk::pecker_matrix4::pecker_matrix4

; 1012 :   if (brotate)

	movzx	eax, BYTE PTR _brotate$[ebp]
	test	eax, eax
	je	SHORT $LN2@perspectiv@2

; 1013 :   {
; 1014 :      result.m_Mat[M4_00] = 0.0f;        result.m_Mat[M4_10] = -n2/width;     result.m_Mat[M4_20] = 0.0f;  result.m_Mat[ M4_30] = 0.0f;

	fldz
	fstp	DWORD PTR _result$[ebp]
	fld	DWORD PTR _n2$[ebp]
	fchs
	fdiv	DWORD PTR _width$[ebp]
	fstp	DWORD PTR _result$[ebp+16]
	fldz
	fstp	DWORD PTR _result$[ebp+32]
	fldz
	fstp	DWORD PTR _result$[ebp+48]

; 1015 :      result.m_Mat[M4_01] = n2/height;   result.m_Mat[M4_11] = 0.0f;          result.m_Mat[M4_21] = 0.0f;  result.m_Mat[M4_31] = 0.0f;

	fld	DWORD PTR _n2$[ebp]
	fdiv	DWORD PTR _height$[ebp]
	fstp	DWORD PTR _result$[ebp+4]
	fldz
	fstp	DWORD PTR _result$[ebp+20]
	fldz
	fstp	DWORD PTR _result$[ebp+36]
	fldz
	fstp	DWORD PTR _result$[ebp+52]

; 1016 :   }
; 1017 :   else

	jmp	SHORT $LN1@perspectiv@2
$LN2@perspectiv@2:

; 1018 :   {
; 1019 :      result.m_Mat[M4_00] = n2/width;    result.m_Mat[M4_10] = 0.0f;          result.m_Mat[M4_20] = 0.0f;  result.m_Mat[ M4_30] = 0.0f;

	fld	DWORD PTR _n2$[ebp]
	fdiv	DWORD PTR _width$[ebp]
	fstp	DWORD PTR _result$[ebp]
	fldz
	fstp	DWORD PTR _result$[ebp+16]
	fldz
	fstp	DWORD PTR _result$[ebp+32]
	fldz
	fstp	DWORD PTR _result$[ebp+48]

; 1020 :      result.m_Mat[M4_01] = 0.0f;        result.m_Mat[M4_11] = n2/height;     result.m_Mat[M4_21] = 0.0f;  result.m_Mat[M4_31] = 0.0f;

	fldz
	fstp	DWORD PTR _result$[ebp+4]
	fld	DWORD PTR _n2$[ebp]
	fdiv	DWORD PTR _height$[ebp]
	fstp	DWORD PTR _result$[ebp+20]
	fldz
	fstp	DWORD PTR _result$[ebp+36]
	fldz
	fstp	DWORD PTR _result$[ebp+52]
$LN1@perspectiv@2:

; 1021 :   }
; 1022 : #if defined(GRAPHIC_DEVICE_DX9) || defined(GRAPHIC_DEVICE_DX10) || defined(GRAPHIC_DEVICE_DX11) || defined(GRAPHIC_DEVICE_DX12)
; 1023 :      result.m_Mat[M4_02] = 0.0f;        result.m_Mat[M4_12] = 0.0f;          result.m_Mat[M4_22]= 0.0f;  result.m_Mat[M4_32] = nearPlane;
; 1024 : #else
; 1025 :      result.m_Mat[M4_02] = 0.0f;        result.m_Mat[M4_12] = 0.0f;          result.m_Mat[M4_22]= ( (bRightHanded) ? (1.0f) : (-1.0f) );   result.m_Mat[M4_32] = n2;

	fldz
	fstp	DWORD PTR _result$[ebp+8]
	fldz
	fstp	DWORD PTR _result$[ebp+24]
	movzx	eax, BYTE PTR _bRightHanded$[ebp]
	test	eax, eax
	je	SHORT $LN11@perspectiv@2
	fld1
	fstp	DWORD PTR tv160[ebp]
	jmp	SHORT $LN12@perspectiv@2
$LN11@perspectiv@2:
	fld	DWORD PTR __real@bf800000
	fstp	DWORD PTR tv160[ebp]
$LN12@perspectiv@2:
	fld	DWORD PTR tv160[ebp]
	fstp	DWORD PTR _result$[ebp+40]
	fld	DWORD PTR _n2$[ebp]
	fstp	DWORD PTR _result$[ebp+56]

; 1026 : #endif
; 1027 :      result.m_Mat[M4_03] = 0.0f;        result.m_Mat[M4_13] = 0.0f;          result.m_Mat[M4_23]= ( (bRightHanded) ? (-1.0f) : (1.0f) );   result.m_Mat[M4_33] = 0.0f;

	fldz
	fstp	DWORD PTR _result$[ebp+12]
	fldz
	fstp	DWORD PTR _result$[ebp+28]
	movzx	eax, BYTE PTR _bRightHanded$[ebp]
	test	eax, eax
	je	SHORT $LN13@perspectiv@2
	fld	DWORD PTR __real@bf800000
	fstp	DWORD PTR tv167[ebp]
	jmp	SHORT $LN14@perspectiv@2
$LN13@perspectiv@2:
	fld1
	fstp	DWORD PTR tv167[ebp]
$LN14@perspectiv@2:
	fld	DWORD PTR tv167[ebp]
	fstp	DWORD PTR _result$[ebp+44]
	fldz
	fstp	DWORD PTR _result$[ebp+60]

; 1028 : 
; 1029 :   return result;

	lea	eax, DWORD PTR _result$[ebp]
	push	eax
	mov	ecx, DWORD PTR ___$ReturnUdt$[ebp]
	call	??0pecker_matrix4@pecker_sdk@@QAE@ABU01@@Z ; pecker_sdk::pecker_matrix4::pecker_matrix4
	mov	eax, DWORD PTR ___$ReturnUdt$[ebp]
$LN5@perspectiv@2:

; 1030 : }

	push	edx
	mov	ecx, ebp
	push	eax
	lea	edx, DWORD PTR $LN17@perspectiv@2
	call	@_RTC_CheckStackVars@8
	pop	eax
	pop	edx
	pop	edi
	pop	esi
	pop	ebx
	mov	ecx, DWORD PTR __$ArrayPad$[ebp]
	xor	ecx, ebp
	call	@__security_check_cookie@4
	add	esp, 284				; 0000011cH
	cmp	ebp, esp
	call	__RTC_CheckEsp
	mov	esp, ebp
	pop	ebp
	ret	0
$LN17@perspectiv@2:
	DD	1
	DD	$LN16@perspectiv@2
$LN16@perspectiv@2:
	DD	-84					; ffffffacH
	DD	64					; 00000040H
	DD	$LN15@perspectiv@2
$LN15@perspectiv@2:
	DB	114					; 00000072H
	DB	101					; 00000065H
	DB	115					; 00000073H
	DB	117					; 00000075H
	DB	108					; 0000006cH
	DB	116					; 00000074H
	DB	0
?perspective_float_depth@pecker_matrix4@pecker_sdk@@SA?AU12@MMM_N0@Z ENDP ; pecker_sdk::pecker_matrix4::perspective_float_depth
_TEXT	ENDS
PUBLIC	?tan@@YAMM@Z					; tan
PUBLIC	__real@3fe0000000000000
PUBLIC	??_C@_0BL@JILPOGGH@params?5invail?$CB?5aspect?5?$DN?$DN?50?$AA@ ; `string'
PUBLIC	??_C@_0BK@LOKNNJAO@CMatrix4?3?3perspective_fov?$AA@ ; `string'
PUBLIC	?perspective_fov@pecker_matrix4@pecker_sdk@@SA?AU12@MMMM_N0@Z ; pecker_sdk::pecker_matrix4::perspective_fov
;	COMDAT __real@3fe0000000000000
CONST	SEGMENT
__real@3fe0000000000000 DQ 03fe0000000000000r	; 0.5
CONST	ENDS
;	COMDAT ??_C@_0BL@JILPOGGH@params?5invail?$CB?5aspect?5?$DN?$DN?50?$AA@
CONST	SEGMENT
??_C@_0BL@JILPOGGH@params?5invail?$CB?5aspect?5?$DN?$DN?50?$AA@ DB 'param'
	DB	's invail! aspect == 0', 00H			; `string'
CONST	ENDS
;	COMDAT ??_C@_0BK@LOKNNJAO@CMatrix4?3?3perspective_fov?$AA@
CONST	SEGMENT
??_C@_0BK@LOKNNJAO@CMatrix4?3?3perspective_fov?$AA@ DB 'CMatrix4::perspec'
	DB	'tive_fov', 00H				; `string'
; Function compile flags: /Odtp /RTCsu /ZI
CONST	ENDS
;	COMDAT ?perspective_fov@pecker_matrix4@pecker_sdk@@SA?AU12@MMMM_N0@Z
_TEXT	SEGMENT
tv206 = -216						; size = 8
tv191 = -208						; size = 4
tv176 = -208						; size = 4
tv168 = -208						; size = 4
tv68 = -205						; size = 1
_height$ = -8						; size = 4
___$ReturnUdt$ = 8					; size = 4
_fovy$ = 12						; size = 4
_aspect$ = 16						; size = 4
_nearPlane$ = 20					; size = 4
_farPlane$ = 24						; size = 4
_bRightHanded$ = 28					; size = 1
_brotate$ = 32						; size = 1
?perspective_fov@pecker_matrix4@pecker_sdk@@SA?AU12@MMMM_N0@Z PROC ; pecker_sdk::pecker_matrix4::perspective_fov, COMDAT

; 1037 : {

	push	ebp
	mov	ebp, esp
	sub	esp, 216				; 000000d8H
	push	ebx
	push	esi
	push	edi
	lea	edi, DWORD PTR [ebp-216]
	mov	ecx, 54					; 00000036H
	mov	eax, -858993460				; ccccccccH
	rep stosd

; 1038 :   if (EQFLOATZERO(aspect))

	fld	DWORD PTR _aspect$[ebp]
	fcomp	QWORD PTR __real@3eb0c6f7a0000000
	fnstsw	ax
	test	ah, 65					; 00000041H
	jp	SHORT $LN5@perspectiv@3
	fld	DWORD PTR _aspect$[ebp]
	fcomp	QWORD PTR __real@beb0c6f7a0000000
	fnstsw	ax
	test	ah, 1
	jne	SHORT $LN5@perspectiv@3
	mov	BYTE PTR tv68[ebp], 1
	jmp	SHORT $LN6@perspectiv@3
$LN5@perspectiv@3:
	mov	BYTE PTR tv68[ebp], 0
$LN6@perspectiv@3:
	movzx	eax, BYTE PTR tv68[ebp]
	test	eax, eax
	je	$LN2@perspectiv@3

; 1039 :   {
; 1040 :     //CPeckerLogger::GetSignleton()->LogOut(LOGINFO_ERROR,"CMatrix4::perspective_fov",
; 1041 :     //    "params invail! aspect == 0");
; 1042 : 	  PECKER_LOG_ERR("CMatrix4::perspective_fov",
; 1043 : 		  "params invail! aspect == 0",0);

	mov	esi, esp
	push	OFFSET ??_C@_0M@ONMFDOOB@ERROR_INFO?5?$AA@
	call	DWORD PTR __imp__printf
	add	esp, 4
	cmp	esi, esp
	call	__RTC_CheckEsp
	mov	esi, esp
	push	OFFSET ??_C@_0BK@LOKNNJAO@CMatrix4?3?3perspective_fov?$AA@
	call	DWORD PTR __imp__printf
	add	esp, 4
	cmp	esi, esp
	call	__RTC_CheckEsp
	mov	esi, esp
	push	OFFSET ??_C@_01EEMJAFIK@?6?$AA@
	call	DWORD PTR __imp__printf
	add	esp, 4
	cmp	esi, esp
	call	__RTC_CheckEsp
	mov	esi, esp
	push	0
	push	OFFSET ??_C@_0BL@JILPOGGH@params?5invail?$CB?5aspect?5?$DN?$DN?50?$AA@
	call	DWORD PTR __imp__printf
	add	esp, 8
	cmp	esi, esp
	call	__RTC_CheckEsp
	mov	esi, esp
	push	OFFSET ??_C@_01EEMJAFIK@?6?$AA@
	call	DWORD PTR __imp__printf
	add	esp, 4
	cmp	esi, esp
	call	__RTC_CheckEsp

; 1044 :     return pecker_matrix4(0.0f);

	push	ecx
	fldz
	fstp	DWORD PTR [esp]
	mov	ecx, DWORD PTR ___$ReturnUdt$[ebp]
	call	??0pecker_matrix4@pecker_sdk@@QAE@M@Z	; pecker_sdk::pecker_matrix4::pecker_matrix4
	mov	eax, DWORD PTR ___$ReturnUdt$[ebp]
	jmp	$LN3@perspectiv@3
$LN2@perspectiv@3:

; 1045 :   }
; 1046 :   //char ErrInfo[256];
; 1047 :   //sprintf(ErrInfo,"fovy=%f,aspect=%f,nearPlane=%f,farPlane=%f",fovy,aspect,nearPlane,farPlane);
; 1048 :   //CPeckerLogger::GetSignleton()->LogOut(LOGINFO_INFO,"CMatrix4::perspective_fov",ErrInfo);
; 1049 : 
; 1050 :   Float height = ((2.0f*nearPlane) * (Float)tan(fovy*0.5f));

	fld	DWORD PTR _nearPlane$[ebp]
	fmul	QWORD PTR __real@4000000000000000
	fld	DWORD PTR _fovy$[ebp]
	fmul	QWORD PTR __real@3fe0000000000000
	fstp	DWORD PTR tv168[ebp]
	fld	DWORD PTR tv168[ebp]
	push	ecx
	fstp	DWORD PTR [esp]
	fstp	QWORD PTR tv206[ebp]
	call	?tan@@YAMM@Z				; tan
	add	esp, 4
	fmul	QWORD PTR tv206[ebp]
	fstp	DWORD PTR _height$[ebp]

; 1051 : 
; 1052 :   //sprintf(ErrInfo,"height=%f ,fovy*0.5f=%f, tan(fovy*0.5f)=%f",height,(fovy*0.5f), (Float)tan(fovy*0.5f));
; 1053 :   //CPeckerLogger::GetSignleton()->LogOut(LOGINFO_INFO,"CMatrix4::perspective_fov",ErrInfo);
; 1054 : 
; 1055 :   if (brotate)

	movzx	eax, BYTE PTR _brotate$[ebp]
	test	eax, eax
	je	SHORT $LN1@perspectiv@3

; 1056 :   {
; 1057 :     return perspective(height, height/aspect, nearPlane, farPlane, bRightHanded, brotate);

	movzx	eax, BYTE PTR _brotate$[ebp]
	push	eax
	movzx	ecx, BYTE PTR _bRightHanded$[ebp]
	push	ecx
	push	ecx
	fld	DWORD PTR _farPlane$[ebp]
	fstp	DWORD PTR [esp]
	push	ecx
	fld	DWORD PTR _nearPlane$[ebp]
	fstp	DWORD PTR [esp]
	fld	DWORD PTR _height$[ebp]
	fdiv	DWORD PTR _aspect$[ebp]
	fstp	DWORD PTR tv176[ebp]
	fld	DWORD PTR tv176[ebp]
	push	ecx
	fstp	DWORD PTR [esp]
	push	ecx
	fld	DWORD PTR _height$[ebp]
	fstp	DWORD PTR [esp]
	mov	edx, DWORD PTR ___$ReturnUdt$[ebp]
	push	edx
	call	?perspective@pecker_matrix4@pecker_sdk@@SA?AU12@MMMM_N0@Z ; pecker_sdk::pecker_matrix4::perspective
	add	esp, 28					; 0000001cH
	mov	eax, DWORD PTR ___$ReturnUdt$[ebp]
	jmp	SHORT $LN3@perspectiv@3
$LN1@perspectiv@3:

; 1058 :   }
; 1059 :   return perspective(height/aspect, height, nearPlane, farPlane, bRightHanded, brotate);

	movzx	eax, BYTE PTR _brotate$[ebp]
	push	eax
	movzx	ecx, BYTE PTR _bRightHanded$[ebp]
	push	ecx
	push	ecx
	fld	DWORD PTR _farPlane$[ebp]
	fstp	DWORD PTR [esp]
	push	ecx
	fld	DWORD PTR _nearPlane$[ebp]
	fstp	DWORD PTR [esp]
	push	ecx
	fld	DWORD PTR _height$[ebp]
	fstp	DWORD PTR [esp]
	fld	DWORD PTR _height$[ebp]
	fdiv	DWORD PTR _aspect$[ebp]
	fstp	DWORD PTR tv191[ebp]
	fld	DWORD PTR tv191[ebp]
	push	ecx
	fstp	DWORD PTR [esp]
	mov	edx, DWORD PTR ___$ReturnUdt$[ebp]
	push	edx
	call	?perspective@pecker_matrix4@pecker_sdk@@SA?AU12@MMMM_N0@Z ; pecker_sdk::pecker_matrix4::perspective
	add	esp, 28					; 0000001cH
	mov	eax, DWORD PTR ___$ReturnUdt$[ebp]
$LN3@perspectiv@3:

; 1060 : }

	pop	edi
	pop	esi
	pop	ebx
	add	esp, 216				; 000000d8H
	cmp	ebp, esp
	call	__RTC_CheckEsp
	mov	esp, ebp
	pop	ebp
	ret	0
?perspective_fov@pecker_matrix4@pecker_sdk@@SA?AU12@MMMM_N0@Z ENDP ; pecker_sdk::pecker_matrix4::perspective_fov
_TEXT	ENDS
PUBLIC	_tanf
; Function compile flags: /Odtp /RTCsu /ZI
; File c:\program files\microsoft visual studio 10.0\vc\include\math.h
;	COMDAT ?tan@@YAMM@Z
_TEXT	SEGMENT
__X$ = 8						; size = 4
?tan@@YAMM@Z PROC					; tan, COMDAT

; 544  :         {return (tanf(_X)); }

	push	ebp
	mov	ebp, esp
	sub	esp, 192				; 000000c0H
	push	ebx
	push	esi
	push	edi
	lea	edi, DWORD PTR [ebp-192]
	mov	ecx, 48					; 00000030H
	mov	eax, -858993460				; ccccccccH
	rep stosd
	push	ecx
	fld	DWORD PTR __X$[ebp]
	fstp	DWORD PTR [esp]
	call	_tanf
	add	esp, 4
	pop	edi
	pop	esi
	pop	ebx
	add	esp, 192				; 000000c0H
	cmp	ebp, esp
	call	__RTC_CheckEsp
	mov	esp, ebp
	pop	ebp
	ret	0
?tan@@YAMM@Z ENDP					; tan
_TEXT	ENDS
EXTRN	_tan:PROC
; Function compile flags: /Odtp /RTCsu /ZI
;	COMDAT _tanf
_TEXT	SEGMENT
tv73 = -196						; size = 4
__X$ = 8						; size = 4
_tanf	PROC						; COMDAT

; 436  :         {return ((float)tan((double)_X)); }

	push	ebp
	mov	ebp, esp
	sub	esp, 196				; 000000c4H
	push	ebx
	push	esi
	push	edi
	lea	edi, DWORD PTR [ebp-196]
	mov	ecx, 49					; 00000031H
	mov	eax, -858993460				; ccccccccH
	rep stosd
	fld	DWORD PTR __X$[ebp]
	sub	esp, 8
	fstp	QWORD PTR [esp]
	call	_tan
	add	esp, 8
	fstp	DWORD PTR tv73[ebp]
	fld	DWORD PTR tv73[ebp]
	pop	edi
	pop	esi
	pop	ebx
	add	esp, 196				; 000000c4H
	cmp	ebp, esp
	call	__RTC_CheckEsp
	mov	esp, ebp
	pop	ebp
	ret	0
_tanf	ENDP
_TEXT	ENDS
PUBLIC	??_C@_0CG@DDFPEIPN@CMatrix4?3?3perspective_fov_float_@ ; `string'
PUBLIC	?perspective_fov_float_depth@pecker_matrix4@pecker_sdk@@SA?AU12@MMM_N0@Z ; pecker_sdk::pecker_matrix4::perspective_fov_float_depth
;	COMDAT ??_C@_0CG@DDFPEIPN@CMatrix4?3?3perspective_fov_float_@
; File f:\codes\pecker_framework_git\pecker_src\pecker_framework\data\pecker_matrix.cpp
CONST	SEGMENT
??_C@_0CG@DDFPEIPN@CMatrix4?3?3perspective_fov_float_@ DB 'CMatrix4::pers'
	DB	'pective_fov_float_depth', 00H		; `string'
; Function compile flags: /Odtp /RTCsu /ZI
CONST	ENDS
;	COMDAT ?perspective_fov_float_depth@pecker_matrix4@pecker_sdk@@SA?AU12@MMM_N0@Z
_TEXT	SEGMENT
tv172 = -216						; size = 4
tv204 = -212						; size = 8
tv191 = -208						; size = 4
tv177 = -208						; size = 4
tv68 = -205						; size = 1
_height$ = -8						; size = 4
___$ReturnUdt$ = 8					; size = 4
_fovy$ = 12						; size = 4
_aspect$ = 16						; size = 4
_nearPlane$ = 20					; size = 4
_bRightHanded$ = 24					; size = 1
_brotate$ = 28						; size = 1
?perspective_fov_float_depth@pecker_matrix4@pecker_sdk@@SA?AU12@MMM_N0@Z PROC ; pecker_sdk::pecker_matrix4::perspective_fov_float_depth, COMDAT

; 1067 : {

	push	ebp
	mov	ebp, esp
	sub	esp, 216				; 000000d8H
	push	ebx
	push	esi
	push	edi
	lea	edi, DWORD PTR [ebp-216]
	mov	ecx, 54					; 00000036H
	mov	eax, -858993460				; ccccccccH
	rep stosd

; 1068 :   if (EQFLOATZERO(aspect))

	fld	DWORD PTR _aspect$[ebp]
	fcomp	QWORD PTR __real@3eb0c6f7a0000000
	fnstsw	ax
	test	ah, 65					; 00000041H
	jp	SHORT $LN6@perspectiv@4
	fld	DWORD PTR _aspect$[ebp]
	fcomp	QWORD PTR __real@beb0c6f7a0000000
	fnstsw	ax
	test	ah, 1
	jne	SHORT $LN6@perspectiv@4
	mov	BYTE PTR tv68[ebp], 1
	jmp	SHORT $LN7@perspectiv@4
$LN6@perspectiv@4:
	mov	BYTE PTR tv68[ebp], 0
$LN7@perspectiv@4:
	movzx	eax, BYTE PTR tv68[ebp]
	test	eax, eax
	je	$LN3@perspectiv@4

; 1069 :   {
; 1070 :     //CPeckerLogger::GetSignleton()->LogOut(LOGINFO_ERROR,"CMatrix4::perspective_fov_float_depth",
; 1071 :     //  "params invail! aspect == 0");
; 1072 : 	  PECKER_LOG_ERR("CMatrix4::perspective_fov_float_depth",
; 1073 : 		    "params invail! aspect == 0",0);

	mov	esi, esp
	push	OFFSET ??_C@_0M@ONMFDOOB@ERROR_INFO?5?$AA@
	call	DWORD PTR __imp__printf
	add	esp, 4
	cmp	esi, esp
	call	__RTC_CheckEsp
	mov	esi, esp
	push	OFFSET ??_C@_0CG@DDFPEIPN@CMatrix4?3?3perspective_fov_float_@
	call	DWORD PTR __imp__printf
	add	esp, 4
	cmp	esi, esp
	call	__RTC_CheckEsp
	mov	esi, esp
	push	OFFSET ??_C@_01EEMJAFIK@?6?$AA@
	call	DWORD PTR __imp__printf
	add	esp, 4
	cmp	esi, esp
	call	__RTC_CheckEsp
	mov	esi, esp
	push	0
	push	OFFSET ??_C@_0BL@JILPOGGH@params?5invail?$CB?5aspect?5?$DN?$DN?50?$AA@
	call	DWORD PTR __imp__printf
	add	esp, 8
	cmp	esi, esp
	call	__RTC_CheckEsp
	mov	esi, esp
	push	OFFSET ??_C@_01EEMJAFIK@?6?$AA@
	call	DWORD PTR __imp__printf
	add	esp, 4
	cmp	esi, esp
	call	__RTC_CheckEsp

; 1074 :     return pecker_matrix4(0.0f);

	push	ecx
	fldz
	fstp	DWORD PTR [esp]
	mov	ecx, DWORD PTR ___$ReturnUdt$[ebp]
	call	??0pecker_matrix4@pecker_sdk@@QAE@M@Z	; pecker_sdk::pecker_matrix4::pecker_matrix4
	mov	eax, DWORD PTR ___$ReturnUdt$[ebp]
	jmp	$LN1@perspectiv@4
$LN3@perspectiv@4:

; 1075 :   }
; 1076 : 
; 1077 :   Float height = ( (2.0f*nearPlane) * (Float)tan(fovy*0.5) );

	fld	DWORD PTR _nearPlane$[ebp]
	fmul	QWORD PTR __real@4000000000000000
	fld	DWORD PTR _fovy$[ebp]
	fmul	QWORD PTR __real@3fe0000000000000
	sub	esp, 8
	fstp	QWORD PTR [esp]
	fstp	QWORD PTR tv204[ebp]
	call	_tan
	add	esp, 8
	fstp	DWORD PTR tv172[ebp]
	fld	DWORD PTR tv172[ebp]
	fmul	QWORD PTR tv204[ebp]
	fstp	DWORD PTR _height$[ebp]

; 1078 :   if (brotate)

	movzx	eax, BYTE PTR _brotate$[ebp]
	test	eax, eax
	je	SHORT $LN2@perspectiv@4

; 1079 :   {
; 1080 :     return perspective_float_depth(height, (height/aspect), nearPlane,bRightHanded, brotate);

	movzx	eax, BYTE PTR _brotate$[ebp]
	push	eax
	movzx	ecx, BYTE PTR _bRightHanded$[ebp]
	push	ecx
	push	ecx
	fld	DWORD PTR _nearPlane$[ebp]
	fstp	DWORD PTR [esp]
	fld	DWORD PTR _height$[ebp]
	fdiv	DWORD PTR _aspect$[ebp]
	fstp	DWORD PTR tv177[ebp]
	fld	DWORD PTR tv177[ebp]
	push	ecx
	fstp	DWORD PTR [esp]
	push	ecx
	fld	DWORD PTR _height$[ebp]
	fstp	DWORD PTR [esp]
	mov	edx, DWORD PTR ___$ReturnUdt$[ebp]
	push	edx
	call	?perspective_float_depth@pecker_matrix4@pecker_sdk@@SA?AU12@MMM_N0@Z ; pecker_sdk::pecker_matrix4::perspective_float_depth
	add	esp, 24					; 00000018H
	mov	eax, DWORD PTR ___$ReturnUdt$[ebp]
	jmp	SHORT $LN1@perspectiv@4

; 1081 :   }
; 1082 :   else

	jmp	SHORT $LN1@perspectiv@4
$LN2@perspectiv@4:

; 1083 :   {
; 1084 :     return perspective_float_depth((height/aspect), height, nearPlane,bRightHanded, brotate);

	movzx	eax, BYTE PTR _brotate$[ebp]
	push	eax
	movzx	ecx, BYTE PTR _bRightHanded$[ebp]
	push	ecx
	push	ecx
	fld	DWORD PTR _nearPlane$[ebp]
	fstp	DWORD PTR [esp]
	push	ecx
	fld	DWORD PTR _height$[ebp]
	fstp	DWORD PTR [esp]
	fld	DWORD PTR _height$[ebp]
	fdiv	DWORD PTR _aspect$[ebp]
	fstp	DWORD PTR tv191[ebp]
	fld	DWORD PTR tv191[ebp]
	push	ecx
	fstp	DWORD PTR [esp]
	mov	edx, DWORD PTR ___$ReturnUdt$[ebp]
	push	edx
	call	?perspective_float_depth@pecker_matrix4@pecker_sdk@@SA?AU12@MMM_N0@Z ; pecker_sdk::pecker_matrix4::perspective_float_depth
	add	esp, 24					; 00000018H
	mov	eax, DWORD PTR ___$ReturnUdt$[ebp]
$LN1@perspectiv@4:

; 1085 :   }
; 1086 : }

	pop	edi
	pop	esi
	pop	ebx
	add	esp, 216				; 000000d8H
	cmp	ebp, esp
	call	__RTC_CheckEsp
	mov	esp, ebp
	pop	ebp
	ret	0
?perspective_fov_float_depth@pecker_matrix4@pecker_sdk@@SA?AU12@MMM_N0@Z ENDP ; pecker_sdk::pecker_matrix4::perspective_fov_float_depth
_TEXT	ENDS
END
