; Listing generated by Microsoft (R) Optimizing Compiler Version 16.00.40219.01 

	TITLE	F:\codes\pecker_framework_git\pecker_src\pecker_framework\native\pecker_window.cpp
	.686P
	.XMM
	include listing.inc
	.model	flat

INCLUDELIB MSVCRTD
INCLUDELIB OLDNAMES

_BSS	SEGMENT
_g_main_window_handle DD 01H DUP (?)
_globle_windows_id DD 01H DUP (?)
_BSS	ENDS
PUBLIC	?pecker_render_thread@pecker_window_context@pecker_sdk@@SAJPAV12@@Z ; pecker_sdk::pecker_window_context::pecker_render_thread
PUBLIC	?pecker_render_thread_callback@pecker_sdk@@YGKPAX@Z ; pecker_sdk::pecker_render_thread_callback
EXTRN	__RTC_CheckEsp:PROC
EXTRN	__RTC_Shutdown:PROC
EXTRN	__RTC_InitBase:PROC
;	COMDAT rtc$TMZ
; File f:\codes\pecker_framework_git\pecker_src\pecker_framework\native\pecker_window.cpp
rtc$TMZ	SEGMENT
__RTC_Shutdown.rtc$TMZ DD FLAT:__RTC_Shutdown
rtc$TMZ	ENDS
;	COMDAT rtc$IMZ
rtc$IMZ	SEGMENT
__RTC_InitBase.rtc$IMZ DD FLAT:__RTC_InitBase
; Function compile flags: /Odtp /RTCsu /ZI
rtc$IMZ	ENDS
;	COMDAT ?pecker_render_thread_callback@pecker_sdk@@YGKPAX@Z
_TEXT	SEGMENT
_lpParameter$ = 8					; size = 4
?pecker_render_thread_callback@pecker_sdk@@YGKPAX@Z PROC ; pecker_sdk::pecker_render_thread_callback, COMDAT

; 42   : {

	push	ebp
	mov	ebp, esp
	sub	esp, 192				; 000000c0H
	push	ebx
	push	esi
	push	edi
	lea	edi, DWORD PTR [ebp-192]
	mov	ecx, 48					; 00000030H
	mov	eax, -858993460				; ccccccccH
	rep stosd

; 43   : 	return pecker_window_context::pecker_render_thread((pecker_window_context*)lpParameter);

	mov	eax, DWORD PTR _lpParameter$[ebp]
	push	eax
	call	?pecker_render_thread@pecker_window_context@pecker_sdk@@SAJPAV12@@Z ; pecker_sdk::pecker_window_context::pecker_render_thread
	add	esp, 4

; 44   : }

	pop	edi
	pop	esi
	pop	ebx
	add	esp, 192				; 000000c0H
	cmp	ebp, esp
	call	__RTC_CheckEsp
	mov	esp, ebp
	pop	ebp
	ret	4
?pecker_render_thread_callback@pecker_sdk@@YGKPAX@Z ENDP ; pecker_sdk::pecker_render_thread_callback
_TEXT	ENDS
PUBLIC	??1pecker_window_info@pecker_sdk@@QAE@XZ	; pecker_sdk::pecker_window_info::~pecker_window_info
PUBLIC	??1pecker_window_display@pecker_sdk@@UAE@XZ	; pecker_sdk::pecker_window_display::~pecker_window_display
PUBLIC	?get_data@?$pecker_share_string_base_t@DU?$pecker_value_compare@D@pecker_sdk@@V?$pecker_simple_allocator@D@2@$0BA@@pecker_sdk@@QBEPBDXZ ; pecker_sdk::pecker_share_string_base_t<char,pecker_sdk::pecker_value_compare<char>,pecker_sdk::pecker_simple_allocator<char>,16>::get_data
PUBLIC	?init@?$pecker_share_string_base_t@DU?$pecker_value_compare@D@pecker_sdk@@V?$pecker_simple_allocator@D@2@$0BA@@pecker_sdk@@QAEJPBDH_N@Z ; pecker_sdk::pecker_share_string_base_t<char,pecker_sdk::pecker_value_compare<char>,pecker_sdk::pecker_simple_allocator<char>,16>::init
PUBLIC	??_C@_0BB@PAOANMGJ@pfx_win?$AA?$AA?$AA?$AA?$AA?$AA?$AA?$AA?$AA?$AA@ ; `string'
PUBLIC	??0pecker_window_info@pecker_sdk@@QAE@XZ	; pecker_sdk::pecker_window_info::pecker_window_info
PUBLIC	??_7pecker_window_context@pecker_sdk@@6B@	; pecker_sdk::pecker_window_context::`vftable'
PUBLIC	??0pecker_window_display@pecker_sdk@@QAE@XZ	; pecker_sdk::pecker_window_display::pecker_window_display
PUBLIC	??0pecker_window_context@pecker_sdk@@QAE@XZ	; pecker_sdk::pecker_window_context::pecker_window_context
PUBLIC	??_R4pecker_window_context@pecker_sdk@@6B@	; pecker_sdk::pecker_window_context::`RTTI Complete Object Locator'
PUBLIC	??_R0?AVpecker_window_context@pecker_sdk@@@8	; pecker_sdk::pecker_window_context `RTTI Type Descriptor'
PUBLIC	??_R3pecker_window_context@pecker_sdk@@8	; pecker_sdk::pecker_window_context::`RTTI Class Hierarchy Descriptor'
PUBLIC	??_R2pecker_window_context@pecker_sdk@@8	; pecker_sdk::pecker_window_context::`RTTI Base Class Array'
PUBLIC	??_R1A@?0A@EA@pecker_window_context@pecker_sdk@@8 ; pecker_sdk::pecker_window_context::`RTTI Base Class Descriptor at (0,-1,0,64)'
PUBLIC	??_R1A@?0A@EN@pecker_window_display@pecker_sdk@@8 ; pecker_sdk::pecker_window_display::`RTTI Base Class Descriptor at (0,-1,0,77)'
PUBLIC	??_R0?AUpecker_window_display@pecker_sdk@@@8	; pecker_sdk::pecker_window_display `RTTI Type Descriptor'
PUBLIC	??_R3pecker_window_display@pecker_sdk@@8	; pecker_sdk::pecker_window_display::`RTTI Class Hierarchy Descriptor'
PUBLIC	??_R2pecker_window_display@pecker_sdk@@8	; pecker_sdk::pecker_window_display::`RTTI Base Class Array'
PUBLIC	??_R1A@?0A@EA@pecker_window_display@pecker_sdk@@8 ; pecker_sdk::pecker_window_display::`RTTI Base Class Descriptor at (0,-1,0,64)'
PUBLIC	?on_event@pecker_window_context@pecker_sdk@@MAEJIJJ@Z ; pecker_sdk::pecker_window_context::on_event
PUBLIC	?on_create@pecker_window_context@pecker_sdk@@MAEJXZ ; pecker_sdk::pecker_window_context::on_create
PUBLIC	?on_close@pecker_window_context@pecker_sdk@@MAEJXZ ; pecker_sdk::pecker_window_context::on_close
PUBLIC	?on_render@pecker_window_context@pecker_sdk@@MAEJXZ ; pecker_sdk::pecker_window_context::on_render
PUBLIC	?on_parse@pecker_window_context@pecker_sdk@@MAEJXZ ; pecker_sdk::pecker_window_context::on_parse
PUBLIC	?on_resume@pecker_window_context@pecker_sdk@@MAEJXZ ; pecker_sdk::pecker_window_context::on_resume
PUBLIC	?is_visiable@pecker_window_context@pecker_sdk@@UBEHXZ ; pecker_sdk::pecker_window_context::is_visiable
PUBLIC	?set_visiable@pecker_window_context@pecker_sdk@@UAEJH@Z ; pecker_sdk::pecker_window_context::set_visiable
PUBLIC	?init_window@pecker_window_context@pecker_sdk@@UAEJABUpecker_window_info@2@@Z ; pecker_sdk::pecker_window_context::init_window
PUBLIC	?is_full_screen@pecker_window_context@pecker_sdk@@UBEHXZ ; pecker_sdk::pecker_window_context::is_full_screen
PUBLIC	?set_full_screen@pecker_window_context@pecker_sdk@@UAEJH@Z ; pecker_sdk::pecker_window_context::set_full_screen
PUBLIC	?show@pecker_window_context@pecker_sdk@@UAEJH@Z	; pecker_sdk::pecker_window_context::show
PUBLIC	?close@pecker_window_context@pecker_sdk@@UAEJXZ	; pecker_sdk::pecker_window_context::close
EXTRN	??1pecker_critical_section@pecker_sdk@@QAE@XZ:PROC ; pecker_sdk::pecker_critical_section::~pecker_critical_section
EXTRN	??1pecker_thread@pecker_sdk@@UAE@XZ:PROC	; pecker_sdk::pecker_thread::~pecker_thread
EXTRN	??1pecker_write_stream_to_memery@pecker_sdk@@UAE@XZ:PROC ; pecker_sdk::pecker_write_stream_to_memery::~pecker_write_stream_to_memery
EXTRN	__imp__GetSystemMetrics@4:PROC
EXTRN	?write_integer@pecker_write_stream_to_memery@pecker_sdk@@UAEJH@Z:PROC ; pecker_sdk::pecker_write_stream_to_memery::write_integer
EXTRN	?bind_write_buffer@pecker_write_stream_to_memery@pecker_sdk@@QAEJPADH@Z:PROC ; pecker_sdk::pecker_write_stream_to_memery::bind_write_buffer
EXTRN	??0pecker_write_stream_to_memery@pecker_sdk@@QAE@XZ:PROC ; pecker_sdk::pecker_write_stream_to_memery::pecker_write_stream_to_memery
EXTRN	??0pecker_critical_section@pecker_sdk@@QAE@XZ:PROC ; pecker_sdk::pecker_critical_section::pecker_critical_section
EXTRN	??0pecker_thread@pecker_sdk@@QAE@XZ:PROC	; pecker_sdk::pecker_thread::pecker_thread
EXTRN	___security_cookie:DWORD
EXTRN	___CxxFrameHandler3:PROC
EXTRN	@__security_check_cookie@4:PROC
EXTRN	@_RTC_CheckStackVars@8:PROC
EXTRN	??_7type_info@@6B@:QWORD			; type_info::`vftable'
EXTRN	??_Epecker_window_context@pecker_sdk@@UAEPAXI@Z:PROC ; pecker_sdk::pecker_window_context::`vector deleting destructor'
EXTRN	__purecall:PROC
;	COMDAT ??_R1A@?0A@EA@pecker_window_display@pecker_sdk@@8
rdata$r	SEGMENT
??_R1A@?0A@EA@pecker_window_display@pecker_sdk@@8 DD FLAT:??_R0?AUpecker_window_display@pecker_sdk@@@8 ; pecker_sdk::pecker_window_display::`RTTI Base Class Descriptor at (0,-1,0,64)'
	DD	00H
	DD	00H
	DD	0ffffffffH
	DD	00H
	DD	040H
	DD	FLAT:??_R3pecker_window_display@pecker_sdk@@8
rdata$r	ENDS
;	COMDAT ??_R2pecker_window_display@pecker_sdk@@8
rdata$r	SEGMENT
??_R2pecker_window_display@pecker_sdk@@8 DD FLAT:??_R1A@?0A@EA@pecker_window_display@pecker_sdk@@8 ; pecker_sdk::pecker_window_display::`RTTI Base Class Array'
rdata$r	ENDS
;	COMDAT ??_R3pecker_window_display@pecker_sdk@@8
rdata$r	SEGMENT
??_R3pecker_window_display@pecker_sdk@@8 DD 00H		; pecker_sdk::pecker_window_display::`RTTI Class Hierarchy Descriptor'
	DD	00H
	DD	01H
	DD	FLAT:??_R2pecker_window_display@pecker_sdk@@8
rdata$r	ENDS
;	COMDAT ??_R0?AUpecker_window_display@pecker_sdk@@@8
_DATA	SEGMENT
??_R0?AUpecker_window_display@pecker_sdk@@@8 DD FLAT:??_7type_info@@6B@ ; pecker_sdk::pecker_window_display `RTTI Type Descriptor'
	DD	00H
	DB	'.?AUpecker_window_display@pecker_sdk@@', 00H
_DATA	ENDS
;	COMDAT ??_R1A@?0A@EN@pecker_window_display@pecker_sdk@@8
rdata$r	SEGMENT
??_R1A@?0A@EN@pecker_window_display@pecker_sdk@@8 DD FLAT:??_R0?AUpecker_window_display@pecker_sdk@@@8 ; pecker_sdk::pecker_window_display::`RTTI Base Class Descriptor at (0,-1,0,77)'
	DD	00H
	DD	00H
	DD	0ffffffffH
	DD	00H
	DD	04dH
	DD	FLAT:??_R3pecker_window_display@pecker_sdk@@8
rdata$r	ENDS
;	COMDAT ??_R1A@?0A@EA@pecker_window_context@pecker_sdk@@8
rdata$r	SEGMENT
??_R1A@?0A@EA@pecker_window_context@pecker_sdk@@8 DD FLAT:??_R0?AVpecker_window_context@pecker_sdk@@@8 ; pecker_sdk::pecker_window_context::`RTTI Base Class Descriptor at (0,-1,0,64)'
	DD	01H
	DD	00H
	DD	0ffffffffH
	DD	00H
	DD	040H
	DD	FLAT:??_R3pecker_window_context@pecker_sdk@@8
rdata$r	ENDS
;	COMDAT ??_R2pecker_window_context@pecker_sdk@@8
rdata$r	SEGMENT
??_R2pecker_window_context@pecker_sdk@@8 DD FLAT:??_R1A@?0A@EA@pecker_window_context@pecker_sdk@@8 ; pecker_sdk::pecker_window_context::`RTTI Base Class Array'
	DD	FLAT:??_R1A@?0A@EN@pecker_window_display@pecker_sdk@@8
rdata$r	ENDS
;	COMDAT ??_R3pecker_window_context@pecker_sdk@@8
rdata$r	SEGMENT
??_R3pecker_window_context@pecker_sdk@@8 DD 00H		; pecker_sdk::pecker_window_context::`RTTI Class Hierarchy Descriptor'
	DD	00H
	DD	02H
	DD	FLAT:??_R2pecker_window_context@pecker_sdk@@8
rdata$r	ENDS
;	COMDAT ??_R0?AVpecker_window_context@pecker_sdk@@@8
_DATA	SEGMENT
??_R0?AVpecker_window_context@pecker_sdk@@@8 DD FLAT:??_7type_info@@6B@ ; pecker_sdk::pecker_window_context `RTTI Type Descriptor'
	DD	00H
	DB	'.?AVpecker_window_context@pecker_sdk@@', 00H
_DATA	ENDS
;	COMDAT ??_R4pecker_window_context@pecker_sdk@@6B@
rdata$r	SEGMENT
??_R4pecker_window_context@pecker_sdk@@6B@ DD 00H	; pecker_sdk::pecker_window_context::`RTTI Complete Object Locator'
	DD	00H
	DD	00H
	DD	FLAT:??_R0?AVpecker_window_context@pecker_sdk@@@8
	DD	FLAT:??_R3pecker_window_context@pecker_sdk@@8
rdata$r	ENDS
;	COMDAT ??_C@_0BB@PAOANMGJ@pfx_win?$AA?$AA?$AA?$AA?$AA?$AA?$AA?$AA?$AA?$AA@
CONST	SEGMENT
??_C@_0BB@PAOANMGJ@pfx_win?$AA?$AA?$AA?$AA?$AA?$AA?$AA?$AA?$AA?$AA@ DB 'p'
	DB	'fx_win', 00H, 00H, 00H, 00H, 00H, 00H, 00H, 00H, 00H, 00H ; `string'
CONST	ENDS
;	COMDAT ??_7pecker_window_context@pecker_sdk@@6B@
CONST	SEGMENT
??_7pecker_window_context@pecker_sdk@@6B@ DD FLAT:??_R4pecker_window_context@pecker_sdk@@6B@ ; pecker_sdk::pecker_window_context::`vftable'
	DD	FLAT:??_Epecker_window_context@pecker_sdk@@UAEPAXI@Z
	DD	FLAT:__purecall
	DD	FLAT:__purecall
	DD	FLAT:__purecall
	DD	FLAT:__purecall
	DD	FLAT:__purecall
	DD	FLAT:__purecall
	DD	FLAT:__purecall
	DD	FLAT:?on_event@pecker_window_context@pecker_sdk@@MAEJIJJ@Z
	DD	FLAT:?on_create@pecker_window_context@pecker_sdk@@MAEJXZ
	DD	FLAT:?on_close@pecker_window_context@pecker_sdk@@MAEJXZ
	DD	FLAT:?on_render@pecker_window_context@pecker_sdk@@MAEJXZ
	DD	FLAT:?on_parse@pecker_window_context@pecker_sdk@@MAEJXZ
	DD	FLAT:?on_resume@pecker_window_context@pecker_sdk@@MAEJXZ
	DD	FLAT:?is_visiable@pecker_window_context@pecker_sdk@@UBEHXZ
	DD	FLAT:?set_visiable@pecker_window_context@pecker_sdk@@UAEJH@Z
	DD	FLAT:?init_window@pecker_window_context@pecker_sdk@@UAEJABUpecker_window_info@2@@Z
	DD	FLAT:?is_full_screen@pecker_window_context@pecker_sdk@@UBEHXZ
	DD	FLAT:?set_full_screen@pecker_window_context@pecker_sdk@@UAEJH@Z
	DD	FLAT:?show@pecker_window_context@pecker_sdk@@UAEJH@Z
	DD	FLAT:?close@pecker_window_context@pecker_sdk@@UAEJXZ
CONST	ENDS
;	COMDAT xdata$x
xdata$x	SEGMENT
__ehfuncinfo$??0pecker_window_context@pecker_sdk@@QAE@XZ DD 019930522H
	DD	05H
	DD	FLAT:__unwindtable$??0pecker_window_context@pecker_sdk@@QAE@XZ
	DD	2 DUP(00H)
	DD	2 DUP(00H)
	DD	00H
	DD	01H
__unwindtable$??0pecker_window_context@pecker_sdk@@QAE@XZ DD 0ffffffffH
	DD	FLAT:__unwindfunclet$??0pecker_window_context@pecker_sdk@@QAE@XZ$0
	DD	00H
	DD	FLAT:__unwindfunclet$??0pecker_window_context@pecker_sdk@@QAE@XZ$1
	DD	01H
	DD	FLAT:__unwindfunclet$??0pecker_window_context@pecker_sdk@@QAE@XZ$2
	DD	02H
	DD	FLAT:__unwindfunclet$??0pecker_window_context@pecker_sdk@@QAE@XZ$3
	DD	03H
	DD	FLAT:__unwindfunclet$??0pecker_window_context@pecker_sdk@@QAE@XZ$4
; Function compile flags: /Odtp /RTCsu /ZI
xdata$x	ENDS
;	COMDAT ??0pecker_window_context@pecker_sdk@@QAE@XZ
_TEXT	SEGMENT
_write_stream$ = -68					; size = 40
_this$ = -20						; size = 4
__$EHRec$ = -12						; size = 12
??0pecker_window_context@pecker_sdk@@QAE@XZ PROC	; pecker_sdk::pecker_window_context::pecker_window_context, COMDAT
; _this$ = ecx

; 49   : {

	push	ebp
	mov	ebp, esp
	push	-1
	push	__ehhandler$??0pecker_window_context@pecker_sdk@@QAE@XZ
	mov	eax, DWORD PTR fs:0
	push	eax
	sub	esp, 252				; 000000fcH
	push	ebx
	push	esi
	push	edi
	push	ecx
	lea	edi, DWORD PTR [ebp-264]
	mov	ecx, 63					; 0000003fH
	mov	eax, -858993460				; ccccccccH
	rep stosd
	pop	ecx
	mov	eax, DWORD PTR ___security_cookie
	xor	eax, ebp
	push	eax
	lea	eax, DWORD PTR __$EHRec$[ebp]
	mov	DWORD PTR fs:0, eax
	mov	DWORD PTR _this$[ebp], ecx
	mov	ecx, DWORD PTR _this$[ebp]
	call	??0pecker_window_display@pecker_sdk@@QAE@XZ
	mov	DWORD PTR __$EHRec$[ebp+8], 0
	mov	eax, DWORD PTR _this$[ebp]
	mov	DWORD PTR [eax], OFFSET ??_7pecker_window_context@pecker_sdk@@6B@
	mov	eax, DWORD PTR _this$[ebp]
	mov	DWORD PTR [eax+4], 0
	mov	eax, DWORD PTR _this$[ebp]
	mov	DWORD PTR [eax+8], 0
	mov	ecx, DWORD PTR _this$[ebp]
	add	ecx, 12					; 0000000cH
	call	??0pecker_window_info@pecker_sdk@@QAE@XZ
	mov	BYTE PTR __$EHRec$[ebp+8], 1
	mov	ecx, DWORD PTR _this$[ebp]
	add	ecx, 108				; 0000006cH
	call	??0pecker_thread@pecker_sdk@@QAE@XZ	; pecker_sdk::pecker_thread::pecker_thread
	mov	BYTE PTR __$EHRec$[ebp+8], 2
	mov	ecx, DWORD PTR _this$[ebp]
	add	ecx, 164				; 000000a4H
	call	??0pecker_critical_section@pecker_sdk@@QAE@XZ ; pecker_sdk::pecker_critical_section::pecker_critical_section
	mov	BYTE PTR __$EHRec$[ebp+8], 3

; 50   : 	_M_window_info._M_window_id = globle_windows_id;

	mov	eax, DWORD PTR _this$[ebp]
	mov	ecx, DWORD PTR _globle_windows_id
	mov	DWORD PTR [eax+12], ecx

; 51   : 	++globle_windows_id;

	mov	eax, DWORD PTR _globle_windows_id
	add	eax, 1
	mov	DWORD PTR _globle_windows_id, eax

; 52   : 	
; 53   : 	_M_window_info._M_is_mul_frame_buffer = BOOL_TRUE;

	mov	eax, DWORD PTR _this$[ebp]
	mov	DWORD PTR [eax+36], 1

; 54   : 	_M_window_info._M_resouce_handle = null;

	mov	eax, DWORD PTR _this$[ebp]
	mov	DWORD PTR [eax+20], 0

; 55   : 	_M_window_info._M_window_handle = null;

	mov	eax, DWORD PTR _this$[ebp]
	mov	DWORD PTR [eax+16], 0

; 56   : 	_M_window_info._M_menu_handle = null;

	mov	eax, DWORD PTR _this$[ebp]
	mov	DWORD PTR [eax+24], 0

; 57   : 	_M_window_info._M_visiable = BOOL_TRUE;

	mov	eax, DWORD PTR _this$[ebp]
	mov	DWORD PTR [eax+32], 1

; 58   : 	_M_window_info._M_using_render_thread = BOOL_FALSE;

	mov	eax, DWORD PTR _this$[ebp]
	mov	DWORD PTR [eax+40], 0

; 59   : 	_M_window_info._M_window_title.init("pfx_win\0\0\0\0\0\0\0\0\0",16);

	push	0
	push	16					; 00000010H
	push	OFFSET ??_C@_0BB@PAOANMGJ@pfx_win?$AA?$AA?$AA?$AA?$AA?$AA?$AA?$AA?$AA?$AA@
	mov	ecx, DWORD PTR _this$[ebp]
	add	ecx, 72					; 00000048H
	call	?init@?$pecker_share_string_base_t@DU?$pecker_value_compare@D@pecker_sdk@@V?$pecker_simple_allocator@D@2@$0BA@@pecker_sdk@@QAEJPBDH_N@Z ; pecker_sdk::pecker_share_string_base_t<char,pecker_sdk::pecker_value_compare<char>,pecker_sdk::pecker_simple_allocator<char>,16>::init

; 60   : 	
; 61   : 	pecker_write_stream_to_memery write_stream;

	lea	ecx, DWORD PTR _write_stream$[ebp]
	call	??0pecker_write_stream_to_memery@pecker_sdk@@QAE@XZ ; pecker_sdk::pecker_write_stream_to_memery::pecker_write_stream_to_memery
	mov	BYTE PTR __$EHRec$[ebp+8], 4

; 62   : 	write_stream.bind_write_buffer( (char*)(_M_window_info._M_window_title.get_data() + 7),8);

	push	8
	mov	ecx, DWORD PTR _this$[ebp]
	add	ecx, 72					; 00000048H
	call	?get_data@?$pecker_share_string_base_t@DU?$pecker_value_compare@D@pecker_sdk@@V?$pecker_simple_allocator@D@2@$0BA@@pecker_sdk@@QBEPBDXZ ; pecker_sdk::pecker_share_string_base_t<char,pecker_sdk::pecker_value_compare<char>,pecker_sdk::pecker_simple_allocator<char>,16>::get_data
	add	eax, 7
	push	eax
	lea	ecx, DWORD PTR _write_stream$[ebp]
	call	?bind_write_buffer@pecker_write_stream_to_memery@pecker_sdk@@QAEJPADH@Z ; pecker_sdk::pecker_write_stream_to_memery::bind_write_buffer

; 63   : 	write_stream.write_integer(_M_window_info._M_window_id);

	mov	eax, DWORD PTR _this$[ebp]
	mov	ecx, DWORD PTR [eax+12]
	push	ecx
	lea	ecx, DWORD PTR _write_stream$[ebp]
	call	?write_integer@pecker_write_stream_to_memery@pecker_sdk@@UAEJH@Z ; pecker_sdk::pecker_write_stream_to_memery::write_integer

; 64   : 
; 65   : 	_M_window_info._M_window_param._M_window_style = DEFAULT_WIN_BORDERSTYLE;

	mov	eax, DWORD PTR _this$[ebp]
	mov	DWORD PTR [eax+44], 0

; 66   : 	_M_window_info._M_window_param._M_cursor_style = DEFAULT_CURSOR_BORDERSTYLE;

	mov	eax, DWORD PTR _this$[ebp]
	mov	DWORD PTR [eax+52], 0

; 67   : 	_M_window_info._M_window_param._M_window_external_style = WIN_EX_APPWINDOW_STYLE;

	mov	eax, DWORD PTR _this$[ebp]
	mov	DWORD PTR [eax+48], 0

; 68   : 
; 69   : #ifdef WINDOWS_PC
; 70   : 	_M_window_info._M_is_full_screen = BOOL_FALSE;

	mov	eax, DWORD PTR _this$[ebp]
	mov	DWORD PTR [eax+28], 0

; 71   : 	_M_window_info._M_window_param._M_x = ::GetSystemMetrics(SM_CXSCREEN) / 5;

	mov	esi, esp
	push	0
	call	DWORD PTR __imp__GetSystemMetrics@4
	cmp	esi, esp
	call	__RTC_CheckEsp
	cdq
	mov	ecx, 5
	idiv	ecx
	mov	edx, DWORD PTR _this$[ebp]
	mov	DWORD PTR [edx+64], eax

; 72   : 	_M_window_info._M_window_param._M_y = ::GetSystemMetrics(SM_CYSCREEN) / 5;

	mov	esi, esp
	push	1
	call	DWORD PTR __imp__GetSystemMetrics@4
	cmp	esi, esp
	call	__RTC_CheckEsp
	cdq
	mov	ecx, 5
	idiv	ecx
	mov	edx, DWORD PTR _this$[ebp]
	mov	DWORD PTR [edx+68], eax

; 73   : 
; 74   : 	_M_render_thread.init_thread(pecker_render_thread_callback,this);

	mov	esi, esp
	push	0
	push	0
	push	0
	mov	eax, DWORD PTR _this$[ebp]
	push	eax
	push	OFFSET ?pecker_render_thread_callback@pecker_sdk@@YGKPAX@Z ; pecker_sdk::pecker_render_thread_callback
	mov	ecx, DWORD PTR _this$[ebp]
	add	ecx, 108				; 0000006cH
	mov	edx, DWORD PTR _this$[ebp]
	mov	eax, DWORD PTR [edx+108]
	mov	edx, DWORD PTR [eax+28]
	call	edx
	cmp	esi, esp
	call	__RTC_CheckEsp

; 75   : #else
; 76   : 	_M_window_info._M_is_full_screen = BOOL_TRUE;
; 77   : 	_M_window_info._M_window_param._M_x = 0;
; 78   : 	_M_window_info._M_window_param._M_y = 0;
; 79   : #endif
; 80   : 	_M_window_info._M_window_param._M_width = 800;

	mov	eax, DWORD PTR _this$[ebp]
	mov	DWORD PTR [eax+56], 800			; 00000320H

; 81   : 	_M_window_info._M_window_param._M_height = 600;

	mov	eax, DWORD PTR _this$[ebp]
	mov	DWORD PTR [eax+60], 600			; 00000258H

; 82   : 
; 83   : 
; 84   : }

	mov	BYTE PTR __$EHRec$[ebp+8], 3
	lea	ecx, DWORD PTR _write_stream$[ebp]
	call	??1pecker_write_stream_to_memery@pecker_sdk@@UAE@XZ ; pecker_sdk::pecker_write_stream_to_memery::~pecker_write_stream_to_memery
	mov	DWORD PTR __$EHRec$[ebp+8], -1
	mov	eax, DWORD PTR _this$[ebp]
	push	edx
	mov	ecx, ebp
	push	eax
	lea	edx, DWORD PTR $LN11@pecker_win
	call	@_RTC_CheckStackVars@8
	pop	eax
	pop	edx
	mov	ecx, DWORD PTR __$EHRec$[ebp]
	mov	DWORD PTR fs:0, ecx
	pop	ecx
	pop	edi
	pop	esi
	pop	ebx
	add	esp, 264				; 00000108H
	cmp	ebp, esp
	call	__RTC_CheckEsp
	mov	esp, ebp
	pop	ebp
	ret	0
$LN11@pecker_win:
	DD	1
	DD	$LN10@pecker_win
$LN10@pecker_win:
	DD	-68					; ffffffbcH
	DD	40					; 00000028H
	DD	$LN8@pecker_win
$LN8@pecker_win:
	DB	119					; 00000077H
	DB	114					; 00000072H
	DB	105					; 00000069H
	DB	116					; 00000074H
	DB	101					; 00000065H
	DB	95					; 0000005fH
	DB	115					; 00000073H
	DB	116					; 00000074H
	DB	114					; 00000072H
	DB	101					; 00000065H
	DB	97					; 00000061H
	DB	109					; 0000006dH
	DB	0
_TEXT	ENDS
;	COMDAT text$x
text$x	SEGMENT
__unwindfunclet$??0pecker_window_context@pecker_sdk@@QAE@XZ$0:
	mov	ecx, DWORD PTR _this$[ebp]
	jmp	??1pecker_window_display@pecker_sdk@@UAE@XZ ; pecker_sdk::pecker_window_display::~pecker_window_display
__unwindfunclet$??0pecker_window_context@pecker_sdk@@QAE@XZ$1:
	mov	ecx, DWORD PTR _this$[ebp]
	add	ecx, 12					; 0000000cH
	jmp	??1pecker_window_info@pecker_sdk@@QAE@XZ
__unwindfunclet$??0pecker_window_context@pecker_sdk@@QAE@XZ$2:
	mov	ecx, DWORD PTR _this$[ebp]
	add	ecx, 108				; 0000006cH
	jmp	??1pecker_thread@pecker_sdk@@UAE@XZ	; pecker_sdk::pecker_thread::~pecker_thread
__unwindfunclet$??0pecker_window_context@pecker_sdk@@QAE@XZ$3:
	mov	ecx, DWORD PTR _this$[ebp]
	add	ecx, 164				; 000000a4H
	jmp	??1pecker_critical_section@pecker_sdk@@QAE@XZ ; pecker_sdk::pecker_critical_section::~pecker_critical_section
__unwindfunclet$??0pecker_window_context@pecker_sdk@@QAE@XZ$4:
	lea	ecx, DWORD PTR _write_stream$[ebp]
	jmp	??1pecker_write_stream_to_memery@pecker_sdk@@UAE@XZ ; pecker_sdk::pecker_write_stream_to_memery::~pecker_write_stream_to_memery
__ehhandler$??0pecker_window_context@pecker_sdk@@QAE@XZ:
	mov	edx, DWORD PTR [esp+8]
	lea	eax, DWORD PTR [edx+12]
	mov	ecx, DWORD PTR [edx-268]
	xor	ecx, eax
	call	@__security_check_cookie@4
	mov	eax, OFFSET __ehfuncinfo$??0pecker_window_context@pecker_sdk@@QAE@XZ
	jmp	___CxxFrameHandler3
text$x	ENDS
??0pecker_window_context@pecker_sdk@@QAE@XZ ENDP	; pecker_sdk::pecker_window_context::pecker_window_context
PUBLIC	??_7pecker_window_display@pecker_sdk@@6B@	; pecker_sdk::pecker_window_display::`vftable'
PUBLIC	??_R4pecker_window_display@pecker_sdk@@6B@	; pecker_sdk::pecker_window_display::`RTTI Complete Object Locator'
EXTRN	??_Epecker_window_display@pecker_sdk@@UAEPAXI@Z:PROC ; pecker_sdk::pecker_window_display::`vector deleting destructor'
;	COMDAT ??_R4pecker_window_display@pecker_sdk@@6B@
; File f:\codes\pecker_framework_git\pecker_src\pecker_framework\native\pecker_window.h
rdata$r	SEGMENT
??_R4pecker_window_display@pecker_sdk@@6B@ DD 00H	; pecker_sdk::pecker_window_display::`RTTI Complete Object Locator'
	DD	00H
	DD	00H
	DD	FLAT:??_R0?AUpecker_window_display@pecker_sdk@@@8
	DD	FLAT:??_R3pecker_window_display@pecker_sdk@@8
rdata$r	ENDS
;	COMDAT ??_7pecker_window_display@pecker_sdk@@6B@
CONST	SEGMENT
??_7pecker_window_display@pecker_sdk@@6B@ DD FLAT:??_R4pecker_window_display@pecker_sdk@@6B@ ; pecker_sdk::pecker_window_display::`vftable'
	DD	FLAT:??_Epecker_window_display@pecker_sdk@@UAEPAXI@Z
	DD	FLAT:__purecall
	DD	FLAT:__purecall
	DD	FLAT:__purecall
	DD	FLAT:__purecall
	DD	FLAT:__purecall
	DD	FLAT:__purecall
	DD	FLAT:__purecall
; Function compile flags: /Odtp /RTCsu /ZI
CONST	ENDS
;	COMDAT ??1pecker_window_display@pecker_sdk@@UAE@XZ
_TEXT	SEGMENT
_this$ = -8						; size = 4
??1pecker_window_display@pecker_sdk@@UAE@XZ PROC	; pecker_sdk::pecker_window_display::~pecker_window_display, COMDAT
; _this$ = ecx

; 77   : 	virtual ~pecker_window_display(){;}

	push	ebp
	mov	ebp, esp
	sub	esp, 204				; 000000ccH
	push	ebx
	push	esi
	push	edi
	push	ecx
	lea	edi, DWORD PTR [ebp-204]
	mov	ecx, 51					; 00000033H
	mov	eax, -858993460				; ccccccccH
	rep stosd
	pop	ecx
	mov	DWORD PTR _this$[ebp], ecx
	mov	eax, DWORD PTR _this$[ebp]
	mov	DWORD PTR [eax], OFFSET ??_7pecker_window_display@pecker_sdk@@6B@
	pop	edi
	pop	esi
	pop	ebx
	mov	esp, ebp
	pop	ebp
	ret	0
??1pecker_window_display@pecker_sdk@@UAE@XZ ENDP	; pecker_sdk::pecker_window_display::~pecker_window_display
_TEXT	ENDS
EXTRN	??3@YAXPAX@Z:PROC				; operator delete
; Function compile flags: /Odtp /RTCsu /ZI
;	COMDAT ??_Gpecker_window_display@pecker_sdk@@UAEPAXI@Z
_TEXT	SEGMENT
_this$ = -8						; size = 4
___flags$ = 8						; size = 4
??_Gpecker_window_display@pecker_sdk@@UAEPAXI@Z PROC	; pecker_sdk::pecker_window_display::`scalar deleting destructor', COMDAT
; _this$ = ecx
	push	ebp
	mov	ebp, esp
	sub	esp, 204				; 000000ccH
	push	ebx
	push	esi
	push	edi
	push	ecx
	lea	edi, DWORD PTR [ebp-204]
	mov	ecx, 51					; 00000033H
	mov	eax, -858993460				; ccccccccH
	rep stosd
	pop	ecx
	mov	DWORD PTR _this$[ebp], ecx
	mov	ecx, DWORD PTR _this$[ebp]
	call	??1pecker_window_display@pecker_sdk@@UAE@XZ ; pecker_sdk::pecker_window_display::~pecker_window_display
	mov	eax, DWORD PTR ___flags$[ebp]
	and	eax, 1
	je	SHORT $LN1@scalar
	mov	eax, DWORD PTR _this$[ebp]
	push	eax
	call	??3@YAXPAX@Z				; operator delete
	add	esp, 4
$LN1@scalar:
	mov	eax, DWORD PTR _this$[ebp]
	pop	edi
	pop	esi
	pop	ebx
	add	esp, 204				; 000000ccH
	cmp	ebp, esp
	call	__RTC_CheckEsp
	mov	esp, ebp
	pop	ebp
	ret	4
??_Gpecker_window_display@pecker_sdk@@UAEPAXI@Z ENDP	; pecker_sdk::pecker_window_display::`scalar deleting destructor'
_TEXT	ENDS
PUBLIC	??1pecker_window_context@pecker_sdk@@UAE@XZ	; pecker_sdk::pecker_window_context::~pecker_window_context
; Function compile flags: /Odtp /RTCsu /ZI
;	COMDAT ??_Gpecker_window_context@pecker_sdk@@UAEPAXI@Z
_TEXT	SEGMENT
_this$ = -8						; size = 4
___flags$ = 8						; size = 4
??_Gpecker_window_context@pecker_sdk@@UAEPAXI@Z PROC	; pecker_sdk::pecker_window_context::`scalar deleting destructor', COMDAT
; _this$ = ecx
	push	ebp
	mov	ebp, esp
	sub	esp, 204				; 000000ccH
	push	ebx
	push	esi
	push	edi
	push	ecx
	lea	edi, DWORD PTR [ebp-204]
	mov	ecx, 51					; 00000033H
	mov	eax, -858993460				; ccccccccH
	rep stosd
	pop	ecx
	mov	DWORD PTR _this$[ebp], ecx
	mov	ecx, DWORD PTR _this$[ebp]
	call	??1pecker_window_context@pecker_sdk@@UAE@XZ ; pecker_sdk::pecker_window_context::~pecker_window_context
	mov	eax, DWORD PTR ___flags$[ebp]
	and	eax, 1
	je	SHORT $LN1@scalar@2
	mov	eax, DWORD PTR _this$[ebp]
	push	eax
	call	??3@YAXPAX@Z				; operator delete
	add	esp, 4
$LN1@scalar@2:
	mov	eax, DWORD PTR _this$[ebp]
	pop	edi
	pop	esi
	pop	ebx
	add	esp, 204				; 000000ccH
	cmp	ebp, esp
	call	__RTC_CheckEsp
	mov	esp, ebp
	pop	ebp
	ret	4
??_Gpecker_window_context@pecker_sdk@@UAEPAXI@Z ENDP	; pecker_sdk::pecker_window_context::`scalar deleting destructor'
; Function compile flags: /Odtp /RTCsu /ZI
_TEXT	ENDS
;	COMDAT ??0pecker_window_display@pecker_sdk@@QAE@XZ
_TEXT	SEGMENT
_this$ = -8						; size = 4
??0pecker_window_display@pecker_sdk@@QAE@XZ PROC	; pecker_sdk::pecker_window_display::pecker_window_display, COMDAT
; _this$ = ecx
	push	ebp
	mov	ebp, esp
	sub	esp, 204				; 000000ccH
	push	ebx
	push	esi
	push	edi
	push	ecx
	lea	edi, DWORD PTR [ebp-204]
	mov	ecx, 51					; 00000033H
	mov	eax, -858993460				; ccccccccH
	rep stosd
	pop	ecx
	mov	DWORD PTR _this$[ebp], ecx
	mov	eax, DWORD PTR _this$[ebp]
	mov	DWORD PTR [eax], OFFSET ??_7pecker_window_display@pecker_sdk@@6B@
	mov	eax, DWORD PTR _this$[ebp]
	pop	edi
	pop	esi
	pop	ebx
	mov	esp, ebp
	pop	ebp
	ret	0
??0pecker_window_display@pecker_sdk@@QAE@XZ ENDP	; pecker_sdk::pecker_window_display::pecker_window_display
_TEXT	ENDS
PUBLIC	??0?$pecker_share_string_base_t@DU?$pecker_value_compare@D@pecker_sdk@@V?$pecker_simple_allocator@D@2@$0BA@@pecker_sdk@@QAE@XZ ; pecker_sdk::pecker_share_string_base_t<char,pecker_sdk::pecker_value_compare<char>,pecker_sdk::pecker_simple_allocator<char>,16>::pecker_share_string_base_t<char,pecker_sdk::pecker_value_compare<char>,pecker_sdk::pecker_simple_allocator<char>,16>
; Function compile flags: /Odtp /RTCsu /ZI
;	COMDAT ??0pecker_window_info@pecker_sdk@@QAE@XZ
_TEXT	SEGMENT
_this$ = -8						; size = 4
??0pecker_window_info@pecker_sdk@@QAE@XZ PROC		; pecker_sdk::pecker_window_info::pecker_window_info, COMDAT
; _this$ = ecx
	push	ebp
	mov	ebp, esp
	sub	esp, 204				; 000000ccH
	push	ebx
	push	esi
	push	edi
	push	ecx
	lea	edi, DWORD PTR [ebp-204]
	mov	ecx, 51					; 00000033H
	mov	eax, -858993460				; ccccccccH
	rep stosd
	pop	ecx
	mov	DWORD PTR _this$[ebp], ecx
	mov	ecx, DWORD PTR _this$[ebp]
	add	ecx, 60					; 0000003cH
	call	??0?$pecker_share_string_base_t@DU?$pecker_value_compare@D@pecker_sdk@@V?$pecker_simple_allocator@D@2@$0BA@@pecker_sdk@@QAE@XZ ; pecker_sdk::pecker_share_string_base_t<char,pecker_sdk::pecker_value_compare<char>,pecker_sdk::pecker_simple_allocator<char>,16>::pecker_share_string_base_t<char,pecker_sdk::pecker_value_compare<char>,pecker_sdk::pecker_simple_allocator<char>,16>
	mov	eax, DWORD PTR _this$[ebp]
	pop	edi
	pop	esi
	pop	ebx
	add	esp, 204				; 000000ccH
	cmp	ebp, esp
	call	__RTC_CheckEsp
	mov	esp, ebp
	pop	ebp
	ret	0
??0pecker_window_info@pecker_sdk@@QAE@XZ ENDP		; pecker_sdk::pecker_window_info::pecker_window_info
_TEXT	ENDS
PUBLIC	??1?$pecker_share_string_base_t@DU?$pecker_value_compare@D@pecker_sdk@@V?$pecker_simple_allocator@D@2@$0BA@@pecker_sdk@@QAE@XZ ; pecker_sdk::pecker_share_string_base_t<char,pecker_sdk::pecker_value_compare<char>,pecker_sdk::pecker_simple_allocator<char>,16>::~pecker_share_string_base_t<char,pecker_sdk::pecker_value_compare<char>,pecker_sdk::pecker_simple_allocator<char>,16>
; Function compile flags: /Odtp /RTCsu /ZI
;	COMDAT ??1pecker_window_info@pecker_sdk@@QAE@XZ
_TEXT	SEGMENT
_this$ = -8						; size = 4
??1pecker_window_info@pecker_sdk@@QAE@XZ PROC		; pecker_sdk::pecker_window_info::~pecker_window_info, COMDAT
; _this$ = ecx
	push	ebp
	mov	ebp, esp
	sub	esp, 204				; 000000ccH
	push	ebx
	push	esi
	push	edi
	push	ecx
	lea	edi, DWORD PTR [ebp-204]
	mov	ecx, 51					; 00000033H
	mov	eax, -858993460				; ccccccccH
	rep stosd
	pop	ecx
	mov	DWORD PTR _this$[ebp], ecx
	mov	ecx, DWORD PTR _this$[ebp]
	add	ecx, 60					; 0000003cH
	call	??1?$pecker_share_string_base_t@DU?$pecker_value_compare@D@pecker_sdk@@V?$pecker_simple_allocator@D@2@$0BA@@pecker_sdk@@QAE@XZ ; pecker_sdk::pecker_share_string_base_t<char,pecker_sdk::pecker_value_compare<char>,pecker_sdk::pecker_simple_allocator<char>,16>::~pecker_share_string_base_t<char,pecker_sdk::pecker_value_compare<char>,pecker_sdk::pecker_simple_allocator<char>,16>
	pop	edi
	pop	esi
	pop	ebx
	add	esp, 204				; 000000ccH
	cmp	ebp, esp
	call	__RTC_CheckEsp
	mov	esp, ebp
	pop	ebp
	ret	0
??1pecker_window_info@pecker_sdk@@QAE@XZ ENDP		; pecker_sdk::pecker_window_info::~pecker_window_info
_TEXT	ENDS
;	COMDAT xdata$x
; File f:\codes\pecker_framework_git\pecker_src\pecker_framework\native\pecker_window.cpp
xdata$x	SEGMENT
__unwindtable$??1pecker_window_context@pecker_sdk@@UAE@XZ DD 0ffffffffH
	DD	FLAT:__unwindfunclet$??1pecker_window_context@pecker_sdk@@UAE@XZ$0
	DD	00H
	DD	FLAT:__unwindfunclet$??1pecker_window_context@pecker_sdk@@UAE@XZ$1
	DD	01H
	DD	FLAT:__unwindfunclet$??1pecker_window_context@pecker_sdk@@UAE@XZ$2
__ehfuncinfo$??1pecker_window_context@pecker_sdk@@UAE@XZ DD 019930522H
	DD	03H
	DD	FLAT:__unwindtable$??1pecker_window_context@pecker_sdk@@UAE@XZ
	DD	2 DUP(00H)
	DD	2 DUP(00H)
	DD	00H
	DD	01H
; Function compile flags: /Odtp /RTCsu /ZI
xdata$x	ENDS
;	COMDAT ??1pecker_window_context@pecker_sdk@@UAE@XZ
_TEXT	SEGMENT
_this$ = -20						; size = 4
__$EHRec$ = -12						; size = 12
??1pecker_window_context@pecker_sdk@@UAE@XZ PROC	; pecker_sdk::pecker_window_context::~pecker_window_context, COMDAT
; _this$ = ecx

; 87   : {

	push	ebp
	mov	ebp, esp
	push	-1
	push	__ehhandler$??1pecker_window_context@pecker_sdk@@UAE@XZ
	mov	eax, DWORD PTR fs:0
	push	eax
	sub	esp, 204				; 000000ccH
	push	ebx
	push	esi
	push	edi
	push	ecx
	lea	edi, DWORD PTR [ebp-216]
	mov	ecx, 51					; 00000033H
	mov	eax, -858993460				; ccccccccH
	rep stosd
	pop	ecx
	mov	eax, DWORD PTR ___security_cookie
	xor	eax, ebp
	push	eax
	lea	eax, DWORD PTR __$EHRec$[ebp]
	mov	DWORD PTR fs:0, eax
	mov	DWORD PTR _this$[ebp], ecx
	mov	eax, DWORD PTR _this$[ebp]
	mov	DWORD PTR [eax], OFFSET ??_7pecker_window_context@pecker_sdk@@6B@
	mov	DWORD PTR __$EHRec$[ebp+8], 2

; 88   : 	//on_parse();
; 89   : 	//on_close();
; 90   : }

	mov	ecx, DWORD PTR _this$[ebp]
	add	ecx, 164				; 000000a4H
	call	??1pecker_critical_section@pecker_sdk@@QAE@XZ ; pecker_sdk::pecker_critical_section::~pecker_critical_section
	mov	BYTE PTR __$EHRec$[ebp+8], 1
	mov	ecx, DWORD PTR _this$[ebp]
	add	ecx, 108				; 0000006cH
	call	??1pecker_thread@pecker_sdk@@UAE@XZ	; pecker_sdk::pecker_thread::~pecker_thread
	mov	BYTE PTR __$EHRec$[ebp+8], 0
	mov	ecx, DWORD PTR _this$[ebp]
	add	ecx, 12					; 0000000cH
	call	??1pecker_window_info@pecker_sdk@@QAE@XZ
	mov	DWORD PTR __$EHRec$[ebp+8], -1
	mov	ecx, DWORD PTR _this$[ebp]
	call	??1pecker_window_display@pecker_sdk@@UAE@XZ ; pecker_sdk::pecker_window_display::~pecker_window_display
	mov	ecx, DWORD PTR __$EHRec$[ebp]
	mov	DWORD PTR fs:0, ecx
	pop	ecx
	pop	edi
	pop	esi
	pop	ebx
	add	esp, 216				; 000000d8H
	cmp	ebp, esp
	call	__RTC_CheckEsp
	mov	esp, ebp
	pop	ebp
	ret	0
_TEXT	ENDS
;	COMDAT text$x
text$x	SEGMENT
__unwindfunclet$??1pecker_window_context@pecker_sdk@@UAE@XZ$0:
	mov	ecx, DWORD PTR _this$[ebp]
	jmp	??1pecker_window_display@pecker_sdk@@UAE@XZ ; pecker_sdk::pecker_window_display::~pecker_window_display
__unwindfunclet$??1pecker_window_context@pecker_sdk@@UAE@XZ$1:
	mov	ecx, DWORD PTR _this$[ebp]
	add	ecx, 12					; 0000000cH
	jmp	??1pecker_window_info@pecker_sdk@@QAE@XZ
__unwindfunclet$??1pecker_window_context@pecker_sdk@@UAE@XZ$2:
	mov	ecx, DWORD PTR _this$[ebp]
	add	ecx, 108				; 0000006cH
	jmp	??1pecker_thread@pecker_sdk@@UAE@XZ	; pecker_sdk::pecker_thread::~pecker_thread
__ehhandler$??1pecker_window_context@pecker_sdk@@UAE@XZ:
	mov	edx, DWORD PTR [esp+8]
	lea	eax, DWORD PTR [edx+12]
	mov	ecx, DWORD PTR [edx-220]
	xor	ecx, eax
	call	@__security_check_cookie@4
	mov	eax, OFFSET __ehfuncinfo$??1pecker_window_context@pecker_sdk@@UAE@XZ
	jmp	___CxxFrameHandler3
text$x	ENDS
??1pecker_window_context@pecker_sdk@@UAE@XZ ENDP	; pecker_sdk::pecker_window_context::~pecker_window_context
; Function compile flags: /Odtp /RTCsu /ZI
;	COMDAT ?on_event@pecker_window_context@pecker_sdk@@MAEJIJJ@Z
_TEXT	SEGMENT
_this$ = -8						; size = 4
_umessage$ = 8						; size = 4
_wParam$ = 12						; size = 4
_lParam$ = 16						; size = 4
?on_event@pecker_window_context@pecker_sdk@@MAEJIJJ@Z PROC ; pecker_sdk::pecker_window_context::on_event, COMDAT
; _this$ = ecx

; 93   : {

	push	ebp
	mov	ebp, esp
	sub	esp, 204				; 000000ccH
	push	ebx
	push	esi
	push	edi
	push	ecx
	lea	edi, DWORD PTR [ebp-204]
	mov	ecx, 51					; 00000033H
	mov	eax, -858993460				; ccccccccH
	rep stosd
	pop	ecx
	mov	DWORD PTR _this$[ebp], ecx

; 94   : 	return P_OK;

	xor	eax, eax

; 95   : }

	pop	edi
	pop	esi
	pop	ebx
	mov	esp, ebp
	pop	ebp
	ret	12					; 0000000cH
?on_event@pecker_window_context@pecker_sdk@@MAEJIJJ@Z ENDP ; pecker_sdk::pecker_window_context::on_event
; Function compile flags: /Odtp /RTCsu /ZI
_TEXT	ENDS
;	COMDAT ?on_create@pecker_window_context@pecker_sdk@@MAEJXZ
_TEXT	SEGMENT
_this$ = -8						; size = 4
?on_create@pecker_window_context@pecker_sdk@@MAEJXZ PROC ; pecker_sdk::pecker_window_context::on_create, COMDAT
; _this$ = ecx

; 98   : {

	push	ebp
	mov	ebp, esp
	sub	esp, 204				; 000000ccH
	push	ebx
	push	esi
	push	edi
	push	ecx
	lea	edi, DWORD PTR [ebp-204]
	mov	ecx, 51					; 00000033H
	mov	eax, -858993460				; ccccccccH
	rep stosd
	pop	ecx
	mov	DWORD PTR _this$[ebp], ecx

; 99   : 	return P_OK;

	xor	eax, eax

; 100  : }

	pop	edi
	pop	esi
	pop	ebx
	mov	esp, ebp
	pop	ebp
	ret	0
?on_create@pecker_window_context@pecker_sdk@@MAEJXZ ENDP ; pecker_sdk::pecker_window_context::on_create
; Function compile flags: /Odtp /RTCsu /ZI
_TEXT	ENDS
;	COMDAT ?on_close@pecker_window_context@pecker_sdk@@MAEJXZ
_TEXT	SEGMENT
_result_value$ = -20					; size = 4
_this$ = -8						; size = 4
?on_close@pecker_window_context@pecker_sdk@@MAEJXZ PROC	; pecker_sdk::pecker_window_context::on_close, COMDAT
; _this$ = ecx

; 102  : {

	push	ebp
	mov	ebp, esp
	sub	esp, 216				; 000000d8H
	push	ebx
	push	esi
	push	edi
	push	ecx
	lea	edi, DWORD PTR [ebp-216]
	mov	ecx, 54					; 00000036H
	mov	eax, -858993460				; ccccccccH
	rep stosd
	pop	ecx
	mov	DWORD PTR _this$[ebp], ecx

; 103  : 	HResult result_value = this->on_close_frame();

	mov	eax, DWORD PTR _this$[ebp]
	mov	edx, DWORD PTR [eax]
	mov	esi, esp
	mov	ecx, DWORD PTR _this$[ebp]
	mov	eax, DWORD PTR [edx+24]
	call	eax
	cmp	esi, esp
	call	__RTC_CheckEsp
	mov	DWORD PTR _result_value$[ebp], eax

; 104  : 
; 105  : 	return result_value;

	mov	eax, DWORD PTR _result_value$[ebp]

; 106  : }

	pop	edi
	pop	esi
	pop	ebx
	add	esp, 216				; 000000d8H
	cmp	ebp, esp
	call	__RTC_CheckEsp
	mov	esp, ebp
	pop	ebp
	ret	0
?on_close@pecker_window_context@pecker_sdk@@MAEJXZ ENDP	; pecker_sdk::pecker_window_context::on_close
; Function compile flags: /Odtp /RTCsu /ZI
_TEXT	ENDS
;	COMDAT ?on_render@pecker_window_context@pecker_sdk@@MAEJXZ
_TEXT	SEGMENT
_this$ = -8						; size = 4
?on_render@pecker_window_context@pecker_sdk@@MAEJXZ PROC ; pecker_sdk::pecker_window_context::on_render, COMDAT
; _this$ = ecx

; 109  : {

	push	ebp
	mov	ebp, esp
	sub	esp, 204				; 000000ccH
	push	ebx
	push	esi
	push	edi
	push	ecx
	lea	edi, DWORD PTR [ebp-204]
	mov	ecx, 51					; 00000033H
	mov	eax, -858993460				; ccccccccH
	rep stosd
	pop	ecx
	mov	DWORD PTR _this$[ebp], ecx

; 110  : 	return P_OK;

	xor	eax, eax

; 111  : }

	pop	edi
	pop	esi
	pop	ebx
	mov	esp, ebp
	pop	ebp
	ret	0
?on_render@pecker_window_context@pecker_sdk@@MAEJXZ ENDP ; pecker_sdk::pecker_window_context::on_render
; Function compile flags: /Odtp /RTCsu /ZI
_TEXT	ENDS
;	COMDAT ?on_parse@pecker_window_context@pecker_sdk@@MAEJXZ
_TEXT	SEGMENT
_this$ = -8						; size = 4
?on_parse@pecker_window_context@pecker_sdk@@MAEJXZ PROC	; pecker_sdk::pecker_window_context::on_parse, COMDAT
; _this$ = ecx

; 114  : {

	push	ebp
	mov	ebp, esp
	sub	esp, 204				; 000000ccH
	push	ebx
	push	esi
	push	edi
	push	ecx
	lea	edi, DWORD PTR [ebp-204]
	mov	ecx, 51					; 00000033H
	mov	eax, -858993460				; ccccccccH
	rep stosd
	pop	ecx
	mov	DWORD PTR _this$[ebp], ecx

; 115  : 	return P_OK;

	xor	eax, eax

; 116  : }

	pop	edi
	pop	esi
	pop	ebx
	mov	esp, ebp
	pop	ebp
	ret	0
?on_parse@pecker_window_context@pecker_sdk@@MAEJXZ ENDP	; pecker_sdk::pecker_window_context::on_parse
; Function compile flags: /Odtp /RTCsu /ZI
_TEXT	ENDS
;	COMDAT ?on_resume@pecker_window_context@pecker_sdk@@MAEJXZ
_TEXT	SEGMENT
_this$ = -8						; size = 4
?on_resume@pecker_window_context@pecker_sdk@@MAEJXZ PROC ; pecker_sdk::pecker_window_context::on_resume, COMDAT
; _this$ = ecx

; 119  : {

	push	ebp
	mov	ebp, esp
	sub	esp, 204				; 000000ccH
	push	ebx
	push	esi
	push	edi
	push	ecx
	lea	edi, DWORD PTR [ebp-204]
	mov	ecx, 51					; 00000033H
	mov	eax, -858993460				; ccccccccH
	rep stosd
	pop	ecx
	mov	DWORD PTR _this$[ebp], ecx

; 120  : 	return P_OK;

	xor	eax, eax

; 121  : }

	pop	edi
	pop	esi
	pop	ebx
	mov	esp, ebp
	pop	ebp
	ret	0
?on_resume@pecker_window_context@pecker_sdk@@MAEJXZ ENDP ; pecker_sdk::pecker_window_context::on_resume
_TEXT	ENDS
PUBLIC	__$ArrayPad$
PUBLIC	?pecker_windows_apps@pecker_window_context@pecker_sdk@@SAJPAV12@IJJ@Z ; pecker_sdk::pecker_window_context::pecker_windows_apps
EXTRN	__imp__DefWindowProcA@16:PROC
EXTRN	__imp__PostQuitMessage@4:PROC
EXTRN	__imp__GetClientRect@8:PROC
EXTRN	?join_thread@pecker_thread_base@pecker_sdk@@QAEJK@Z:PROC ; pecker_sdk::pecker_thread_base::join_thread
EXTRN	??1pecker_critical_lock@pecker_sdk@@QAE@XZ:PROC	; pecker_sdk::pecker_critical_lock::~pecker_critical_lock
EXTRN	?unlock@pecker_critical_lock@pecker_sdk@@QAEJXZ:PROC ; pecker_sdk::pecker_critical_lock::unlock
EXTRN	?lock@pecker_critical_lock@pecker_sdk@@QAEJPAVpecker_critical_section@2@@Z:PROC ; pecker_sdk::pecker_critical_lock::lock
EXTRN	??0pecker_critical_lock@pecker_sdk@@QAE@XZ:PROC	; pecker_sdk::pecker_critical_lock::pecker_critical_lock
;	COMDAT xdata$x
xdata$x	SEGMENT
__unwindtable$?pecker_windows_apps@pecker_window_context@pecker_sdk@@SAJPAV12@IJJ@Z DD 0ffffffffH
	DD	FLAT:__unwindfunclet$?pecker_windows_apps@pecker_window_context@pecker_sdk@@SAJPAV12@IJJ@Z$0
	DD	0ffffffffH
	DD	FLAT:__unwindfunclet$?pecker_windows_apps@pecker_window_context@pecker_sdk@@SAJPAV12@IJJ@Z$1
	DD	0ffffffffH
	DD	FLAT:__unwindfunclet$?pecker_windows_apps@pecker_window_context@pecker_sdk@@SAJPAV12@IJJ@Z$2
__ehfuncinfo$?pecker_windows_apps@pecker_window_context@pecker_sdk@@SAJPAV12@IJJ@Z DD 019930522H
	DD	03H
	DD	FLAT:__unwindtable$?pecker_windows_apps@pecker_window_context@pecker_sdk@@SAJPAV12@IJJ@Z
	DD	2 DUP(00H)
	DD	2 DUP(00H)
	DD	00H
	DD	01H
; Function compile flags: /Odtp /RTCsu /ZI
xdata$x	ENDS
;	COMDAT ?pecker_windows_apps@pecker_window_context@pecker_sdk@@SAJPAV12@IJJ@Z
_TEXT	SEGMENT
tv64 = -284						; size = 4
_thread_lock$68181 = -84				; size = 4
_cleint_rect$68178 = -72				; size = 16
_thread_lock$68173 = -48				; size = 4
_thread_lock$68171 = -36				; size = 4
_hresult$ = -24						; size = 4
__$ArrayPad$ = -16					; size = 4
__$EHRec$ = -12						; size = 12
_pwindow_context$ = 8					; size = 4
_umessage$ = 12						; size = 4
_wParam$ = 16						; size = 4
_lParam$ = 20						; size = 4
?pecker_windows_apps@pecker_window_context@pecker_sdk@@SAJPAV12@IJJ@Z PROC ; pecker_sdk::pecker_window_context::pecker_windows_apps, COMDAT

; 124  : {

	push	ebp
	mov	ebp, esp
	push	-1
	push	__ehhandler$?pecker_windows_apps@pecker_window_context@pecker_sdk@@SAJPAV12@IJJ@Z
	mov	eax, DWORD PTR fs:0
	push	eax
	sub	esp, 272				; 00000110H
	push	ebx
	push	esi
	push	edi
	lea	edi, DWORD PTR [ebp-284]
	mov	ecx, 68					; 00000044H
	mov	eax, -858993460				; ccccccccH
	rep stosd
	mov	eax, DWORD PTR ___security_cookie
	xor	eax, ebp
	mov	DWORD PTR __$ArrayPad$[ebp], eax
	push	eax
	lea	eax, DWORD PTR __$EHRec$[ebp]
	mov	DWORD PTR fs:0, eax

; 125  : 	HResult hresult = P_WAITRESULT;

	mov	DWORD PTR _hresult$[ebp], 2

; 126  : 	
; 127  : #ifdef WINDOWS_PC
; 128  : 
; 129  : 	switch(umessage)

	mov	eax, DWORD PTR _umessage$[ebp]
	mov	DWORD PTR tv64[ebp], eax
	mov	ecx, DWORD PTR tv64[ebp]
	sub	ecx, 1
	mov	DWORD PTR tv64[ebp], ecx
	cmp	DWORD PTR tv64[ebp], 15			; 0000000fH
	ja	$LN3@pecker_win@2
	mov	edx, DWORD PTR tv64[ebp]
	movzx	eax, BYTE PTR $LN21@pecker_win@2[edx]
	jmp	DWORD PTR $LN29@pecker_win@2[eax*4]
$LN13@pecker_win@2:

; 130  : 	{
; 131  : 	case WM_CREATE:
; 132  : 		pwindow_context->_M_closed = BOOL_FALSE;

	mov	eax, DWORD PTR _pwindow_context$[ebp]
	mov	DWORD PTR [eax+8], 0

; 133  : 		hresult = pwindow_context->on_create();

	mov	eax, DWORD PTR _pwindow_context$[ebp]
	mov	edx, DWORD PTR [eax]
	mov	esi, esp
	mov	ecx, DWORD PTR _pwindow_context$[ebp]
	mov	eax, DWORD PTR [edx+36]
	call	eax
	cmp	esi, esp
	call	__RTC_CheckEsp
	mov	DWORD PTR _hresult$[ebp], eax

; 134  : 		if (P_OK == hresult)

	cmp	DWORD PTR _hresult$[ebp], 0
	jne	SHORT $LN12@pecker_win@2

; 135  : 		{
; 136  : 			pecker_critical_lock thread_lock;

	lea	ecx, DWORD PTR _thread_lock$68171[ebp]
	call	??0pecker_critical_lock@pecker_sdk@@QAE@XZ ; pecker_sdk::pecker_critical_lock::pecker_critical_lock
	mov	DWORD PTR __$EHRec$[ebp+8], 0

; 137  : 			thread_lock.lock(&pwindow_context->_M_render_lock);

	mov	eax, DWORD PTR _pwindow_context$[ebp]
	add	eax, 164				; 000000a4H
	push	eax
	lea	ecx, DWORD PTR _thread_lock$68171[ebp]
	call	?lock@pecker_critical_lock@pecker_sdk@@QAEJPAVpecker_critical_section@2@@Z ; pecker_sdk::pecker_critical_lock::lock

; 138  : 			pwindow_context->on_init_view(pwindow_context->_M_window_info._M_window_param._M_x,
; 139  : 																		pwindow_context->_M_window_info._M_window_param._M_y,
; 140  : 																		pwindow_context->_M_window_info._M_window_param._M_width,
; 141  : 																		pwindow_context->_M_window_info._M_window_param._M_height);

	mov	esi, esp
	mov	eax, DWORD PTR _pwindow_context$[ebp]
	mov	ecx, DWORD PTR [eax+60]
	push	ecx
	mov	edx, DWORD PTR _pwindow_context$[ebp]
	mov	eax, DWORD PTR [edx+56]
	push	eax
	mov	ecx, DWORD PTR _pwindow_context$[ebp]
	mov	edx, DWORD PTR [ecx+68]
	push	edx
	mov	eax, DWORD PTR _pwindow_context$[ebp]
	mov	ecx, DWORD PTR [eax+64]
	push	ecx
	mov	edx, DWORD PTR _pwindow_context$[ebp]
	mov	eax, DWORD PTR [edx]
	mov	ecx, DWORD PTR _pwindow_context$[ebp]
	mov	edx, DWORD PTR [eax+4]
	call	edx
	cmp	esi, esp
	call	__RTC_CheckEsp

; 142  : 			//if (BOOL_TRUE == pwindow_context->_M_window_info._M_using_render_thread)
; 143  : 			//{
; 144  : 			//	// start render thread
; 145  : 
; 146  : 			//}
; 147  : 			thread_lock.unlock();

	lea	ecx, DWORD PTR _thread_lock$68171[ebp]
	call	?unlock@pecker_critical_lock@pecker_sdk@@QAEJXZ ; pecker_sdk::pecker_critical_lock::unlock

; 148  : 		}

	mov	DWORD PTR __$EHRec$[ebp+8], -1
	lea	ecx, DWORD PTR _thread_lock$68171[ebp]
	call	??1pecker_critical_lock@pecker_sdk@@QAE@XZ ; pecker_sdk::pecker_critical_lock::~pecker_critical_lock
$LN12@pecker_win@2:

; 149  : 		break;

	jmp	$LN14@pecker_win@2
$LN11@pecker_win@2:

; 150  : 	case WM_CLOSE:
; 151  : 		pwindow_context->_M_window_info._M_visiable = BOOL_FALSE;

	mov	eax, DWORD PTR _pwindow_context$[ebp]
	mov	DWORD PTR [eax+32], 0

; 152  : 		{
; 153  : 			pecker_critical_lock thread_lock;

	lea	ecx, DWORD PTR _thread_lock$68173[ebp]
	call	??0pecker_critical_lock@pecker_sdk@@QAE@XZ ; pecker_sdk::pecker_critical_lock::pecker_critical_lock
	mov	DWORD PTR __$EHRec$[ebp+8], 1

; 154  : 			thread_lock.lock(&pwindow_context->_M_render_lock);

	mov	eax, DWORD PTR _pwindow_context$[ebp]
	add	eax, 164				; 000000a4H
	push	eax
	lea	ecx, DWORD PTR _thread_lock$68173[ebp]
	call	?lock@pecker_critical_lock@pecker_sdk@@QAEJPAVpecker_critical_section@2@@Z ; pecker_sdk::pecker_critical_lock::lock

; 155  : 			pwindow_context->_M_closed = BOOL_TRUE;

	mov	eax, DWORD PTR _pwindow_context$[ebp]
	mov	DWORD PTR [eax+8], 1

; 156  : 			thread_lock.unlock();

	lea	ecx, DWORD PTR _thread_lock$68173[ebp]
	call	?unlock@pecker_critical_lock@pecker_sdk@@QAEJXZ ; pecker_sdk::pecker_critical_lock::unlock

; 157  : 			pwindow_context->_M_render_thread.join_thread(-1);

	push	-1
	mov	ecx, DWORD PTR _pwindow_context$[ebp]
	add	ecx, 108				; 0000006cH
	call	?join_thread@pecker_thread_base@pecker_sdk@@QAEJK@Z ; pecker_sdk::pecker_thread_base::join_thread

; 158  : 			hresult = pwindow_context->on_close_frame();

	mov	eax, DWORD PTR _pwindow_context$[ebp]
	mov	edx, DWORD PTR [eax]
	mov	esi, esp
	mov	ecx, DWORD PTR _pwindow_context$[ebp]
	mov	eax, DWORD PTR [edx+24]
	call	eax
	cmp	esi, esp
	call	__RTC_CheckEsp
	mov	DWORD PTR _hresult$[ebp], eax

; 159  : 		}

	mov	DWORD PTR __$EHRec$[ebp+8], -1
	lea	ecx, DWORD PTR _thread_lock$68173[ebp]
	call	??1pecker_critical_lock@pecker_sdk@@QAE@XZ ; pecker_sdk::pecker_critical_lock::~pecker_critical_lock

; 160  : 		hresult =  pwindow_context->on_close();

	mov	eax, DWORD PTR _pwindow_context$[ebp]
	mov	edx, DWORD PTR [eax]
	mov	esi, esp
	mov	ecx, DWORD PTR _pwindow_context$[ebp]
	mov	eax, DWORD PTR [edx+40]
	call	eax
	cmp	esi, esp
	call	__RTC_CheckEsp
	mov	DWORD PTR _hresult$[ebp], eax

; 161  : 		break;

	jmp	$LN14@pecker_win@2
$LN10@pecker_win@2:

; 162  : 	case WM_PAINT:
; 163  : 		if (BOOL_TRUE != pwindow_context->_M_window_info._M_using_render_thread)

	mov	eax, DWORD PTR _pwindow_context$[ebp]
	cmp	DWORD PTR [eax+40], 1
	je	SHORT $LN9@pecker_win@2

; 164  : 		{
; 165  : 			hresult = pwindow_context->on_draw_frame();

	mov	eax, DWORD PTR _pwindow_context$[ebp]
	mov	edx, DWORD PTR [eax]
	mov	esi, esp
	mov	ecx, DWORD PTR _pwindow_context$[ebp]
	mov	eax, DWORD PTR [edx+12]
	call	eax
	cmp	esi, esp
	call	__RTC_CheckEsp
	mov	DWORD PTR _hresult$[ebp], eax

; 166  : 			if (P_OK == hresult)

	cmp	DWORD PTR _hresult$[ebp], 0
	jne	SHORT $LN9@pecker_win@2

; 167  : 			{
; 168  : 				hresult = pwindow_context->on_next_frame(pwindow_context->_M_window_info._M_is_mul_frame_buffer);

	mov	esi, esp
	mov	eax, DWORD PTR _pwindow_context$[ebp]
	mov	ecx, DWORD PTR [eax+36]
	push	ecx
	mov	edx, DWORD PTR _pwindow_context$[ebp]
	mov	eax, DWORD PTR [edx]
	mov	ecx, DWORD PTR _pwindow_context$[ebp]
	mov	edx, DWORD PTR [eax+16]
	call	edx
	cmp	esi, esp
	call	__RTC_CheckEsp
	mov	DWORD PTR _hresult$[ebp], eax
$LN9@pecker_win@2:

; 169  : 			}
; 170  : 		}
; 171  : 		break;

	jmp	$LN14@pecker_win@2
$LN7@pecker_win@2:

; 172  : 	case WM_SIZE:
; 173  : 		RECT cleint_rect;
; 174  : 		if (::GetClientRect((HWND)(pwindow_context->_M_window_info._M_window_handle),&cleint_rect))

	mov	esi, esp
	lea	eax, DWORD PTR _cleint_rect$68178[ebp]
	push	eax
	mov	ecx, DWORD PTR _pwindow_context$[ebp]
	mov	edx, DWORD PTR [ecx+16]
	push	edx
	call	DWORD PTR __imp__GetClientRect@8
	cmp	esi, esp
	call	__RTC_CheckEsp
	test	eax, eax
	je	SHORT $LN6@pecker_win@2

; 175  : 		{
; 176  : 			pecker_critical_lock thread_lock;

	lea	ecx, DWORD PTR _thread_lock$68181[ebp]
	call	??0pecker_critical_lock@pecker_sdk@@QAE@XZ ; pecker_sdk::pecker_critical_lock::pecker_critical_lock
	mov	DWORD PTR __$EHRec$[ebp+8], 2

; 177  : 			thread_lock.lock(&pwindow_context->_M_render_lock);

	mov	eax, DWORD PTR _pwindow_context$[ebp]
	add	eax, 164				; 000000a4H
	push	eax
	lea	ecx, DWORD PTR _thread_lock$68181[ebp]
	call	?lock@pecker_critical_lock@pecker_sdk@@QAEJPAVpecker_critical_section@2@@Z ; pecker_sdk::pecker_critical_lock::lock

; 178  : 			hresult = pwindow_context->on_resize_view(cleint_rect.left,cleint_rect.top,cleint_rect.right - cleint_rect.left,cleint_rect.bottom - cleint_rect.top);

	mov	eax, DWORD PTR _cleint_rect$68178[ebp+12]
	sub	eax, DWORD PTR _cleint_rect$68178[ebp+4]
	mov	esi, esp
	push	eax
	mov	ecx, DWORD PTR _cleint_rect$68178[ebp+8]
	sub	ecx, DWORD PTR _cleint_rect$68178[ebp]
	push	ecx
	mov	edx, DWORD PTR _cleint_rect$68178[ebp+4]
	push	edx
	mov	eax, DWORD PTR _cleint_rect$68178[ebp]
	push	eax
	mov	ecx, DWORD PTR _pwindow_context$[ebp]
	mov	edx, DWORD PTR [ecx]
	mov	ecx, DWORD PTR _pwindow_context$[ebp]
	mov	eax, DWORD PTR [edx+8]
	call	eax
	cmp	esi, esp
	call	__RTC_CheckEsp
	mov	DWORD PTR _hresult$[ebp], eax

; 179  : 			thread_lock.unlock();

	lea	ecx, DWORD PTR _thread_lock$68181[ebp]
	call	?unlock@pecker_critical_lock@pecker_sdk@@QAEJXZ ; pecker_sdk::pecker_critical_lock::unlock

; 180  : 		}

	mov	DWORD PTR __$EHRec$[ebp+8], -1
	lea	ecx, DWORD PTR _thread_lock$68181[ebp]
	call	??1pecker_critical_lock@pecker_sdk@@QAE@XZ ; pecker_sdk::pecker_critical_lock::~pecker_critical_lock
$LN6@pecker_win@2:

; 181  : 		break;

	jmp	SHORT $LN14@pecker_win@2
$LN5@pecker_win@2:

; 182  : 	case WM_DESTROY:
; 183  : 		{
; 184  : 			if (NULL != g_main_window_handle && 
; 185  : 				((HWND)(pwindow_context->_M_window_info._M_window_handle)) == g_main_window_handle)

	cmp	DWORD PTR _g_main_window_handle, 0
	je	SHORT $LN4@pecker_win@2
	mov	eax, DWORD PTR _pwindow_context$[ebp]
	mov	ecx, DWORD PTR [eax+16]
	cmp	ecx, DWORD PTR _g_main_window_handle
	jne	SHORT $LN4@pecker_win@2

; 186  : 			{
; 187  : 				::PostQuitMessage(0);

	mov	esi, esp
	push	0
	call	DWORD PTR __imp__PostQuitMessage@4
	cmp	esi, esp
	call	__RTC_CheckEsp
$LN4@pecker_win@2:

; 188  : 			}
; 189  : 		}
; 190  : 		break;

	jmp	SHORT $LN14@pecker_win@2
$LN3@pecker_win@2:

; 191  : 	default:
; 192  : 		hresult = pwindow_context->on_event(umessage,wParam,lParam);

	mov	esi, esp
	mov	eax, DWORD PTR _lParam$[ebp]
	push	eax
	mov	ecx, DWORD PTR _wParam$[ebp]
	push	ecx
	mov	edx, DWORD PTR _umessage$[ebp]
	push	edx
	mov	eax, DWORD PTR _pwindow_context$[ebp]
	mov	edx, DWORD PTR [eax]
	mov	ecx, DWORD PTR _pwindow_context$[ebp]
	mov	eax, DWORD PTR [edx+32]
	call	eax
	cmp	esi, esp
	call	__RTC_CheckEsp
	mov	DWORD PTR _hresult$[ebp], eax
$LN14@pecker_win@2:

; 193  : 		break;
; 194  : 	}
; 195  : 	if (P_OK != hresult || P_FIN != hresult)

	cmp	DWORD PTR _hresult$[ebp], 0
	jne	SHORT $LN1@pecker_win@2
	cmp	DWORD PTR _hresult$[ebp], 3
	je	SHORT $LN2@pecker_win@2
$LN1@pecker_win@2:

; 196  : 	{
; 197  : 		return ::DefWindowProc((HWND)(pwindow_context->_M_window_info._M_window_handle), umessage, wParam, lParam);

	mov	esi, esp
	mov	eax, DWORD PTR _lParam$[ebp]
	push	eax
	mov	ecx, DWORD PTR _wParam$[ebp]
	push	ecx
	mov	edx, DWORD PTR _umessage$[ebp]
	push	edx
	mov	eax, DWORD PTR _pwindow_context$[ebp]
	mov	ecx, DWORD PTR [eax+16]
	push	ecx
	call	DWORD PTR __imp__DefWindowProcA@16
	cmp	esi, esp
	call	__RTC_CheckEsp
	jmp	SHORT $LN16@pecker_win@2
$LN2@pecker_win@2:

; 198  : 	}
; 199  : #endif
; 200  : 
; 201  : 	return hresult;

	mov	eax, DWORD PTR _hresult$[ebp]
$LN16@pecker_win@2:

; 202  : 	
; 203  : }

	push	edx
	mov	ecx, ebp
	push	eax
	lea	edx, DWORD PTR $LN28@pecker_win@2
	call	@_RTC_CheckStackVars@8
	pop	eax
	pop	edx
	mov	ecx, DWORD PTR __$EHRec$[ebp]
	mov	DWORD PTR fs:0, ecx
	pop	ecx
	pop	edi
	pop	esi
	pop	ebx
	mov	ecx, DWORD PTR __$ArrayPad$[ebp]
	xor	ecx, ebp
	call	@__security_check_cookie@4
	add	esp, 284				; 0000011cH
	cmp	ebp, esp
	call	__RTC_CheckEsp
	mov	esp, ebp
	pop	ebp
	ret	0
	npad	3
$LN28@pecker_win@2:
	DD	4
	DD	$LN27@pecker_win@2
$LN27@pecker_win@2:
	DD	-36					; ffffffdcH
	DD	4
	DD	$LN22@pecker_win@2
	DD	-48					; ffffffd0H
	DD	4
	DD	$LN23@pecker_win@2
	DD	-72					; ffffffb8H
	DD	16					; 00000010H
	DD	$LN24@pecker_win@2
	DD	-84					; ffffffacH
	DD	4
	DD	$LN25@pecker_win@2
$LN25@pecker_win@2:
	DB	116					; 00000074H
	DB	104					; 00000068H
	DB	114					; 00000072H
	DB	101					; 00000065H
	DB	97					; 00000061H
	DB	100					; 00000064H
	DB	95					; 0000005fH
	DB	108					; 0000006cH
	DB	111					; 0000006fH
	DB	99					; 00000063H
	DB	107					; 0000006bH
	DB	0
$LN24@pecker_win@2:
	DB	99					; 00000063H
	DB	108					; 0000006cH
	DB	101					; 00000065H
	DB	105					; 00000069H
	DB	110					; 0000006eH
	DB	116					; 00000074H
	DB	95					; 0000005fH
	DB	114					; 00000072H
	DB	101					; 00000065H
	DB	99					; 00000063H
	DB	116					; 00000074H
	DB	0
$LN23@pecker_win@2:
	DB	116					; 00000074H
	DB	104					; 00000068H
	DB	114					; 00000072H
	DB	101					; 00000065H
	DB	97					; 00000061H
	DB	100					; 00000064H
	DB	95					; 0000005fH
	DB	108					; 0000006cH
	DB	111					; 0000006fH
	DB	99					; 00000063H
	DB	107					; 0000006bH
	DB	0
$LN22@pecker_win@2:
	DB	116					; 00000074H
	DB	104					; 00000068H
	DB	114					; 00000072H
	DB	101					; 00000065H
	DB	97					; 00000061H
	DB	100					; 00000064H
	DB	95					; 0000005fH
	DB	108					; 0000006cH
	DB	111					; 0000006fH
	DB	99					; 00000063H
	DB	107					; 0000006bH
	DB	0
$LN29@pecker_win@2:
	DD	$LN13@pecker_win@2
	DD	$LN5@pecker_win@2
	DD	$LN7@pecker_win@2
	DD	$LN10@pecker_win@2
	DD	$LN11@pecker_win@2
	DD	$LN3@pecker_win@2
$LN21@pecker_win@2:
	DB	0
	DB	1
	DB	5
	DB	5
	DB	2
	DB	5
	DB	5
	DB	5
	DB	5
	DB	5
	DB	5
	DB	5
	DB	5
	DB	5
	DB	3
	DB	4
_TEXT	ENDS
;	COMDAT text$x
text$x	SEGMENT
__unwindfunclet$?pecker_windows_apps@pecker_window_context@pecker_sdk@@SAJPAV12@IJJ@Z$0:
	lea	ecx, DWORD PTR _thread_lock$68171[ebp]
	jmp	??1pecker_critical_lock@pecker_sdk@@QAE@XZ ; pecker_sdk::pecker_critical_lock::~pecker_critical_lock
__unwindfunclet$?pecker_windows_apps@pecker_window_context@pecker_sdk@@SAJPAV12@IJJ@Z$1:
	lea	ecx, DWORD PTR _thread_lock$68173[ebp]
	jmp	??1pecker_critical_lock@pecker_sdk@@QAE@XZ ; pecker_sdk::pecker_critical_lock::~pecker_critical_lock
__unwindfunclet$?pecker_windows_apps@pecker_window_context@pecker_sdk@@SAJPAV12@IJJ@Z$2:
	lea	ecx, DWORD PTR _thread_lock$68181[ebp]
	jmp	??1pecker_critical_lock@pecker_sdk@@QAE@XZ ; pecker_sdk::pecker_critical_lock::~pecker_critical_lock
__ehhandler$?pecker_windows_apps@pecker_window_context@pecker_sdk@@SAJPAV12@IJJ@Z:
	mov	edx, DWORD PTR [esp+8]
	lea	eax, DWORD PTR [edx+12]
	mov	ecx, DWORD PTR [edx-288]
	xor	ecx, eax
	call	@__security_check_cookie@4
	mov	ecx, DWORD PTR [edx-4]
	xor	ecx, eax
	call	@__security_check_cookie@4
	mov	eax, OFFSET __ehfuncinfo$?pecker_windows_apps@pecker_window_context@pecker_sdk@@SAJPAV12@IJJ@Z
	jmp	___CxxFrameHandler3
text$x	ENDS
?pecker_windows_apps@pecker_window_context@pecker_sdk@@SAJPAV12@IJJ@Z ENDP ; pecker_sdk::pecker_window_context::pecker_windows_apps
; Function compile flags: /Odtp /RTCsu /ZI
;	COMDAT ?pecker_render_thread@pecker_window_context@pecker_sdk@@SAJPAV12@@Z
_TEXT	SEGMENT
_pwindow_context$ = 8					; size = 4
?pecker_render_thread@pecker_window_context@pecker_sdk@@SAJPAV12@@Z PROC ; pecker_sdk::pecker_window_context::pecker_render_thread, COMDAT

; 206  : {

	push	ebp
	mov	ebp, esp
	sub	esp, 192				; 000000c0H
	push	ebx
	push	esi
	push	edi
	lea	edi, DWORD PTR [ebp-192]
	mov	ecx, 48					; 00000030H
	mov	eax, -858993460				; ccccccccH
	rep stosd
$LN2@pecker_ren:

; 207  : 	//while(1)
; 208  : 	while (BOOL_FALSE == pwindow_context->_M_closed)

	mov	eax, DWORD PTR _pwindow_context$[ebp]
	cmp	DWORD PTR [eax+8], 0
	jne	SHORT $LN1@pecker_ren

; 209  : 	{
; 210  : 		//pecker_critical_lock thread_lock;
; 211  : 		//thread_lock.lock(&pwindow_context->_M_render_lock);
; 212  : 		//if (BOOL_FALSE != pwindow_context->_M_closed)
; 213  : 		//{
; 214  : 		//	break;
; 215  : 		//}
; 216  : 		//thread_lock.unlock();
; 217  : 		
; 218  : 		//pwindow_context->_M_render_lock.enter_critical_section();
; 219  : 		pwindow_context->on_draw_frame();

	mov	eax, DWORD PTR _pwindow_context$[ebp]
	mov	edx, DWORD PTR [eax]
	mov	esi, esp
	mov	ecx, DWORD PTR _pwindow_context$[ebp]
	mov	eax, DWORD PTR [edx+12]
	call	eax
	cmp	esi, esp
	call	__RTC_CheckEsp

; 220  : 		pwindow_context->on_next_frame(pwindow_context->_M_window_info._M_is_mul_frame_buffer);

	mov	esi, esp
	mov	eax, DWORD PTR _pwindow_context$[ebp]
	mov	ecx, DWORD PTR [eax+36]
	push	ecx
	mov	edx, DWORD PTR _pwindow_context$[ebp]
	mov	eax, DWORD PTR [edx]
	mov	ecx, DWORD PTR _pwindow_context$[ebp]
	mov	edx, DWORD PTR [eax+16]
	call	edx
	cmp	esi, esp
	call	__RTC_CheckEsp

; 221  : 		//pwindow_context->_M_render_lock.leave_critical_section();
; 222  : 	}

	jmp	SHORT $LN2@pecker_ren
$LN1@pecker_ren:

; 223  : 	return P_OK;

	xor	eax, eax

; 224  : }

	pop	edi
	pop	esi
	pop	ebx
	add	esp, 192				; 000000c0H
	cmp	ebp, esp
	call	__RTC_CheckEsp
	mov	esp, ebp
	pop	ebp
	ret	0
?pecker_render_thread@pecker_window_context@pecker_sdk@@SAJPAV12@@Z ENDP ; pecker_sdk::pecker_window_context::pecker_render_thread
; Function compile flags: /Odtp /RTCsu /ZI
_TEXT	ENDS
;	COMDAT ?is_visiable@pecker_window_context@pecker_sdk@@UBEHXZ
_TEXT	SEGMENT
_this$ = -8						; size = 4
?is_visiable@pecker_window_context@pecker_sdk@@UBEHXZ PROC ; pecker_sdk::pecker_window_context::is_visiable, COMDAT
; _this$ = ecx

; 230  : {

	push	ebp
	mov	ebp, esp
	sub	esp, 204				; 000000ccH
	push	ebx
	push	esi
	push	edi
	push	ecx
	lea	edi, DWORD PTR [ebp-204]
	mov	ecx, 51					; 00000033H
	mov	eax, -858993460				; ccccccccH
	rep stosd
	pop	ecx
	mov	DWORD PTR _this$[ebp], ecx

; 231  : 	return _M_window_info._M_visiable;

	mov	eax, DWORD PTR _this$[ebp]
	mov	eax, DWORD PTR [eax+32]

; 232  : }

	pop	edi
	pop	esi
	pop	ebx
	mov	esp, ebp
	pop	ebp
	ret	0
?is_visiable@pecker_window_context@pecker_sdk@@UBEHXZ ENDP ; pecker_sdk::pecker_window_context::is_visiable
; Function compile flags: /Odtp /RTCsu /ZI
_TEXT	ENDS
;	COMDAT ?set_visiable@pecker_window_context@pecker_sdk@@UAEJH@Z
_TEXT	SEGMENT
_this$ = -8						; size = 4
_bVisiable$ = 8						; size = 4
?set_visiable@pecker_window_context@pecker_sdk@@UAEJH@Z PROC ; pecker_sdk::pecker_window_context::set_visiable, COMDAT
; _this$ = ecx

; 235  : {

	push	ebp
	mov	ebp, esp
	sub	esp, 204				; 000000ccH
	push	ebx
	push	esi
	push	edi
	push	ecx
	lea	edi, DWORD PTR [ebp-204]
	mov	ecx, 51					; 00000033H
	mov	eax, -858993460				; ccccccccH
	rep stosd
	pop	ecx
	mov	DWORD PTR _this$[ebp], ecx

; 236  : 	_M_window_info._M_visiable = bVisiable;

	mov	eax, DWORD PTR _this$[ebp]
	mov	ecx, DWORD PTR _bVisiable$[ebp]
	mov	DWORD PTR [eax+32], ecx

; 237  : 	return P_OK;

	xor	eax, eax

; 238  : }

	pop	edi
	pop	esi
	pop	ebx
	mov	esp, ebp
	pop	ebp
	ret	4
?set_visiable@pecker_window_context@pecker_sdk@@UAEJH@Z ENDP ; pecker_sdk::pecker_window_context::set_visiable
_TEXT	ENDS
PUBLIC	?get_window_info@pecker_window_context@pecker_sdk@@QBEABUpecker_window_info@2@XZ ; pecker_sdk::pecker_window_context::get_window_info
; Function compile flags: /Odtp /RTCsu /ZI
;	COMDAT ?get_window_info@pecker_window_context@pecker_sdk@@QBEABUpecker_window_info@2@XZ
_TEXT	SEGMENT
_this$ = -8						; size = 4
?get_window_info@pecker_window_context@pecker_sdk@@QBEABUpecker_window_info@2@XZ PROC ; pecker_sdk::pecker_window_context::get_window_info, COMDAT
; _this$ = ecx

; 241  : {

	push	ebp
	mov	ebp, esp
	sub	esp, 204				; 000000ccH
	push	ebx
	push	esi
	push	edi
	push	ecx
	lea	edi, DWORD PTR [ebp-204]
	mov	ecx, 51					; 00000033H
	mov	eax, -858993460				; ccccccccH
	rep stosd
	pop	ecx
	mov	DWORD PTR _this$[ebp], ecx

; 242  : 	return _M_window_info;

	mov	eax, DWORD PTR _this$[ebp]
	add	eax, 12					; 0000000cH

; 243  : }

	pop	edi
	pop	esi
	pop	ebx
	mov	esp, ebp
	pop	ebp
	ret	0
?get_window_info@pecker_window_context@pecker_sdk@@QBEABUpecker_window_info@2@XZ ENDP ; pecker_sdk::pecker_window_context::get_window_info
_TEXT	ENDS
PUBLIC	??4pecker_window_info@pecker_sdk@@QAEAAU01@ABU01@@Z ; pecker_sdk::pecker_window_info::operator=
; Function compile flags: /Odtp /RTCsu /ZI
;	COMDAT ?init_window@pecker_window_context@pecker_sdk@@UAEJABUpecker_window_info@2@@Z
_TEXT	SEGMENT
_this$ = -8						; size = 4
_window_info$ = 8					; size = 4
?init_window@pecker_window_context@pecker_sdk@@UAEJABUpecker_window_info@2@@Z PROC ; pecker_sdk::pecker_window_context::init_window, COMDAT
; _this$ = ecx

; 246  : {

	push	ebp
	mov	ebp, esp
	sub	esp, 204				; 000000ccH
	push	ebx
	push	esi
	push	edi
	push	ecx
	lea	edi, DWORD PTR [ebp-204]
	mov	ecx, 51					; 00000033H
	mov	eax, -858993460				; ccccccccH
	rep stosd
	pop	ecx
	mov	DWORD PTR _this$[ebp], ecx

; 247  : 	_M_window_info = window_info;

	mov	eax, DWORD PTR _window_info$[ebp]
	push	eax
	mov	ecx, DWORD PTR _this$[ebp]
	add	ecx, 12					; 0000000cH
	call	??4pecker_window_info@pecker_sdk@@QAEAAU01@ABU01@@Z

; 248  : 
; 249  : 	return P_OK;

	xor	eax, eax

; 250  : }

	pop	edi
	pop	esi
	pop	ebx
	add	esp, 204				; 000000ccH
	cmp	ebp, esp
	call	__RTC_CheckEsp
	mov	esp, ebp
	pop	ebp
	ret	4
?init_window@pecker_window_context@pecker_sdk@@UAEJABUpecker_window_info@2@@Z ENDP ; pecker_sdk::pecker_window_context::init_window
_TEXT	ENDS
PUBLIC	??4?$pecker_share_string_base_t@DU?$pecker_value_compare@D@pecker_sdk@@V?$pecker_simple_allocator@D@2@$0BA@@pecker_sdk@@QAEAAV01@ABV01@@Z ; pecker_sdk::pecker_share_string_base_t<char,pecker_sdk::pecker_value_compare<char>,pecker_sdk::pecker_simple_allocator<char>,16>::operator=
; Function compile flags: /Odtp /RTCsu /ZI
;	COMDAT ??4pecker_window_info@pecker_sdk@@QAEAAU01@ABU01@@Z
_TEXT	SEGMENT
_this$ = -8						; size = 4
___that$ = 8						; size = 4
??4pecker_window_info@pecker_sdk@@QAEAAU01@ABU01@@Z PROC ; pecker_sdk::pecker_window_info::operator=, COMDAT
; _this$ = ecx
	push	ebp
	mov	ebp, esp
	sub	esp, 204				; 000000ccH
	push	ebx
	push	esi
	push	edi
	push	ecx
	lea	edi, DWORD PTR [ebp-204]
	mov	ecx, 51					; 00000033H
	mov	eax, -858993460				; ccccccccH
	rep stosd
	pop	ecx
	mov	DWORD PTR _this$[ebp], ecx
	mov	eax, DWORD PTR _this$[ebp]
	mov	ecx, DWORD PTR ___that$[ebp]
	mov	edx, DWORD PTR [ecx]
	mov	DWORD PTR [eax], edx
	mov	eax, DWORD PTR _this$[ebp]
	mov	ecx, DWORD PTR ___that$[ebp]
	mov	edx, DWORD PTR [ecx+4]
	mov	DWORD PTR [eax+4], edx
	mov	eax, DWORD PTR _this$[ebp]
	mov	ecx, DWORD PTR ___that$[ebp]
	mov	edx, DWORD PTR [ecx+8]
	mov	DWORD PTR [eax+8], edx
	mov	eax, DWORD PTR _this$[ebp]
	mov	ecx, DWORD PTR ___that$[ebp]
	mov	edx, DWORD PTR [ecx+12]
	mov	DWORD PTR [eax+12], edx
	mov	eax, DWORD PTR _this$[ebp]
	mov	ecx, DWORD PTR ___that$[ebp]
	mov	edx, DWORD PTR [ecx+16]
	mov	DWORD PTR [eax+16], edx
	mov	eax, DWORD PTR _this$[ebp]
	mov	ecx, DWORD PTR ___that$[ebp]
	mov	edx, DWORD PTR [ecx+20]
	mov	DWORD PTR [eax+20], edx
	mov	eax, DWORD PTR _this$[ebp]
	mov	ecx, DWORD PTR ___that$[ebp]
	mov	edx, DWORD PTR [ecx+24]
	mov	DWORD PTR [eax+24], edx
	mov	eax, DWORD PTR _this$[ebp]
	mov	ecx, DWORD PTR ___that$[ebp]
	mov	edx, DWORD PTR [ecx+28]
	mov	DWORD PTR [eax+28], edx
	mov	esi, DWORD PTR ___that$[ebp]
	add	esi, 32					; 00000020H
	mov	edi, DWORD PTR _this$[ebp]
	add	edi, 32					; 00000020H
	mov	ecx, 7
	rep movsd
	mov	eax, DWORD PTR ___that$[ebp]
	add	eax, 60					; 0000003cH
	push	eax
	mov	ecx, DWORD PTR _this$[ebp]
	add	ecx, 60					; 0000003cH
	call	??4?$pecker_share_string_base_t@DU?$pecker_value_compare@D@pecker_sdk@@V?$pecker_simple_allocator@D@2@$0BA@@pecker_sdk@@QAEAAV01@ABV01@@Z ; pecker_sdk::pecker_share_string_base_t<char,pecker_sdk::pecker_value_compare<char>,pecker_sdk::pecker_simple_allocator<char>,16>::operator=
	mov	eax, DWORD PTR _this$[ebp]
	pop	edi
	pop	esi
	pop	ebx
	add	esp, 204				; 000000ccH
	cmp	ebp, esp
	call	__RTC_CheckEsp
	mov	esp, ebp
	pop	ebp
	ret	4
??4pecker_window_info@pecker_sdk@@QAEAAU01@ABU01@@Z ENDP ; pecker_sdk::pecker_window_info::operator=
; Function compile flags: /Odtp /RTCsu /ZI
_TEXT	ENDS
;	COMDAT ?is_full_screen@pecker_window_context@pecker_sdk@@UBEHXZ
_TEXT	SEGMENT
_this$ = -8						; size = 4
?is_full_screen@pecker_window_context@pecker_sdk@@UBEHXZ PROC ; pecker_sdk::pecker_window_context::is_full_screen, COMDAT
; _this$ = ecx

; 253  : {

	push	ebp
	mov	ebp, esp
	sub	esp, 204				; 000000ccH
	push	ebx
	push	esi
	push	edi
	push	ecx
	lea	edi, DWORD PTR [ebp-204]
	mov	ecx, 51					; 00000033H
	mov	eax, -858993460				; ccccccccH
	rep stosd
	pop	ecx
	mov	DWORD PTR _this$[ebp], ecx

; 254  : 	return _M_window_info._M_is_full_screen;

	mov	eax, DWORD PTR _this$[ebp]
	mov	eax, DWORD PTR [eax+28]

; 255  : }

	pop	edi
	pop	esi
	pop	ebx
	mov	esp, ebp
	pop	ebp
	ret	0
?is_full_screen@pecker_window_context@pecker_sdk@@UBEHXZ ENDP ; pecker_sdk::pecker_window_context::is_full_screen
; Function compile flags: /Odtp /RTCsu /ZI
_TEXT	ENDS
;	COMDAT ?set_full_screen@pecker_window_context@pecker_sdk@@UAEJH@Z
_TEXT	SEGMENT
_this$ = -8						; size = 4
_bfull_screen_enable$ = 8				; size = 4
?set_full_screen@pecker_window_context@pecker_sdk@@UAEJH@Z PROC ; pecker_sdk::pecker_window_context::set_full_screen, COMDAT
; _this$ = ecx

; 258  : {

	push	ebp
	mov	ebp, esp
	sub	esp, 204				; 000000ccH
	push	ebx
	push	esi
	push	edi
	push	ecx
	lea	edi, DWORD PTR [ebp-204]
	mov	ecx, 51					; 00000033H
	mov	eax, -858993460				; ccccccccH
	rep stosd
	pop	ecx
	mov	DWORD PTR _this$[ebp], ecx

; 259  : 	return P_OK;

	xor	eax, eax

; 260  : }

	pop	edi
	pop	esi
	pop	ebx
	mov	esp, ebp
	pop	ebp
	ret	4
?set_full_screen@pecker_window_context@pecker_sdk@@UAEJH@Z ENDP ; pecker_sdk::pecker_window_context::set_full_screen
_TEXT	ENDS
PUBLIC	__$ArrayPad$
EXTRN	__imp__DispatchMessageA@4:PROC
EXTRN	__imp__TranslateMessage@4:PROC
EXTRN	__imp__GetMessageA@16:PROC
EXTRN	__imp__SetActiveWindow@4:PROC
EXTRN	__imp__ShowWindow@8:PROC
EXTRN	__imp__CreateWindowExA@48:PROC
EXTRN	__imp__AdjustWindowRect@12:PROC
EXTRN	__imp__SetRect@20:PROC
EXTRN	__imp__RegisterClassA@4:PROC
EXTRN	__imp__GetModuleHandleA@4:PROC
EXTRN	__imp__LoadCursorA@8:PROC
EXTRN	_memset:PROC
; Function compile flags: /Odtp /RTCsu /ZI
;	COMDAT ?show@pecker_window_context@pecker_sdk@@UAEJH@Z
_TEXT	SEGMENT
tv92 = -392						; size = 4
tv81 = -392						; size = 4
tv75 = -392						; size = 4
_msg_result$68265 = -192				; size = 4
_msg$68264 = -180					; size = 28
_show_style$68259 = -144				; size = 4
_hWndParent$68253 = -132				; size = 4
_window_rect$68252 = -120				; size = 16
_window_ex_style$68229 = -96				; size = 4
_window_style$68228 = -84				; size = 4
_window_class$68226 = -72				; size = 40
_hWnd$ = -24						; size = 4
_this$ = -12						; size = 4
__$ArrayPad$ = -4					; size = 4
_bIs_dialog$ = 8					; size = 4
?show@pecker_window_context@pecker_sdk@@UAEJH@Z PROC	; pecker_sdk::pecker_window_context::show, COMDAT
; _this$ = ecx

; 263  : {

	push	ebp
	mov	ebp, esp
	sub	esp, 392				; 00000188H
	push	ebx
	push	esi
	push	edi
	push	ecx
	lea	edi, DWORD PTR [ebp-392]
	mov	ecx, 98					; 00000062H
	mov	eax, -858993460				; ccccccccH
	rep stosd
	pop	ecx
	mov	eax, DWORD PTR ___security_cookie
	xor	eax, ebp
	mov	DWORD PTR __$ArrayPad$[ebp], eax
	mov	DWORD PTR _this$[ebp], ecx

; 264  : 
; 265  : #ifdef WINDOWS_PC
; 266  : 	HWND hWnd = (HWND)_M_window_info._M_window_handle;

	mov	eax, DWORD PTR _this$[ebp]
	mov	ecx, DWORD PTR [eax+16]
	mov	DWORD PTR _hWnd$[ebp], ecx

; 267  : 	if (null == _M_window_info._M_window_handle)

	mov	eax, DWORD PTR _this$[ebp]
	cmp	DWORD PTR [eax+16], 0
	jne	$LN24@show

; 268  : 	{
; 269  : 		WNDCLASS window_class;
; 270  : 		memset(&window_class, 0, sizeof(WNDCLASS));

	push	40					; 00000028H
	push	0
	lea	eax, DWORD PTR _window_class$68226[ebp]
	push	eax
	call	_memset
	add	esp, 12					; 0000000cH

; 271  : 
; 272  : 		DWORD window_style;
; 273  : 		DWORD window_ex_style;
; 274  : 		// 
; 275  : 		switch (_M_window_info._M_window_param._M_window_style)

	mov	eax, DWORD PTR _this$[ebp]
	mov	ecx, DWORD PTR [eax+44]
	mov	DWORD PTR tv75[ebp], ecx
	cmp	DWORD PTR tv75[ebp], 1
	je	SHORT $LN21@show
	cmp	DWORD PTR tv75[ebp], 2
	je	SHORT $LN20@show
	jmp	SHORT $LN19@show
$LN21@show:

; 276  : 		{
; 277  : 		case FIXED_WIN_BORDERSTYLE:
; 278  : 			{
; 279  : 				window_style = WS_BORDER | WS_SYSMENU;

	mov	DWORD PTR _window_style$68228[ebp], 8912896 ; 00880000H

; 280  : 				window_class.style = CS_OWNDC | CS_HREDRAW | CS_VREDRAW;

	mov	DWORD PTR _window_class$68226[ebp], 35	; 00000023H

; 281  : 			}
; 282  : 			break;

	jmp	SHORT $LN22@show
$LN20@show:

; 283  : 		case RESIZEABLE_WIN_BORDERSTYLE:
; 284  : 			{
; 285  : 				window_style = WS_OVERLAPPEDWINDOW;

	mov	DWORD PTR _window_style$68228[ebp], 13565952 ; 00cf0000H

; 286  : 				window_class.style = CS_OWNDC | CS_HREDRAW | CS_VREDRAW;

	mov	DWORD PTR _window_class$68226[ebp], 35	; 00000023H

; 287  : 			}
; 288  : 			break;

	jmp	SHORT $LN22@show
$LN19@show:

; 289  : 		case DEFAULT_WIN_BORDERSTYLE:
; 290  : 		default :
; 291  : 			{
; 292  : 				window_style = WS_BORDER | WS_SYSMENU;

	mov	DWORD PTR _window_style$68228[ebp], 8912896 ; 00880000H

; 293  : 				window_class.style = CS_OWNDC | CS_HREDRAW | CS_VREDRAW;

	mov	DWORD PTR _window_class$68226[ebp], 35	; 00000023H
$LN22@show:

; 294  : 			}
; 295  : 			break;
; 296  : 		}
; 297  : 
; 298  : 		// 
; 299  : 		switch (_M_window_info._M_window_param._M_cursor_style)

	mov	eax, DWORD PTR _this$[ebp]
	mov	ecx, DWORD PTR [eax+52]
	mov	DWORD PTR tv81[ebp], ecx

; 300  : 		{
; 301  : 		case DEFAULT_CURSOR_BORDERSTYLE:
; 302  : 		default:
; 303  : 			{
; 304  : 				window_class.hCursor = ::LoadCursor(NULL, IDC_ARROW);

	mov	esi, esp
	push	32512					; 00007f00H
	push	0
	call	DWORD PTR __imp__LoadCursorA@8
	cmp	esi, esp
	call	__RTC_CheckEsp
	mov	DWORD PTR _window_class$68226[ebp+24], eax

; 305  : 			}
; 306  : 			break;
; 307  : 		}
; 308  : 
; 309  : 		// 
; 310  : 		window_class.lpszClassName = _M_window_info._M_window_title.get_data();

	mov	ecx, DWORD PTR _this$[ebp]
	add	ecx, 72					; 00000048H
	call	?get_data@?$pecker_share_string_base_t@DU?$pecker_value_compare@D@pecker_sdk@@V?$pecker_simple_allocator@D@2@$0BA@@pecker_sdk@@QBEPBDXZ ; pecker_sdk::pecker_share_string_base_t<char,pecker_sdk::pecker_value_compare<char>,pecker_sdk::pecker_simple_allocator<char>,16>::get_data
	mov	DWORD PTR _window_class$68226[ebp+36], eax

; 311  : 
; 312  : 
; 313  : 		switch (_M_window_info._M_window_param._M_window_external_style)

	mov	eax, DWORD PTR _this$[ebp]
	mov	ecx, DWORD PTR [eax+48]
	mov	DWORD PTR tv92[ebp], ecx
	cmp	DWORD PTR tv92[ebp], 0
	je	SHORT $LN13@show
	jmp	SHORT $LN12@show
$LN13@show:

; 314  : 		{
; 315  : 		case WIN_EX_APPWINDOW_STYLE:
; 316  : 			{
; 317  : 				window_ex_style = WS_EX_APPWINDOW;

	mov	DWORD PTR _window_ex_style$68229[ebp], 262144 ; 00040000H

; 318  : 			}
; 319  : 			break;

	jmp	SHORT $LN14@show
$LN12@show:

; 320  : 		default:
; 321  : 			{
; 322  : 				window_ex_style = WS_EX_APPWINDOW;

	mov	DWORD PTR _window_ex_style$68229[ebp], 262144 ; 00040000H
$LN14@show:

; 323  : 			}
; 324  : 			break;
; 325  : 		}
; 326  : 
; 327  : 		// WndProc
; 328  : 		window_class.lpfnWndProc = WndProc;

	mov	DWORD PTR _window_class$68226[ebp+4], OFFSET ?WndProc@pecker_sdk@@YGJPAUHWND__@@IIJ@Z ; pecker_sdk::WndProc

; 329  : 		// 
; 330  : 		window_class.hInstance = ::GetModuleHandle(NULL);

	mov	esi, esp
	push	0
	call	DWORD PTR __imp__GetModuleHandleA@4
	cmp	esi, esp
	call	__RTC_CheckEsp
	mov	DWORD PTR _window_class$68226[ebp+16], eax

; 331  : 		// 
; 332  : 		if (0 == ::RegisterClass(&window_class))

	mov	esi, esp
	lea	eax, DWORD PTR _window_class$68226[ebp]
	push	eax
	call	DWORD PTR __imp__RegisterClassA@4
	cmp	esi, esp
	call	__RTC_CheckEsp
	movzx	ecx, ax
	test	ecx, ecx
	jne	SHORT $LN11@show

; 333  : 		{
; 334  : 			return P_ERR;

	or	eax, -1
	jmp	$LN25@show
$LN11@show:

; 335  : 		}
; 336  : 
; 337  : 		// , 
; 338  : 		RECT window_rect;
; 339  : 		::SetRect(&window_rect, 
; 340  : 			_M_window_info._M_window_param._M_x,
; 341  : 			_M_window_info._M_window_param._M_y,
; 342  : 			_M_window_info._M_window_param._M_x + _M_window_info._M_window_param._M_width,
; 343  : 			_M_window_info._M_window_param._M_y + _M_window_info._M_window_param._M_height);

	mov	eax, DWORD PTR _this$[ebp]
	mov	ecx, DWORD PTR [eax+68]
	mov	edx, DWORD PTR _this$[ebp]
	add	ecx, DWORD PTR [edx+60]
	mov	esi, esp
	push	ecx
	mov	eax, DWORD PTR _this$[ebp]
	mov	ecx, DWORD PTR [eax+64]
	mov	edx, DWORD PTR _this$[ebp]
	add	ecx, DWORD PTR [edx+56]
	push	ecx
	mov	eax, DWORD PTR _this$[ebp]
	mov	ecx, DWORD PTR [eax+68]
	push	ecx
	mov	edx, DWORD PTR _this$[ebp]
	mov	eax, DWORD PTR [edx+64]
	push	eax
	lea	ecx, DWORD PTR _window_rect$68252[ebp]
	push	ecx
	call	DWORD PTR __imp__SetRect@20
	cmp	esi, esp
	call	__RTC_CheckEsp

; 344  : 			
; 345  : 		::AdjustWindowRect(&window_rect, window_style, FALSE);

	mov	esi, esp
	push	0
	mov	eax, DWORD PTR _window_style$68228[ebp]
	push	eax
	lea	ecx, DWORD PTR _window_rect$68252[ebp]
	push	ecx
	call	DWORD PTR __imp__AdjustWindowRect@12
	cmp	esi, esp
	call	__RTC_CheckEsp

; 346  : 
; 347  : 		HWND hWndParent = NULL;

	mov	DWORD PTR _hWndParent$68253[ebp], 0

; 348  : 		if (_M_perant_context)

	mov	eax, DWORD PTR _this$[ebp]
	cmp	DWORD PTR [eax+4], 0
	je	SHORT $LN10@show

; 349  : 		{
; 350  : 			hWndParent = (HWND)(_M_perant_context->_M_window_info._M_window_handle);

	mov	eax, DWORD PTR _this$[ebp]
	mov	ecx, DWORD PTR [eax+4]
	mov	edx, DWORD PTR [ecx+16]
	mov	DWORD PTR _hWndParent$68253[ebp], edx
$LN10@show:

; 351  : 		}
; 352  : 		// , .
; 353  : 		hWnd = ::CreateWindowEx(
; 354  : 			window_ex_style,
; 355  : 			_M_window_info._M_window_title.get_data(),
; 356  : 			_M_window_info._M_window_title.get_data(),
; 357  : 			window_style,
; 358  : 			window_rect.left,	// x
; 359  : 			window_rect.top,	// y
; 360  : 			window_rect.right - window_rect.left,	// width
; 361  : 			window_rect.bottom - window_rect.top,	// height
; 362  : 			hWndParent,
; 363  : 			(HMENU)_M_window_info._M_menu_handle,
; 364  : 			window_class.hInstance,
; 365  : 			this
; 366  : 			);

	mov	esi, esp
	mov	eax, DWORD PTR _this$[ebp]
	push	eax
	mov	ecx, DWORD PTR _window_class$68226[ebp+16]
	push	ecx
	mov	edx, DWORD PTR _this$[ebp]
	mov	eax, DWORD PTR [edx+24]
	push	eax
	mov	ecx, DWORD PTR _hWndParent$68253[ebp]
	push	ecx
	mov	edx, DWORD PTR _window_rect$68252[ebp+12]
	sub	edx, DWORD PTR _window_rect$68252[ebp+4]
	push	edx
	mov	eax, DWORD PTR _window_rect$68252[ebp+8]
	sub	eax, DWORD PTR _window_rect$68252[ebp]
	push	eax
	mov	ecx, DWORD PTR _window_rect$68252[ebp+4]
	push	ecx
	mov	edx, DWORD PTR _window_rect$68252[ebp]
	push	edx
	mov	eax, DWORD PTR _window_style$68228[ebp]
	push	eax
	mov	ecx, DWORD PTR _this$[ebp]
	add	ecx, 72					; 00000048H
	call	?get_data@?$pecker_share_string_base_t@DU?$pecker_value_compare@D@pecker_sdk@@V?$pecker_simple_allocator@D@2@$0BA@@pecker_sdk@@QBEPBDXZ ; pecker_sdk::pecker_share_string_base_t<char,pecker_sdk::pecker_value_compare<char>,pecker_sdk::pecker_simple_allocator<char>,16>::get_data
	push	eax
	mov	ecx, DWORD PTR _this$[ebp]
	add	ecx, 72					; 00000048H
	call	?get_data@?$pecker_share_string_base_t@DU?$pecker_value_compare@D@pecker_sdk@@V?$pecker_simple_allocator@D@2@$0BA@@pecker_sdk@@QBEPBDXZ ; pecker_sdk::pecker_share_string_base_t<char,pecker_sdk::pecker_value_compare<char>,pecker_sdk::pecker_simple_allocator<char>,16>::get_data
	push	eax
	mov	ecx, DWORD PTR _window_ex_style$68229[ebp]
	push	ecx
	call	DWORD PTR __imp__CreateWindowExA@48
	cmp	esi, esp
	call	__RTC_CheckEsp
	mov	DWORD PTR _hWnd$[ebp], eax

; 367  : 		_M_window_info._M_window_handle = (Handle)hWnd;

	mov	eax, DWORD PTR _this$[ebp]
	mov	ecx, DWORD PTR _hWnd$[ebp]
	mov	DWORD PTR [eax+16], ecx
$LN24@show:

; 368  : 	   }
; 369  : 		
; 370  : 		if (NULL != hWnd)

	cmp	DWORD PTR _hWnd$[ebp], 0
	je	SHORT $LN9@show

; 371  : 		{
; 372  : 			DWORD show_style = SW_NORMAL;

	mov	DWORD PTR _show_style$68259[ebp], 1

; 373  : 			if (_M_window_info._M_visiable != BOOL_TRUE)

	mov	eax, DWORD PTR _this$[ebp]
	cmp	DWORD PTR [eax+32], 1
	je	SHORT $LN8@show

; 374  : 			{
; 375  : 				show_style = SW_HIDE;

	mov	DWORD PTR _show_style$68259[ebp], 0
$LN8@show:

; 376  : 			}
; 377  : 			if (::ShowWindow(hWnd,show_style))

	mov	esi, esp
	mov	eax, DWORD PTR _show_style$68259[ebp]
	push	eax
	mov	ecx, DWORD PTR _hWnd$[ebp]
	push	ecx
	call	DWORD PTR __imp__ShowWindow@8
	cmp	esi, esp
	call	__RTC_CheckEsp
	test	eax, eax
	je	SHORT $LN7@show

; 378  : 			{
; 379  : 				_M_render_thread.start_thread();

	mov	ecx, DWORD PTR _this$[ebp]
	add	ecx, 108				; 0000006cH
	mov	eax, DWORD PTR _this$[ebp]
	mov	edx, DWORD PTR [eax+108]
	mov	esi, esp
	mov	eax, DWORD PTR [edx+32]
	call	eax
	cmp	esi, esp
	call	__RTC_CheckEsp
$LN7@show:

; 380  : 			}
; 381  : 			::SetActiveWindow(hWnd);

	mov	esi, esp
	mov	eax, DWORD PTR _hWnd$[ebp]
	push	eax
	call	DWORD PTR __imp__SetActiveWindow@4
	cmp	esi, esp
	call	__RTC_CheckEsp

; 382  : 		}
; 383  : 		else

	jmp	SHORT $LN6@show
$LN9@show:

; 384  : 		{
; 385  : 			_M_window_info._M_visiable = BOOL_FALSE;

	mov	eax, DWORD PTR _this$[ebp]
	mov	DWORD PTR [eax+32], 0
$LN6@show:

; 386  : 		}
; 387  : 
; 388  : 		if (BOOL_TRUE == bIs_dialog)

	cmp	DWORD PTR _bIs_dialog$[ebp], 1
	jne	$LN5@show

; 389  : 		{
; 390  : 			MSG msg;
; 391  : 			DWORD msg_result = ::GetMessage( &msg, null, 0, 0 );

	mov	esi, esp
	push	0
	push	0
	push	0
	lea	eax, DWORD PTR _msg$68264[ebp]
	push	eax
	call	DWORD PTR __imp__GetMessageA@16
	cmp	esi, esp
	call	__RTC_CheckEsp
	mov	DWORD PTR _msg_result$68265[ebp], eax
$LN4@show:

; 392  : 
; 393  : 			while (BOOL_FALSE == _M_closed && 0 != msg_result)

	mov	eax, DWORD PTR _this$[ebp]
	cmp	DWORD PTR [eax+8], 0
	jne	SHORT $LN5@show
	cmp	DWORD PTR _msg_result$68265[ebp], 0
	je	SHORT $LN5@show

; 394  : 			{
; 395  : 				if (-1 == msg_result)

	cmp	DWORD PTR _msg_result$68265[ebp], -1
	jne	SHORT $LN2@show

; 396  : 				{
; 397  : 					// handle the error and possibly exit
; 398  : 					break;

	jmp	SHORT $LN5@show

; 399  : 				}
; 400  : 				else

	jmp	SHORT $LN1@show
$LN2@show:

; 401  : 				{
; 402  : 					::TranslateMessage(&msg); 

	mov	esi, esp
	lea	eax, DWORD PTR _msg$68264[ebp]
	push	eax
	call	DWORD PTR __imp__TranslateMessage@4
	cmp	esi, esp
	call	__RTC_CheckEsp

; 403  : 					::DispatchMessage(&msg); 

	mov	esi, esp
	lea	eax, DWORD PTR _msg$68264[ebp]
	push	eax
	call	DWORD PTR __imp__DispatchMessageA@4
	cmp	esi, esp
	call	__RTC_CheckEsp
$LN1@show:

; 404  : 				}
; 405  : 				msg_result = ::GetMessage( &msg, null, 0, 0 );

	mov	esi, esp
	push	0
	push	0
	push	0
	lea	eax, DWORD PTR _msg$68264[ebp]
	push	eax
	call	DWORD PTR __imp__GetMessageA@16
	cmp	esi, esp
	call	__RTC_CheckEsp
	mov	DWORD PTR _msg_result$68265[ebp], eax

; 406  : 			}

	jmp	SHORT $LN4@show
$LN5@show:

; 407  : 		}
; 408  : #endif
; 409  : 		
; 410  : 	
; 411  : 	return P_OK;

	xor	eax, eax
$LN25@show:

; 412  : }

	push	edx
	mov	ecx, ebp
	push	eax
	lea	edx, DWORD PTR $LN31@show
	call	@_RTC_CheckStackVars@8
	pop	eax
	pop	edx
	pop	edi
	pop	esi
	pop	ebx
	mov	ecx, DWORD PTR __$ArrayPad$[ebp]
	xor	ecx, ebp
	call	@__security_check_cookie@4
	add	esp, 392				; 00000188H
	cmp	ebp, esp
	call	__RTC_CheckEsp
	mov	esp, ebp
	pop	ebp
	ret	4
	npad	3
$LN31@show:
	DD	3
	DD	$LN30@show
$LN30@show:
	DD	-72					; ffffffb8H
	DD	40					; 00000028H
	DD	$LN27@show
	DD	-120					; ffffff88H
	DD	16					; 00000010H
	DD	$LN28@show
	DD	-180					; ffffff4cH
	DD	28					; 0000001cH
	DD	$LN29@show
$LN29@show:
	DB	109					; 0000006dH
	DB	115					; 00000073H
	DB	103					; 00000067H
	DB	0
$LN28@show:
	DB	119					; 00000077H
	DB	105					; 00000069H
	DB	110					; 0000006eH
	DB	100					; 00000064H
	DB	111					; 0000006fH
	DB	119					; 00000077H
	DB	95					; 0000005fH
	DB	114					; 00000072H
	DB	101					; 00000065H
	DB	99					; 00000063H
	DB	116					; 00000074H
	DB	0
$LN27@show:
	DB	119					; 00000077H
	DB	105					; 00000069H
	DB	110					; 0000006eH
	DB	100					; 00000064H
	DB	111					; 0000006fH
	DB	119					; 00000077H
	DB	95					; 0000005fH
	DB	99					; 00000063H
	DB	108					; 0000006cH
	DB	97					; 00000061H
	DB	115					; 00000073H
	DB	115					; 00000073H
	DB	0
?show@pecker_window_context@pecker_sdk@@UAEJH@Z ENDP	; pecker_sdk::pecker_window_context::show
_TEXT	ENDS
EXTRN	__imp__GetWindowLongA@8:PROC
EXTRN	__imp__SetWindowLongA@12:PROC
; Function compile flags: /Odtp /RTCsu /ZI
;	COMDAT ?WndProc@pecker_sdk@@YGJPAUHWND__@@IIJ@Z
_TEXT	SEGMENT
_pWinForm$ = -8						; size = 4
_hwnd$ = 8						; size = 4
_message$ = 12						; size = 4
_wParam$ = 16						; size = 4
_lParam$ = 20						; size = 4
?WndProc@pecker_sdk@@YGJPAUHWND__@@IIJ@Z PROC		; pecker_sdk::WndProc, COMDAT

; 17   : {

	push	ebp
	mov	ebp, esp
	sub	esp, 204				; 000000ccH
	push	ebx
	push	esi
	push	edi
	lea	edi, DWORD PTR [ebp-204]
	mov	ecx, 51					; 00000033H
	mov	eax, -858993460				; ccccccccH
	rep stosd

; 18   : 	//if (NULL == hwnd)
; 19   : 	//{
; 20   : 	//	return 0;
; 21   : 	//}
; 22   : 	if (WM_CREATE == message)

	cmp	DWORD PTR _message$[ebp], 1
	jne	SHORT $LN2@WndProc

; 23   : 	{	// Store pointer to Win32Window in user data area
; 24   : 		::SetWindowLongPtr(hwnd, GWLP_USERDATA, (LONG)(((LPCREATESTRUCT)lParam)->lpCreateParams));

	mov	esi, esp
	mov	eax, DWORD PTR _lParam$[ebp]
	mov	ecx, DWORD PTR [eax]
	push	ecx
	push	-21					; ffffffebH
	mov	edx, DWORD PTR _hwnd$[ebp]
	push	edx
	call	DWORD PTR __imp__SetWindowLongA@12
	cmp	esi, esp
	call	__RTC_CheckEsp

; 25   : 		return 0;

	xor	eax, eax
	jmp	SHORT $LN3@WndProc
$LN2@WndProc:

; 26   : 	}
; 27   : 
; 28   : 	// look up window instance
; 29   : 	// note: it is possible to get a WM_SIZE before WM_CREATE
; 30   : 	pecker_window_context* pWinForm = (pecker_window_context*)(::GetWindowLongPtr(hwnd, GWLP_USERDATA));

	mov	esi, esp
	push	-21					; ffffffebH
	mov	eax, DWORD PTR _hwnd$[ebp]
	push	eax
	call	DWORD PTR __imp__GetWindowLongA@8
	cmp	esi, esp
	call	__RTC_CheckEsp
	mov	DWORD PTR _pWinForm$[ebp], eax

; 31   : 
; 32   : 	if (null != pWinForm)

	cmp	DWORD PTR _pWinForm$[ebp], 0
	je	SHORT $LN1@WndProc

; 33   : 	{
; 34   : 		return pecker_window_context::pecker_windows_apps(pWinForm,message,wParam,lParam);

	mov	eax, DWORD PTR _lParam$[ebp]
	push	eax
	mov	ecx, DWORD PTR _wParam$[ebp]
	push	ecx
	mov	edx, DWORD PTR _message$[ebp]
	push	edx
	mov	eax, DWORD PTR _pWinForm$[ebp]
	push	eax
	call	?pecker_windows_apps@pecker_window_context@pecker_sdk@@SAJPAV12@IJJ@Z ; pecker_sdk::pecker_window_context::pecker_windows_apps
	add	esp, 16					; 00000010H
	jmp	SHORT $LN3@WndProc
$LN1@WndProc:

; 35   : 	}
; 36   : 
; 37   : 	return ::DefWindowProc(hwnd, message, wParam, lParam);

	mov	esi, esp
	mov	eax, DWORD PTR _lParam$[ebp]
	push	eax
	mov	ecx, DWORD PTR _wParam$[ebp]
	push	ecx
	mov	edx, DWORD PTR _message$[ebp]
	push	edx
	mov	eax, DWORD PTR _hwnd$[ebp]
	push	eax
	call	DWORD PTR __imp__DefWindowProcA@16
	cmp	esi, esp
	call	__RTC_CheckEsp
$LN3@WndProc:

; 38   : }

	pop	edi
	pop	esi
	pop	ebx
	add	esp, 204				; 000000ccH
	cmp	ebp, esp
	call	__RTC_CheckEsp
	mov	esp, ebp
	pop	ebp
	ret	16					; 00000010H
?WndProc@pecker_sdk@@YGJPAUHWND__@@IIJ@Z ENDP		; pecker_sdk::WndProc
; Function compile flags: /Odtp /RTCsu /ZI
_TEXT	ENDS
;	COMDAT ?close@pecker_window_context@pecker_sdk@@UAEJXZ
_TEXT	SEGMENT
_this$ = -8						; size = 4
?close@pecker_window_context@pecker_sdk@@UAEJXZ PROC	; pecker_sdk::pecker_window_context::close, COMDAT
; _this$ = ecx

; 415  : {

	push	ebp
	mov	ebp, esp
	sub	esp, 204				; 000000ccH
	push	ebx
	push	esi
	push	edi
	push	ecx
	lea	edi, DWORD PTR [ebp-204]
	mov	ecx, 51					; 00000033H
	mov	eax, -858993460				; ccccccccH
	rep stosd
	pop	ecx
	mov	DWORD PTR _this$[ebp], ecx

; 416  : 	return P_OK;

	xor	eax, eax

; 417  : }

	pop	edi
	pop	esi
	pop	ebx
	mov	esp, ebp
	pop	ebp
	ret	0
?close@pecker_window_context@pecker_sdk@@UAEJXZ ENDP	; pecker_sdk::pecker_window_context::close
_TEXT	ENDS
PUBLIC	__$ArrayPad$
PUBLIC	?init_apps@pecker_program_apps@pecker_sdk@@SAJXZ ; pecker_sdk::pecker_program_apps::init_apps
EXTRN	_strlen:PROC
EXTRN	__imp__GetCurrentDirectoryA@8:PROC
EXTRN	_memset:PROC
; Function compile flags: /Odtp /RTCsu /ZI
;	COMDAT ?init_apps@pecker_program_apps@pecker_sdk@@SAJXZ
_TEXT	SEGMENT
_length$ = -2068					; size = 4
_path_chars$ = -2056					; size = 2048
__$ArrayPad$ = -4					; size = 4
?init_apps@pecker_program_apps@pecker_sdk@@SAJXZ PROC	; pecker_sdk::pecker_program_apps::init_apps, COMDAT

; 423  : {

	push	ebp
	mov	ebp, esp
	sub	esp, 2264				; 000008d8H
	push	ebx
	push	esi
	push	edi
	lea	edi, DWORD PTR [ebp-2264]
	mov	ecx, 566				; 00000236H
	mov	eax, -858993460				; ccccccccH
	rep stosd
	mov	eax, DWORD PTR ___security_cookie
	xor	eax, ebp
	mov	DWORD PTR __$ArrayPad$[ebp], eax

; 424  : #ifdef WINDOWS_PC
; 425  : 	char path_chars[2048] = {0};

	mov	BYTE PTR _path_chars$[ebp], 0
	push	2047					; 000007ffH
	push	0
	lea	eax, DWORD PTR _path_chars$[ebp+1]
	push	eax
	call	_memset
	add	esp, 12					; 0000000cH

; 426  : 	DWORD length = 2048;

	mov	DWORD PTR _length$[ebp], 2048		; 00000800H

; 427  : 	if (::GetCurrentDirectory(length,path_chars))

	mov	esi, esp
	lea	eax, DWORD PTR _path_chars$[ebp]
	push	eax
	mov	ecx, DWORD PTR _length$[ebp]
	push	ecx
	call	DWORD PTR __imp__GetCurrentDirectoryA@8
	cmp	esi, esp
	call	__RTC_CheckEsp
	test	eax, eax
	je	SHORT $LN2@init_apps

; 428  : 	{
; 429  : 		g_str_current_directory.init(path_chars,strlen(path_chars));

	push	0
	lea	eax, DWORD PTR _path_chars$[ebp]
	push	eax
	call	_strlen
	add	esp, 4
	push	eax
	lea	ecx, DWORD PTR _path_chars$[ebp]
	push	ecx
	mov	ecx, OFFSET _g_str_current_directory
	call	?init@?$pecker_share_string_base_t@DU?$pecker_value_compare@D@pecker_sdk@@V?$pecker_simple_allocator@D@2@$0BA@@pecker_sdk@@QAEJPBDH_N@Z ; pecker_sdk::pecker_share_string_base_t<char,pecker_sdk::pecker_value_compare<char>,pecker_sdk::pecker_simple_allocator<char>,16>::init

; 430  : 		return P_OK;

	xor	eax, eax
	jmp	SHORT $LN3@init_apps

; 431  : 	}
; 432  : 	else

	jmp	SHORT $LN1@init_apps
$LN2@init_apps:

; 433  : 	{
; 434  : 		return P_FAIL;

	mov	eax, 1
	jmp	SHORT $LN3@init_apps
$LN1@init_apps:

; 435  : 	}
; 436  : #endif
; 437  : 	return P_OK;

	xor	eax, eax
$LN3@init_apps:

; 438  : }

	push	edx
	mov	ecx, ebp
	push	eax
	lea	edx, DWORD PTR $LN7@init_apps
	call	@_RTC_CheckStackVars@8
	pop	eax
	pop	edx
	pop	edi
	pop	esi
	pop	ebx
	mov	ecx, DWORD PTR __$ArrayPad$[ebp]
	xor	ecx, ebp
	call	@__security_check_cookie@4
	add	esp, 2264				; 000008d8H
	cmp	ebp, esp
	call	__RTC_CheckEsp
	mov	esp, ebp
	pop	ebp
	ret	0
	npad	3
$LN7@init_apps:
	DD	1
	DD	$LN6@init_apps
$LN6@init_apps:
	DD	-2056					; fffff7f8H
	DD	2048					; 00000800H
	DD	$LN5@init_apps
$LN5@init_apps:
	DB	112					; 00000070H
	DB	97					; 00000061H
	DB	116					; 00000074H
	DB	104					; 00000068H
	DB	95					; 0000005fH
	DB	99					; 00000063H
	DB	104					; 00000068H
	DB	97					; 00000061H
	DB	114					; 00000072H
	DB	115					; 00000073H
	DB	0
?init_apps@pecker_program_apps@pecker_sdk@@SAJXZ ENDP	; pecker_sdk::pecker_program_apps::init_apps
_TEXT	ENDS
PUBLIC	?execute_program@pecker_program_apps@pecker_sdk@@SAJPAVpecker_window_context@2@ABV?$pecker_share_string_base_t@DU?$pecker_value_compare@D@pecker_sdk@@V?$pecker_simple_allocator@D@2@$0BA@@2@@Z ; pecker_sdk::pecker_program_apps::execute_program
; Function compile flags: /Odtp /RTCsu /ZI
;	COMDAT ?execute_program@pecker_program_apps@pecker_sdk@@SAJPAVpecker_window_context@2@ABV?$pecker_share_string_base_t@DU?$pecker_value_compare@D@pecker_sdk@@V?$pecker_simple_allocator@D@2@$0BA@@2@@Z
_TEXT	SEGMENT
_bRet$68320 = -44					; size = 4
_msg$68319 = -32					; size = 28
_pwindow_context$ = 8					; size = 4
_str_cmd_params$ = 12					; size = 4
?execute_program@pecker_program_apps@pecker_sdk@@SAJPAVpecker_window_context@2@ABV?$pecker_share_string_base_t@DU?$pecker_value_compare@D@pecker_sdk@@V?$pecker_simple_allocator@D@2@$0BA@@2@@Z PROC ; pecker_sdk::pecker_program_apps::execute_program, COMDAT

; 441  : {

	push	ebp
	mov	ebp, esp
	sub	esp, 240				; 000000f0H
	push	ebx
	push	esi
	push	edi
	lea	edi, DWORD PTR [ebp-240]
	mov	ecx, 60					; 0000003cH
	mov	eax, -858993460				; ccccccccH
	rep stosd

; 442  : 	if (null != g_main_window_handle)

	cmp	DWORD PTR _g_main_window_handle, 0
	je	SHORT $LN7@execute_pr

; 443  : 	{
; 444  : 		return P_UNIQUE_ERR;

	mov	eax, -4					; fffffffcH
	jmp	$LN8@execute_pr
$LN7@execute_pr:

; 445  : 	}
; 446  : 	if (null != pwindow_context)

	cmp	DWORD PTR _pwindow_context$[ebp], 0
	je	$LN6@execute_pr

; 447  : 	{
; 448  : 		if (P_OK == pwindow_context->show())

	mov	esi, esp
	push	0
	mov	eax, DWORD PTR _pwindow_context$[ebp]
	mov	edx, DWORD PTR [eax]
	mov	ecx, DWORD PTR _pwindow_context$[ebp]
	mov	eax, DWORD PTR [edx+76]
	call	eax
	cmp	esi, esp
	call	__RTC_CheckEsp
	test	eax, eax
	jne	SHORT $LN4@execute_pr

; 449  : 		{
; 450  : 			g_main_window_handle = (HWND)(pwindow_context->get_window_info()._M_window_handle);

	mov	ecx, DWORD PTR _pwindow_context$[ebp]
	call	?get_window_info@pecker_window_context@pecker_sdk@@QBEABUpecker_window_info@2@XZ ; pecker_sdk::pecker_window_context::get_window_info
	mov	eax, DWORD PTR [eax+4]
	mov	DWORD PTR _g_main_window_handle, eax
$LN4@execute_pr:

; 451  : 		}
; 452  : #ifdef WINDOWS_PC
; 453  : 		MSG msg;
; 454  : 		SInt bRet;
; 455  : 
; 456  : 		while( (bRet = ::GetMessage( &msg, null, 0, 0 )) != 0)

	mov	esi, esp
	push	0
	push	0
	push	0
	lea	eax, DWORD PTR _msg$68319[ebp]
	push	eax
	call	DWORD PTR __imp__GetMessageA@16
	cmp	esi, esp
	call	__RTC_CheckEsp
	mov	DWORD PTR _bRet$68320[ebp], eax
	cmp	DWORD PTR _bRet$68320[ebp], 0
	je	SHORT $LN3@execute_pr

; 457  : 		{ 
; 458  : 			if (bRet == -1)

	cmp	DWORD PTR _bRet$68320[ebp], -1
	jne	SHORT $LN2@execute_pr

; 459  : 			{
; 460  : 				// handle the error and possibly exit
; 461  : 				break;

	jmp	SHORT $LN3@execute_pr

; 462  : 			}
; 463  : 			else

	jmp	SHORT $LN1@execute_pr
$LN2@execute_pr:

; 464  : 			{
; 465  : 				::TranslateMessage(&msg); 

	mov	esi, esp
	lea	eax, DWORD PTR _msg$68319[ebp]
	push	eax
	call	DWORD PTR __imp__TranslateMessage@4
	cmp	esi, esp
	call	__RTC_CheckEsp

; 466  : 				::DispatchMessage(&msg); 

	mov	esi, esp
	lea	eax, DWORD PTR _msg$68319[ebp]
	push	eax
	call	DWORD PTR __imp__DispatchMessageA@4
	cmp	esi, esp
	call	__RTC_CheckEsp
$LN1@execute_pr:

; 467  : 			}
; 468  : 		} 

	jmp	SHORT $LN4@execute_pr
$LN3@execute_pr:

; 469  : #endif
; 470  : 		return P_OK;

	xor	eax, eax
	jmp	SHORT $LN8@execute_pr
$LN6@execute_pr:

; 471  : 	}
; 472  : 
; 473  : 	return P_ERR;

	or	eax, -1
$LN8@execute_pr:

; 474  : 	
; 475  : }

	push	edx
	mov	ecx, ebp
	push	eax
	lea	edx, DWORD PTR $LN12@execute_pr
	call	@_RTC_CheckStackVars@8
	pop	eax
	pop	edx
	pop	edi
	pop	esi
	pop	ebx
	add	esp, 240				; 000000f0H
	cmp	ebp, esp
	call	__RTC_CheckEsp
	mov	esp, ebp
	pop	ebp
	ret	0
	npad	1
$LN12@execute_pr:
	DD	1
	DD	$LN11@execute_pr
$LN11@execute_pr:
	DD	-32					; ffffffe0H
	DD	28					; 0000001cH
	DD	$LN10@execute_pr
$LN10@execute_pr:
	DB	109					; 0000006dH
	DB	115					; 00000073H
	DB	103					; 00000067H
	DB	0
?execute_program@pecker_program_apps@pecker_sdk@@SAJPAVpecker_window_context@2@ABV?$pecker_share_string_base_t@DU?$pecker_value_compare@D@pecker_sdk@@V?$pecker_simple_allocator@D@2@$0BA@@2@@Z ENDP ; pecker_sdk::pecker_program_apps::execute_program
_TEXT	ENDS
PUBLIC	?execute_program@pecker_program_apps@pecker_sdk@@SAJV?$pecker_share_string_base_t@DU?$pecker_value_compare@D@pecker_sdk@@V?$pecker_simple_allocator@D@2@$0BA@@2@ABV32@@Z ; pecker_sdk::pecker_program_apps::execute_program
; Function compile flags: /Odtp /RTCsu /ZI
;	COMDAT ?execute_program@pecker_program_apps@pecker_sdk@@SAJV?$pecker_share_string_base_t@DU?$pecker_value_compare@D@pecker_sdk@@V?$pecker_simple_allocator@D@2@$0BA@@2@ABV32@@Z
_TEXT	SEGMENT
$T68803 = -212						; size = 4
_str_file_path$ = 8					; size = 36
_str_cmd_params$ = 44					; size = 4
?execute_program@pecker_program_apps@pecker_sdk@@SAJV?$pecker_share_string_base_t@DU?$pecker_value_compare@D@pecker_sdk@@V?$pecker_simple_allocator@D@2@$0BA@@2@ABV32@@Z PROC ; pecker_sdk::pecker_program_apps::execute_program, COMDAT

; 478  : {

	push	ebp
	mov	ebp, esp
	sub	esp, 216				; 000000d8H
	push	ebx
	push	esi
	push	edi
	lea	edi, DWORD PTR [ebp-216]
	mov	ecx, 54					; 00000036H
	mov	eax, -858993460				; ccccccccH
	rep stosd

; 479  : 	return P_OK;

	mov	DWORD PTR $T68803[ebp], 0
	lea	ecx, DWORD PTR _str_file_path$[ebp]
	call	??1?$pecker_share_string_base_t@DU?$pecker_value_compare@D@pecker_sdk@@V?$pecker_simple_allocator@D@2@$0BA@@pecker_sdk@@QAE@XZ ; pecker_sdk::pecker_share_string_base_t<char,pecker_sdk::pecker_value_compare<char>,pecker_sdk::pecker_simple_allocator<char>,16>::~pecker_share_string_base_t<char,pecker_sdk::pecker_value_compare<char>,pecker_sdk::pecker_simple_allocator<char>,16>
	mov	eax, DWORD PTR $T68803[ebp]

; 480  : }

	push	edx
	mov	ecx, ebp
	push	eax
	lea	edx, DWORD PTR $LN6@execute_pr@2
	call	@_RTC_CheckStackVars@8
	pop	eax
	pop	edx
	pop	edi
	pop	esi
	pop	ebx
	add	esp, 216				; 000000d8H
	cmp	ebp, esp
	call	__RTC_CheckEsp
	mov	esp, ebp
	pop	ebp
	ret	0
	npad	1
$LN6@execute_pr@2:
	DD	1
	DD	$LN5@execute_pr@2
$LN5@execute_pr@2:
	DD	-8					; fffffff8H
	DD	4
	DD	$LN4@execute_pr@2
$LN4@execute_pr@2:
	DB	95					; 0000005fH
	DB	36					; 00000024H
	DB	65					; 00000041H
	DB	114					; 00000072H
	DB	114					; 00000072H
	DB	97					; 00000061H
	DB	121					; 00000079H
	DB	80					; 00000050H
	DB	97					; 00000061H
	DB	100					; 00000064H
	DB	0
?execute_program@pecker_program_apps@pecker_sdk@@SAJV?$pecker_share_string_base_t@DU?$pecker_value_compare@D@pecker_sdk@@V?$pecker_simple_allocator@D@2@$0BA@@2@ABV32@@Z ENDP ; pecker_sdk::pecker_program_apps::execute_program
_TEXT	ENDS
PUBLIC	?get_current_directory@pecker_program_apps@pecker_sdk@@SAABV?$pecker_share_string_base_t@DU?$pecker_value_compare@D@pecker_sdk@@V?$pecker_simple_allocator@D@2@$0BA@@2@XZ ; pecker_sdk::pecker_program_apps::get_current_directory
; Function compile flags: /Odtp /RTCsu /ZI
;	COMDAT ?get_current_directory@pecker_program_apps@pecker_sdk@@SAABV?$pecker_share_string_base_t@DU?$pecker_value_compare@D@pecker_sdk@@V?$pecker_simple_allocator@D@2@$0BA@@2@XZ
_TEXT	SEGMENT
?get_current_directory@pecker_program_apps@pecker_sdk@@SAABV?$pecker_share_string_base_t@DU?$pecker_value_compare@D@pecker_sdk@@V?$pecker_simple_allocator@D@2@$0BA@@2@XZ PROC ; pecker_sdk::pecker_program_apps::get_current_directory, COMDAT

; 483  : {

	push	ebp
	mov	ebp, esp
	sub	esp, 192				; 000000c0H
	push	ebx
	push	esi
	push	edi
	lea	edi, DWORD PTR [ebp-192]
	mov	ecx, 48					; 00000030H
	mov	eax, -858993460				; ccccccccH
	rep stosd

; 484  : 	return g_str_current_directory;

	mov	eax, OFFSET _g_str_current_directory

; 485  : }

	pop	edi
	pop	esi
	pop	ebx
	mov	esp, ebp
	pop	ebp
	ret	0
?get_current_directory@pecker_program_apps@pecker_sdk@@SAABV?$pecker_share_string_base_t@DU?$pecker_value_compare@D@pecker_sdk@@V?$pecker_simple_allocator@D@2@$0BA@@2@XZ ENDP ; pecker_sdk::pecker_program_apps::get_current_directory
; Function compile flags: /Odtp /RTCsu /ZI
; File f:\codes\pecker_framework_git\pecker_src\pecker_framework\data\pecker_string.h
_TEXT	ENDS
;	COMDAT ??0?$pecker_share_string_base_t@DU?$pecker_value_compare@D@pecker_sdk@@V?$pecker_simple_allocator@D@2@$0BA@@pecker_sdk@@QAE@XZ
_TEXT	SEGMENT
_this$ = -8						; size = 4
??0?$pecker_share_string_base_t@DU?$pecker_value_compare@D@pecker_sdk@@V?$pecker_simple_allocator@D@2@$0BA@@pecker_sdk@@QAE@XZ PROC ; pecker_sdk::pecker_share_string_base_t<char,pecker_sdk::pecker_value_compare<char>,pecker_sdk::pecker_simple_allocator<char>,16>::pecker_share_string_base_t<char,pecker_sdk::pecker_value_compare<char>,pecker_sdk::pecker_simple_allocator<char>,16>, COMDAT
; _this$ = ecx

; 176  : 	{

	push	ebp
	mov	ebp, esp
	sub	esp, 204				; 000000ccH
	push	ebx
	push	esi
	push	edi
	push	ecx
	lea	edi, DWORD PTR [ebp-204]
	mov	ecx, 51					; 00000033H
	mov	eax, -858993460				; ccccccccH
	rep stosd
	pop	ecx
	mov	DWORD PTR _this$[ebp], ecx
	mov	eax, DWORD PTR _this$[ebp]
	mov	ecx, DWORD PTR _this$[ebp]
	mov	DWORD PTR [eax+16], ecx
	mov	eax, DWORD PTR _this$[ebp]
	mov	DWORD PTR [eax+20], 16			; 00000010H
	mov	eax, DWORD PTR _this$[ebp]
	mov	DWORD PTR [eax+24], 0
	mov	eax, DWORD PTR _this$[ebp]
	mov	DWORD PTR [eax+28], 0
	mov	eax, DWORD PTR _this$[ebp]
	mov	DWORD PTR [eax+32], 0

; 177  : 		_M_pstring_data_header._Large_buffer = null;

	mov	eax, DWORD PTR _this$[ebp]
	mov	DWORD PTR [eax], 0

; 178  : 	}

	mov	eax, DWORD PTR _this$[ebp]
	pop	edi
	pop	esi
	pop	ebx
	mov	esp, ebp
	pop	ebp
	ret	0
??0?$pecker_share_string_base_t@DU?$pecker_value_compare@D@pecker_sdk@@V?$pecker_simple_allocator@D@2@$0BA@@pecker_sdk@@QAE@XZ ENDP ; pecker_sdk::pecker_share_string_base_t<char,pecker_sdk::pecker_value_compare<char>,pecker_sdk::pecker_simple_allocator<char>,16>::pecker_share_string_base_t<char,pecker_sdk::pecker_value_compare<char>,pecker_sdk::pecker_simple_allocator<char>,16>
_TEXT	ENDS
PUBLIC	?copy@?$pecker_share_string_base_t@DU?$pecker_value_compare@D@pecker_sdk@@V?$pecker_simple_allocator@D@2@$0BA@@pecker_sdk@@QAEJABV12@@Z ; pecker_sdk::pecker_share_string_base_t<char,pecker_sdk::pecker_value_compare<char>,pecker_sdk::pecker_simple_allocator<char>,16>::copy
; Function compile flags: /Odtp /RTCsu /ZI
;	COMDAT ??4?$pecker_share_string_base_t@DU?$pecker_value_compare@D@pecker_sdk@@V?$pecker_simple_allocator@D@2@$0BA@@pecker_sdk@@QAEAAV01@ABV01@@Z
_TEXT	SEGMENT
_this$ = -8						; size = 4
_other_string$ = 8					; size = 4
??4?$pecker_share_string_base_t@DU?$pecker_value_compare@D@pecker_sdk@@V?$pecker_simple_allocator@D@2@$0BA@@pecker_sdk@@QAEAAV01@ABV01@@Z PROC ; pecker_sdk::pecker_share_string_base_t<char,pecker_sdk::pecker_value_compare<char>,pecker_sdk::pecker_simple_allocator<char>,16>::operator=, COMDAT
; _this$ = ecx

; 190  : 	{

	push	ebp
	mov	ebp, esp
	sub	esp, 204				; 000000ccH
	push	ebx
	push	esi
	push	edi
	push	ecx
	lea	edi, DWORD PTR [ebp-204]
	mov	ecx, 51					; 00000033H
	mov	eax, -858993460				; ccccccccH
	rep stosd
	pop	ecx
	mov	DWORD PTR _this$[ebp], ecx

; 191  : 		copy(other_string);

	mov	eax, DWORD PTR _other_string$[ebp]
	push	eax
	mov	ecx, DWORD PTR _this$[ebp]
	call	?copy@?$pecker_share_string_base_t@DU?$pecker_value_compare@D@pecker_sdk@@V?$pecker_simple_allocator@D@2@$0BA@@pecker_sdk@@QAEJABV12@@Z ; pecker_sdk::pecker_share_string_base_t<char,pecker_sdk::pecker_value_compare<char>,pecker_sdk::pecker_simple_allocator<char>,16>::copy

; 192  : 		return *this;

	mov	eax, DWORD PTR _this$[ebp]

; 193  : 	}

	pop	edi
	pop	esi
	pop	ebx
	add	esp, 204				; 000000ccH
	cmp	ebp, esp
	call	__RTC_CheckEsp
	mov	esp, ebp
	pop	ebp
	ret	4
??4?$pecker_share_string_base_t@DU?$pecker_value_compare@D@pecker_sdk@@V?$pecker_simple_allocator@D@2@$0BA@@pecker_sdk@@QAEAAV01@ABV01@@Z ENDP ; pecker_sdk::pecker_share_string_base_t<char,pecker_sdk::pecker_value_compare<char>,pecker_sdk::pecker_simple_allocator<char>,16>::operator=
_TEXT	ENDS
PUBLIC	?clear@?$pecker_share_string_base_t@DU?$pecker_value_compare@D@pecker_sdk@@V?$pecker_simple_allocator@D@2@$0BA@@pecker_sdk@@QAEJXZ ; pecker_sdk::pecker_share_string_base_t<char,pecker_sdk::pecker_value_compare<char>,pecker_sdk::pecker_simple_allocator<char>,16>::clear
; Function compile flags: /Odtp /RTCsu /ZI
;	COMDAT ??1?$pecker_share_string_base_t@DU?$pecker_value_compare@D@pecker_sdk@@V?$pecker_simple_allocator@D@2@$0BA@@pecker_sdk@@QAE@XZ
_TEXT	SEGMENT
_this$ = -8						; size = 4
??1?$pecker_share_string_base_t@DU?$pecker_value_compare@D@pecker_sdk@@V?$pecker_simple_allocator@D@2@$0BA@@pecker_sdk@@QAE@XZ PROC ; pecker_sdk::pecker_share_string_base_t<char,pecker_sdk::pecker_value_compare<char>,pecker_sdk::pecker_simple_allocator<char>,16>::~pecker_share_string_base_t<char,pecker_sdk::pecker_value_compare<char>,pecker_sdk::pecker_simple_allocator<char>,16>, COMDAT
; _this$ = ecx

; 195  : 	{

	push	ebp
	mov	ebp, esp
	sub	esp, 204				; 000000ccH
	push	ebx
	push	esi
	push	edi
	push	ecx
	lea	edi, DWORD PTR [ebp-204]
	mov	ecx, 51					; 00000033H
	mov	eax, -858993460				; ccccccccH
	rep stosd
	pop	ecx
	mov	DWORD PTR _this$[ebp], ecx

; 196  : 		clear();

	mov	ecx, DWORD PTR _this$[ebp]
	call	?clear@?$pecker_share_string_base_t@DU?$pecker_value_compare@D@pecker_sdk@@V?$pecker_simple_allocator@D@2@$0BA@@pecker_sdk@@QAEJXZ ; pecker_sdk::pecker_share_string_base_t<char,pecker_sdk::pecker_value_compare<char>,pecker_sdk::pecker_simple_allocator<char>,16>::clear

; 197  : 	}

	pop	edi
	pop	esi
	pop	ebx
	add	esp, 204				; 000000ccH
	cmp	ebp, esp
	call	__RTC_CheckEsp
	mov	esp, ebp
	pop	ebp
	ret	0
??1?$pecker_share_string_base_t@DU?$pecker_value_compare@D@pecker_sdk@@V?$pecker_simple_allocator@D@2@$0BA@@pecker_sdk@@QAE@XZ ENDP ; pecker_sdk::pecker_share_string_base_t<char,pecker_sdk::pecker_value_compare<char>,pecker_sdk::pecker_simple_allocator<char>,16>::~pecker_share_string_base_t<char,pecker_sdk::pecker_value_compare<char>,pecker_sdk::pecker_simple_allocator<char>,16>
_TEXT	ENDS
PUBLIC	?init@?$pecker_share_string_base_t@DU?$pecker_value_compare@D@pecker_sdk@@V?$pecker_simple_allocator@D@2@$0BA@@pecker_sdk@@QAEJH_N@Z ; pecker_sdk::pecker_share_string_base_t<char,pecker_sdk::pecker_value_compare<char>,pecker_sdk::pecker_simple_allocator<char>,16>::init
; Function compile flags: /Odtp /RTCsu /ZI
;	COMDAT ?init@?$pecker_share_string_base_t@DU?$pecker_value_compare@D@pecker_sdk@@V?$pecker_simple_allocator@D@2@$0BA@@pecker_sdk@@QAEJPBDH_N@Z
_TEXT	SEGMENT
_index$68344 = -32					; size = 4
_init_result$ = -20					; size = 4
_this$ = -8						; size = 4
_pstring_chars$ = 8					; size = 4
_string_length$ = 12					; size = 4
_bnew_buffer$ = 16					; size = 1
?init@?$pecker_share_string_base_t@DU?$pecker_value_compare@D@pecker_sdk@@V?$pecker_simple_allocator@D@2@$0BA@@pecker_sdk@@QAEJPBDH_N@Z PROC ; pecker_sdk::pecker_share_string_base_t<char,pecker_sdk::pecker_value_compare<char>,pecker_sdk::pecker_simple_allocator<char>,16>::init, COMDAT
; _this$ = ecx

; 449  : 	{

	push	ebp
	mov	ebp, esp
	sub	esp, 228				; 000000e4H
	push	ebx
	push	esi
	push	edi
	push	ecx
	lea	edi, DWORD PTR [ebp-228]
	mov	ecx, 57					; 00000039H
	mov	eax, -858993460				; ccccccccH
	rep stosd
	pop	ecx
	mov	DWORD PTR _this$[ebp], ecx

; 450  : 		if ( (null == pstring_chars && 0 >= string_length) )

	cmp	DWORD PTR _pstring_chars$[ebp], 0
	jne	SHORT $LN5@init
	cmp	DWORD PTR _string_length$[ebp], 0
	jg	SHORT $LN5@init

; 451  : 		{
; 452  : 			return P_ERR;

	or	eax, -1
	jmp	SHORT $LN6@init
$LN5@init:

; 453  : 		}
; 454  : 
; 455  : 		string_result init_result = init(string_length,bnew_buffer);

	movzx	eax, BYTE PTR _bnew_buffer$[ebp]
	push	eax
	mov	ecx, DWORD PTR _string_length$[ebp]
	push	ecx
	mov	ecx, DWORD PTR _this$[ebp]
	call	?init@?$pecker_share_string_base_t@DU?$pecker_value_compare@D@pecker_sdk@@V?$pecker_simple_allocator@D@2@$0BA@@pecker_sdk@@QAEJH_N@Z ; pecker_sdk::pecker_share_string_base_t<char,pecker_sdk::pecker_value_compare<char>,pecker_sdk::pecker_simple_allocator<char>,16>::init
	mov	DWORD PTR _init_result$[ebp], eax

; 456  : 		if (P_OK != init_result)

	cmp	DWORD PTR _init_result$[ebp], 0
	je	SHORT $LN4@init

; 457  : 		{
; 458  : 			return init_result;

	mov	eax, DWORD PTR _init_result$[ebp]
	jmp	SHORT $LN6@init
$LN4@init:

; 459  : 		}
; 460  : 
; 461  : 		_M_string_length = string_length;

	mov	eax, DWORD PTR _this$[ebp]
	mov	ecx, DWORD PTR _string_length$[ebp]
	mov	DWORD PTR [eax+24], ecx

; 462  : 		for (string_char_index index = 0; index < string_length; ++index)

	mov	DWORD PTR _index$68344[ebp], 0
	jmp	SHORT $LN3@init
$LN2@init:
	mov	eax, DWORD PTR _index$68344[ebp]
	add	eax, 1
	mov	DWORD PTR _index$68344[ebp], eax
$LN3@init:
	mov	eax, DWORD PTR _index$68344[ebp]
	cmp	eax, DWORD PTR _string_length$[ebp]
	jge	SHORT $LN1@init

; 463  : 		{
; 464  : 			*(_M_pthis_string_data+index) = *(pstring_chars + index);

	mov	eax, DWORD PTR _this$[ebp]
	mov	ecx, DWORD PTR [eax+16]
	mov	edx, DWORD PTR _pstring_chars$[ebp]
	add	edx, DWORD PTR _index$68344[ebp]
	mov	eax, DWORD PTR _index$68344[ebp]
	mov	dl, BYTE PTR [edx]
	mov	BYTE PTR [ecx+eax], dl

; 465  : 		}

	jmp	SHORT $LN2@init
$LN1@init:

; 466  : 
; 467  : 		return P_OK;

	xor	eax, eax
$LN6@init:

; 468  : 	}

	pop	edi
	pop	esi
	pop	ebx
	add	esp, 228				; 000000e4H
	cmp	ebp, esp
	call	__RTC_CheckEsp
	mov	esp, ebp
	pop	ebp
	ret	12					; 0000000cH
?init@?$pecker_share_string_base_t@DU?$pecker_value_compare@D@pecker_sdk@@V?$pecker_simple_allocator@D@2@$0BA@@pecker_sdk@@QAEJPBDH_N@Z ENDP ; pecker_sdk::pecker_share_string_base_t<char,pecker_sdk::pecker_value_compare<char>,pecker_sdk::pecker_simple_allocator<char>,16>::init
; Function compile flags: /Odtp /RTCsu /ZI
_TEXT	ENDS
;	COMDAT ?get_data@?$pecker_share_string_base_t@DU?$pecker_value_compare@D@pecker_sdk@@V?$pecker_simple_allocator@D@2@$0BA@@pecker_sdk@@QBEPBDXZ
_TEXT	SEGMENT
_this$ = -8						; size = 4
?get_data@?$pecker_share_string_base_t@DU?$pecker_value_compare@D@pecker_sdk@@V?$pecker_simple_allocator@D@2@$0BA@@pecker_sdk@@QBEPBDXZ PROC ; pecker_sdk::pecker_share_string_base_t<char,pecker_sdk::pecker_value_compare<char>,pecker_sdk::pecker_simple_allocator<char>,16>::get_data, COMDAT
; _this$ = ecx

; 778  : 	{

	push	ebp
	mov	ebp, esp
	sub	esp, 204				; 000000ccH
	push	ebx
	push	esi
	push	edi
	push	ecx
	lea	edi, DWORD PTR [ebp-204]
	mov	ecx, 51					; 00000033H
	mov	eax, -858993460				; ccccccccH
	rep stosd
	pop	ecx
	mov	DWORD PTR _this$[ebp], ecx

; 779  : 		return _M_pthis_string_data;

	mov	eax, DWORD PTR _this$[ebp]
	mov	eax, DWORD PTR [eax+16]

; 780  : 	}

	pop	edi
	pop	esi
	pop	ebx
	mov	esp, ebp
	pop	ebp
	ret	0
?get_data@?$pecker_share_string_base_t@DU?$pecker_value_compare@D@pecker_sdk@@V?$pecker_simple_allocator@D@2@$0BA@@pecker_sdk@@QBEPBDXZ ENDP ; pecker_sdk::pecker_share_string_base_t<char,pecker_sdk::pecker_value_compare<char>,pecker_sdk::pecker_simple_allocator<char>,16>::get_data
_TEXT	ENDS
PUBLIC	?deallocate_objects@?$pecker_simple_allocator@D@pecker_sdk@@SAXPAD@Z ; pecker_sdk::pecker_simple_allocator<char>::deallocate_objects
; Function compile flags: /Odtp /RTCsu /ZI
;	COMDAT ?clear@?$pecker_share_string_base_t@DU?$pecker_value_compare@D@pecker_sdk@@V?$pecker_simple_allocator@D@2@$0BA@@pecker_sdk@@QAEJXZ
_TEXT	SEGMENT
_this$ = -8						; size = 4
?clear@?$pecker_share_string_base_t@DU?$pecker_value_compare@D@pecker_sdk@@V?$pecker_simple_allocator@D@2@$0BA@@pecker_sdk@@QAEJXZ PROC ; pecker_sdk::pecker_share_string_base_t<char,pecker_sdk::pecker_value_compare<char>,pecker_sdk::pecker_simple_allocator<char>,16>::clear, COMDAT
; _this$ = ecx

; 200  : 	{

	push	ebp
	mov	ebp, esp
	sub	esp, 204				; 000000ccH
	push	ebx
	push	esi
	push	edi
	push	ecx
	lea	edi, DWORD PTR [ebp-204]
	mov	ecx, 51					; 00000033H
	mov	eax, -858993460				; ccccccccH
	rep stosd
	pop	ecx
	mov	DWORD PTR _this$[ebp], ecx

; 201  : 		if (_M_string_buffer_size > _BUFFER_SIZE)

	mov	eax, DWORD PTR _this$[ebp]
	cmp	DWORD PTR [eax+20], 16			; 00000010H
	jle	SHORT $LN4@clear

; 202  : 		{
; 203  : 			if (null == _M_shared_buffer_next_string && null == _M_shared_buffer_pre_string)

	mov	eax, DWORD PTR _this$[ebp]
	cmp	DWORD PTR [eax+32], 0
	jne	SHORT $LN3@clear
	mov	eax, DWORD PTR _this$[ebp]
	cmp	DWORD PTR [eax+28], 0
	jne	SHORT $LN3@clear

; 204  : 			{
; 205  : 				allocate_object_t::deallocate_objects(_M_pstring_data_header._Large_buffer);

	mov	eax, DWORD PTR _this$[ebp]
	mov	ecx, DWORD PTR [eax]
	push	ecx
	call	?deallocate_objects@?$pecker_simple_allocator@D@pecker_sdk@@SAXPAD@Z ; pecker_sdk::pecker_simple_allocator<char>::deallocate_objects
	add	esp, 4
$LN3@clear:

; 206  : 			}
; 207  : 
; 208  : 			if (null != _M_shared_buffer_pre_string)

	mov	eax, DWORD PTR _this$[ebp]
	cmp	DWORD PTR [eax+28], 0
	je	SHORT $LN2@clear

; 209  : 			{
; 210  : 				_M_shared_buffer_pre_string->_M_shared_buffer_next_string = _M_shared_buffer_next_string;

	mov	eax, DWORD PTR _this$[ebp]
	mov	ecx, DWORD PTR [eax+28]
	mov	edx, DWORD PTR _this$[ebp]
	mov	eax, DWORD PTR [edx+32]
	mov	DWORD PTR [ecx+32], eax

; 211  : 				_M_shared_buffer_pre_string = null;

	mov	eax, DWORD PTR _this$[ebp]
	mov	DWORD PTR [eax+28], 0
$LN2@clear:

; 212  : 			}
; 213  : 
; 214  : 			if (null != _M_shared_buffer_next_string)

	mov	eax, DWORD PTR _this$[ebp]
	cmp	DWORD PTR [eax+32], 0
	je	SHORT $LN1@clear

; 215  : 			{
; 216  : 				_M_shared_buffer_next_string->_M_shared_buffer_pre_string = _M_shared_buffer_pre_string;

	mov	eax, DWORD PTR _this$[ebp]
	mov	ecx, DWORD PTR [eax+32]
	mov	edx, DWORD PTR _this$[ebp]
	mov	eax, DWORD PTR [edx+28]
	mov	DWORD PTR [ecx+28], eax

; 217  : 				_M_shared_buffer_next_string = null;

	mov	eax, DWORD PTR _this$[ebp]
	mov	DWORD PTR [eax+32], 0
$LN1@clear:

; 218  : 			}
; 219  : 
; 220  : 			_M_string_buffer_size = _BUFFER_SIZE;	

	mov	eax, DWORD PTR _this$[ebp]
	mov	DWORD PTR [eax+20], 16			; 00000010H
$LN4@clear:

; 221  : 		}
; 222  : 
; 223  : 		_M_pthis_string_data = _M_pstring_data_header._Small_buffer;

	mov	eax, DWORD PTR _this$[ebp]
	mov	ecx, DWORD PTR _this$[ebp]
	mov	DWORD PTR [eax+16], ecx

; 224  : 		_M_string_length = 0;

	mov	eax, DWORD PTR _this$[ebp]
	mov	DWORD PTR [eax+24], 0

; 225  : 
; 226  : 		return P_OK;

	xor	eax, eax

; 227  : 
; 228  : 	}

	pop	edi
	pop	esi
	pop	ebx
	add	esp, 204				; 000000ccH
	cmp	ebp, esp
	call	__RTC_CheckEsp
	mov	esp, ebp
	pop	ebp
	ret	0
?clear@?$pecker_share_string_base_t@DU?$pecker_value_compare@D@pecker_sdk@@V?$pecker_simple_allocator@D@2@$0BA@@pecker_sdk@@QAEJXZ ENDP ; pecker_sdk::pecker_share_string_base_t<char,pecker_sdk::pecker_value_compare<char>,pecker_sdk::pecker_simple_allocator<char>,16>::clear
_TEXT	ENDS
PUBLIC	?allocate_objects@?$pecker_simple_allocator@D@pecker_sdk@@SAPADH@Z ; pecker_sdk::pecker_simple_allocator<char>::allocate_objects
; Function compile flags: /Odtp /RTCsu /ZI
;	COMDAT ?init@?$pecker_share_string_base_t@DU?$pecker_value_compare@D@pecker_sdk@@V?$pecker_simple_allocator@D@2@$0BA@@pecker_sdk@@QAEJH_N@Z
_TEXT	SEGMENT
tv69 = -232						; size = 4
_bis_release_buffer$ = -29				; size = 1
_pheaderpointer$ = -20					; size = 4
_this$ = -8						; size = 4
_string_length$ = 8					; size = 4
_bnew_buffer$ = 12					; size = 1
?init@?$pecker_share_string_base_t@DU?$pecker_value_compare@D@pecker_sdk@@V?$pecker_simple_allocator@D@2@$0BA@@pecker_sdk@@QAEJH_N@Z PROC ; pecker_sdk::pecker_share_string_base_t<char,pecker_sdk::pecker_value_compare<char>,pecker_sdk::pecker_simple_allocator<char>,16>::init, COMDAT
; _this$ = ecx

; 361  : 	{

	push	ebp
	mov	ebp, esp
	sub	esp, 232				; 000000e8H
	push	ebx
	push	esi
	push	edi
	push	ecx
	lea	edi, DWORD PTR [ebp-232]
	mov	ecx, 58					; 0000003aH
	mov	eax, -858993460				; ccccccccH
	rep stosd
	pop	ecx
	mov	DWORD PTR _this$[ebp], ecx

; 362  : 		if ( (0 >= string_length) )

	cmp	DWORD PTR _string_length$[ebp], 0
	jg	SHORT $LN18@init@2

; 363  : 		{
; 364  : 			return P_ERR;

	or	eax, -1
	jmp	$LN19@init@2
$LN18@init@2:

; 365  : 		}
; 366  : 
; 367  : 		char_value_t* pheaderpointer = null;

	mov	DWORD PTR _pheaderpointer$[ebp], 0

; 368  : 		bool bis_release_buffer = (null == _M_shared_buffer_pre_string && null == _M_shared_buffer_next_string);

	mov	eax, DWORD PTR _this$[ebp]
	cmp	DWORD PTR [eax+28], 0
	jne	SHORT $LN21@init@2
	mov	ecx, DWORD PTR _this$[ebp]
	cmp	DWORD PTR [ecx+32], 0
	jne	SHORT $LN21@init@2
	mov	DWORD PTR tv69[ebp], 1
	jmp	SHORT $LN22@init@2
$LN21@init@2:
	mov	DWORD PTR tv69[ebp], 0
$LN22@init@2:
	mov	dl, BYTE PTR tv69[ebp]
	mov	BYTE PTR _bis_release_buffer$[ebp], dl

; 369  : 
; 370  : 		if (string_length <= _BUFFER_SIZE)

	cmp	DWORD PTR _string_length$[ebp], 16	; 00000010H
	jg	SHORT $LN17@init@2

; 371  : 		{
; 372  : 			if (_M_string_buffer_size > _BUFFER_SIZE)

	mov	eax, DWORD PTR _this$[ebp]
	cmp	DWORD PTR [eax+20], 16			; 00000010H
	jle	SHORT $LN16@init@2

; 373  : 			{
; 374  : 				if (STRING_BOOLEAN_FALSE == bnew_buffer)

	movzx	eax, BYTE PTR _bnew_buffer$[ebp]
	test	eax, eax
	jne	SHORT $LN15@init@2

; 375  : 				{
; 376  : 					if (bis_release_buffer)

	movzx	eax, BYTE PTR _bis_release_buffer$[ebp]
	test	eax, eax
	je	SHORT $LN14@init@2

; 377  : 					{
; 378  : 						pheaderpointer = _M_pstring_data_header._Large_buffer;

	mov	eax, DWORD PTR _this$[ebp]
	mov	ecx, DWORD PTR [eax]
	mov	DWORD PTR _pheaderpointer$[ebp], ecx

; 379  : 					}
; 380  : 					else

	jmp	SHORT $LN13@init@2
$LN14@init@2:

; 381  : 					{
; 382  : 						pheaderpointer = _M_pstring_data_header._Small_buffer;

	mov	eax, DWORD PTR _this$[ebp]
	mov	DWORD PTR _pheaderpointer$[ebp], eax

; 383  : 						_M_string_buffer_size = _BUFFER_SIZE;

	mov	eax, DWORD PTR _this$[ebp]
	mov	DWORD PTR [eax+20], 16			; 00000010H
$LN13@init@2:

; 384  : 					}
; 385  : 				}
; 386  : 				else

	jmp	SHORT $LN12@init@2
$LN15@init@2:

; 387  : 				{
; 388  : 					if (bis_release_buffer)

	movzx	eax, BYTE PTR _bis_release_buffer$[ebp]
	test	eax, eax
	je	SHORT $LN11@init@2

; 389  : 					{
; 390  : 						allocate_object_t::deallocate_objects(_M_pstring_data_header._Large_buffer);

	mov	eax, DWORD PTR _this$[ebp]
	mov	ecx, DWORD PTR [eax]
	push	ecx
	call	?deallocate_objects@?$pecker_simple_allocator@D@pecker_sdk@@SAXPAD@Z ; pecker_sdk::pecker_simple_allocator<char>::deallocate_objects
	add	esp, 4
$LN11@init@2:

; 391  : 					}
; 392  : 					pheaderpointer = _M_pstring_data_header._Small_buffer;

	mov	eax, DWORD PTR _this$[ebp]
	mov	DWORD PTR _pheaderpointer$[ebp], eax

; 393  : 					_M_string_buffer_size = _BUFFER_SIZE;

	mov	eax, DWORD PTR _this$[ebp]
	mov	DWORD PTR [eax+20], 16			; 00000010H
$LN12@init@2:

; 394  : 				}
; 395  : 			}
; 396  : 			else

	jmp	SHORT $LN10@init@2
$LN16@init@2:

; 397  : 			{
; 398  : 				pheaderpointer = _M_pstring_data_header._Small_buffer;

	mov	eax, DWORD PTR _this$[ebp]
	mov	DWORD PTR _pheaderpointer$[ebp], eax

; 399  : 				_M_string_buffer_size = _BUFFER_SIZE;

	mov	eax, DWORD PTR _this$[ebp]
	mov	DWORD PTR [eax+20], 16			; 00000010H
$LN10@init@2:

; 400  : 			}
; 401  : 		}
; 402  : 		else

	jmp	SHORT $LN9@init@2
$LN17@init@2:

; 403  : 		{
; 404  : 			if ((string_length > _M_string_buffer_size) ||  
; 405  : 				 false == bis_release_buffer || 
; 406  : 				bnew_buffer)

	mov	eax, DWORD PTR _this$[ebp]
	mov	ecx, DWORD PTR _string_length$[ebp]
	cmp	ecx, DWORD PTR [eax+20]
	jg	SHORT $LN7@init@2
	movzx	eax, BYTE PTR _bis_release_buffer$[ebp]
	test	eax, eax
	je	SHORT $LN7@init@2
	movzx	eax, BYTE PTR _bnew_buffer$[ebp]
	test	eax, eax
	je	SHORT $LN8@init@2
$LN7@init@2:

; 407  : 			{
; 408  : 				pheaderpointer = allocate_object_t::allocate_objects(string_length);

	mov	eax, DWORD PTR _string_length$[ebp]
	push	eax
	call	?allocate_objects@?$pecker_simple_allocator@D@pecker_sdk@@SAPADH@Z ; pecker_sdk::pecker_simple_allocator<char>::allocate_objects
	add	esp, 4
	mov	DWORD PTR _pheaderpointer$[ebp], eax

; 409  : 				if (null != pheaderpointer)

	cmp	DWORD PTR _pheaderpointer$[ebp], 0
	je	SHORT $LN6@init@2

; 410  : 				{
; 411  : 						if ( bis_release_buffer && _M_string_buffer_size > _BUFFER_SIZE )

	movzx	eax, BYTE PTR _bis_release_buffer$[ebp]
	test	eax, eax
	je	SHORT $LN5@init@2
	mov	eax, DWORD PTR _this$[ebp]
	cmp	DWORD PTR [eax+20], 16			; 00000010H
	jle	SHORT $LN5@init@2

; 412  : 						{
; 413  : 							allocate_object_t::deallocate_objects(_M_pstring_data_header._Large_buffer);

	mov	eax, DWORD PTR _this$[ebp]
	mov	ecx, DWORD PTR [eax]
	push	ecx
	call	?deallocate_objects@?$pecker_simple_allocator@D@pecker_sdk@@SAXPAD@Z ; pecker_sdk::pecker_simple_allocator<char>::deallocate_objects
	add	esp, 4
$LN5@init@2:

; 414  : 						}
; 415  : 						_M_pstring_data_header._Large_buffer = pheaderpointer;

	mov	eax, DWORD PTR _this$[ebp]
	mov	ecx, DWORD PTR _pheaderpointer$[ebp]
	mov	DWORD PTR [eax], ecx

; 416  : 						_M_string_buffer_size = string_length;

	mov	eax, DWORD PTR _this$[ebp]
	mov	ecx, DWORD PTR _string_length$[ebp]
	mov	DWORD PTR [eax+20], ecx
$LN6@init@2:

; 417  : 				}
; 418  : 			}
; 419  : 			else

	jmp	SHORT $LN9@init@2
$LN8@init@2:

; 420  : 			{
; 421  : 				pheaderpointer = _M_pstring_data_header._Large_buffer;

	mov	eax, DWORD PTR _this$[ebp]
	mov	ecx, DWORD PTR [eax]
	mov	DWORD PTR _pheaderpointer$[ebp], ecx
$LN9@init@2:

; 422  : 			}
; 423  : 		}
; 424  : 	
; 425  : 		if (null == pheaderpointer)

	cmp	DWORD PTR _pheaderpointer$[ebp], 0
	jne	SHORT $LN3@init@2

; 426  : 		{
; 427  : 			return P_ERR;

	or	eax, -1
	jmp	SHORT $LN19@init@2
$LN3@init@2:

; 428  : 		}
; 429  : 
; 430  : 		if (null != _M_shared_buffer_pre_string)

	mov	eax, DWORD PTR _this$[ebp]
	cmp	DWORD PTR [eax+28], 0
	je	SHORT $LN2@init@2

; 431  : 		{
; 432  : 			_M_shared_buffer_pre_string->_M_shared_buffer_next_string = _M_shared_buffer_next_string;

	mov	eax, DWORD PTR _this$[ebp]
	mov	ecx, DWORD PTR [eax+28]
	mov	edx, DWORD PTR _this$[ebp]
	mov	eax, DWORD PTR [edx+32]
	mov	DWORD PTR [ecx+32], eax

; 433  : 			_M_shared_buffer_pre_string = null;

	mov	eax, DWORD PTR _this$[ebp]
	mov	DWORD PTR [eax+28], 0
$LN2@init@2:

; 434  : 		}
; 435  : 
; 436  : 		if (null != _M_shared_buffer_next_string)

	mov	eax, DWORD PTR _this$[ebp]
	cmp	DWORD PTR [eax+32], 0
	je	SHORT $LN1@init@2

; 437  : 		{
; 438  : 			_M_shared_buffer_next_string->_M_shared_buffer_pre_string = _M_shared_buffer_pre_string;

	mov	eax, DWORD PTR _this$[ebp]
	mov	ecx, DWORD PTR [eax+32]
	mov	edx, DWORD PTR _this$[ebp]
	mov	eax, DWORD PTR [edx+28]
	mov	DWORD PTR [ecx+28], eax

; 439  : 			_M_shared_buffer_next_string = null;

	mov	eax, DWORD PTR _this$[ebp]
	mov	DWORD PTR [eax+32], 0
$LN1@init@2:

; 440  : 		}
; 441  : 
; 442  : 		_M_pthis_string_data = pheaderpointer;

	mov	eax, DWORD PTR _this$[ebp]
	mov	ecx, DWORD PTR _pheaderpointer$[ebp]
	mov	DWORD PTR [eax+16], ecx

; 443  : 		_M_string_length = 0;//string_length;

	mov	eax, DWORD PTR _this$[ebp]
	mov	DWORD PTR [eax+24], 0

; 444  : 
; 445  : 		return P_OK;

	xor	eax, eax
$LN19@init@2:

; 446  : 	}

	pop	edi
	pop	esi
	pop	ebx
	add	esp, 232				; 000000e8H
	cmp	ebp, esp
	call	__RTC_CheckEsp
	mov	esp, ebp
	pop	ebp
	ret	8
?init@?$pecker_share_string_base_t@DU?$pecker_value_compare@D@pecker_sdk@@V?$pecker_simple_allocator@D@2@$0BA@@pecker_sdk@@QAEJH_N@Z ENDP ; pecker_sdk::pecker_share_string_base_t<char,pecker_sdk::pecker_value_compare<char>,pecker_sdk::pecker_simple_allocator<char>,16>::init
_TEXT	ENDS
PUBLIC	?get_string_length@?$pecker_share_string_base_t@DU?$pecker_value_compare@D@pecker_sdk@@V?$pecker_simple_allocator@D@2@$0BA@@pecker_sdk@@QBEHXZ ; pecker_sdk::pecker_share_string_base_t<char,pecker_sdk::pecker_value_compare<char>,pecker_sdk::pecker_simple_allocator<char>,16>::get_string_length
; Function compile flags: /Odtp /RTCsu /ZI
;	COMDAT ?copy@?$pecker_share_string_base_t@DU?$pecker_value_compare@D@pecker_sdk@@V?$pecker_simple_allocator@D@2@$0BA@@pecker_sdk@@QAEJABV12@@Z
_TEXT	SEGMENT
_this$ = -8						; size = 4
_other$ = 8						; size = 4
?copy@?$pecker_share_string_base_t@DU?$pecker_value_compare@D@pecker_sdk@@V?$pecker_simple_allocator@D@2@$0BA@@pecker_sdk@@QAEJABV12@@Z PROC ; pecker_sdk::pecker_share_string_base_t<char,pecker_sdk::pecker_value_compare<char>,pecker_sdk::pecker_simple_allocator<char>,16>::copy, COMDAT
; _this$ = ecx

; 470  : 	{

	push	ebp
	mov	ebp, esp
	sub	esp, 204				; 000000ccH
	push	ebx
	push	esi
	push	edi
	push	ecx
	lea	edi, DWORD PTR [ebp-204]
	mov	ecx, 51					; 00000033H
	mov	eax, -858993460				; ccccccccH
	rep stosd
	pop	ecx
	mov	DWORD PTR _this$[ebp], ecx

; 471  : 		if (this != &other)

	mov	eax, DWORD PTR _this$[ebp]
	cmp	eax, DWORD PTR _other$[ebp]
	je	SHORT $LN1@copy

; 472  : 		{
; 473  : 			return init(other.get_data(),other.get_string_length(),STRING_BOOLEAN_FALSE);

	push	0
	mov	ecx, DWORD PTR _other$[ebp]
	call	?get_string_length@?$pecker_share_string_base_t@DU?$pecker_value_compare@D@pecker_sdk@@V?$pecker_simple_allocator@D@2@$0BA@@pecker_sdk@@QBEHXZ ; pecker_sdk::pecker_share_string_base_t<char,pecker_sdk::pecker_value_compare<char>,pecker_sdk::pecker_simple_allocator<char>,16>::get_string_length
	push	eax
	mov	ecx, DWORD PTR _other$[ebp]
	call	?get_data@?$pecker_share_string_base_t@DU?$pecker_value_compare@D@pecker_sdk@@V?$pecker_simple_allocator@D@2@$0BA@@pecker_sdk@@QBEPBDXZ ; pecker_sdk::pecker_share_string_base_t<char,pecker_sdk::pecker_value_compare<char>,pecker_sdk::pecker_simple_allocator<char>,16>::get_data
	push	eax
	mov	ecx, DWORD PTR _this$[ebp]
	call	?init@?$pecker_share_string_base_t@DU?$pecker_value_compare@D@pecker_sdk@@V?$pecker_simple_allocator@D@2@$0BA@@pecker_sdk@@QAEJPBDH_N@Z ; pecker_sdk::pecker_share_string_base_t<char,pecker_sdk::pecker_value_compare<char>,pecker_sdk::pecker_simple_allocator<char>,16>::init
	jmp	SHORT $LN2@copy
$LN1@copy:

; 474  : 		}
; 475  : 		return P_OK;

	xor	eax, eax
$LN2@copy:

; 476  : 	}

	pop	edi
	pop	esi
	pop	ebx
	add	esp, 204				; 000000ccH
	cmp	ebp, esp
	call	__RTC_CheckEsp
	mov	esp, ebp
	pop	ebp
	ret	4
?copy@?$pecker_share_string_base_t@DU?$pecker_value_compare@D@pecker_sdk@@V?$pecker_simple_allocator@D@2@$0BA@@pecker_sdk@@QAEJABV12@@Z ENDP ; pecker_sdk::pecker_share_string_base_t<char,pecker_sdk::pecker_value_compare<char>,pecker_sdk::pecker_simple_allocator<char>,16>::copy
; Function compile flags: /Odtp /RTCsu /ZI
_TEXT	ENDS
;	COMDAT ?get_string_length@?$pecker_share_string_base_t@DU?$pecker_value_compare@D@pecker_sdk@@V?$pecker_simple_allocator@D@2@$0BA@@pecker_sdk@@QBEHXZ
_TEXT	SEGMENT
_this$ = -8						; size = 4
?get_string_length@?$pecker_share_string_base_t@DU?$pecker_value_compare@D@pecker_sdk@@V?$pecker_simple_allocator@D@2@$0BA@@pecker_sdk@@QBEHXZ PROC ; pecker_sdk::pecker_share_string_base_t<char,pecker_sdk::pecker_value_compare<char>,pecker_sdk::pecker_simple_allocator<char>,16>::get_string_length, COMDAT
; _this$ = ecx

; 782  : 	{

	push	ebp
	mov	ebp, esp
	sub	esp, 204				; 000000ccH
	push	ebx
	push	esi
	push	edi
	push	ecx
	lea	edi, DWORD PTR [ebp-204]
	mov	ecx, 51					; 00000033H
	mov	eax, -858993460				; ccccccccH
	rep stosd
	pop	ecx
	mov	DWORD PTR _this$[ebp], ecx

; 783  : 		return _M_string_length;

	mov	eax, DWORD PTR _this$[ebp]
	mov	eax, DWORD PTR [eax+24]

; 784  : 	}

	pop	edi
	pop	esi
	pop	ebx
	mov	esp, ebp
	pop	ebp
	ret	0
?get_string_length@?$pecker_share_string_base_t@DU?$pecker_value_compare@D@pecker_sdk@@V?$pecker_simple_allocator@D@2@$0BA@@pecker_sdk@@QBEHXZ ENDP ; pecker_sdk::pecker_share_string_base_t<char,pecker_sdk::pecker_value_compare<char>,pecker_sdk::pecker_simple_allocator<char>,16>::get_string_length
_TEXT	ENDS
EXTRN	??_U@YAPAXI@Z:PROC				; operator new[]
; Function compile flags: /Odtp /RTCsu /ZI
; File f:\codes\pecker_framework_git\pecker_src\pecker_framework\native\pecker_allocator.h
;	COMDAT ?allocate_objects@?$pecker_simple_allocator@D@pecker_sdk@@SAPADH@Z
_TEXT	SEGMENT
$T68832 = -200						; size = 4
_nSize$ = 8						; size = 4
?allocate_objects@?$pecker_simple_allocator@D@pecker_sdk@@SAPADH@Z PROC ; pecker_sdk::pecker_simple_allocator<char>::allocate_objects, COMDAT

; 45   : 		{

	push	ebp
	mov	ebp, esp
	sub	esp, 204				; 000000ccH
	push	ebx
	push	esi
	push	edi
	lea	edi, DWORD PTR [ebp-204]
	mov	ecx, 51					; 00000033H
	mov	eax, -858993460				; ccccccccH
	rep stosd

; 46   : 			if(nSize > 0)

	cmp	DWORD PTR _nSize$[ebp], 0
	jle	SHORT $LN1@allocate_o

; 47   : 			{
; 48   : 				return new className[nSize];

	mov	eax, DWORD PTR _nSize$[ebp]
	push	eax
	call	??_U@YAPAXI@Z				; operator new[]
	add	esp, 4
	mov	DWORD PTR $T68832[ebp], eax
	mov	eax, DWORD PTR $T68832[ebp]
	jmp	SHORT $LN2@allocate_o
$LN1@allocate_o:

; 49   : 			}
; 50   : 			return null;

	xor	eax, eax
$LN2@allocate_o:

; 51   : 		}

	pop	edi
	pop	esi
	pop	ebx
	add	esp, 204				; 000000ccH
	cmp	ebp, esp
	call	__RTC_CheckEsp
	mov	esp, ebp
	pop	ebp
	ret	0
?allocate_objects@?$pecker_simple_allocator@D@pecker_sdk@@SAPADH@Z ENDP ; pecker_sdk::pecker_simple_allocator<char>::allocate_objects
_TEXT	ENDS
EXTRN	??_V@YAXPAX@Z:PROC				; operator delete[]
; Function compile flags: /Odtp /RTCsu /ZI
;	COMDAT ?deallocate_objects@?$pecker_simple_allocator@D@pecker_sdk@@SAXPAD@Z
_TEXT	SEGMENT
$T68835 = -200						; size = 4
_pDelObject$ = 8					; size = 4
?deallocate_objects@?$pecker_simple_allocator@D@pecker_sdk@@SAXPAD@Z PROC ; pecker_sdk::pecker_simple_allocator<char>::deallocate_objects, COMDAT

; 54   : 		{

	push	ebp
	mov	ebp, esp
	sub	esp, 204				; 000000ccH
	push	ebx
	push	esi
	push	edi
	lea	edi, DWORD PTR [ebp-204]
	mov	ecx, 51					; 00000033H
	mov	eax, -858993460				; ccccccccH
	rep stosd

; 55   : 			if(null != pDelObject)

	cmp	DWORD PTR _pDelObject$[ebp], 0
	je	SHORT $LN2@deallocate

; 56   : 			{
; 57   : 				delete [] pDelObject;

	mov	eax, DWORD PTR _pDelObject$[ebp]
	mov	DWORD PTR $T68835[ebp], eax
	mov	ecx, DWORD PTR $T68835[ebp]
	push	ecx
	call	??_V@YAXPAX@Z				; operator delete[]
	add	esp, 4
$LN2@deallocate:

; 58   : 			}
; 59   : 		}

	pop	edi
	pop	esi
	pop	ebx
	add	esp, 204				; 000000ccH
	cmp	ebp, esp
	call	__RTC_CheckEsp
	mov	esp, ebp
	pop	ebp
	ret	0
?deallocate_objects@?$pecker_simple_allocator@D@pecker_sdk@@SAXPAD@Z ENDP ; pecker_sdk::pecker_simple_allocator<char>::deallocate_objects
_TEXT	ENDS
EXTRN	_atexit:PROC
; Function compile flags: /Odtp /RTCsu /ZI
; File f:\codes\pecker_framework_git\pecker_src\pecker_framework\native\pecker_window.cpp
;	COMDAT ??__Eg_str_current_directory@pecker_sdk@@YAXXZ
text$yc	SEGMENT
??__Eg_str_current_directory@pecker_sdk@@YAXXZ PROC	; pecker_sdk::`dynamic initializer for 'g_str_current_directory'', COMDAT

; 421  : static pecker_string g_str_current_directory;

	push	ebp
	mov	ebp, esp
	sub	esp, 192				; 000000c0H
	push	ebx
	push	esi
	push	edi
	lea	edi, DWORD PTR [ebp-192]
	mov	ecx, 48					; 00000030H
	mov	eax, -858993460				; ccccccccH
	rep stosd
	mov	ecx, OFFSET _g_str_current_directory
	call	??0?$pecker_share_string_base_t@DU?$pecker_value_compare@D@pecker_sdk@@V?$pecker_simple_allocator@D@2@$0BA@@pecker_sdk@@QAE@XZ ; pecker_sdk::pecker_share_string_base_t<char,pecker_sdk::pecker_value_compare<char>,pecker_sdk::pecker_simple_allocator<char>,16>::pecker_share_string_base_t<char,pecker_sdk::pecker_value_compare<char>,pecker_sdk::pecker_simple_allocator<char>,16>
	push	OFFSET ??__Fg_str_current_directory@pecker_sdk@@YAXXZ ; pecker_sdk::`dynamic atexit destructor for 'g_str_current_directory''
	call	_atexit
	add	esp, 4
	pop	edi
	pop	esi
	pop	ebx
	add	esp, 192				; 000000c0H
	cmp	ebp, esp
	call	__RTC_CheckEsp
	mov	esp, ebp
	pop	ebp
	ret	0
??__Eg_str_current_directory@pecker_sdk@@YAXXZ ENDP	; pecker_sdk::`dynamic initializer for 'g_str_current_directory''
; Function compile flags: /Odtp /RTCsu /ZI
text$yc	ENDS
;	COMDAT ??__Fg_str_current_directory@pecker_sdk@@YAXXZ
text$yd	SEGMENT
??__Fg_str_current_directory@pecker_sdk@@YAXXZ PROC	; pecker_sdk::`dynamic atexit destructor for 'g_str_current_directory'', COMDAT
	push	ebp
	mov	ebp, esp
	sub	esp, 192				; 000000c0H
	push	ebx
	push	esi
	push	edi
	lea	edi, DWORD PTR [ebp-192]
	mov	ecx, 48					; 00000030H
	mov	eax, -858993460				; ccccccccH
	rep stosd
	mov	ecx, OFFSET _g_str_current_directory
	call	??1?$pecker_share_string_base_t@DU?$pecker_value_compare@D@pecker_sdk@@V?$pecker_simple_allocator@D@2@$0BA@@pecker_sdk@@QAE@XZ ; pecker_sdk::pecker_share_string_base_t<char,pecker_sdk::pecker_value_compare<char>,pecker_sdk::pecker_simple_allocator<char>,16>::~pecker_share_string_base_t<char,pecker_sdk::pecker_value_compare<char>,pecker_sdk::pecker_simple_allocator<char>,16>
	pop	edi
	pop	esi
	pop	ebx
	add	esp, 192				; 000000c0H
	cmp	ebp, esp
	call	__RTC_CheckEsp
	mov	esp, ebp
	pop	ebp
	ret	0
??__Fg_str_current_directory@pecker_sdk@@YAXXZ ENDP	; pecker_sdk::`dynamic atexit destructor for 'g_str_current_directory''
text$yd	ENDS
_BSS	SEGMENT
_g_str_current_directory DB 024H DUP (?)
_BSS	ENDS
CRT$XCU	SEGMENT
_g_str_current_directory$initializer$ DD FLAT:??__Eg_str_current_directory@pecker_sdk@@YAXXZ
CRT$XCU	ENDS
END
