; Listing generated by Microsoft (R) Optimizing Compiler Version 16.00.40219.01 

	TITLE	F:\codes\pecker_framework_git\pecker_src\pecker_framework\render\render_system\opengles\pecker_opengles_object.cpp
	.686P
	.XMM
	include listing.inc
	.model	flat

INCLUDELIB MSVCRTD
INCLUDELIB OLDNAMES

PUBLIC	?get_render_system_info@pecker_opengles_v2_object@pecker_sdk@@UBEABUpecker_render_system_info@2@AAU32@@Z ; pecker_sdk::pecker_opengles_v2_object::get_render_system_info
EXTRN	__RTC_Shutdown:PROC
EXTRN	__RTC_InitBase:PROC
;	COMDAT rtc$TMZ
; File f:\codes\pecker_framework_git\pecker_src\pecker_framework\render\render_system\opengles\pecker_opengles_object.cpp
rtc$TMZ	SEGMENT
__RTC_Shutdown.rtc$TMZ DD FLAT:__RTC_Shutdown
rtc$TMZ	ENDS
;	COMDAT rtc$IMZ
rtc$IMZ	SEGMENT
__RTC_InitBase.rtc$IMZ DD FLAT:__RTC_InitBase
; Function compile flags: /Odtp /RTCsu /ZI
rtc$IMZ	ENDS
;	COMDAT ?get_render_system_info@pecker_opengles_v2_object@pecker_sdk@@UBEABUpecker_render_system_info@2@AAU32@@Z
_TEXT	SEGMENT
_this$ = -8						; size = 4
_system_info$ = 8					; size = 4
?get_render_system_info@pecker_opengles_v2_object@pecker_sdk@@UBEABUpecker_render_system_info@2@AAU32@@Z PROC ; pecker_sdk::pecker_opengles_v2_object::get_render_system_info, COMDAT
; _this$ = ecx

; 16   : {

	push	ebp
	mov	ebp, esp
	sub	esp, 204				; 000000ccH
	push	ebx
	push	esi
	push	edi
	push	ecx
	lea	edi, DWORD PTR [ebp-204]
	mov	ecx, 51					; 00000033H
	mov	eax, -858993460				; ccccccccH
	rep stosd
	pop	ecx
	mov	DWORD PTR _this$[ebp], ecx

; 17   : 	system_info._M_system_type = OPENGLES_RENDER_SYSTEM;

	mov	eax, DWORD PTR _system_info$[ebp]
	mov	DWORD PTR [eax], 3

; 18   : 	system_info._M_version_part1 = 2;

	mov	eax, DWORD PTR _system_info$[ebp]
	mov	DWORD PTR [eax+4], 2

; 19   : 	system_info._M_version_part2 = 0;

	mov	eax, DWORD PTR _system_info$[ebp]
	mov	DWORD PTR [eax+8], 0

; 20   : 	return system_info;

	mov	eax, DWORD PTR _system_info$[ebp]

; 21   : }

	pop	edi
	pop	esi
	pop	ebx
	mov	esp, ebp
	pop	ebp
	ret	4
?get_render_system_info@pecker_opengles_v2_object@pecker_sdk@@UBEABUpecker_render_system_info@2@AAU32@@Z ENDP ; pecker_sdk::pecker_opengles_v2_object::get_render_system_info
_TEXT	ENDS
PUBLIC	?get_object_location@pecker_opengles_v2_object@pecker_sdk@@UBEIXZ ; pecker_sdk::pecker_opengles_v2_object::get_object_location
; Function compile flags: /Odtp /RTCsu /ZI
;	COMDAT ?get_object_location@pecker_opengles_v2_object@pecker_sdk@@UBEIXZ
_TEXT	SEGMENT
_this$ = -8						; size = 4
?get_object_location@pecker_opengles_v2_object@pecker_sdk@@UBEIXZ PROC ; pecker_sdk::pecker_opengles_v2_object::get_object_location, COMDAT
; _this$ = ecx

; 24   : {

	push	ebp
	mov	ebp, esp
	sub	esp, 204				; 000000ccH
	push	ebx
	push	esi
	push	edi
	push	ecx
	lea	edi, DWORD PTR [ebp-204]
	mov	ecx, 51					; 00000033H
	mov	eax, -858993460				; ccccccccH
	rep stosd
	pop	ecx
	mov	DWORD PTR _this$[ebp], ecx

; 25   : 	return 0;

	xor	eax, eax

; 26   : }

	pop	edi
	pop	esi
	pop	ebx
	mov	esp, ebp
	pop	ebp
	ret	0
?get_object_location@pecker_opengles_v2_object@pecker_sdk@@UBEIXZ ENDP ; pecker_sdk::pecker_opengles_v2_object::get_object_location
_TEXT	ENDS
PUBLIC	?get_last_error_code@pecker_opengles_v2_object@pecker_sdk@@SAJXZ ; pecker_sdk::pecker_opengles_v2_object::get_last_error_code
EXTRN	__imp__glGetError@0:PROC
EXTRN	__RTC_CheckEsp:PROC
; Function compile flags: /Odtp /RTCsu /ZI
;	COMDAT ?get_last_error_code@pecker_opengles_v2_object@pecker_sdk@@SAJXZ
_TEXT	SEGMENT
_uerror_code$ = -8					; size = 4
?get_last_error_code@pecker_opengles_v2_object@pecker_sdk@@SAJXZ PROC ; pecker_sdk::pecker_opengles_v2_object::get_last_error_code, COMDAT

; 29   : {

	push	ebp
	mov	ebp, esp
	sub	esp, 204				; 000000ccH
	push	ebx
	push	esi
	push	edi
	lea	edi, DWORD PTR [ebp-204]
	mov	ecx, 51					; 00000033H
	mov	eax, -858993460				; ccccccccH
	rep stosd

; 30   : 	UInt uerror_code = ::glGetError();

	mov	esi, esp
	call	DWORD PTR __imp__glGetError@0
	cmp	esi, esp
	call	__RTC_CheckEsp
	mov	DWORD PTR _uerror_code$[ebp], eax

; 31   : 	if (GL_NO_ERROR != uerror_code)

	cmp	DWORD PTR _uerror_code$[ebp], 0
	je	SHORT $LN1@get_last_e

; 32   : 	{
; 33   : 		uerror_code = -(uerror_code - 0x500) - 1;

	mov	eax, DWORD PTR _uerror_code$[ebp]
	sub	eax, 1280				; 00000500H
	neg	eax
	sub	eax, 1
	mov	DWORD PTR _uerror_code$[ebp], eax
$LN1@get_last_e:

; 34   : 	}
; 35   : 	return uerror_code;

	mov	eax, DWORD PTR _uerror_code$[ebp]

; 36   : }

	pop	edi
	pop	esi
	pop	ebx
	add	esp, 204				; 000000ccH
	cmp	ebp, esp
	call	__RTC_CheckEsp
	mov	esp, ebp
	pop	ebp
	ret	0
?get_last_error_code@pecker_opengles_v2_object@pecker_sdk@@SAJXZ ENDP ; pecker_sdk::pecker_opengles_v2_object::get_last_error_code
_TEXT	ENDS
PUBLIC	?get_render_system_info@pecker_opengles_v3_object@pecker_sdk@@UBEABUpecker_render_system_info@2@AAU32@@Z ; pecker_sdk::pecker_opengles_v3_object::get_render_system_info
; Function compile flags: /Odtp /RTCsu /ZI
;	COMDAT ?get_render_system_info@pecker_opengles_v3_object@pecker_sdk@@UBEABUpecker_render_system_info@2@AAU32@@Z
_TEXT	SEGMENT
_this$ = -8						; size = 4
_system_info$ = 8					; size = 4
?get_render_system_info@pecker_opengles_v3_object@pecker_sdk@@UBEABUpecker_render_system_info@2@AAU32@@Z PROC ; pecker_sdk::pecker_opengles_v3_object::get_render_system_info, COMDAT
; _this$ = ecx

; 39   : {

	push	ebp
	mov	ebp, esp
	sub	esp, 204				; 000000ccH
	push	ebx
	push	esi
	push	edi
	push	ecx
	lea	edi, DWORD PTR [ebp-204]
	mov	ecx, 51					; 00000033H
	mov	eax, -858993460				; ccccccccH
	rep stosd
	pop	ecx
	mov	DWORD PTR _this$[ebp], ecx

; 40   : 	system_info._M_system_type = OPENGLES_RENDER_SYSTEM;

	mov	eax, DWORD PTR _system_info$[ebp]
	mov	DWORD PTR [eax], 3

; 41   : 	system_info._M_version_part1 = 3;

	mov	eax, DWORD PTR _system_info$[ebp]
	mov	DWORD PTR [eax+4], 3

; 42   : 	system_info._M_version_part2 = 0;

	mov	eax, DWORD PTR _system_info$[ebp]
	mov	DWORD PTR [eax+8], 0

; 43   : 	return system_info;

	mov	eax, DWORD PTR _system_info$[ebp]

; 44   : }

	pop	edi
	pop	esi
	pop	ebx
	mov	esp, ebp
	pop	ebp
	ret	4
?get_render_system_info@pecker_opengles_v3_object@pecker_sdk@@UBEABUpecker_render_system_info@2@AAU32@@Z ENDP ; pecker_sdk::pecker_opengles_v3_object::get_render_system_info
_TEXT	ENDS
PUBLIC	?get_object_location@pecker_opengles_v3_object@pecker_sdk@@UBEIXZ ; pecker_sdk::pecker_opengles_v3_object::get_object_location
; Function compile flags: /Odtp /RTCsu /ZI
;	COMDAT ?get_object_location@pecker_opengles_v3_object@pecker_sdk@@UBEIXZ
_TEXT	SEGMENT
_this$ = -8						; size = 4
?get_object_location@pecker_opengles_v3_object@pecker_sdk@@UBEIXZ PROC ; pecker_sdk::pecker_opengles_v3_object::get_object_location, COMDAT
; _this$ = ecx

; 47   : {

	push	ebp
	mov	ebp, esp
	sub	esp, 204				; 000000ccH
	push	ebx
	push	esi
	push	edi
	push	ecx
	lea	edi, DWORD PTR [ebp-204]
	mov	ecx, 51					; 00000033H
	mov	eax, -858993460				; ccccccccH
	rep stosd
	pop	ecx
	mov	DWORD PTR _this$[ebp], ecx

; 48   : 	return 0;

	xor	eax, eax

; 49   : }

	pop	edi
	pop	esi
	pop	ebx
	mov	esp, ebp
	pop	ebp
	ret	0
?get_object_location@pecker_opengles_v3_object@pecker_sdk@@UBEIXZ ENDP ; pecker_sdk::pecker_opengles_v3_object::get_object_location
_TEXT	ENDS
PUBLIC	?get_last_error_code@pecker_opengles_v3_object@pecker_sdk@@SAJXZ ; pecker_sdk::pecker_opengles_v3_object::get_last_error_code
; Function compile flags: /Odtp /RTCsu /ZI
;	COMDAT ?get_last_error_code@pecker_opengles_v3_object@pecker_sdk@@SAJXZ
_TEXT	SEGMENT
_uerror_code$ = -8					; size = 4
?get_last_error_code@pecker_opengles_v3_object@pecker_sdk@@SAJXZ PROC ; pecker_sdk::pecker_opengles_v3_object::get_last_error_code, COMDAT

; 52   : {

	push	ebp
	mov	ebp, esp
	sub	esp, 204				; 000000ccH
	push	ebx
	push	esi
	push	edi
	lea	edi, DWORD PTR [ebp-204]
	mov	ecx, 51					; 00000033H
	mov	eax, -858993460				; ccccccccH
	rep stosd

; 53   : 	UInt uerror_code = ::glGetError();

	mov	esi, esp
	call	DWORD PTR __imp__glGetError@0
	cmp	esi, esp
	call	__RTC_CheckEsp
	mov	DWORD PTR _uerror_code$[ebp], eax

; 54   : 	if (GL_NO_ERROR != uerror_code)

	cmp	DWORD PTR _uerror_code$[ebp], 0
	je	SHORT $LN1@get_last_e@2

; 55   : 	{
; 56   : 		uerror_code = -(uerror_code - 0x500) - 1;

	mov	eax, DWORD PTR _uerror_code$[ebp]
	sub	eax, 1280				; 00000500H
	neg	eax
	sub	eax, 1
	mov	DWORD PTR _uerror_code$[ebp], eax
$LN1@get_last_e@2:

; 57   : 	}
; 58   : 	return uerror_code;

	mov	eax, DWORD PTR _uerror_code$[ebp]

; 59   : }

	pop	edi
	pop	esi
	pop	ebx
	add	esp, 204				; 000000ccH
	cmp	ebp, esp
	call	__RTC_CheckEsp
	mov	esp, ebp
	pop	ebp
	ret	0
?get_last_error_code@pecker_opengles_v3_object@pecker_sdk@@SAJXZ ENDP ; pecker_sdk::pecker_opengles_v3_object::get_last_error_code
_TEXT	ENDS
END
