; Listing generated by Microsoft (R) Optimizing Compiler Version 16.00.40219.01 

	TITLE	F:\codes\pecker_framework_git\pecker_src\pecker_framework\window_test.cpp
	.686P
	.XMM
	include listing.inc
	.model	flat

INCLUDELIB MSVCRTD
INCLUDELIB OLDNAMES

PUBLIC	??1?$pecker_window_form@PAUHDC__@@@pecker_sdk@@UAE@XZ ; pecker_sdk::pecker_window_form<HDC__ *>::~pecker_window_form<HDC__ *>
PUBLIC	??1?$pecker_share_string_base_t@DU?$pecker_value_compare@D@pecker_sdk@@V?$pecker_simple_allocator@D@2@$0BA@@pecker_sdk@@QAE@XZ ; pecker_sdk::pecker_share_string_base_t<char,pecker_sdk::pecker_value_compare<char>,pecker_sdk::pecker_simple_allocator<char>,16>::~pecker_share_string_base_t<char,pecker_sdk::pecker_value_compare<char>,pecker_sdk::pecker_simple_allocator<char>,16>
PUBLIC	??0?$pecker_share_string_base_t@DU?$pecker_value_compare@D@pecker_sdk@@V?$pecker_simple_allocator@D@2@$0BA@@pecker_sdk@@QAE@XZ ; pecker_sdk::pecker_share_string_base_t<char,pecker_sdk::pecker_value_compare<char>,pecker_sdk::pecker_simple_allocator<char>,16>::pecker_share_string_base_t<char,pecker_sdk::pecker_value_compare<char>,pecker_sdk::pecker_simple_allocator<char>,16>
PUBLIC	??0?$pecker_window_form@PAUHDC__@@@pecker_sdk@@QAE@XZ ; pecker_sdk::pecker_window_form<HDC__ *>::pecker_window_form<HDC__ *>
PUBLIC	__$ArrayPad$
PUBLIC	?show_simple_window@@YAXXZ			; show_simple_window
EXTRN	?execute_program@pecker_program_apps@pecker_sdk@@SAJPAVpecker_window_context@2@ABV?$pecker_share_string_base_t@DU?$pecker_value_compare@D@pecker_sdk@@V?$pecker_simple_allocator@D@2@$0BA@@2@@Z:PROC ; pecker_sdk::pecker_program_apps::execute_program
EXTRN	?init_apps@pecker_program_apps@pecker_sdk@@SAJXZ:PROC ; pecker_sdk::pecker_program_apps::init_apps
EXTRN	___security_cookie:DWORD
EXTRN	___CxxFrameHandler3:PROC
EXTRN	__RTC_CheckEsp:PROC
EXTRN	@__security_check_cookie@4:PROC
EXTRN	@_RTC_CheckStackVars@8:PROC
EXTRN	__RTC_Shutdown:PROC
EXTRN	__RTC_InitBase:PROC
;	COMDAT xdata$x
; File f:\codes\pecker_framework_git\pecker_src\pecker_framework\window_test.cpp
xdata$x	SEGMENT
__unwindtable$?show_simple_window@@YAXXZ DD 0ffffffffH
	DD	FLAT:__unwindfunclet$?show_simple_window@@YAXXZ$0
	DD	00H
	DD	FLAT:__unwindfunclet$?show_simple_window@@YAXXZ$1
__ehfuncinfo$?show_simple_window@@YAXXZ DD 019930522H
	DD	02H
	DD	FLAT:__unwindtable$?show_simple_window@@YAXXZ
	DD	2 DUP(00H)
	DD	2 DUP(00H)
	DD	00H
	DD	01H
xdata$x	ENDS
;	COMDAT rtc$TMZ
rtc$TMZ	SEGMENT
__RTC_Shutdown.rtc$TMZ DD FLAT:__RTC_Shutdown
rtc$TMZ	ENDS
;	COMDAT rtc$IMZ
rtc$IMZ	SEGMENT
__RTC_InitBase.rtc$IMZ DD FLAT:__RTC_InitBase
; Function compile flags: /Odtp /RTCsu /ZI
rtc$IMZ	ENDS
;	COMDAT ?show_simple_window@@YAXXZ
_TEXT	SEGMENT
_strparams$ = -260					; size = 36
_simple_form$ = -216					; size = 196
__$ArrayPad$ = -16					; size = 4
__$EHRec$ = -12						; size = 12
?show_simple_window@@YAXXZ PROC				; show_simple_window, COMDAT

; 5    : {

	push	ebp
	mov	ebp, esp
	push	-1
	push	__ehhandler$?show_simple_window@@YAXXZ
	mov	eax, DWORD PTR fs:0
	push	eax
	sub	esp, 444				; 000001bcH
	push	ebx
	push	esi
	push	edi
	lea	edi, DWORD PTR [ebp-456]
	mov	ecx, 111				; 0000006fH
	mov	eax, -858993460				; ccccccccH
	rep stosd
	mov	eax, DWORD PTR ___security_cookie
	xor	eax, ebp
	mov	DWORD PTR __$ArrayPad$[ebp], eax
	push	eax
	lea	eax, DWORD PTR __$EHRec$[ebp]
	mov	DWORD PTR fs:0, eax

; 6    : 	pecker_window_form<HDC> simple_form;

	lea	ecx, DWORD PTR _simple_form$[ebp]
	call	??0?$pecker_window_form@PAUHDC__@@@pecker_sdk@@QAE@XZ
	mov	DWORD PTR __$EHRec$[ebp+8], 0

; 7    : 	pecker_string strparams;

	lea	ecx, DWORD PTR _strparams$[ebp]
	call	??0?$pecker_share_string_base_t@DU?$pecker_value_compare@D@pecker_sdk@@V?$pecker_simple_allocator@D@2@$0BA@@pecker_sdk@@QAE@XZ ; pecker_sdk::pecker_share_string_base_t<char,pecker_sdk::pecker_value_compare<char>,pecker_sdk::pecker_simple_allocator<char>,16>::pecker_share_string_base_t<char,pecker_sdk::pecker_value_compare<char>,pecker_sdk::pecker_simple_allocator<char>,16>
	mov	BYTE PTR __$EHRec$[ebp+8], 1

; 8    : 	pecker_program_apps::init_apps();

	call	?init_apps@pecker_program_apps@pecker_sdk@@SAJXZ ; pecker_sdk::pecker_program_apps::init_apps

; 9    : 	pecker_program_apps::execute_program(&simple_form,strparams);

	lea	eax, DWORD PTR _strparams$[ebp]
	push	eax
	lea	ecx, DWORD PTR _simple_form$[ebp]
	push	ecx
	call	?execute_program@pecker_program_apps@pecker_sdk@@SAJPAVpecker_window_context@2@ABV?$pecker_share_string_base_t@DU?$pecker_value_compare@D@pecker_sdk@@V?$pecker_simple_allocator@D@2@$0BA@@2@@Z ; pecker_sdk::pecker_program_apps::execute_program
	add	esp, 8

; 10   : }

	mov	BYTE PTR __$EHRec$[ebp+8], 0
	lea	ecx, DWORD PTR _strparams$[ebp]
	call	??1?$pecker_share_string_base_t@DU?$pecker_value_compare@D@pecker_sdk@@V?$pecker_simple_allocator@D@2@$0BA@@pecker_sdk@@QAE@XZ ; pecker_sdk::pecker_share_string_base_t<char,pecker_sdk::pecker_value_compare<char>,pecker_sdk::pecker_simple_allocator<char>,16>::~pecker_share_string_base_t<char,pecker_sdk::pecker_value_compare<char>,pecker_sdk::pecker_simple_allocator<char>,16>
	mov	DWORD PTR __$EHRec$[ebp+8], -1
	lea	ecx, DWORD PTR _simple_form$[ebp]
	call	??1?$pecker_window_form@PAUHDC__@@@pecker_sdk@@UAE@XZ
	push	edx
	mov	ecx, ebp
	push	eax
	lea	edx, DWORD PTR $LN9@show_simpl
	call	@_RTC_CheckStackVars@8
	pop	eax
	pop	edx
	mov	ecx, DWORD PTR __$EHRec$[ebp]
	mov	DWORD PTR fs:0, ecx
	pop	ecx
	pop	edi
	pop	esi
	pop	ebx
	mov	ecx, DWORD PTR __$ArrayPad$[ebp]
	xor	ecx, ebp
	call	@__security_check_cookie@4
	add	esp, 456				; 000001c8H
	cmp	ebp, esp
	call	__RTC_CheckEsp
	mov	esp, ebp
	pop	ebp
	ret	0
	npad	1
$LN9@show_simpl:
	DD	2
	DD	$LN8@show_simpl
$LN8@show_simpl:
	DD	-216					; ffffff28H
	DD	196					; 000000c4H
	DD	$LN5@show_simpl
	DD	-260					; fffffefcH
	DD	36					; 00000024H
	DD	$LN6@show_simpl
$LN6@show_simpl:
	DB	115					; 00000073H
	DB	116					; 00000074H
	DB	114					; 00000072H
	DB	112					; 00000070H
	DB	97					; 00000061H
	DB	114					; 00000072H
	DB	97					; 00000061H
	DB	109					; 0000006dH
	DB	115					; 00000073H
	DB	0
$LN5@show_simpl:
	DB	115					; 00000073H
	DB	105					; 00000069H
	DB	109					; 0000006dH
	DB	112					; 00000070H
	DB	108					; 0000006cH
	DB	101					; 00000065H
	DB	95					; 0000005fH
	DB	102					; 00000066H
	DB	111					; 0000006fH
	DB	114					; 00000072H
	DB	109					; 0000006dH
	DB	0
_TEXT	ENDS
;	COMDAT text$x
text$x	SEGMENT
__unwindfunclet$?show_simple_window@@YAXXZ$0:
	lea	ecx, DWORD PTR _simple_form$[ebp]
	jmp	??1?$pecker_window_form@PAUHDC__@@@pecker_sdk@@UAE@XZ
__unwindfunclet$?show_simple_window@@YAXXZ$1:
	lea	ecx, DWORD PTR _strparams$[ebp]
	jmp	??1?$pecker_share_string_base_t@DU?$pecker_value_compare@D@pecker_sdk@@V?$pecker_simple_allocator@D@2@$0BA@@pecker_sdk@@QAE@XZ ; pecker_sdk::pecker_share_string_base_t<char,pecker_sdk::pecker_value_compare<char>,pecker_sdk::pecker_simple_allocator<char>,16>::~pecker_share_string_base_t<char,pecker_sdk::pecker_value_compare<char>,pecker_sdk::pecker_simple_allocator<char>,16>
__ehhandler$?show_simple_window@@YAXXZ:
	mov	edx, DWORD PTR [esp+8]
	lea	eax, DWORD PTR [edx+12]
	mov	ecx, DWORD PTR [edx-460]
	xor	ecx, eax
	call	@__security_check_cookie@4
	mov	ecx, DWORD PTR [edx-4]
	xor	ecx, eax
	call	@__security_check_cookie@4
	mov	eax, OFFSET __ehfuncinfo$?show_simple_window@@YAXXZ
	jmp	___CxxFrameHandler3
text$x	ENDS
?show_simple_window@@YAXXZ ENDP				; show_simple_window
PUBLIC	??_7?$pecker_window_form@PAUHDC__@@@pecker_sdk@@6B@ ; pecker_sdk::pecker_window_form<HDC__ *>::`vftable'
PUBLIC	??_R4?$pecker_window_form@PAUHDC__@@@pecker_sdk@@6B@ ; pecker_sdk::pecker_window_form<HDC__ *>::`RTTI Complete Object Locator'
PUBLIC	??_R0?AV?$pecker_window_form@PAUHDC__@@@pecker_sdk@@@8 ; pecker_sdk::pecker_window_form<HDC__ *> `RTTI Type Descriptor'
PUBLIC	??_R3?$pecker_window_form@PAUHDC__@@@pecker_sdk@@8 ; pecker_sdk::pecker_window_form<HDC__ *>::`RTTI Class Hierarchy Descriptor'
PUBLIC	??_R2?$pecker_window_form@PAUHDC__@@@pecker_sdk@@8 ; pecker_sdk::pecker_window_form<HDC__ *>::`RTTI Base Class Array'
PUBLIC	??_R1A@?0A@EA@?$pecker_window_form@PAUHDC__@@@pecker_sdk@@8 ; pecker_sdk::pecker_window_form<HDC__ *>::`RTTI Base Class Descriptor at (0,-1,0,64)'
PUBLIC	??_R1A@?0A@EA@pecker_window_context@pecker_sdk@@8 ; pecker_sdk::pecker_window_context::`RTTI Base Class Descriptor at (0,-1,0,64)'
PUBLIC	??_R0?AVpecker_window_context@pecker_sdk@@@8	; pecker_sdk::pecker_window_context `RTTI Type Descriptor'
PUBLIC	??_R3pecker_window_context@pecker_sdk@@8	; pecker_sdk::pecker_window_context::`RTTI Class Hierarchy Descriptor'
PUBLIC	??_R2pecker_window_context@pecker_sdk@@8	; pecker_sdk::pecker_window_context::`RTTI Base Class Array'
PUBLIC	??_R1A@?0A@EN@pecker_window_display@pecker_sdk@@8 ; pecker_sdk::pecker_window_display::`RTTI Base Class Descriptor at (0,-1,0,77)'
PUBLIC	??_R0?AUpecker_window_display@pecker_sdk@@@8	; pecker_sdk::pecker_window_display `RTTI Type Descriptor'
PUBLIC	??_R3pecker_window_display@pecker_sdk@@8	; pecker_sdk::pecker_window_display::`RTTI Class Hierarchy Descriptor'
PUBLIC	??_R2pecker_window_display@pecker_sdk@@8	; pecker_sdk::pecker_window_display::`RTTI Base Class Array'
PUBLIC	??_R1A@?0A@EA@pecker_window_display@pecker_sdk@@8 ; pecker_sdk::pecker_window_display::`RTTI Base Class Descriptor at (0,-1,0,64)'
PUBLIC	?on_init_view@?$pecker_window_form@PAUHDC__@@@pecker_sdk@@MAEJHHHH@Z ; pecker_sdk::pecker_window_form<HDC__ *>::on_init_view
PUBLIC	?on_resize_view@?$pecker_window_form@PAUHDC__@@@pecker_sdk@@MAEJHHHH@Z ; pecker_sdk::pecker_window_form<HDC__ *>::on_resize_view
PUBLIC	?on_draw_frame@?$pecker_window_form@PAUHDC__@@@pecker_sdk@@MAEJXZ ; pecker_sdk::pecker_window_form<HDC__ *>::on_draw_frame
PUBLIC	?on_next_frame@?$pecker_window_form@PAUHDC__@@@pecker_sdk@@MAEJH@Z ; pecker_sdk::pecker_window_form<HDC__ *>::on_next_frame
PUBLIC	?on_parse_frame@?$pecker_window_form@PAUHDC__@@@pecker_sdk@@MAEJXZ ; pecker_sdk::pecker_window_form<HDC__ *>::on_parse_frame
PUBLIC	?on_close_frame@?$pecker_window_form@PAUHDC__@@@pecker_sdk@@MAEJXZ ; pecker_sdk::pecker_window_form<HDC__ *>::on_close_frame
PUBLIC	?on_resume_frame@?$pecker_window_form@PAUHDC__@@@pecker_sdk@@MAEJXZ ; pecker_sdk::pecker_window_form<HDC__ *>::on_resume_frame
EXTRN	??0pecker_window_context@pecker_sdk@@QAE@XZ:PROC ; pecker_sdk::pecker_window_context::pecker_window_context
EXTRN	??_7type_info@@6B@:QWORD			; type_info::`vftable'
EXTRN	??_E?$pecker_window_form@PAUHDC__@@@pecker_sdk@@UAEPAXI@Z:PROC ; pecker_sdk::pecker_window_form<HDC__ *>::`vector deleting destructor'
EXTRN	?on_event@pecker_window_context@pecker_sdk@@MAEJIJJ@Z:PROC ; pecker_sdk::pecker_window_context::on_event
EXTRN	?on_create@pecker_window_context@pecker_sdk@@MAEJXZ:PROC ; pecker_sdk::pecker_window_context::on_create
EXTRN	?on_close@pecker_window_context@pecker_sdk@@MAEJXZ:PROC ; pecker_sdk::pecker_window_context::on_close
EXTRN	?on_render@pecker_window_context@pecker_sdk@@MAEJXZ:PROC ; pecker_sdk::pecker_window_context::on_render
EXTRN	?on_parse@pecker_window_context@pecker_sdk@@MAEJXZ:PROC ; pecker_sdk::pecker_window_context::on_parse
EXTRN	?on_resume@pecker_window_context@pecker_sdk@@MAEJXZ:PROC ; pecker_sdk::pecker_window_context::on_resume
EXTRN	?is_visiable@pecker_window_context@pecker_sdk@@UBEHXZ:PROC ; pecker_sdk::pecker_window_context::is_visiable
EXTRN	?set_visiable@pecker_window_context@pecker_sdk@@UAEJH@Z:PROC ; pecker_sdk::pecker_window_context::set_visiable
EXTRN	?init_window@pecker_window_context@pecker_sdk@@UAEJABUpecker_window_info@2@@Z:PROC ; pecker_sdk::pecker_window_context::init_window
EXTRN	?is_full_screen@pecker_window_context@pecker_sdk@@UBEHXZ:PROC ; pecker_sdk::pecker_window_context::is_full_screen
EXTRN	?set_full_screen@pecker_window_context@pecker_sdk@@UAEJH@Z:PROC ; pecker_sdk::pecker_window_context::set_full_screen
EXTRN	?show@pecker_window_context@pecker_sdk@@UAEJH@Z:PROC ; pecker_sdk::pecker_window_context::show
EXTRN	?close@pecker_window_context@pecker_sdk@@UAEJXZ:PROC ; pecker_sdk::pecker_window_context::close
;	COMDAT ??_R1A@?0A@EA@pecker_window_display@pecker_sdk@@8
rdata$r	SEGMENT
??_R1A@?0A@EA@pecker_window_display@pecker_sdk@@8 DD FLAT:??_R0?AUpecker_window_display@pecker_sdk@@@8 ; pecker_sdk::pecker_window_display::`RTTI Base Class Descriptor at (0,-1,0,64)'
	DD	00H
	DD	00H
	DD	0ffffffffH
	DD	00H
	DD	040H
	DD	FLAT:??_R3pecker_window_display@pecker_sdk@@8
rdata$r	ENDS
;	COMDAT ??_R2pecker_window_display@pecker_sdk@@8
rdata$r	SEGMENT
??_R2pecker_window_display@pecker_sdk@@8 DD FLAT:??_R1A@?0A@EA@pecker_window_display@pecker_sdk@@8 ; pecker_sdk::pecker_window_display::`RTTI Base Class Array'
rdata$r	ENDS
;	COMDAT ??_R3pecker_window_display@pecker_sdk@@8
rdata$r	SEGMENT
??_R3pecker_window_display@pecker_sdk@@8 DD 00H		; pecker_sdk::pecker_window_display::`RTTI Class Hierarchy Descriptor'
	DD	00H
	DD	01H
	DD	FLAT:??_R2pecker_window_display@pecker_sdk@@8
rdata$r	ENDS
;	COMDAT ??_R0?AUpecker_window_display@pecker_sdk@@@8
_DATA	SEGMENT
??_R0?AUpecker_window_display@pecker_sdk@@@8 DD FLAT:??_7type_info@@6B@ ; pecker_sdk::pecker_window_display `RTTI Type Descriptor'
	DD	00H
	DB	'.?AUpecker_window_display@pecker_sdk@@', 00H
_DATA	ENDS
;	COMDAT ??_R1A@?0A@EN@pecker_window_display@pecker_sdk@@8
rdata$r	SEGMENT
??_R1A@?0A@EN@pecker_window_display@pecker_sdk@@8 DD FLAT:??_R0?AUpecker_window_display@pecker_sdk@@@8 ; pecker_sdk::pecker_window_display::`RTTI Base Class Descriptor at (0,-1,0,77)'
	DD	00H
	DD	00H
	DD	0ffffffffH
	DD	00H
	DD	04dH
	DD	FLAT:??_R3pecker_window_display@pecker_sdk@@8
rdata$r	ENDS
;	COMDAT ??_R2pecker_window_context@pecker_sdk@@8
rdata$r	SEGMENT
??_R2pecker_window_context@pecker_sdk@@8 DD FLAT:??_R1A@?0A@EA@pecker_window_context@pecker_sdk@@8 ; pecker_sdk::pecker_window_context::`RTTI Base Class Array'
	DD	FLAT:??_R1A@?0A@EN@pecker_window_display@pecker_sdk@@8
rdata$r	ENDS
;	COMDAT ??_R3pecker_window_context@pecker_sdk@@8
rdata$r	SEGMENT
??_R3pecker_window_context@pecker_sdk@@8 DD 00H		; pecker_sdk::pecker_window_context::`RTTI Class Hierarchy Descriptor'
	DD	00H
	DD	02H
	DD	FLAT:??_R2pecker_window_context@pecker_sdk@@8
rdata$r	ENDS
;	COMDAT ??_R0?AVpecker_window_context@pecker_sdk@@@8
_DATA	SEGMENT
??_R0?AVpecker_window_context@pecker_sdk@@@8 DD FLAT:??_7type_info@@6B@ ; pecker_sdk::pecker_window_context `RTTI Type Descriptor'
	DD	00H
	DB	'.?AVpecker_window_context@pecker_sdk@@', 00H
_DATA	ENDS
;	COMDAT ??_R1A@?0A@EA@pecker_window_context@pecker_sdk@@8
rdata$r	SEGMENT
??_R1A@?0A@EA@pecker_window_context@pecker_sdk@@8 DD FLAT:??_R0?AVpecker_window_context@pecker_sdk@@@8 ; pecker_sdk::pecker_window_context::`RTTI Base Class Descriptor at (0,-1,0,64)'
	DD	01H
	DD	00H
	DD	0ffffffffH
	DD	00H
	DD	040H
	DD	FLAT:??_R3pecker_window_context@pecker_sdk@@8
rdata$r	ENDS
;	COMDAT ??_R1A@?0A@EA@?$pecker_window_form@PAUHDC__@@@pecker_sdk@@8
rdata$r	SEGMENT
??_R1A@?0A@EA@?$pecker_window_form@PAUHDC__@@@pecker_sdk@@8 DD FLAT:??_R0?AV?$pecker_window_form@PAUHDC__@@@pecker_sdk@@@8 ; pecker_sdk::pecker_window_form<HDC__ *>::`RTTI Base Class Descriptor at (0,-1,0,64)'
	DD	02H
	DD	00H
	DD	0ffffffffH
	DD	00H
	DD	040H
	DD	FLAT:??_R3?$pecker_window_form@PAUHDC__@@@pecker_sdk@@8
rdata$r	ENDS
;	COMDAT ??_R2?$pecker_window_form@PAUHDC__@@@pecker_sdk@@8
rdata$r	SEGMENT
??_R2?$pecker_window_form@PAUHDC__@@@pecker_sdk@@8 DD FLAT:??_R1A@?0A@EA@?$pecker_window_form@PAUHDC__@@@pecker_sdk@@8 ; pecker_sdk::pecker_window_form<HDC__ *>::`RTTI Base Class Array'
	DD	FLAT:??_R1A@?0A@EA@pecker_window_context@pecker_sdk@@8
	DD	FLAT:??_R1A@?0A@EN@pecker_window_display@pecker_sdk@@8
rdata$r	ENDS
;	COMDAT ??_R3?$pecker_window_form@PAUHDC__@@@pecker_sdk@@8
rdata$r	SEGMENT
??_R3?$pecker_window_form@PAUHDC__@@@pecker_sdk@@8 DD 00H ; pecker_sdk::pecker_window_form<HDC__ *>::`RTTI Class Hierarchy Descriptor'
	DD	00H
	DD	03H
	DD	FLAT:??_R2?$pecker_window_form@PAUHDC__@@@pecker_sdk@@8
rdata$r	ENDS
;	COMDAT ??_R0?AV?$pecker_window_form@PAUHDC__@@@pecker_sdk@@@8
_DATA	SEGMENT
??_R0?AV?$pecker_window_form@PAUHDC__@@@pecker_sdk@@@8 DD FLAT:??_7type_info@@6B@ ; pecker_sdk::pecker_window_form<HDC__ *> `RTTI Type Descriptor'
	DD	00H
	DB	'.?AV?$pecker_window_form@PAUHDC__@@@pecker_sdk@@', 00H
_DATA	ENDS
;	COMDAT ??_R4?$pecker_window_form@PAUHDC__@@@pecker_sdk@@6B@
rdata$r	SEGMENT
??_R4?$pecker_window_form@PAUHDC__@@@pecker_sdk@@6B@ DD 00H ; pecker_sdk::pecker_window_form<HDC__ *>::`RTTI Complete Object Locator'
	DD	00H
	DD	00H
	DD	FLAT:??_R0?AV?$pecker_window_form@PAUHDC__@@@pecker_sdk@@@8
	DD	FLAT:??_R3?$pecker_window_form@PAUHDC__@@@pecker_sdk@@8
rdata$r	ENDS
;	COMDAT ??_7?$pecker_window_form@PAUHDC__@@@pecker_sdk@@6B@
CONST	SEGMENT
??_7?$pecker_window_form@PAUHDC__@@@pecker_sdk@@6B@ DD FLAT:??_R4?$pecker_window_form@PAUHDC__@@@pecker_sdk@@6B@ ; pecker_sdk::pecker_window_form<HDC__ *>::`vftable'
	DD	FLAT:??_E?$pecker_window_form@PAUHDC__@@@pecker_sdk@@UAEPAXI@Z
	DD	FLAT:?on_init_view@?$pecker_window_form@PAUHDC__@@@pecker_sdk@@MAEJHHHH@Z
	DD	FLAT:?on_resize_view@?$pecker_window_form@PAUHDC__@@@pecker_sdk@@MAEJHHHH@Z
	DD	FLAT:?on_draw_frame@?$pecker_window_form@PAUHDC__@@@pecker_sdk@@MAEJXZ
	DD	FLAT:?on_next_frame@?$pecker_window_form@PAUHDC__@@@pecker_sdk@@MAEJH@Z
	DD	FLAT:?on_parse_frame@?$pecker_window_form@PAUHDC__@@@pecker_sdk@@MAEJXZ
	DD	FLAT:?on_close_frame@?$pecker_window_form@PAUHDC__@@@pecker_sdk@@MAEJXZ
	DD	FLAT:?on_resume_frame@?$pecker_window_form@PAUHDC__@@@pecker_sdk@@MAEJXZ
	DD	FLAT:?on_event@pecker_window_context@pecker_sdk@@MAEJIJJ@Z
	DD	FLAT:?on_create@pecker_window_context@pecker_sdk@@MAEJXZ
	DD	FLAT:?on_close@pecker_window_context@pecker_sdk@@MAEJXZ
	DD	FLAT:?on_render@pecker_window_context@pecker_sdk@@MAEJXZ
	DD	FLAT:?on_parse@pecker_window_context@pecker_sdk@@MAEJXZ
	DD	FLAT:?on_resume@pecker_window_context@pecker_sdk@@MAEJXZ
	DD	FLAT:?is_visiable@pecker_window_context@pecker_sdk@@UBEHXZ
	DD	FLAT:?set_visiable@pecker_window_context@pecker_sdk@@UAEJH@Z
	DD	FLAT:?init_window@pecker_window_context@pecker_sdk@@UAEJABUpecker_window_info@2@@Z
	DD	FLAT:?is_full_screen@pecker_window_context@pecker_sdk@@UBEHXZ
	DD	FLAT:?set_full_screen@pecker_window_context@pecker_sdk@@UAEJH@Z
	DD	FLAT:?show@pecker_window_context@pecker_sdk@@UAEJH@Z
	DD	FLAT:?close@pecker_window_context@pecker_sdk@@UAEJXZ
; Function compile flags: /Odtp /RTCsu /ZI
CONST	ENDS
;	COMDAT ??0?$pecker_window_form@PAUHDC__@@@pecker_sdk@@QAE@XZ
_TEXT	SEGMENT
_this$ = -8						; size = 4
??0?$pecker_window_form@PAUHDC__@@@pecker_sdk@@QAE@XZ PROC ; pecker_sdk::pecker_window_form<HDC__ *>::pecker_window_form<HDC__ *>, COMDAT
; _this$ = ecx
	push	ebp
	mov	ebp, esp
	sub	esp, 204				; 000000ccH
	push	ebx
	push	esi
	push	edi
	push	ecx
	lea	edi, DWORD PTR [ebp-204]
	mov	ecx, 51					; 00000033H
	mov	eax, -858993460				; ccccccccH
	rep stosd
	pop	ecx
	mov	DWORD PTR _this$[ebp], ecx
	mov	ecx, DWORD PTR _this$[ebp]
	call	??0pecker_window_context@pecker_sdk@@QAE@XZ ; pecker_sdk::pecker_window_context::pecker_window_context
	mov	eax, DWORD PTR _this$[ebp]
	mov	DWORD PTR [eax], OFFSET ??_7?$pecker_window_form@PAUHDC__@@@pecker_sdk@@6B@
	mov	eax, DWORD PTR _this$[ebp]
	pop	edi
	pop	esi
	pop	ebx
	add	esp, 204				; 000000ccH
	cmp	ebp, esp
	call	__RTC_CheckEsp
	mov	esp, ebp
	pop	ebp
	ret	0
??0?$pecker_window_form@PAUHDC__@@@pecker_sdk@@QAE@XZ ENDP ; pecker_sdk::pecker_window_form<HDC__ *>::pecker_window_form<HDC__ *>
_TEXT	ENDS
EXTRN	??1pecker_window_context@pecker_sdk@@UAE@XZ:PROC ; pecker_sdk::pecker_window_context::~pecker_window_context
; Function compile flags: /Odtp /RTCsu /ZI
;	COMDAT ??1?$pecker_window_form@PAUHDC__@@@pecker_sdk@@UAE@XZ
_TEXT	SEGMENT
_this$ = -8						; size = 4
??1?$pecker_window_form@PAUHDC__@@@pecker_sdk@@UAE@XZ PROC ; pecker_sdk::pecker_window_form<HDC__ *>::~pecker_window_form<HDC__ *>, COMDAT
; _this$ = ecx
	push	ebp
	mov	ebp, esp
	sub	esp, 204				; 000000ccH
	push	ebx
	push	esi
	push	edi
	push	ecx
	lea	edi, DWORD PTR [ebp-204]
	mov	ecx, 51					; 00000033H
	mov	eax, -858993460				; ccccccccH
	rep stosd
	pop	ecx
	mov	DWORD PTR _this$[ebp], ecx
	mov	ecx, DWORD PTR _this$[ebp]
	call	??1pecker_window_context@pecker_sdk@@UAE@XZ ; pecker_sdk::pecker_window_context::~pecker_window_context
	pop	edi
	pop	esi
	pop	ebx
	add	esp, 204				; 000000ccH
	cmp	ebp, esp
	call	__RTC_CheckEsp
	mov	esp, ebp
	pop	ebp
	ret	0
??1?$pecker_window_form@PAUHDC__@@@pecker_sdk@@UAE@XZ ENDP ; pecker_sdk::pecker_window_form<HDC__ *>::~pecker_window_form<HDC__ *>
_TEXT	ENDS
EXTRN	??3@YAXPAX@Z:PROC				; operator delete
; Function compile flags: /Odtp /RTCsu /ZI
;	COMDAT ??_G?$pecker_window_form@PAUHDC__@@@pecker_sdk@@UAEPAXI@Z
_TEXT	SEGMENT
_this$ = -8						; size = 4
___flags$ = 8						; size = 4
??_G?$pecker_window_form@PAUHDC__@@@pecker_sdk@@UAEPAXI@Z PROC ; pecker_sdk::pecker_window_form<HDC__ *>::`scalar deleting destructor', COMDAT
; _this$ = ecx
	push	ebp
	mov	ebp, esp
	sub	esp, 204				; 000000ccH
	push	ebx
	push	esi
	push	edi
	push	ecx
	lea	edi, DWORD PTR [ebp-204]
	mov	ecx, 51					; 00000033H
	mov	eax, -858993460				; ccccccccH
	rep stosd
	pop	ecx
	mov	DWORD PTR _this$[ebp], ecx
	mov	ecx, DWORD PTR _this$[ebp]
	call	??1?$pecker_window_form@PAUHDC__@@@pecker_sdk@@UAE@XZ
	mov	eax, DWORD PTR ___flags$[ebp]
	and	eax, 1
	je	SHORT $LN1@scalar
	mov	eax, DWORD PTR _this$[ebp]
	push	eax
	call	??3@YAXPAX@Z				; operator delete
	add	esp, 4
$LN1@scalar:
	mov	eax, DWORD PTR _this$[ebp]
	pop	edi
	pop	esi
	pop	ebx
	add	esp, 204				; 000000ccH
	cmp	ebp, esp
	call	__RTC_CheckEsp
	mov	esp, ebp
	pop	ebp
	ret	4
??_G?$pecker_window_form@PAUHDC__@@@pecker_sdk@@UAEPAXI@Z ENDP ; pecker_sdk::pecker_window_form<HDC__ *>::`scalar deleting destructor'
; Function compile flags: /Odtp /RTCsu /ZI
; File f:\codes\pecker_framework_git\pecker_src\pecker_framework\data\pecker_string.h
_TEXT	ENDS
;	COMDAT ??0?$pecker_share_string_base_t@DU?$pecker_value_compare@D@pecker_sdk@@V?$pecker_simple_allocator@D@2@$0BA@@pecker_sdk@@QAE@XZ
_TEXT	SEGMENT
_this$ = -8						; size = 4
??0?$pecker_share_string_base_t@DU?$pecker_value_compare@D@pecker_sdk@@V?$pecker_simple_allocator@D@2@$0BA@@pecker_sdk@@QAE@XZ PROC ; pecker_sdk::pecker_share_string_base_t<char,pecker_sdk::pecker_value_compare<char>,pecker_sdk::pecker_simple_allocator<char>,16>::pecker_share_string_base_t<char,pecker_sdk::pecker_value_compare<char>,pecker_sdk::pecker_simple_allocator<char>,16>, COMDAT
; _this$ = ecx

; 176  : 	{

	push	ebp
	mov	ebp, esp
	sub	esp, 204				; 000000ccH
	push	ebx
	push	esi
	push	edi
	push	ecx
	lea	edi, DWORD PTR [ebp-204]
	mov	ecx, 51					; 00000033H
	mov	eax, -858993460				; ccccccccH
	rep stosd
	pop	ecx
	mov	DWORD PTR _this$[ebp], ecx
	mov	eax, DWORD PTR _this$[ebp]
	mov	ecx, DWORD PTR _this$[ebp]
	mov	DWORD PTR [eax+16], ecx
	mov	eax, DWORD PTR _this$[ebp]
	mov	DWORD PTR [eax+20], 16			; 00000010H
	mov	eax, DWORD PTR _this$[ebp]
	mov	DWORD PTR [eax+24], 0
	mov	eax, DWORD PTR _this$[ebp]
	mov	DWORD PTR [eax+28], 0
	mov	eax, DWORD PTR _this$[ebp]
	mov	DWORD PTR [eax+32], 0

; 177  : 		_M_pstring_data_header._Large_buffer = null;

	mov	eax, DWORD PTR _this$[ebp]
	mov	DWORD PTR [eax], 0

; 178  : 	}

	mov	eax, DWORD PTR _this$[ebp]
	pop	edi
	pop	esi
	pop	ebx
	mov	esp, ebp
	pop	ebp
	ret	0
??0?$pecker_share_string_base_t@DU?$pecker_value_compare@D@pecker_sdk@@V?$pecker_simple_allocator@D@2@$0BA@@pecker_sdk@@QAE@XZ ENDP ; pecker_sdk::pecker_share_string_base_t<char,pecker_sdk::pecker_value_compare<char>,pecker_sdk::pecker_simple_allocator<char>,16>::pecker_share_string_base_t<char,pecker_sdk::pecker_value_compare<char>,pecker_sdk::pecker_simple_allocator<char>,16>
_TEXT	ENDS
PUBLIC	?clear@?$pecker_share_string_base_t@DU?$pecker_value_compare@D@pecker_sdk@@V?$pecker_simple_allocator@D@2@$0BA@@pecker_sdk@@QAEJXZ ; pecker_sdk::pecker_share_string_base_t<char,pecker_sdk::pecker_value_compare<char>,pecker_sdk::pecker_simple_allocator<char>,16>::clear
; Function compile flags: /Odtp /RTCsu /ZI
;	COMDAT ??1?$pecker_share_string_base_t@DU?$pecker_value_compare@D@pecker_sdk@@V?$pecker_simple_allocator@D@2@$0BA@@pecker_sdk@@QAE@XZ
_TEXT	SEGMENT
_this$ = -8						; size = 4
??1?$pecker_share_string_base_t@DU?$pecker_value_compare@D@pecker_sdk@@V?$pecker_simple_allocator@D@2@$0BA@@pecker_sdk@@QAE@XZ PROC ; pecker_sdk::pecker_share_string_base_t<char,pecker_sdk::pecker_value_compare<char>,pecker_sdk::pecker_simple_allocator<char>,16>::~pecker_share_string_base_t<char,pecker_sdk::pecker_value_compare<char>,pecker_sdk::pecker_simple_allocator<char>,16>, COMDAT
; _this$ = ecx

; 195  : 	{

	push	ebp
	mov	ebp, esp
	sub	esp, 204				; 000000ccH
	push	ebx
	push	esi
	push	edi
	push	ecx
	lea	edi, DWORD PTR [ebp-204]
	mov	ecx, 51					; 00000033H
	mov	eax, -858993460				; ccccccccH
	rep stosd
	pop	ecx
	mov	DWORD PTR _this$[ebp], ecx

; 196  : 		clear();

	mov	ecx, DWORD PTR _this$[ebp]
	call	?clear@?$pecker_share_string_base_t@DU?$pecker_value_compare@D@pecker_sdk@@V?$pecker_simple_allocator@D@2@$0BA@@pecker_sdk@@QAEJXZ ; pecker_sdk::pecker_share_string_base_t<char,pecker_sdk::pecker_value_compare<char>,pecker_sdk::pecker_simple_allocator<char>,16>::clear

; 197  : 	}

	pop	edi
	pop	esi
	pop	ebx
	add	esp, 204				; 000000ccH
	cmp	ebp, esp
	call	__RTC_CheckEsp
	mov	esp, ebp
	pop	ebp
	ret	0
??1?$pecker_share_string_base_t@DU?$pecker_value_compare@D@pecker_sdk@@V?$pecker_simple_allocator@D@2@$0BA@@pecker_sdk@@QAE@XZ ENDP ; pecker_sdk::pecker_share_string_base_t<char,pecker_sdk::pecker_value_compare<char>,pecker_sdk::pecker_simple_allocator<char>,16>::~pecker_share_string_base_t<char,pecker_sdk::pecker_value_compare<char>,pecker_sdk::pecker_simple_allocator<char>,16>
; Function compile flags: /Odtp /RTCsu /ZI
; File f:\codes\pecker_framework_git\pecker_src\pecker_framework\native\pecker_window.h
_TEXT	ENDS
;	COMDAT ?on_init_view@?$pecker_window_form@PAUHDC__@@@pecker_sdk@@MAEJHHHH@Z
_TEXT	SEGMENT
_this$ = -8						; size = 4
_x$ = 8							; size = 4
_y$ = 12						; size = 4
_width$ = 16						; size = 4
_height$ = 20						; size = 4
?on_init_view@?$pecker_window_form@PAUHDC__@@@pecker_sdk@@MAEJHHHH@Z PROC ; pecker_sdk::pecker_window_form<HDC__ *>::on_init_view, COMDAT
; _this$ = ecx

; 131  : 	{

	push	ebp
	mov	ebp, esp
	sub	esp, 204				; 000000ccH
	push	ebx
	push	esi
	push	edi
	push	ecx
	lea	edi, DWORD PTR [ebp-204]
	mov	ecx, 51					; 00000033H
	mov	eax, -858993460				; ccccccccH
	rep stosd
	pop	ecx
	mov	DWORD PTR _this$[ebp], ecx

; 132  : 		return 0;

	xor	eax, eax

; 133  : 	}

	pop	edi
	pop	esi
	pop	ebx
	mov	esp, ebp
	pop	ebp
	ret	16					; 00000010H
?on_init_view@?$pecker_window_form@PAUHDC__@@@pecker_sdk@@MAEJHHHH@Z ENDP ; pecker_sdk::pecker_window_form<HDC__ *>::on_init_view
; Function compile flags: /Odtp /RTCsu /ZI
_TEXT	ENDS
;	COMDAT ?on_resize_view@?$pecker_window_form@PAUHDC__@@@pecker_sdk@@MAEJHHHH@Z
_TEXT	SEGMENT
_this$ = -8						; size = 4
_x$ = 8							; size = 4
_y$ = 12						; size = 4
_width$ = 16						; size = 4
_height$ = 20						; size = 4
?on_resize_view@?$pecker_window_form@PAUHDC__@@@pecker_sdk@@MAEJHHHH@Z PROC ; pecker_sdk::pecker_window_form<HDC__ *>::on_resize_view, COMDAT
; _this$ = ecx

; 135  : 	{

	push	ebp
	mov	ebp, esp
	sub	esp, 204				; 000000ccH
	push	ebx
	push	esi
	push	edi
	push	ecx
	lea	edi, DWORD PTR [ebp-204]
	mov	ecx, 51					; 00000033H
	mov	eax, -858993460				; ccccccccH
	rep stosd
	pop	ecx
	mov	DWORD PTR _this$[ebp], ecx

; 136  : 		return 0;

	xor	eax, eax

; 137  : 	}

	pop	edi
	pop	esi
	pop	ebx
	mov	esp, ebp
	pop	ebp
	ret	16					; 00000010H
?on_resize_view@?$pecker_window_form@PAUHDC__@@@pecker_sdk@@MAEJHHHH@Z ENDP ; pecker_sdk::pecker_window_form<HDC__ *>::on_resize_view
; Function compile flags: /Odtp /RTCsu /ZI
_TEXT	ENDS
;	COMDAT ?on_draw_frame@?$pecker_window_form@PAUHDC__@@@pecker_sdk@@MAEJXZ
_TEXT	SEGMENT
_this$ = -8						; size = 4
?on_draw_frame@?$pecker_window_form@PAUHDC__@@@pecker_sdk@@MAEJXZ PROC ; pecker_sdk::pecker_window_form<HDC__ *>::on_draw_frame, COMDAT
; _this$ = ecx

; 139  : 	{

	push	ebp
	mov	ebp, esp
	sub	esp, 204				; 000000ccH
	push	ebx
	push	esi
	push	edi
	push	ecx
	lea	edi, DWORD PTR [ebp-204]
	mov	ecx, 51					; 00000033H
	mov	eax, -858993460				; ccccccccH
	rep stosd
	pop	ecx
	mov	DWORD PTR _this$[ebp], ecx

; 140  : 		return 0;

	xor	eax, eax

; 141  : 	}

	pop	edi
	pop	esi
	pop	ebx
	mov	esp, ebp
	pop	ebp
	ret	0
?on_draw_frame@?$pecker_window_form@PAUHDC__@@@pecker_sdk@@MAEJXZ ENDP ; pecker_sdk::pecker_window_form<HDC__ *>::on_draw_frame
; Function compile flags: /Odtp /RTCsu /ZI
_TEXT	ENDS
;	COMDAT ?on_next_frame@?$pecker_window_form@PAUHDC__@@@pecker_sdk@@MAEJH@Z
_TEXT	SEGMENT
_this$ = -8						; size = 4
_bswap_buffer$ = 8					; size = 4
?on_next_frame@?$pecker_window_form@PAUHDC__@@@pecker_sdk@@MAEJH@Z PROC ; pecker_sdk::pecker_window_form<HDC__ *>::on_next_frame, COMDAT
; _this$ = ecx

; 143  : 	{

	push	ebp
	mov	ebp, esp
	sub	esp, 204				; 000000ccH
	push	ebx
	push	esi
	push	edi
	push	ecx
	lea	edi, DWORD PTR [ebp-204]
	mov	ecx, 51					; 00000033H
	mov	eax, -858993460				; ccccccccH
	rep stosd
	pop	ecx
	mov	DWORD PTR _this$[ebp], ecx

; 144  : 		return 0;

	xor	eax, eax

; 145  : 	}

	pop	edi
	pop	esi
	pop	ebx
	mov	esp, ebp
	pop	ebp
	ret	4
?on_next_frame@?$pecker_window_form@PAUHDC__@@@pecker_sdk@@MAEJH@Z ENDP ; pecker_sdk::pecker_window_form<HDC__ *>::on_next_frame
; Function compile flags: /Odtp /RTCsu /ZI
_TEXT	ENDS
;	COMDAT ?on_parse_frame@?$pecker_window_form@PAUHDC__@@@pecker_sdk@@MAEJXZ
_TEXT	SEGMENT
_this$ = -8						; size = 4
?on_parse_frame@?$pecker_window_form@PAUHDC__@@@pecker_sdk@@MAEJXZ PROC ; pecker_sdk::pecker_window_form<HDC__ *>::on_parse_frame, COMDAT
; _this$ = ecx

; 147  : 	{

	push	ebp
	mov	ebp, esp
	sub	esp, 204				; 000000ccH
	push	ebx
	push	esi
	push	edi
	push	ecx
	lea	edi, DWORD PTR [ebp-204]
	mov	ecx, 51					; 00000033H
	mov	eax, -858993460				; ccccccccH
	rep stosd
	pop	ecx
	mov	DWORD PTR _this$[ebp], ecx

; 148  : 		return 0;

	xor	eax, eax

; 149  : 	}

	pop	edi
	pop	esi
	pop	ebx
	mov	esp, ebp
	pop	ebp
	ret	0
?on_parse_frame@?$pecker_window_form@PAUHDC__@@@pecker_sdk@@MAEJXZ ENDP ; pecker_sdk::pecker_window_form<HDC__ *>::on_parse_frame
; Function compile flags: /Odtp /RTCsu /ZI
_TEXT	ENDS
;	COMDAT ?on_close_frame@?$pecker_window_form@PAUHDC__@@@pecker_sdk@@MAEJXZ
_TEXT	SEGMENT
_this$ = -8						; size = 4
?on_close_frame@?$pecker_window_form@PAUHDC__@@@pecker_sdk@@MAEJXZ PROC ; pecker_sdk::pecker_window_form<HDC__ *>::on_close_frame, COMDAT
; _this$ = ecx

; 151  : 	{

	push	ebp
	mov	ebp, esp
	sub	esp, 204				; 000000ccH
	push	ebx
	push	esi
	push	edi
	push	ecx
	lea	edi, DWORD PTR [ebp-204]
	mov	ecx, 51					; 00000033H
	mov	eax, -858993460				; ccccccccH
	rep stosd
	pop	ecx
	mov	DWORD PTR _this$[ebp], ecx

; 152  : 		return 0;

	xor	eax, eax

; 153  : 	}

	pop	edi
	pop	esi
	pop	ebx
	mov	esp, ebp
	pop	ebp
	ret	0
?on_close_frame@?$pecker_window_form@PAUHDC__@@@pecker_sdk@@MAEJXZ ENDP ; pecker_sdk::pecker_window_form<HDC__ *>::on_close_frame
; Function compile flags: /Odtp /RTCsu /ZI
_TEXT	ENDS
;	COMDAT ?on_resume_frame@?$pecker_window_form@PAUHDC__@@@pecker_sdk@@MAEJXZ
_TEXT	SEGMENT
_this$ = -8						; size = 4
?on_resume_frame@?$pecker_window_form@PAUHDC__@@@pecker_sdk@@MAEJXZ PROC ; pecker_sdk::pecker_window_form<HDC__ *>::on_resume_frame, COMDAT
; _this$ = ecx

; 155  : 	{

	push	ebp
	mov	ebp, esp
	sub	esp, 204				; 000000ccH
	push	ebx
	push	esi
	push	edi
	push	ecx
	lea	edi, DWORD PTR [ebp-204]
	mov	ecx, 51					; 00000033H
	mov	eax, -858993460				; ccccccccH
	rep stosd
	pop	ecx
	mov	DWORD PTR _this$[ebp], ecx

; 156  : 		return 0;

	xor	eax, eax

; 157  : 	}

	pop	edi
	pop	esi
	pop	ebx
	mov	esp, ebp
	pop	ebp
	ret	0
?on_resume_frame@?$pecker_window_form@PAUHDC__@@@pecker_sdk@@MAEJXZ ENDP ; pecker_sdk::pecker_window_form<HDC__ *>::on_resume_frame
_TEXT	ENDS
PUBLIC	?deallocate_objects@?$pecker_simple_allocator@D@pecker_sdk@@SAXPAD@Z ; pecker_sdk::pecker_simple_allocator<char>::deallocate_objects
; Function compile flags: /Odtp /RTCsu /ZI
; File f:\codes\pecker_framework_git\pecker_src\pecker_framework\data\pecker_string.h
;	COMDAT ?clear@?$pecker_share_string_base_t@DU?$pecker_value_compare@D@pecker_sdk@@V?$pecker_simple_allocator@D@2@$0BA@@pecker_sdk@@QAEJXZ
_TEXT	SEGMENT
_this$ = -8						; size = 4
?clear@?$pecker_share_string_base_t@DU?$pecker_value_compare@D@pecker_sdk@@V?$pecker_simple_allocator@D@2@$0BA@@pecker_sdk@@QAEJXZ PROC ; pecker_sdk::pecker_share_string_base_t<char,pecker_sdk::pecker_value_compare<char>,pecker_sdk::pecker_simple_allocator<char>,16>::clear, COMDAT
; _this$ = ecx

; 200  : 	{

	push	ebp
	mov	ebp, esp
	sub	esp, 204				; 000000ccH
	push	ebx
	push	esi
	push	edi
	push	ecx
	lea	edi, DWORD PTR [ebp-204]
	mov	ecx, 51					; 00000033H
	mov	eax, -858993460				; ccccccccH
	rep stosd
	pop	ecx
	mov	DWORD PTR _this$[ebp], ecx

; 201  : 		if (_M_string_buffer_size > _BUFFER_SIZE)

	mov	eax, DWORD PTR _this$[ebp]
	cmp	DWORD PTR [eax+20], 16			; 00000010H
	jle	SHORT $LN4@clear

; 202  : 		{
; 203  : 			if (null == _M_shared_buffer_next_string && null == _M_shared_buffer_pre_string)

	mov	eax, DWORD PTR _this$[ebp]
	cmp	DWORD PTR [eax+32], 0
	jne	SHORT $LN3@clear
	mov	eax, DWORD PTR _this$[ebp]
	cmp	DWORD PTR [eax+28], 0
	jne	SHORT $LN3@clear

; 204  : 			{
; 205  : 				allocate_object_t::deallocate_objects(_M_pstring_data_header._Large_buffer);

	mov	eax, DWORD PTR _this$[ebp]
	mov	ecx, DWORD PTR [eax]
	push	ecx
	call	?deallocate_objects@?$pecker_simple_allocator@D@pecker_sdk@@SAXPAD@Z ; pecker_sdk::pecker_simple_allocator<char>::deallocate_objects
	add	esp, 4
$LN3@clear:

; 206  : 			}
; 207  : 
; 208  : 			if (null != _M_shared_buffer_pre_string)

	mov	eax, DWORD PTR _this$[ebp]
	cmp	DWORD PTR [eax+28], 0
	je	SHORT $LN2@clear

; 209  : 			{
; 210  : 				_M_shared_buffer_pre_string->_M_shared_buffer_next_string = _M_shared_buffer_next_string;

	mov	eax, DWORD PTR _this$[ebp]
	mov	ecx, DWORD PTR [eax+28]
	mov	edx, DWORD PTR _this$[ebp]
	mov	eax, DWORD PTR [edx+32]
	mov	DWORD PTR [ecx+32], eax

; 211  : 				_M_shared_buffer_pre_string = null;

	mov	eax, DWORD PTR _this$[ebp]
	mov	DWORD PTR [eax+28], 0
$LN2@clear:

; 212  : 			}
; 213  : 
; 214  : 			if (null != _M_shared_buffer_next_string)

	mov	eax, DWORD PTR _this$[ebp]
	cmp	DWORD PTR [eax+32], 0
	je	SHORT $LN1@clear

; 215  : 			{
; 216  : 				_M_shared_buffer_next_string->_M_shared_buffer_pre_string = _M_shared_buffer_pre_string;

	mov	eax, DWORD PTR _this$[ebp]
	mov	ecx, DWORD PTR [eax+32]
	mov	edx, DWORD PTR _this$[ebp]
	mov	eax, DWORD PTR [edx+28]
	mov	DWORD PTR [ecx+28], eax

; 217  : 				_M_shared_buffer_next_string = null;

	mov	eax, DWORD PTR _this$[ebp]
	mov	DWORD PTR [eax+32], 0
$LN1@clear:

; 218  : 			}
; 219  : 
; 220  : 			_M_string_buffer_size = _BUFFER_SIZE;	

	mov	eax, DWORD PTR _this$[ebp]
	mov	DWORD PTR [eax+20], 16			; 00000010H
$LN4@clear:

; 221  : 		}
; 222  : 
; 223  : 		_M_pthis_string_data = _M_pstring_data_header._Small_buffer;

	mov	eax, DWORD PTR _this$[ebp]
	mov	ecx, DWORD PTR _this$[ebp]
	mov	DWORD PTR [eax+16], ecx

; 224  : 		_M_string_length = 0;

	mov	eax, DWORD PTR _this$[ebp]
	mov	DWORD PTR [eax+24], 0

; 225  : 
; 226  : 		return P_OK;

	xor	eax, eax

; 227  : 
; 228  : 	}

	pop	edi
	pop	esi
	pop	ebx
	add	esp, 204				; 000000ccH
	cmp	ebp, esp
	call	__RTC_CheckEsp
	mov	esp, ebp
	pop	ebp
	ret	0
?clear@?$pecker_share_string_base_t@DU?$pecker_value_compare@D@pecker_sdk@@V?$pecker_simple_allocator@D@2@$0BA@@pecker_sdk@@QAEJXZ ENDP ; pecker_sdk::pecker_share_string_base_t<char,pecker_sdk::pecker_value_compare<char>,pecker_sdk::pecker_simple_allocator<char>,16>::clear
_TEXT	ENDS
EXTRN	??_V@YAXPAX@Z:PROC				; operator delete[]
; Function compile flags: /Odtp /RTCsu /ZI
; File f:\codes\pecker_framework_git\pecker_src\pecker_framework\native\pecker_allocator.h
;	COMDAT ?deallocate_objects@?$pecker_simple_allocator@D@pecker_sdk@@SAXPAD@Z
_TEXT	SEGMENT
$T68298 = -200						; size = 4
_pDelObject$ = 8					; size = 4
?deallocate_objects@?$pecker_simple_allocator@D@pecker_sdk@@SAXPAD@Z PROC ; pecker_sdk::pecker_simple_allocator<char>::deallocate_objects, COMDAT

; 54   : 		{

	push	ebp
	mov	ebp, esp
	sub	esp, 204				; 000000ccH
	push	ebx
	push	esi
	push	edi
	lea	edi, DWORD PTR [ebp-204]
	mov	ecx, 51					; 00000033H
	mov	eax, -858993460				; ccccccccH
	rep stosd

; 55   : 			if(null != pDelObject)

	cmp	DWORD PTR _pDelObject$[ebp], 0
	je	SHORT $LN2@deallocate

; 56   : 			{
; 57   : 				delete [] pDelObject;

	mov	eax, DWORD PTR _pDelObject$[ebp]
	mov	DWORD PTR $T68298[ebp], eax
	mov	ecx, DWORD PTR $T68298[ebp]
	push	ecx
	call	??_V@YAXPAX@Z				; operator delete[]
	add	esp, 4
$LN2@deallocate:

; 58   : 			}
; 59   : 		}

	pop	edi
	pop	esi
	pop	ebx
	add	esp, 204				; 000000ccH
	cmp	ebp, esp
	call	__RTC_CheckEsp
	mov	esp, ebp
	pop	ebp
	ret	0
?deallocate_objects@?$pecker_simple_allocator@D@pecker_sdk@@SAXPAD@Z ENDP ; pecker_sdk::pecker_simple_allocator<char>::deallocate_objects
_TEXT	ENDS
END
